 guideXOS

 Timestamp is 66e5f13f (Sat Sep 14 13:25:35 2024)

 Preferred load address is 0000000010000000

 Start         Length     Name                   Class
 0001:00000000 00000240H .text                   CODE
 0001:00000240 00020751H .text$mn                CODE
 0002:00000000 00000021H .unbox$M                CODE
 0003:00000000 0001b817H .managedcode$I          CODE
 0004:00000000 00007c80H .rdata                  DATA
 0004:00007c80 00000034H .rdata$voltmd           DATA
 0004:00007cb4 00000194H .rdata$zzzdbg           DATA
 0004:00007e48 000048acH .xdata                  DATA
 0004:0000c6f4 00000000H .edata                  DATA
 0005:00000000 0001cb20H .data                   DATA
 0005:0001cb20 001005a0H .bss                    DATA
 0006:00000000 00002070H .pdata                  DATA
 0007:00000000 00000008H .modules$I              DATA
 0008:00000000 0000006eH .msvcjmc                DATA
 0009:00000000 000000a0H .rsrc$01                DATA
 0009:000000a0 00000440H .rsrc$02                DATA

  Address         Publics by Value              Rva+Base               Lib:Object

 0000:00000000       __AbsoluteZero             0000000000000000     <absolute>
 0000:00000000       ___safe_se_handler_count   0000000000000000     <absolute>
 0000:00000000       ___safe_se_handler_table   0000000000000000     <absolute>
 0000:00000000       __arm64x_extra_rfe_table   0000000000000000     <absolute>
 0000:00000000       __arm64x_extra_rfe_table_size 0000000000000000     <absolute>
 0000:00000000       __arm64x_native_entrypoint 0000000000000000     <absolute>
 0000:00000000       __arm64x_redirection_metadata 0000000000000000     <absolute>
 0000:00000000       __arm64x_redirection_metadata_count 0000000000000000     <absolute>
 0000:00000000       __dynamic_value_reloc_table 0000000000000000     <absolute>
 0000:00000000       __enclave_config           0000000000000000     <absolute>
 0000:00000000       __guard_check_icall_a64n_fptr 0000000000000000     <absolute>
 0000:00000000       __guard_eh_cont_count      0000000000000000     <absolute>
 0000:00000000       __guard_eh_cont_table      0000000000000000     <absolute>
 0000:00000000       __guard_fids_count         0000000000000000     <absolute>
 0000:00000000       __guard_fids_table         0000000000000000     <absolute>
 0000:00000000       __guard_iat_count          0000000000000000     <absolute>
 0000:00000000       __guard_iat_table          0000000000000000     <absolute>
 0000:00000000       __guard_longjmp_count      0000000000000000     <absolute>
 0000:00000000       __guard_longjmp_table      0000000000000000     <absolute>
 0000:00000000       __hybrid_auxiliary_delayload_iat 0000000000000000     <absolute>
 0000:00000000       __hybrid_auxiliary_delayload_iat_copy 0000000000000000     <absolute>
 0000:00000000       __hybrid_auxiliary_iat     0000000000000000     <absolute>
 0000:00000000       __hybrid_auxiliary_iat_copy 0000000000000000     <absolute>
 0000:00000000       __hybrid_code_map          0000000000000000     <absolute>
 0000:00000000       __hybrid_code_map_count    0000000000000000     <absolute>
 0000:00000000       __hybrid_image_info_bitfield 0000000000000000     <absolute>
 0000:00000000       __x64_code_ranges_to_entry_points 0000000000000000     <absolute>
 0000:00000000       __x64_code_ranges_to_entry_points_count 0000000000000000     <absolute>
 0000:00000100       __guard_flags              0000000000000100     <absolute>
 0000:00000000       __ImageBase                0000000010000000     <linker-defined>
 0001:00000000       __GetNonGCStaticBase_guideXOS_Program 0000000010001000     guideXOS.obj
 0001:00000008       __GetNonGCStaticBase_guideXOS_Allocator 0000000010001008     guideXOS.obj
 0001:00000010       __GetNonGCStaticBase_guideXOS_GDT 0000000010001010     guideXOS.obj
 0001:00000018       __GetNonGCStaticBase_guideXOS_IDT 0000000010001018     guideXOS.obj
 0001:00000020       __GetNonGCStaticBase_guideXOS_System_Windows_Forms_Control 0000000010001020     guideXOS.obj
 0001:00000028       __GetNonGCStaticBase_guideXOS_guideXOS_Kbd2Mouse 0000000010001028     guideXOS.obj
 0001:00000030       __GetNonGCStaticBase_guideXOS_guideXOS_Console 0000000010001030     guideXOS.obj
 0001:00000038       __GetNonGCStaticBase_guideXOS_guideXOS_FPSMeter 0000000010001038     guideXOS.obj
 0001:00000040       __GetNonGCStaticBase_guideXOS_guideXOS_PageTable 0000000010001040     guideXOS.obj
 0001:00000048       __GetNonGCStaticBase_guideXOS_guideXOS_SMP 0000000010001048     guideXOS.obj
 0001:00000050       __GetNonGCStaticBase_guideXOS_guideXOS_Misc_Audio 0000000010001050     guideXOS.obj
 0001:00000058       __GetNonGCStaticBase_guideXOS_guideXOS_Misc_ThreadPool 0000000010001058     guideXOS.obj
 0001:00000060       __GetNonGCStaticBase_guideXOS_guideXOS_Misc_USB 0000000010001060     guideXOS.obj
 0001:00000068       __GetNonGCStaticBase_guideXOS_guideXOS_Kernel_Drivers_AC97 0000000010001068     guideXOS.obj
 0001:00000070       __GetNonGCStaticBase_guideXOS_guideXOS_Kernel_Drivers_ACPI 0000000010001070     guideXOS.obj
 0001:00000078       __GetNonGCStaticBase_guideXOS_guideXOS_Kernel_Drivers_EHCI 0000000010001078     guideXOS.obj
 0001:00000080       __GetNonGCStaticBase_guideXOS_guideXOS_Kernel_Drivers_ES1371 0000000010001080     guideXOS.obj
 0001:00000088       __GetNonGCStaticBase_guideXOS_guideXOS_Kernel_Drivers_Framebuffer 0000000010001088     guideXOS.obj
 0001:00000090       __GetNonGCStaticBase_guideXOS_guideXOS_Kernel_Drivers_HID 0000000010001090     guideXOS.obj
 0001:00000098       __GetNonGCStaticBase_guideXOS_guideXOS_Kernel_Drivers_HPET 0000000010001098     guideXOS.obj
 0001:000000a0       __GetNonGCStaticBase_guideXOS_guideXOS_Kernel_Drivers_Hub 00000000100010a0     guideXOS.obj
 0001:000000a8       __GetNonGCStaticBase_guideXOS_guideXOS_Kernel_Drivers_Keyboard 00000000100010a8     guideXOS.obj
 0001:000000b0       __GetNonGCStaticBase_guideXOS_guideXOS_Kernel_Drivers_PS2Mouse 00000000100010b0     guideXOS.obj
 0001:000000b8       __GetNonGCStaticBase_guideXOS_guideXOS_Kernel_Drivers_RTC 00000000100010b8     guideXOS.obj
 0001:000000c0       __GetNonGCStaticBase_guideXOS_guideXOS_Kernel_Drivers_SATA 00000000100010c0     guideXOS.obj
 0001:000000c8       __GetNonGCStaticBase_guideXOS_guideXOS_Kernel_Drivers_Timer 00000000100010c8     guideXOS.obj
 0001:000000d0       __GetNonGCStaticBase_guideXOS_guideXOS_Kernel_Drivers_VMwareTools 00000000100010d0     guideXOS.obj
 0001:000000d8       __GetNonGCStaticBase_guideXOS_guideXOS_GUI_Desktop 00000000100010d8     guideXOS.obj
 0001:000000e0       __GetNonGCStaticBase_guideXOS_guideXOS_GUI_StartMenu 00000000100010e0     guideXOS.obj
 0001:000000e8       __GetNonGCStaticBase_guideXOS_guideXOS_GUI_WAVPlayer 00000000100010e8     guideXOS.obj
 0001:000000f0       __GetNonGCStaticBase_guideXOS_guideXOS_GUI_WindowManager 00000000100010f0     guideXOS.obj
 0001:000000f8       __GetGCStaticBase_guideXOS_Program 00000000100010f8     guideXOS.obj
 0001:00000103       __GetGCStaticBase_guideXOS_IDT 0000000010001103     guideXOS.obj
 0001:0000010e       __GetGCStaticBase_guideXOS_System_DateTime 000000001000110e     guideXOS.obj
 0001:00000119       __GetGCStaticBase_guideXOS_guideXOS_Animator 0000000010001119     guideXOS.obj
 0001:00000124       __GetGCStaticBase_guideXOS_guideXOS_ASC16 0000000010001124     guideXOS.obj
 0001:0000012f       __GetGCStaticBase_guideXOS_guideXOS_Console 000000001000112f     guideXOS.obj
 0001:0000013a       __GetGCStaticBase_guideXOS_guideXOS_Misc_BitFont 000000001000113a     guideXOS.obj
 0001:00000145       __GetGCStaticBase_guideXOS_guideXOS_Misc_Interrupts 0000000010001145     guideXOS.obj
 0001:00000150       __GetGCStaticBase_guideXOS_guideXOS_Misc_ThreadPool 0000000010001150     guideXOS.obj
 0001:0000015b       __GetGCStaticBase_guideXOS_guideXOS_FS_Disk 000000001000115b     guideXOS.obj
 0001:00000166       __GetGCStaticBase_guideXOS_guideXOS_FS_File 0000000010001166     guideXOS.obj
 0001:00000171       __GetGCStaticBase_guideXOS_guideXOS_Kernel_Drivers_AC97 0000000010001171     guideXOS.obj
 0001:0000017c       __GetGCStaticBase_guideXOS_guideXOS_Kernel_Drivers_ACPI 000000001000117c     guideXOS.obj
 0001:00000187       __GetGCStaticBase_guideXOS_guideXOS_Kernel_Drivers_Framebuffer 0000000010001187     guideXOS.obj
 0001:00000192       __GetGCStaticBase_guideXOS_guideXOS_Kernel_Drivers_HID 0000000010001192     guideXOS.obj
 0001:0000019d       __GetGCStaticBase_guideXOS_guideXOS_Kernel_Drivers_IDE 000000001000119d     guideXOS.obj
 0001:000001a8       __GetGCStaticBase_guideXOS_guideXOS_Kernel_Drivers_Keyboard 00000000100011a8     guideXOS.obj
 0001:000001b3       __GetGCStaticBase_guideXOS_guideXOS_Kernel_Drivers_PCI 00000000100011b3     guideXOS.obj
 0001:000001be       __GetGCStaticBase_guideXOS_guideXOS_Kernel_Drivers_PS2Keyboard 00000000100011be     guideXOS.obj
 0001:000001c9       __GetGCStaticBase_guideXOS_guideXOS_Kernel_Drivers_PS2Mouse 00000000100011c9     guideXOS.obj
 0001:000001d4       __GetGCStaticBase_guideXOS_guideXOS_Kernel_Drivers_SATA 00000000100011d4     guideXOS.obj
 0001:000001df       __GetGCStaticBase_guideXOS_guideXOS_GUI_Desktop 00000000100011df     guideXOS.obj
 0001:000001ea       __GetGCStaticBase_guideXOS_guideXOS_GUI_Lockscreen 00000000100011ea     guideXOS.obj
 0001:000001f5       __GetGCStaticBase_guideXOS_guideXOS_GUI_NotificationManager 00000000100011f5     guideXOS.obj
 0001:00000200       __GetGCStaticBase_guideXOS_guideXOS_GUI_WAVPlayer 0000000010001200     guideXOS.obj
 0001:0000020b       __GetGCStaticBase_guideXOS_guideXOS_GUI_WindowManager 000000001000120b     guideXOS.obj
 0001:00000216       __GetGCStaticBase_guideXOS_guideXOS_DefaultApps_Clock 0000000010001216     guideXOS.obj
 0001:00000221       __DelegateCtor_guideXOS_System_Delegate__InitializeClosedInstance__guideXOS_guideXOS_GUI_FConsole__Keyboard_OnKeyChanged 0000000010001221     guideXOS.obj
 0001:0000022d       __DelegateCtor_guideXOS_System_Delegate__InitializeClosedInstance__guideXOS_guideXOS_GUI_FConsole__Console_OnWrite 000000001000122d     guideXOS.obj
 0001:00000240       Movsb                      0000000010001240 f   NativeLib:mem.obj
 0001:00000280       Movsd                      0000000010001280 f   NativeLib:mem.obj
 0001:000002c0       Stosb                      00000000100012c0 f   NativeLib:mem.obj
 0001:00000310       Stosd                      0000000010001310 f   NativeLib:mem.obj
 0001:00000360       __JustMyCode_Default       0000000010001360 f i NativeLib:mem.obj
 0001:00000370       avx_memcpy                 0000000010001370 f   NativeLib:mem.obj
 0001:00000470       Load_GDT                   0000000010001470 f   NativeLib:interrupts.obj
 0001:000004a0       idt_set                    00000000100014a0 f   NativeLib:interrupts.obj
 0001:00000580       set_idt_entries            0000000010001580 f   NativeLib:interrupts.obj
 0001:000024a0       CPUID                      00000000100034a0 f   NativeLib:native.obj
 0001:000024f0       Cli                        00000000100034f0 f   NativeLib:native.obj
 0001:00002520       Fxrstor64                  0000000010003520 f   NativeLib:native.obj
 0001:00002550       Fxsave64                   0000000010003550 f   NativeLib:native.obj
 0001:00002580       Hlt                        0000000010003580 f   NativeLib:native.obj
 0001:000025b0       Invlpg                     00000000100035b0 f   NativeLib:native.obj
 0001:000025e0       Nop                        00000000100035e0 f   NativeLib:native.obj
 0001:00002600       Rdmsr                      0000000010003600 f   NativeLib:native.obj
 0001:00002630       Rdtsc                      0000000010003630 f   NativeLib:native.obj
 0001:00002660       ReadCR2                    0000000010003660 f   NativeLib:native.obj
 0001:00002680       Sti                        0000000010003680 f   NativeLib:native.obj
 0001:000026b0       WriteCR3                   00000000100036b0 f   NativeLib:native.obj
 0001:000026e0       Wrmsr                      00000000100036e0 f   NativeLib:native.obj
 0001:00002720       intr0                      0000000010003720 f   NativeLib:interrupts_asm.obj
 0001:00002762       intr1                      0000000010003762 f   NativeLib:interrupts_asm.obj
 0001:000027a4       intr2                      00000000100037a4 f   NativeLib:interrupts_asm.obj
 0001:000027e6       intr3                      00000000100037e6 f   NativeLib:interrupts_asm.obj
 0001:00002828       intr4                      0000000010003828 f   NativeLib:interrupts_asm.obj
 0001:0000286a       intr5                      000000001000386a f   NativeLib:interrupts_asm.obj
 0001:000028ac       intr6                      00000000100038ac f   NativeLib:interrupts_asm.obj
 0001:000028ee       intr7                      00000000100038ee f   NativeLib:interrupts_asm.obj
 0001:00002930       intr8                      0000000010003930 f   NativeLib:interrupts_asm.obj
 0001:00002972       intr9                      0000000010003972 f   NativeLib:interrupts_asm.obj
 0001:000029b4       intr10                     00000000100039b4 f   NativeLib:interrupts_asm.obj
 0001:000029f6       intr11                     00000000100039f6 f   NativeLib:interrupts_asm.obj
 0001:00002a38       intr12                     0000000010003a38 f   NativeLib:interrupts_asm.obj
 0001:00002a7a       intr13                     0000000010003a7a f   NativeLib:interrupts_asm.obj
 0001:00002abc       intr14                     0000000010003abc f   NativeLib:interrupts_asm.obj
 0001:00002afe       intr15                     0000000010003afe f   NativeLib:interrupts_asm.obj
 0001:00002b40       intr16                     0000000010003b40 f   NativeLib:interrupts_asm.obj
 0001:00002b82       intr17                     0000000010003b82 f   NativeLib:interrupts_asm.obj
 0001:00002bc4       intr18                     0000000010003bc4 f   NativeLib:interrupts_asm.obj
 0001:00002c06       intr19                     0000000010003c06 f   NativeLib:interrupts_asm.obj
 0001:00002c48       intr20                     0000000010003c48 f   NativeLib:interrupts_asm.obj
 0001:00002c8a       intr21                     0000000010003c8a f   NativeLib:interrupts_asm.obj
 0001:00002ccc       intr22                     0000000010003ccc f   NativeLib:interrupts_asm.obj
 0001:00002d0e       intr23                     0000000010003d0e f   NativeLib:interrupts_asm.obj
 0001:00002d50       intr24                     0000000010003d50 f   NativeLib:interrupts_asm.obj
 0001:00002d92       intr25                     0000000010003d92 f   NativeLib:interrupts_asm.obj
 0001:00002dd4       intr26                     0000000010003dd4 f   NativeLib:interrupts_asm.obj
 0001:00002e16       intr27                     0000000010003e16 f   NativeLib:interrupts_asm.obj
 0001:00002e58       intr28                     0000000010003e58 f   NativeLib:interrupts_asm.obj
 0001:00002e9a       intr29                     0000000010003e9a f   NativeLib:interrupts_asm.obj
 0001:00002edc       intr30                     0000000010003edc f   NativeLib:interrupts_asm.obj
 0001:00002f1e       intr31                     0000000010003f1e f   NativeLib:interrupts_asm.obj
 0001:00002f60       intr32                     0000000010003f60 f   NativeLib:interrupts_asm.obj
 0001:00002fa2       intr33                     0000000010003fa2 f   NativeLib:interrupts_asm.obj
 0001:00002fe4       intr34                     0000000010003fe4 f   NativeLib:interrupts_asm.obj
 0001:00003026       intr35                     0000000010004026 f   NativeLib:interrupts_asm.obj
 0001:00003068       intr36                     0000000010004068 f   NativeLib:interrupts_asm.obj
 0001:000030aa       intr37                     00000000100040aa f   NativeLib:interrupts_asm.obj
 0001:000030ec       intr38                     00000000100040ec f   NativeLib:interrupts_asm.obj
 0001:0000312e       intr39                     000000001000412e f   NativeLib:interrupts_asm.obj
 0001:00003170       intr40                     0000000010004170 f   NativeLib:interrupts_asm.obj
 0001:000031b2       intr41                     00000000100041b2 f   NativeLib:interrupts_asm.obj
 0001:000031f4       intr42                     00000000100041f4 f   NativeLib:interrupts_asm.obj
 0001:00003236       intr43                     0000000010004236 f   NativeLib:interrupts_asm.obj
 0001:00003278       intr44                     0000000010004278 f   NativeLib:interrupts_asm.obj
 0001:000032ba       intr45                     00000000100042ba f   NativeLib:interrupts_asm.obj
 0001:000032fc       intr46                     00000000100042fc f   NativeLib:interrupts_asm.obj
 0001:0000333e       intr47                     000000001000433e f   NativeLib:interrupts_asm.obj
 0001:00003380       intr48                     0000000010004380 f   NativeLib:interrupts_asm.obj
 0001:000033c2       intr49                     00000000100043c2 f   NativeLib:interrupts_asm.obj
 0001:00003404       intr50                     0000000010004404 f   NativeLib:interrupts_asm.obj
 0001:00003446       intr51                     0000000010004446 f   NativeLib:interrupts_asm.obj
 0001:00003488       intr52                     0000000010004488 f   NativeLib:interrupts_asm.obj
 0001:000034ca       intr53                     00000000100044ca f   NativeLib:interrupts_asm.obj
 0001:0000350c       intr54                     000000001000450c f   NativeLib:interrupts_asm.obj
 0001:0000354e       intr55                     000000001000454e f   NativeLib:interrupts_asm.obj
 0001:00003590       intr56                     0000000010004590 f   NativeLib:interrupts_asm.obj
 0001:000035d2       intr57                     00000000100045d2 f   NativeLib:interrupts_asm.obj
 0001:00003614       intr58                     0000000010004614 f   NativeLib:interrupts_asm.obj
 0001:00003656       intr59                     0000000010004656 f   NativeLib:interrupts_asm.obj
 0001:00003698       intr60                     0000000010004698 f   NativeLib:interrupts_asm.obj
 0001:000036da       intr61                     00000000100046da f   NativeLib:interrupts_asm.obj
 0001:0000371c       intr62                     000000001000471c f   NativeLib:interrupts_asm.obj
 0001:0000375e       intr63                     000000001000475e f   NativeLib:interrupts_asm.obj
 0001:000037a0       intr64                     00000000100047a0 f   NativeLib:interrupts_asm.obj
 0001:000037e2       intr65                     00000000100047e2 f   NativeLib:interrupts_asm.obj
 0001:00003824       intr66                     0000000010004824 f   NativeLib:interrupts_asm.obj
 0001:00003866       intr67                     0000000010004866 f   NativeLib:interrupts_asm.obj
 0001:000038a8       intr68                     00000000100048a8 f   NativeLib:interrupts_asm.obj
 0001:000038ea       intr69                     00000000100048ea f   NativeLib:interrupts_asm.obj
 0001:0000392c       intr70                     000000001000492c f   NativeLib:interrupts_asm.obj
 0001:0000396e       intr71                     000000001000496e f   NativeLib:interrupts_asm.obj
 0001:000039b0       intr72                     00000000100049b0 f   NativeLib:interrupts_asm.obj
 0001:000039f2       intr73                     00000000100049f2 f   NativeLib:interrupts_asm.obj
 0001:00003a34       intr74                     0000000010004a34 f   NativeLib:interrupts_asm.obj
 0001:00003a76       intr75                     0000000010004a76 f   NativeLib:interrupts_asm.obj
 0001:00003ab8       intr76                     0000000010004ab8 f   NativeLib:interrupts_asm.obj
 0001:00003afa       intr77                     0000000010004afa f   NativeLib:interrupts_asm.obj
 0001:00003b3c       intr78                     0000000010004b3c f   NativeLib:interrupts_asm.obj
 0001:00003b7e       intr79                     0000000010004b7e f   NativeLib:interrupts_asm.obj
 0001:00003bc0       intr80                     0000000010004bc0 f   NativeLib:interrupts_asm.obj
 0001:00003c02       intr81                     0000000010004c02 f   NativeLib:interrupts_asm.obj
 0001:00003c44       intr82                     0000000010004c44 f   NativeLib:interrupts_asm.obj
 0001:00003c86       intr83                     0000000010004c86 f   NativeLib:interrupts_asm.obj
 0001:00003cc8       intr84                     0000000010004cc8 f   NativeLib:interrupts_asm.obj
 0001:00003d0a       intr85                     0000000010004d0a f   NativeLib:interrupts_asm.obj
 0001:00003d4c       intr86                     0000000010004d4c f   NativeLib:interrupts_asm.obj
 0001:00003d8e       intr87                     0000000010004d8e f   NativeLib:interrupts_asm.obj
 0001:00003dd0       intr88                     0000000010004dd0 f   NativeLib:interrupts_asm.obj
 0001:00003e12       intr89                     0000000010004e12 f   NativeLib:interrupts_asm.obj
 0001:00003e54       intr90                     0000000010004e54 f   NativeLib:interrupts_asm.obj
 0001:00003e96       intr91                     0000000010004e96 f   NativeLib:interrupts_asm.obj
 0001:00003ed8       intr92                     0000000010004ed8 f   NativeLib:interrupts_asm.obj
 0001:00003f1a       intr93                     0000000010004f1a f   NativeLib:interrupts_asm.obj
 0001:00003f5c       intr94                     0000000010004f5c f   NativeLib:interrupts_asm.obj
 0001:00003f9e       intr95                     0000000010004f9e f   NativeLib:interrupts_asm.obj
 0001:00003fe0       intr96                     0000000010004fe0 f   NativeLib:interrupts_asm.obj
 0001:00004022       intr97                     0000000010005022 f   NativeLib:interrupts_asm.obj
 0001:00004064       intr98                     0000000010005064 f   NativeLib:interrupts_asm.obj
 0001:000040a6       intr99                     00000000100050a6 f   NativeLib:interrupts_asm.obj
 0001:000040e8       intr100                    00000000100050e8 f   NativeLib:interrupts_asm.obj
 0001:0000412a       intr101                    000000001000512a f   NativeLib:interrupts_asm.obj
 0001:0000416c       intr102                    000000001000516c f   NativeLib:interrupts_asm.obj
 0001:000041ae       intr103                    00000000100051ae f   NativeLib:interrupts_asm.obj
 0001:000041f0       intr104                    00000000100051f0 f   NativeLib:interrupts_asm.obj
 0001:00004232       intr105                    0000000010005232 f   NativeLib:interrupts_asm.obj
 0001:00004274       intr106                    0000000010005274 f   NativeLib:interrupts_asm.obj
 0001:000042b6       intr107                    00000000100052b6 f   NativeLib:interrupts_asm.obj
 0001:000042f8       intr108                    00000000100052f8 f   NativeLib:interrupts_asm.obj
 0001:0000433a       intr109                    000000001000533a f   NativeLib:interrupts_asm.obj
 0001:0000437c       intr110                    000000001000537c f   NativeLib:interrupts_asm.obj
 0001:000043be       intr111                    00000000100053be f   NativeLib:interrupts_asm.obj
 0001:00004400       intr112                    0000000010005400 f   NativeLib:interrupts_asm.obj
 0001:00004442       intr113                    0000000010005442 f   NativeLib:interrupts_asm.obj
 0001:00004484       intr114                    0000000010005484 f   NativeLib:interrupts_asm.obj
 0001:000044c6       intr115                    00000000100054c6 f   NativeLib:interrupts_asm.obj
 0001:00004508       intr116                    0000000010005508 f   NativeLib:interrupts_asm.obj
 0001:0000454a       intr117                    000000001000554a f   NativeLib:interrupts_asm.obj
 0001:0000458c       intr118                    000000001000558c f   NativeLib:interrupts_asm.obj
 0001:000045ce       intr119                    00000000100055ce f   NativeLib:interrupts_asm.obj
 0001:00004610       intr120                    0000000010005610 f   NativeLib:interrupts_asm.obj
 0001:00004652       intr121                    0000000010005652 f   NativeLib:interrupts_asm.obj
 0001:00004694       intr122                    0000000010005694 f   NativeLib:interrupts_asm.obj
 0001:000046d6       intr123                    00000000100056d6 f   NativeLib:interrupts_asm.obj
 0001:00004718       intr124                    0000000010005718 f   NativeLib:interrupts_asm.obj
 0001:0000475a       intr125                    000000001000575a f   NativeLib:interrupts_asm.obj
 0001:0000479c       intr126                    000000001000579c f   NativeLib:interrupts_asm.obj
 0001:000047de       intr127                    00000000100057de f   NativeLib:interrupts_asm.obj
 0001:00004820       intr128                    0000000010005820 f   NativeLib:interrupts_asm.obj
 0001:00004862       intr129                    0000000010005862 f   NativeLib:interrupts_asm.obj
 0001:000048a4       intr130                    00000000100058a4 f   NativeLib:interrupts_asm.obj
 0001:000048e6       intr131                    00000000100058e6 f   NativeLib:interrupts_asm.obj
 0001:00004928       intr132                    0000000010005928 f   NativeLib:interrupts_asm.obj
 0001:0000496a       intr133                    000000001000596a f   NativeLib:interrupts_asm.obj
 0001:000049ac       intr134                    00000000100059ac f   NativeLib:interrupts_asm.obj
 0001:000049ee       intr135                    00000000100059ee f   NativeLib:interrupts_asm.obj
 0001:00004a30       intr136                    0000000010005a30 f   NativeLib:interrupts_asm.obj
 0001:00004a72       intr137                    0000000010005a72 f   NativeLib:interrupts_asm.obj
 0001:00004ab4       intr138                    0000000010005ab4 f   NativeLib:interrupts_asm.obj
 0001:00004af6       intr139                    0000000010005af6 f   NativeLib:interrupts_asm.obj
 0001:00004b38       intr140                    0000000010005b38 f   NativeLib:interrupts_asm.obj
 0001:00004b7a       intr141                    0000000010005b7a f   NativeLib:interrupts_asm.obj
 0001:00004bbc       intr142                    0000000010005bbc f   NativeLib:interrupts_asm.obj
 0001:00004bfe       intr143                    0000000010005bfe f   NativeLib:interrupts_asm.obj
 0001:00004c40       intr144                    0000000010005c40 f   NativeLib:interrupts_asm.obj
 0001:00004c82       intr145                    0000000010005c82 f   NativeLib:interrupts_asm.obj
 0001:00004cc4       intr146                    0000000010005cc4 f   NativeLib:interrupts_asm.obj
 0001:00004d06       intr147                    0000000010005d06 f   NativeLib:interrupts_asm.obj
 0001:00004d48       intr148                    0000000010005d48 f   NativeLib:interrupts_asm.obj
 0001:00004d8a       intr149                    0000000010005d8a f   NativeLib:interrupts_asm.obj
 0001:00004dcc       intr150                    0000000010005dcc f   NativeLib:interrupts_asm.obj
 0001:00004e0e       intr151                    0000000010005e0e f   NativeLib:interrupts_asm.obj
 0001:00004e50       intr152                    0000000010005e50 f   NativeLib:interrupts_asm.obj
 0001:00004e92       intr153                    0000000010005e92 f   NativeLib:interrupts_asm.obj
 0001:00004ed4       intr154                    0000000010005ed4 f   NativeLib:interrupts_asm.obj
 0001:00004f16       intr155                    0000000010005f16 f   NativeLib:interrupts_asm.obj
 0001:00004f58       intr156                    0000000010005f58 f   NativeLib:interrupts_asm.obj
 0001:00004f9a       intr157                    0000000010005f9a f   NativeLib:interrupts_asm.obj
 0001:00004fdc       intr158                    0000000010005fdc f   NativeLib:interrupts_asm.obj
 0001:0000501e       intr159                    000000001000601e f   NativeLib:interrupts_asm.obj
 0001:00005060       intr160                    0000000010006060 f   NativeLib:interrupts_asm.obj
 0001:000050a2       intr161                    00000000100060a2 f   NativeLib:interrupts_asm.obj
 0001:000050e4       intr162                    00000000100060e4 f   NativeLib:interrupts_asm.obj
 0001:00005126       intr163                    0000000010006126 f   NativeLib:interrupts_asm.obj
 0001:00005168       intr164                    0000000010006168 f   NativeLib:interrupts_asm.obj
 0001:000051aa       intr165                    00000000100061aa f   NativeLib:interrupts_asm.obj
 0001:000051ec       intr166                    00000000100061ec f   NativeLib:interrupts_asm.obj
 0001:0000522e       intr167                    000000001000622e f   NativeLib:interrupts_asm.obj
 0001:00005270       intr168                    0000000010006270 f   NativeLib:interrupts_asm.obj
 0001:000052b2       intr169                    00000000100062b2 f   NativeLib:interrupts_asm.obj
 0001:000052f4       intr170                    00000000100062f4 f   NativeLib:interrupts_asm.obj
 0001:00005336       intr171                    0000000010006336 f   NativeLib:interrupts_asm.obj
 0001:00005378       intr172                    0000000010006378 f   NativeLib:interrupts_asm.obj
 0001:000053ba       intr173                    00000000100063ba f   NativeLib:interrupts_asm.obj
 0001:000053fc       intr174                    00000000100063fc f   NativeLib:interrupts_asm.obj
 0001:0000543e       intr175                    000000001000643e f   NativeLib:interrupts_asm.obj
 0001:00005480       intr176                    0000000010006480 f   NativeLib:interrupts_asm.obj
 0001:000054c2       intr177                    00000000100064c2 f   NativeLib:interrupts_asm.obj
 0001:00005504       intr178                    0000000010006504 f   NativeLib:interrupts_asm.obj
 0001:00005546       intr179                    0000000010006546 f   NativeLib:interrupts_asm.obj
 0001:00005588       intr180                    0000000010006588 f   NativeLib:interrupts_asm.obj
 0001:000055ca       intr181                    00000000100065ca f   NativeLib:interrupts_asm.obj
 0001:0000560c       intr182                    000000001000660c f   NativeLib:interrupts_asm.obj
 0001:0000564e       intr183                    000000001000664e f   NativeLib:interrupts_asm.obj
 0001:00005690       intr184                    0000000010006690 f   NativeLib:interrupts_asm.obj
 0001:000056d2       intr185                    00000000100066d2 f   NativeLib:interrupts_asm.obj
 0001:00005714       intr186                    0000000010006714 f   NativeLib:interrupts_asm.obj
 0001:00005756       intr187                    0000000010006756 f   NativeLib:interrupts_asm.obj
 0001:00005798       intr188                    0000000010006798 f   NativeLib:interrupts_asm.obj
 0001:000057da       intr189                    00000000100067da f   NativeLib:interrupts_asm.obj
 0001:0000581c       intr190                    000000001000681c f   NativeLib:interrupts_asm.obj
 0001:0000585e       intr191                    000000001000685e f   NativeLib:interrupts_asm.obj
 0001:000058a0       intr192                    00000000100068a0 f   NativeLib:interrupts_asm.obj
 0001:000058e2       intr193                    00000000100068e2 f   NativeLib:interrupts_asm.obj
 0001:00005924       intr194                    0000000010006924 f   NativeLib:interrupts_asm.obj
 0001:00005966       intr195                    0000000010006966 f   NativeLib:interrupts_asm.obj
 0001:000059a8       intr196                    00000000100069a8 f   NativeLib:interrupts_asm.obj
 0001:000059ea       intr197                    00000000100069ea f   NativeLib:interrupts_asm.obj
 0001:00005a2c       intr198                    0000000010006a2c f   NativeLib:interrupts_asm.obj
 0001:00005a6e       intr199                    0000000010006a6e f   NativeLib:interrupts_asm.obj
 0001:00005ab0       intr200                    0000000010006ab0 f   NativeLib:interrupts_asm.obj
 0001:00005af2       intr201                    0000000010006af2 f   NativeLib:interrupts_asm.obj
 0001:00005b34       intr202                    0000000010006b34 f   NativeLib:interrupts_asm.obj
 0001:00005b76       intr203                    0000000010006b76 f   NativeLib:interrupts_asm.obj
 0001:00005bb8       intr204                    0000000010006bb8 f   NativeLib:interrupts_asm.obj
 0001:00005bfa       intr205                    0000000010006bfa f   NativeLib:interrupts_asm.obj
 0001:00005c3c       intr206                    0000000010006c3c f   NativeLib:interrupts_asm.obj
 0001:00005c7e       intr207                    0000000010006c7e f   NativeLib:interrupts_asm.obj
 0001:00005cc0       intr208                    0000000010006cc0 f   NativeLib:interrupts_asm.obj
 0001:00005d02       intr209                    0000000010006d02 f   NativeLib:interrupts_asm.obj
 0001:00005d44       intr210                    0000000010006d44 f   NativeLib:interrupts_asm.obj
 0001:00005d86       intr211                    0000000010006d86 f   NativeLib:interrupts_asm.obj
 0001:00005dc8       intr212                    0000000010006dc8 f   NativeLib:interrupts_asm.obj
 0001:00005e0a       intr213                    0000000010006e0a f   NativeLib:interrupts_asm.obj
 0001:00005e4c       intr214                    0000000010006e4c f   NativeLib:interrupts_asm.obj
 0001:00005e8e       intr215                    0000000010006e8e f   NativeLib:interrupts_asm.obj
 0001:00005ed0       intr216                    0000000010006ed0 f   NativeLib:interrupts_asm.obj
 0001:00005f12       intr217                    0000000010006f12 f   NativeLib:interrupts_asm.obj
 0001:00005f54       intr218                    0000000010006f54 f   NativeLib:interrupts_asm.obj
 0001:00005f96       intr219                    0000000010006f96 f   NativeLib:interrupts_asm.obj
 0001:00005fd8       intr220                    0000000010006fd8 f   NativeLib:interrupts_asm.obj
 0001:0000601a       intr221                    000000001000701a f   NativeLib:interrupts_asm.obj
 0001:0000605c       intr222                    000000001000705c f   NativeLib:interrupts_asm.obj
 0001:0000609e       intr223                    000000001000709e f   NativeLib:interrupts_asm.obj
 0001:000060e0       intr224                    00000000100070e0 f   NativeLib:interrupts_asm.obj
 0001:00006122       intr225                    0000000010007122 f   NativeLib:interrupts_asm.obj
 0001:00006164       intr226                    0000000010007164 f   NativeLib:interrupts_asm.obj
 0001:000061a6       intr227                    00000000100071a6 f   NativeLib:interrupts_asm.obj
 0001:000061e8       intr228                    00000000100071e8 f   NativeLib:interrupts_asm.obj
 0001:0000622a       intr229                    000000001000722a f   NativeLib:interrupts_asm.obj
 0001:0000626c       intr230                    000000001000726c f   NativeLib:interrupts_asm.obj
 0001:000062ae       intr231                    00000000100072ae f   NativeLib:interrupts_asm.obj
 0001:000062f0       intr232                    00000000100072f0 f   NativeLib:interrupts_asm.obj
 0001:00006332       intr233                    0000000010007332 f   NativeLib:interrupts_asm.obj
 0001:00006374       intr234                    0000000010007374 f   NativeLib:interrupts_asm.obj
 0001:000063b6       intr235                    00000000100073b6 f   NativeLib:interrupts_asm.obj
 0001:000063f8       intr236                    00000000100073f8 f   NativeLib:interrupts_asm.obj
 0001:0000643a       intr237                    000000001000743a f   NativeLib:interrupts_asm.obj
 0001:0000647c       intr238                    000000001000747c f   NativeLib:interrupts_asm.obj
 0001:000064be       intr239                    00000000100074be f   NativeLib:interrupts_asm.obj
 0001:00006500       intr240                    0000000010007500 f   NativeLib:interrupts_asm.obj
 0001:00006542       intr241                    0000000010007542 f   NativeLib:interrupts_asm.obj
 0001:00006584       intr242                    0000000010007584 f   NativeLib:interrupts_asm.obj
 0001:000065c6       intr243                    00000000100075c6 f   NativeLib:interrupts_asm.obj
 0001:00006608       intr244                    0000000010007608 f   NativeLib:interrupts_asm.obj
 0001:0000664a       intr245                    000000001000764a f   NativeLib:interrupts_asm.obj
 0001:0000668c       intr246                    000000001000768c f   NativeLib:interrupts_asm.obj
 0001:000066ce       intr247                    00000000100076ce f   NativeLib:interrupts_asm.obj
 0001:00006710       intr248                    0000000010007710 f   NativeLib:interrupts_asm.obj
 0001:00006752       intr249                    0000000010007752 f   NativeLib:interrupts_asm.obj
 0001:00006794       intr250                    0000000010007794 f   NativeLib:interrupts_asm.obj
 0001:000067d6       intr251                    00000000100077d6 f   NativeLib:interrupts_asm.obj
 0001:00006818       intr252                    0000000010007818 f   NativeLib:interrupts_asm.obj
 0001:0000685a       intr253                    000000001000785a f   NativeLib:interrupts_asm.obj
 0001:0000689c       intr254                    000000001000789c f   NativeLib:interrupts_asm.obj
 0001:000068de       intr255                    00000000100078de f   NativeLib:interrupts_asm.obj
 0001:00006920       _reload_segreg             0000000010007920 f   NativeLib:interrupts_asm.obj
 0001:00006947       Load_IDT                   0000000010007947 f   NativeLib:interrupts_asm.obj
 0001:0000694b       _cli                       000000001000794b f   NativeLib:interrupts_asm.obj
 0001:0000694d       _sti                       000000001000794d f   NativeLib:interrupts_asm.obj
 0001:0000694f       _hlt                       000000001000794f f   NativeLib:interrupts_asm.obj
 0001:00006951       _inttest                   0000000010007951 f   NativeLib:interrupts_asm.obj
 0001:0000695b       _iretq                     000000001000795b f   NativeLib:interrupts_asm.obj
 0001:00006976       _int20h                    0000000010007976 f   NativeLib:interrupts_asm.obj
 0001:00006980       enable_avx                 0000000010007980 f   NativeLib:misc.obj
 0001:00006993       enable_sse                 0000000010007993 f   NativeLib:misc.obj
 0001:000069a6       Schedule_Next              00000000100079a6 f   NativeLib:misc.obj
 0001:00011e10       lodepng_add_itext          0000000010012e10 f   NativeLib:lodepng.obj
 0001:00012050       lodepng_add_text           0000000010013050 f   NativeLib:lodepng.obj
 0001:00012310       lodepng_can_have_alpha     0000000010013310 f   NativeLib:lodepng.obj
 0001:00012370       lodepng_chunk_ancillary    0000000010013370 f   NativeLib:lodepng.obj
 0001:000123c0       lodepng_chunk_append       00000000100133c0 f   NativeLib:lodepng.obj
 0001:000124e0       lodepng_chunk_check_crc    00000000100134e0 f   NativeLib:lodepng.obj
 0001:00012570       lodepng_chunk_create       0000000010013570 f   NativeLib:lodepng.obj
 0001:000126a0       lodepng_chunk_data         00000000100136a0 f   NativeLib:lodepng.obj
 0001:000126e0       lodepng_chunk_data_const   00000000100136e0 f   NativeLib:lodepng.obj
 0001:00012720       lodepng_chunk_find         0000000010013720 f   NativeLib:lodepng.obj
 0001:000127a0       lodepng_chunk_find_const   00000000100137a0 f   NativeLib:lodepng.obj
 0001:00012820       lodepng_chunk_generate_crc 0000000010013820 f   NativeLib:lodepng.obj
 0001:00012970       lodepng_chunk_length       0000000010013970 f   NativeLib:lodepng.obj
 0001:000129b0       lodepng_chunk_next         00000000100139b0 f   NativeLib:lodepng.obj
 0001:00012b10       lodepng_chunk_next_const   0000000010013b10 f   NativeLib:lodepng.obj
 0001:00012c70       lodepng_chunk_private      0000000010013c70 f   NativeLib:lodepng.obj
 0001:00012cc0       lodepng_chunk_safetocopy   0000000010013cc0 f   NativeLib:lodepng.obj
 0001:00012d10       lodepng_chunk_type         0000000010013d10 f   NativeLib:lodepng.obj
 0001:00012d80       lodepng_chunk_type_equals  0000000010013d80 f   NativeLib:lodepng.obj
 0001:00012e70       lodepng_clear_icc          0000000010013e70 f   NativeLib:lodepng.obj
 0001:00012ee0       lodepng_clear_itext        0000000010013ee0 f   NativeLib:lodepng.obj
 0001:00012f10       lodepng_clear_text         0000000010013f10 f   NativeLib:lodepng.obj
 0001:00012ff0       lodepng_color_mode_cleanup 0000000010013ff0 f   NativeLib:lodepng.obj
 0001:00013020       lodepng_color_mode_copy    0000000010014020 f   NativeLib:lodepng.obj
 0001:00013200       lodepng_color_mode_init    0000000010014200 f   NativeLib:lodepng.obj
 0001:00013280       lodepng_color_mode_make    0000000010014280 f   NativeLib:lodepng.obj
 0001:00013410       lodepng_color_stats_init   0000000010014410 f   NativeLib:lodepng.obj
 0001:000134c0       lodepng_compress_settings_init 00000000100144c0 f   NativeLib:lodepng.obj
 0001:00013550       lodepng_compute_color_stats 0000000010014550 f   NativeLib:lodepng.obj
 0001:00014420       lodepng_convert            0000000010015420 f   NativeLib:lodepng.obj
 0001:00014960       lodepng_convert_rgb        0000000010015960 f   NativeLib:lodepng.obj
 0001:00014ca0       lodepng_crc32              0000000010015ca0 f   NativeLib:lodepng.obj
 0001:00014d30       lodepng_decode             0000000010015d30 f   NativeLib:lodepng.obj
 0001:00014f20       lodepng_decode24           0000000010015f20 f   NativeLib:lodepng.obj
 0001:00014f90       lodepng_decode32           0000000010015f90 f   NativeLib:lodepng.obj
 0001:00015000       lodepng_decode_memory      0000000010016000 f   NativeLib:lodepng.obj
 0001:000150d0       lodepng_decoder_settings_init 00000000100160d0 f   NativeLib:lodepng.obj
 0001:00015160       lodepng_decompress_settings_init 0000000010016160 f   NativeLib:lodepng.obj
 0001:000151d0       lodepng_deflate            00000000100161d0 f   NativeLib:lodepng.obj
 0001:000154e0       lodepng_encode             00000000100164e0 f   NativeLib:lodepng.obj
 0001:000164e0       lodepng_encode24           00000000100174e0 f   NativeLib:lodepng.obj
 0001:00016540       lodepng_encode32           0000000010017540 f   NativeLib:lodepng.obj
 0001:000165a0       lodepng_encode_memory      00000000100175a0 f   NativeLib:lodepng.obj
 0001:00016660       lodepng_encoder_settings_init 0000000010017660 f   NativeLib:lodepng.obj
 0001:000166e0       lodepng_error_text         00000000100176e0 f   NativeLib:lodepng.obj
 0001:00016db0       lodepng_get_bpp            0000000010017db0 f   NativeLib:lodepng.obj
 0001:00016e20       lodepng_get_channels       0000000010017e20 f   NativeLib:lodepng.obj
 0001:00016e50       lodepng_get_raw_size       0000000010017e50 f   NativeLib:lodepng.obj
 0001:00017030       lodepng_has_palette_alpha  0000000010018030 f   NativeLib:lodepng.obj
 0001:000170a0       lodepng_huffman_code_lengths 00000000100180a0 f   NativeLib:lodepng.obj
 0001:000174f0       lodepng_inflate            00000000100184f0 f   NativeLib:lodepng.obj
 0001:00017700       lodepng_info_cleanup       0000000010018700 f   NativeLib:lodepng.obj
 0001:00017760       lodepng_info_copy          0000000010018760 f   NativeLib:lodepng.obj
 0001:00017890       lodepng_info_init          0000000010018890 f   NativeLib:lodepng.obj
 0001:000179a0       lodepng_inspect            00000000100189a0 f   NativeLib:lodepng.obj
 0001:00017df0       lodepng_inspect_chunk      0000000010018df0 f   NativeLib:lodepng.obj
 0001:00018210       lodepng_is_alpha_type      0000000010019210 f   NativeLib:lodepng.obj
 0001:00018260       lodepng_is_greyscale_type  0000000010019260 f   NativeLib:lodepng.obj
 0001:000182b0       lodepng_is_palette_type    00000000100192b0 f   NativeLib:lodepng.obj
 0001:00018460       lodepng_palette_add        0000000010019460 f   NativeLib:lodepng.obj
 0001:00018550       lodepng_palette_clear      0000000010019550 f   NativeLib:lodepng.obj
 0001:00018870       lodepng_set_icc            0000000010019870 f   NativeLib:lodepng.obj
 0001:000188e0       lodepng_state_cleanup      00000000100198e0 f   NativeLib:lodepng.obj
 0001:00018930       lodepng_state_copy         0000000010019930 f   NativeLib:lodepng.obj
 0001:00018a00       lodepng_state_init         0000000010019a00 f   NativeLib:lodepng.obj
 0001:00018ac0       lodepng_zlib_compress      0000000010019ac0 f   NativeLib:lodepng.obj
 0001:00018cb0       lodepng_zlib_decompress    0000000010019cb0 f   NativeLib:lodepng.obj
 0001:0001d960       In16                       000000001001e960 f   NativeLib:io.obj
 0001:0001d990       In32                       000000001001e990 f   NativeLib:io.obj
 0001:0001d9c0       In8                        000000001001e9c0 f   NativeLib:io.obj
 0001:0001d9f0       Insb                       000000001001e9f0 f   NativeLib:io.obj
 0001:0001da30       Insd                       000000001001ea30 f   NativeLib:io.obj
 0001:0001da70       Insw                       000000001001ea70 f   NativeLib:io.obj
 0001:0001dab0       Out16                      000000001001eab0 f   NativeLib:io.obj
 0001:0001dae0       Out32                      000000001001eae0 f   NativeLib:io.obj
 0001:0001db10       Out8                       000000001001eb10 f   NativeLib:io.obj
 0001:0001db40       Outsb                      000000001001eb40 f   NativeLib:io.obj
 0001:0001db80       Outsd                      000000001001eb80 f   NativeLib:io.obj
 0001:0001dbc0       Outsw                      000000001001ebc0 f   NativeLib:io.obj
 0001:0001dc00       vmware_send                000000001001ec00 f   NativeLib:vmware.obj
 0001:0001dc84       vmware_send_hb             000000001001ec84 f   NativeLib:vmware.obj
 0001:0001dd0a       vmware_get_hb              000000001001ed0a f   NativeLib:vmware.obj
 0001:0001dd90       mystrtoul                  000000001001ed90 f   LibC:strtoul.obj
 0001:00020630       fctprintf                  0000000010021630 f   LibC:printf.obj
 0001:000206b0       printf_                    00000000100216b0 f   LibC:printf.obj
 0001:00020720       snprintf_                  0000000010021720 f   LibC:printf.obj
 0001:00020780       sprintf_                   0000000010021780 f   LibC:printf.obj
 0001:000207f0       vprintf_                   00000000100217f0 f   LibC:printf.obj
 0001:00020840       vsnprintf_                 0000000010021840 f   LibC:printf.obj
 0001:00020890       myisspace                  0000000010021890 f   LibC:isspace.obj
 0001:000208e0       myisdigit                  00000000100218e0 f   LibC:isdigit.obj
 0001:00020920       myisalpha                  0000000010021920 f   LibC:isalpha.obj
 0001:00020960       myisupper                  0000000010021960 f   LibC:isupper.obj
 0002:00000000       unbox_UInt8__ToString      0000000010022000     guideXOS.obj
 0002:0000000c       unbox_UInt16__ToString     000000001002200c     guideXOS.obj
 0002:00000018       unbox_UInt32__ToString     0000000010022018     guideXOS.obj
 0003:00000000       KMain                      0000000010023000     guideXOS.obj
 0003:00000000       guideXOS_Program__KMain    0000000010023000     guideXOS.obj
 0003:00000248       guideXOS_Program__SMain    0000000010023248     guideXOS.obj
 0003:000008e4       guideXOS_Program__InitConsole 00000000100238e4     guideXOS.obj
 0003:00000924       guideXOS_Allocator__GetPageIndexStart 0000000010023924     guideXOS.obj
 0003:00000978       guideXOS_Allocator__Free   0000000010023978     guideXOS.obj
 0003:00000ab0       guideXOS_Allocator__get_MemoryInUse 0000000010023ab0     guideXOS.obj
 0003:00000ac8       guideXOS_Allocator__Initialize 0000000010023ac8     guideXOS.obj
 0003:00000b5c       guideXOS_Allocator__Allocate 0000000010023b5c     guideXOS.obj
 0003:00000cc0       guideXOS_Allocator__Reallocate 0000000010023cc0     guideXOS.obj
 0003:00000db4       guideXOS_GDT__Initialise   0000000010023db4     guideXOS.obj
 0003:00000e90       guideXOS_IDT__Initialize   0000000010023e90     guideXOS.obj
 0003:00000f84       guideXOS_IDT__intr_handler 0000000010023f84     guideXOS.obj
 0003:00000f84       intr_handler               0000000010023f84     guideXOS.obj
 0003:00001694       guideXOS_Native__Load_GDT  0000000010024694     guideXOS.obj
 0003:000016e8       guideXOS_Native__Load_IDT  00000000100246e8     guideXOS.obj
 0003:0000173c       guideXOS_Internal_Runtime_EEType__get_IsArray 000000001002473c     guideXOS.obj
 0003:00001760       guideXOS_Internal_Runtime_EEType__get_ArrayRank 0000000010024760     guideXOS.obj
 0003:00001780       __imp_GetCurrentThreadId   0000000010024780     guideXOS.obj
 0003:00001780       guideXOS_Internal_Runtime_CompilerHelpers_StartupCodeHelpers____imp_GetCurrentThreadId 0000000010024780     guideXOS.obj
 0003:00001784       __CheckForDebuggerJustMyCode 0000000010024784     guideXOS.obj
 0003:00001784       guideXOS_Internal_Runtime_CompilerHelpers_StartupCodeHelpers____CheckForDebuggerJustMyCode 0000000010024784     guideXOS.obj
 0003:00001788       __fail_fast                0000000010024788     guideXOS.obj
 0003:00001788       guideXOS_Internal_Runtime_CompilerHelpers_StartupCodeHelpers__FailFast 0000000010024788     guideXOS.obj
 0003:0000178c       guideXOS_Internal_Runtime_CompilerHelpers_StartupCodeHelpers__MemSet 000000001002478c     guideXOS.obj
 0003:0000178c       memset                     000000001002478c     guideXOS.obj
 0003:000017a8       guideXOS_Internal_Runtime_CompilerHelpers_StartupCodeHelpers__MemCpy 00000000100247a8     guideXOS.obj
 0003:000017a8       memcpy                     00000000100247a8     guideXOS.obj
 0003:000017c4       RhpFallbackFailFast        00000000100247c4     guideXOS.obj
 0003:000017c4       guideXOS_Internal_Runtime_CompilerHelpers_StartupCodeHelpers__RhpFallbackFailFast 00000000100247c4     guideXOS.obj
 0003:000017c8       RhpReversePInvoke2         00000000100247c8     guideXOS.obj
 0003:000017c8       guideXOS_Internal_Runtime_CompilerHelpers_StartupCodeHelpers__RhpReversePInvoke2 00000000100247c8     guideXOS.obj
 0003:000017cc       RhpReversePInvokeReturn2   00000000100247cc     guideXOS.obj
 0003:000017cc       guideXOS_Internal_Runtime_CompilerHelpers_StartupCodeHelpers__RhpReversePInvokeReturn2 00000000100247cc     guideXOS.obj
 0003:000017d0       RhpReversePInvoke          00000000100247d0     guideXOS.obj
 0003:000017d0       guideXOS_Internal_Runtime_CompilerHelpers_StartupCodeHelpers__RhpReversePInvoke 00000000100247d0     guideXOS.obj
 0003:000017d4       RhpReversePInvokeReturn    00000000100247d4     guideXOS.obj
 0003:000017d4       guideXOS_Internal_Runtime_CompilerHelpers_StartupCodeHelpers__RhpReversePInvokeReturn 00000000100247d4     guideXOS.obj
 0003:000017d8       RhpPInvoke                 00000000100247d8     guideXOS.obj
 0003:000017d8       guideXOS_Internal_Runtime_CompilerHelpers_StartupCodeHelpers__RhpPinvoke 00000000100247d8     guideXOS.obj
 0003:000017dc       RhpPInvokeReturn           00000000100247dc     guideXOS.obj
 0003:000017dc       guideXOS_Internal_Runtime_CompilerHelpers_StartupCodeHelpers__RhpPinvokeReturn 00000000100247dc     guideXOS.obj
 0003:000017e0       RhpNewFast                 00000000100247e0     guideXOS.obj
 0003:000017e0       guideXOS_Internal_Runtime_CompilerHelpers_StartupCodeHelpers__RhpNewFast 00000000100247e0     guideXOS.obj
 0003:0000186c       RhpNewArray                000000001002486c     guideXOS.obj
 0003:0000186c       guideXOS_Internal_Runtime_CompilerHelpers_StartupCodeHelpers__RhpNewArray 000000001002486c     guideXOS.obj
 0003:00001930       RhpAssignRef               0000000010024930     guideXOS.obj
 0003:00001930       guideXOS_Internal_Runtime_CompilerHelpers_StartupCodeHelpers__RhpAssignRef 0000000010024930     guideXOS.obj
 0003:00001934       RhpByRefAssignRef          0000000010024934     guideXOS.obj
 0003:00001934       guideXOS_Internal_Runtime_CompilerHelpers_StartupCodeHelpers__RhpByRefAssignRef 0000000010024934     guideXOS.obj
 0003:00001938       RhpCheckedAssignRef        0000000010024938     guideXOS.obj
 0003:00001938       guideXOS_Internal_Runtime_CompilerHelpers_StartupCodeHelpers__RhpCheckedAssignRef 0000000010024938     guideXOS.obj
 0003:0000193c       RhpStelemRef               000000001002493c     guideXOS.obj
 0003:0000193c       guideXOS_Internal_Runtime_CompilerHelpers_StartupCodeHelpers__RhpStelemRef 000000001002493c     guideXOS.obj
 0003:00001974       RhTypeCast_IsInstanceOfClass 0000000010024974     guideXOS.obj
 0003:00001974       guideXOS_Internal_Runtime_CompilerHelpers_StartupCodeHelpers__RhTypeCast_IsInstanceOfClass 0000000010024974     guideXOS.obj
 0003:000019a0       guideXOS_Internal_Runtime_CompilerHelpers_StartupCodeHelpers__InitializeModules 00000000100249a0     guideXOS.obj
 0003:00001b58       guideXOS_Internal_Runtime_CompilerHelpers_StartupCodeHelpers__InitializeStatics 0000000010024b58     guideXOS.obj
 0003:00001c44       guideXOS_Internal_Runtime_CompilerHelpers_SynchronizedMethodHelpers__MonitorEnterStatic 0000000010024c44     guideXOS.obj
 0003:00001c48       guideXOS_Internal_Runtime_CompilerHelpers_SynchronizedMethodHelpers__MonitorExitStatic 0000000010024c48     guideXOS.obj
 0003:00001c4c       guideXOS_Internal_Runtime_CompilerHelpers_ThrowHelpers__Error 0000000010024c4c     guideXOS.obj
 0003:00001cfc       guideXOS_Internal_Runtime_CompilerHelpers_ThrowHelpers__ThrowOverflowException 0000000010024cfc     guideXOS.obj
 0003:00001d14       guideXOS_Internal_Runtime_CompilerHelpers_ThrowHelpers__ThrowIndexOutOfRangeException 0000000010024d14     guideXOS.obj
 0003:00001d2c       UInt8__ToString            0000000010024d2c     guideXOS.obj
 0003:00001d48       Char__ToUpper              0000000010024d48     guideXOS.obj
 0003:00001d60       guideXOS_System_Delegate__InitializeClosedInstance 0000000010024d60     guideXOS.obj
 0003:00001d8c       guideXOS_System_Math__Pow  0000000010024d8c     guideXOS.obj
 0003:00001db8       guideXOS_System_Math__Fact 0000000010024db8     guideXOS.obj
 0003:00001df0       guideXOS_System_Math__Sin  0000000010024df0     guideXOS.obj
 0003:00001ea0       guideXOS_System_MathF__Floor 0000000010024ea0     guideXOS.obj
 0003:00001f00       Object___ctor              0000000010024f00     guideXOS.obj
 0003:00001f04       Object__ToString           0000000010024f04     guideXOS.obj
 0003:00001f0c       Object__Dispose            0000000010024f0c     guideXOS.obj
 0003:00001f5c       String__FromASCII          0000000010024f5c     guideXOS.obj
 0003:00001ff4       String__Ctor_2             0000000010024ff4     guideXOS.obj
 0003:000020b0       String__LastIndexOf        00000000100250b0     guideXOS.obj
 0003:000020dc       String__ToString           00000000100250dc     guideXOS.obj
 0003:000020e0       String__Equals_0           00000000100250e0     guideXOS.obj
 0003:00002128       String__Concat             0000000010025128     guideXOS.obj
 0003:00002214       String__IndexOf            0000000010025214     guideXOS.obj
 0003:00002244       String__Concat_0           0000000010025244     guideXOS.obj
 0003:000022b8       String__Concat_1           00000000100252b8     guideXOS.obj
 0003:0000237c       String__Concat_2           000000001002537c     guideXOS.obj
 0003:00002464       String__Format             0000000010025464     guideXOS.obj
 0003:00002670       String__Substring          0000000010025670     guideXOS.obj
 0003:000026b0       String__Substring_0        00000000100256b0     guideXOS.obj
 0003:000026ec       String__EndsWith_0         00000000100256ec     guideXOS.obj
 0003:00002778       UInt16__ToString           0000000010025778     guideXOS.obj
 0003:00002794       UInt32__ToString           0000000010025794     guideXOS.obj
 0003:000027b0       UInt64__ToString           00000000100257b0     guideXOS.obj
 0003:00002878       UInt64__ToStringHex        0000000010025878     guideXOS.obj
 0003:00002920       guideXOS_System_Threading_Monitor__Unlock 0000000010025920     guideXOS.obj
 0003:00002964       RhTypeCast_CheckCastClass  0000000010025964     guideXOS.obj
 0003:00002964       guideXOS_System_Runtime_TypeCast__CheckCastClass 0000000010025964     guideXOS.obj
 0003:0000298c       RhTypeCast_CheckCastArray  000000001002598c     guideXOS.obj
 0003:0000298c       guideXOS_System_Runtime_TypeCast__CheckCastArray 000000001002598c     guideXOS.obj
 0003:000029b4       RhTypeCast_IsInstanceOfArray 00000000100259b4     guideXOS.obj
 0003:000029b4       guideXOS_System_Runtime_TypeCast__IsInstanceOfArray 00000000100259b4     guideXOS.obj
 0003:00002a10       guideXOS_System_Drawing_Image___ctor 0000000010025a10     guideXOS.obj
 0003:00002a4c       guideXOS_System_Drawing_Image___ctor_0 0000000010025a4c     guideXOS.obj
 0003:00002a50       guideXOS_System_Drawing_Image__Resample 0000000010025a50     guideXOS.obj
 0003:00002df4       guideXOS_System_Drawing_Image__ResizeImage 0000000010025df4     guideXOS.obj
 0003:00002f68       guideXOS_System_Drawing_Image__Dispose 0000000010025f68     guideXOS.obj
 0003:00002ff0       guideXOS_System_Diagnostics_Process__Start 0000000010025ff0     guideXOS.obj
 0003:000031f4       guideXOS_System_Diagnostics_Process__StartThread 00000000100261f4     guideXOS.obj
 0003:00003274       guideXOS_System_Diagnostics_Process__FixImageRelocations 0000000010026274     guideXOS.obj
 0003:000032e0       guideXOS_guideXOS_Animation___ctor 00000000100262e0     guideXOS.obj
 0003:000032f0       guideXOS_guideXOS_Animator__Initialize 00000000100262f0     guideXOS.obj
 0003:00003348       guideXOS_guideXOS_Animator__OnInterrupt 0000000010026348     guideXOS.obj
 0003:000033d4       guideXOS_guideXOS_API__HandleSystemCall 00000000100263d4     guideXOS.obj
 0003:00003770       guideXOS_guideXOS_API__API_SndWrite 0000000010026770     guideXOS.obj
 0003:00003778       guideXOS_guideXOS_API__API_Calloc 0000000010026778     guideXOS.obj
 0003:00003780       guideXOS_guideXOS_API__API_StartThread 0000000010026780     guideXOS.obj
 0003:000037bc       guideXOS_guideXOS_API__API_Error 00000000100267bc     guideXOS.obj
 0003:000037c4       guideXOS_guideXOS_API__API_GetTime 00000000100267c4     guideXOS.obj
 0003:00003844       guideXOS_guideXOS_API__API_DrawImage 0000000010026844     guideXOS.obj
 0003:00003878       guideXOS_guideXOS_API__API_WriteString 0000000010026878     guideXOS.obj
 0003:000038d8       guideXOS_guideXOS_API__API_Width 00000000100268d8     guideXOS.obj
 0003:000038ec       guideXOS_guideXOS_API__API_Height 00000000100268ec     guideXOS.obj
 0003:00003900       guideXOS_guideXOS_API__API_Update 0000000010026900     guideXOS.obj
 0003:00003908       guideXOS_guideXOS_API__API_Clear 0000000010026908     guideXOS.obj
 0003:00003928       DebugWrite                 0000000010026928     guideXOS.obj
 0003:00003928       guideXOS_guideXOS_API__API_DebugWrite 0000000010026928     guideXOS.obj
 0003:00003930       DebugWriteLine             0000000010026930     guideXOS.obj
 0003:00003930       guideXOS_guideXOS_API__API_DebugWriteLine 0000000010026930     guideXOS.obj
 0003:0000394c       Lock                       000000001002694c     guideXOS.obj
 0003:0000394c       guideXOS_guideXOS_API__API_Lock 000000001002694c     guideXOS.obj
 0003:00003974       Unlock                     0000000010026974     guideXOS.obj
 0003:00003974       guideXOS_guideXOS_API__API_Unlock 0000000010026974     guideXOS.obj
 0003:000039b4       guideXOS_guideXOS_API__API_DrawPoint 00000000100269b4     guideXOS.obj
 0003:000039e8       guideXOS_guideXOS_API__API_SwitchToConsoleMode 00000000100269e8     guideXOS.obj
 0003:000039f0       guideXOS_guideXOS_API__API_ReadAllBytes 00000000100269f0     guideXOS.obj
 0003:00003af8       guideXOS_guideXOS_API__API_Sleep 0000000010026af8     guideXOS.obj
 0003:00003b00       guideXOS_guideXOS_API__API_GetTick 0000000010026b00     guideXOS.obj
 0003:00003b14       guideXOS_guideXOS_API__API_Write 0000000010026b14     guideXOS.obj
 0003:00003b20       guideXOS_guideXOS_API__API_WriteLine 0000000010026b20     guideXOS.obj
 0003:00003b28       guideXOS_guideXOS_API__API_Allocate 0000000010026b28     guideXOS.obj
 0003:00003b30       guideXOS_guideXOS_API__API_Free 0000000010026b30     guideXOS.obj
 0003:00003b38       guideXOS_guideXOS_API__API_Reallocate 0000000010026b38     guideXOS.obj
 0003:00003b40       guideXOS_guideXOS_API__SayHello 0000000010026b40     guideXOS.obj
 0003:00003b4c       guideXOS_guideXOS_Kbd2Mouse__OnKeyChanged 0000000010026b4c     guideXOS.obj
 0003:00003cd0       guideXOS_guideXOS_ASC16__DrawChar 0000000010026cd0     guideXOS.obj
 0003:00003d64       guideXOS_guideXOS_Console__add_OnWrite 0000000010026d64     guideXOS.obj
 0003:00003dec       guideXOS_guideXOS_Console__Setup 0000000010026dec     guideXOS.obj
 0003:00003ea4       guideXOS_guideXOS_Console__Write 0000000010026ea4     guideXOS.obj
 0003:00003f54       guideXOS_guideXOS_Console__Write_0 0000000010026f54     guideXOS.obj
 0003:00003fd8       guideXOS_guideXOS_Console__WriteFramebuffer 0000000010026fd8     guideXOS.obj
 0003:000040e4       guideXOS_guideXOS_Console__MoveUp 00000000100270e4     guideXOS.obj
 0003:00004118       guideXOS_guideXOS_Console__MoveUpFramebuffer 0000000010027118     guideXOS.obj
 0003:000041c4       guideXOS_guideXOS_Console__UpdateCursorFramebuffer 00000000100271c4     guideXOS.obj
 0003:00004274       guideXOS_guideXOS_Console__WriteLine 0000000010027274     guideXOS.obj
 0003:0000430c       guideXOS_guideXOS_Console__WriteLine_0 000000001002730c     guideXOS.obj
 0003:00004350       guideXOS_guideXOS_Console__Clear 0000000010027350     guideXOS.obj
 0003:0000436c       guideXOS_guideXOS_Console__ClearFramebuffer 000000001002736c     guideXOS.obj
 0003:00004428       guideXOS_guideXOS_FPSMeter__Update 0000000010027428     guideXOS.obj
 0003:00004484       guideXOS_guideXOS_PageTable__Initialise 0000000010027484     guideXOS.obj
 0003:00004574       guideXOS_guideXOS_PageTable__GetPage 0000000010027574     guideXOS.obj
 0003:00004620       guideXOS_guideXOS_PageTable__Next 0000000010027620     guideXOS.obj
 0003:000046c4       guideXOS_guideXOS_NETv4__SwapLeftRight_0 00000000100276c4     guideXOS.obj
 0003:000046f4       guideXOS_guideXOS_SMP__ApplicationProcessorMain 00000000100276f4     guideXOS.obj
 0003:00004790       guideXOS_guideXOS_SMP__Initialize 0000000010027790     guideXOS.obj
 0003:00004920       guideXOS_guideXOS_Misc_Audio__Initialize 0000000010027920     guideXOS.obj
 0003:00004950       guideXOS_guideXOS_Misc_Audio__snd_write 0000000010027950     guideXOS.obj
 0003:00004950       snd_write                  0000000010027950     guideXOS.obj
 0003:00004a38       guideXOS_guideXOS_Misc_Audio__snd_clear 0000000010027a38     guideXOS.obj
 0003:00004a38       snd_clear                  0000000010027a38     guideXOS.obj
 0003:00004a4c       guideXOS_guideXOS_Misc_Audio__require 0000000010027a4c     guideXOS.obj
 0003:00004b48       guideXOS_guideXOS_Misc_Bitmap___ctor 0000000010027b48     guideXOS.obj
 0003:00004d90       guideXOS_guideXOS_Misc_ClassID__GetName 0000000010027d90     guideXOS.obj
 0003:00004ef8       Entry                      0000000010027ef8     guideXOS.obj
 0003:00004ef8       guideXOS_guideXOS_Misc_EntryPoint__Entry 0000000010027ef8     guideXOS.obj
 0003:000052cc       guideXOS_guideXOS_Misc_IFont__DrawChar 00000000100282cc     guideXOS.obj
 0003:00005470       guideXOS_guideXOS_Misc_IFont__DrawString 0000000010028470     guideXOS.obj
 0003:000054e4       guideXOS_guideXOS_Misc_IFont__MeasureString 00000000100284e4     guideXOS.obj
 0003:00005550       guideXOS_guideXOS_Misc_IFont__DrawString_0 0000000010028550     guideXOS.obj
 0003:00005678       guideXOS_guideXOS_Misc_Interrupts__EnableInterrupt_0 0000000010028678     guideXOS.obj
 0003:000056e0       guideXOS_guideXOS_Misc_Interrupts__HandleInterrupt 00000000100286e0     guideXOS.obj
 0003:00005748       guideXOS_guideXOS_Misc_Panic__Error 0000000010028748     guideXOS.obj
 0003:000057e4       guideXOS_guideXOS_Misc_PNG___ctor 00000000100287e4     guideXOS.obj
 0003:000059d4       guideXOS_guideXOS_Misc_PNG__lodepng_decode_memory 00000000100289d4     guideXOS.obj
 0003:00005a70       guideXOS_guideXOS_Misc_Thread__NewThread 0000000010028a70     guideXOS.obj
 0003:00005b10       guideXOS_guideXOS_Misc_Thread__Start 0000000010028b10     guideXOS.obj
 0003:00005bc0       guideXOS_guideXOS_Misc_Thread__Start_0 0000000010028bc0     guideXOS.obj
 0003:00005cb0       guideXOS_guideXOS_Misc_ThreadPool__Initialize 0000000010028cb0     guideXOS.obj
 0003:00005e64       guideXOS_guideXOS_Misc_ThreadPool__Terminate 0000000010028e64     guideXOS.obj
 0003:00005ef4       guideXOS_guideXOS_Misc_ThreadPool__IdleThread 0000000010028ef4     guideXOS.obj
 0003:00005f38       guideXOS_guideXOS_Misc_ThreadPool__get_CanLock 0000000010028f38     guideXOS.obj
 0003:00005f54       guideXOS_guideXOS_Misc_ThreadPool__Lock 0000000010028f54     guideXOS.obj
 0003:00005f8c       guideXOS_guideXOS_Misc_ThreadPool__Schedule 0000000010028f8c     guideXOS.obj
 0003:000062fc       guideXOS_guideXOS_Misc_USBDevice___ctor 00000000100292fc     guideXOS.obj
 0003:00006300       guideXOS_guideXOS_Misc_USBRequest__Clean 0000000010029300     guideXOS.obj
 0003:00006370       guideXOS_guideXOS_Misc_USB__OnInterrupt 0000000010029370     guideXOS.obj
 0003:00006488       guideXOS_guideXOS_Misc_USB__DriveDevice 0000000010029488     guideXOS.obj
 0003:000064a4       guideXOS_guideXOS_Misc_USB__StartPolling 00000000100294a4     guideXOS.obj
 0003:000064dc       guideXOS_guideXOS_Misc_USB__LoopPoll 00000000100294dc     guideXOS.obj
 0003:00006534       guideXOS_guideXOS_Misc_VendorID__GetName 0000000010029534     guideXOS.obj
 0003:0000d984       guideXOS_guideXOS_Graph_Graphics__FromImage 0000000010030984     guideXOS.obj
 0003:0000d9e8       guideXOS_guideXOS_Graph_Graphics__Update 00000000100309e8     guideXOS.obj
 0003:0000d9ec       guideXOS_guideXOS_Graph_Graphics__Clear 00000000100309ec     guideXOS.obj
 0003:0000da54       guideXOS_guideXOS_Graph_Graphics__Copy 0000000010030a54     guideXOS.obj
 0003:0000daf0       guideXOS_guideXOS_Graph_Graphics__FillRectangle 0000000010030af0     guideXOS.obj
 0003:0000db68       guideXOS_guideXOS_Graph_Graphics__AFillRectangle 0000000010030b68     guideXOS.obj
 0003:0000dbe0       guideXOS_guideXOS_Graph_Graphics__GetPoint 0000000010030be0     guideXOS.obj
 0003:0000dc0c       guideXOS_guideXOS_Graph_Graphics__DrawPoint 0000000010030c0c     guideXOS.obj
 0003:0000dcfc       guideXOS_guideXOS_Graph_Graphics__DrawRectangle 0000000010030cfc     guideXOS.obj
 0003:0000ddb8       guideXOS_guideXOS_Graph_Graphics__Save 0000000010030db8     guideXOS.obj
 0003:0000de94       guideXOS_guideXOS_Graph_Graphics__ADrawImage 0000000010030e94     guideXOS.obj
 0003:0000df44       guideXOS_guideXOS_Graph_Graphics__DrawImage 0000000010030f44     guideXOS.obj
 0003:0000e19c       guideXOS_guideXOS_Graph_Graphics__FPartOfNumber 000000001003119c     guideXOS.obj
 0003:0000e1cc       guideXOS_guideXOS_Graph_Graphics__DrawPoint_0 00000000100311cc     guideXOS.obj
 0003:0000e234       guideXOS_guideXOS_Graph_Graphics__DrawLine 0000000010031234     guideXOS.obj
 0003:0000e40c       get_fattime                000000001003140c     guideXOS.obj
 0003:0000e40c       guideXOS_guideXOS_FS_FATFS__get_fattime 000000001003140c     guideXOS.obj
 0003:0000e478       RAM_disk_write             0000000010031478     guideXOS.obj
 0003:0000e478       guideXOS_guideXOS_FS_FATFS__RAM_disk_write 0000000010031478     guideXOS.obj
 0003:0000e4ac       RAM_disk_read              00000000100314ac     guideXOS.obj
 0003:0000e4ac       guideXOS_guideXOS_FS_FATFS__RAM_disk_read 00000000100314ac     guideXOS.obj
 0003:0000e4e0       guideXOS_guideXOS_FS_FileInfo__Dispose 00000000100314e0     guideXOS.obj
 0003:0000e568       guideXOS_guideXOS_FS_FileInfo___ctor 0000000010031568     guideXOS.obj
 0003:0000e56c       guideXOS_guideXOS_FS_FileSystem__SizeToSec 000000001003156c     guideXOS.obj
 0003:0000e58c       guideXOS_guideXOS_FS_FileSystem__IsInDirectory 000000001003158c     guideXOS.obj
 0003:0000e5f0       guideXOS_guideXOS_FS_TarFS__GetFiles 00000000100315f0     guideXOS.obj
 0003:0000e888       guideXOS_guideXOS_FS_TarFS__ReadAllBytes 0000000010031888     guideXOS.obj
 0003:0000eba0       guideXOS_guideXOS_FS_TarFS___ctor 0000000010031ba0     guideXOS.obj
 0003:0000ebc0       _putchar                   0000000010031bc0     guideXOS.obj
 0003:0000ebc0       guideXOS_guideXOS_Kernel_Libraries_stdio___putchar 0000000010031bc0     guideXOS.obj
 0003:0000ebd4       fopen                      0000000010031bd4     guideXOS.obj
 0003:0000ebd4       guideXOS_guideXOS_Kernel_Libraries_stdio__fopen 0000000010031bd4     guideXOS.obj
 0003:0000ed74       fseek                      0000000010031d74     guideXOS.obj
 0003:0000ed74       guideXOS_guideXOS_Kernel_Libraries_stdio__fseek 0000000010031d74     guideXOS.obj
 0003:0000ed8c       fread                      0000000010031d8c     guideXOS.obj
 0003:0000ed8c       guideXOS_guideXOS_Kernel_Libraries_stdio__fread 0000000010031d8c     guideXOS.obj
 0003:0000edf0       guideXOS_guideXOS_Kernel_Libraries_stdlib__malloc 0000000010031df0     guideXOS.obj
 0003:0000edf0       malloc                     0000000010031df0     guideXOS.obj
 0003:0000ee00       free                       0000000010031e00     guideXOS.obj
 0003:0000ee00       guideXOS_guideXOS_Kernel_Libraries_stdlib__free 0000000010031e00     guideXOS.obj
 0003:0000ee10       guideXOS_guideXOS_Kernel_Libraries_stdlib__realloc 0000000010031e10     guideXOS.obj
 0003:0000ee10       realloc                    0000000010031e10     guideXOS.obj
 0003:0000ee20       calloc                     0000000010031e20     guideXOS.obj
 0003:0000ee20       guideXOS_guideXOS_Kernel_Libraries_stdlib__calloc 0000000010031e20     guideXOS.obj
 0003:0000ee94       guideXOS_guideXOS_Kernel_Libraries_stdlib__kmalloc 0000000010031e94     guideXOS.obj
 0003:0000ee94       kmalloc                    0000000010031e94     guideXOS.obj
 0003:0000eea4       guideXOS_guideXOS_Kernel_Libraries_stdlib__kfree 0000000010031ea4     guideXOS.obj
 0003:0000eea4       kfree                      0000000010031ea4     guideXOS.obj
 0003:0000eeb4       guideXOS_guideXOS_Kernel_Libraries_stdlib__krealloc 0000000010031eb4     guideXOS.obj
 0003:0000eeb4       krealloc                   0000000010031eb4     guideXOS.obj
 0003:0000eec4       guideXOS_guideXOS_Kernel_Libraries_stdlib__kcalloc 0000000010031ec4     guideXOS.obj
 0003:0000eec4       kcalloc                    0000000010031ec4     guideXOS.obj
 0003:0000ef38       guideXOS_guideXOS_Kernel_Drivers_AC97__Initialize 0000000010031f38     guideXOS.obj
 0003:0000f258       guideXOS_guideXOS_Kernel_Drivers_AC97__OnInterrupt 0000000010032258     guideXOS.obj
 0003:0000f394       guideXOS_guideXOS_Kernel_Drivers_ACPI__GetRSDP 0000000010032394     guideXOS.obj
 0003:0000f3bc       guideXOS_guideXOS_Kernel_Drivers_ACPI__Shutdown 00000000100323bc     guideXOS.obj
 0003:0000f478       guideXOS_guideXOS_Kernel_Drivers_ACPI__Initialize 0000000010032478     guideXOS.obj
 0003:0000f53c       guideXOS_guideXOS_Kernel_Drivers_ACPI__ParseDT 000000001003253c     guideXOS.obj
 0003:0000f70c       guideXOS_guideXOS_Kernel_Drivers_ACPI__RemapIRQ 000000001003270c     guideXOS.obj
 0003:0000f764       guideXOS_guideXOS_Kernel_Drivers_ACPITimer__SleepMicroseconds 0000000010032764     guideXOS.obj
 0003:0000f888       guideXOS_guideXOS_Kernel_Drivers_EHCI__Initialize 0000000010032888     guideXOS.obj
 0003:0000fb3c       guideXOS_guideXOS_Kernel_Drivers_EHCI__SendAndReceive 0000000010032b3c     guideXOS.obj
 0003:0000fe18       guideXOS_guideXOS_Kernel_Drivers_EHCI__SetDeviceAddr 0000000010032e18     guideXOS.obj
 0003:00010080       guideXOS_guideXOS_Kernel_Drivers_EHCI__WaitForComplete 0000000010033080     guideXOS.obj
 0003:0001011c       guideXOS_guideXOS_Kernel_Drivers_EHCI__GetDesc 000000001003311c     guideXOS.obj
 0003:00010420       guideXOS_guideXOS_Kernel_Drivers_EHCI__GetConfig 0000000010033420     guideXOS.obj
 0003:00010790       guideXOS_guideXOS_Kernel_Drivers_EHCI__SetConfig 0000000010033790     guideXOS.obj
 0003:00010a14       guideXOS_guideXOS_Kernel_Drivers_EHCI__InitPort 0000000010033a14     guideXOS.obj
 0003:00010d50       guideXOS_guideXOS_Kernel_Drivers_EHCI__ScanPorts 0000000010033d50     guideXOS.obj
 0003:00010da4       guideXOS_guideXOS_Kernel_Drivers_ES1371__Initialize 0000000010033da4     guideXOS.obj
 0003:00010fe8       guideXOS_guideXOS_Kernel_Drivers_ES1371__OnInterrupt 0000000010033fe8     guideXOS.obj
 0003:000110f0       guideXOS_guideXOS_Kernel_Drivers_Framebuffer__set_TripleBuffered 00000000100340f0     guideXOS.obj
 0003:00011174       guideXOS_guideXOS_Kernel_Drivers_Framebuffer__Update 0000000010034174     guideXOS.obj
 0003:00011244       guideXOS_guideXOS_Kernel_Drivers_Framebuffer__Initialize 0000000010034244     guideXOS.obj
 0003:0001137c       guideXOS_guideXOS_Kernel_Drivers_HID__Initialize 000000001003437c     guideXOS.obj
 0003:000113ac       guideXOS_guideXOS_Kernel_Drivers_HID__GetHIDPacket 00000000100343ac     guideXOS.obj
 0003:0001141c       guideXOS_guideXOS_Kernel_Drivers_HID__GetKeyboard 000000001003441c     guideXOS.obj
 0003:000114b0       guideXOS_guideXOS_Kernel_Drivers_HID__GetMouse 00000000100344b0     guideXOS.obj
 0003:00011554       guideXOS_guideXOS_Kernel_Drivers_HID__Initialize_0 0000000010034554     guideXOS.obj
 0003:000115a4       guideXOS_guideXOS_Kernel_Drivers_HID__InitializeKeyboard 00000000100345a4     guideXOS.obj
 0003:0001168c       guideXOS_guideXOS_Kernel_Drivers_HPET__Initialize 000000001003468c     guideXOS.obj
 0003:000116e8       guideXOS_guideXOS_Kernel_Drivers_HPET__WriteRegister 00000000100346e8     guideXOS.obj
 0003:0001170c       guideXOS_guideXOS_Kernel_Drivers_HPET__ReadRegister 000000001003470c     guideXOS.obj
 0003:0001172c       guideXOS_guideXOS_Kernel_Drivers_Hub__Initialize 000000001003472c     guideXOS.obj
 0003:0001174c       guideXOS_guideXOS_Kernel_Drivers_Hub__Initialize_0 000000001003474c     guideXOS.obj
 0003:00011a94       guideXOS_guideXOS_Kernel_Drivers_IDE__Initialize 0000000010034a94     guideXOS.obj
 0003:00011aec       guideXOS_guideXOS_Kernel_Drivers_IDE__ScanPorts 0000000010034aec     guideXOS.obj
 0003:00012118       guideXOS_guideXOS_Kernel_Drivers_IDE___ScanPorts_g__WaitForIdentifyData_3_2 0000000010035118     guideXOS.obj
 0003:00012184       guideXOS_guideXOS_Kernel_Drivers_IDEDevice__ReadOrWrite 0000000010035184     guideXOS.obj
 0003:00012448       guideXOS_guideXOS_Kernel_Drivers_IDEDevice__WaitForReadyStatus 0000000010035448     guideXOS.obj
 0003:000124ac       guideXOS_guideXOS_Kernel_Drivers_IDEDevice__Read 00000000100354ac     guideXOS.obj
 0003:0001250c       guideXOS_guideXOS_Kernel_Drivers_IDEDevice__Write 000000001003550c     guideXOS.obj
 0003:00012570       guideXOS_guideXOS_Kernel_Drivers_IDEDevice___ctor 0000000010035570     guideXOS.obj
 0003:00012590       guideXOS_guideXOS_Kernel_Drivers_IOAPIC__Initialize 0000000010035590     guideXOS.obj
 0003:000125ec       guideXOS_guideXOS_Kernel_Drivers_IOAPIC__In 00000000100355ec     guideXOS.obj
 0003:00012618       guideXOS_guideXOS_Kernel_Drivers_IOAPIC__Out 0000000010035618     guideXOS.obj
 0003:00012648       guideXOS_guideXOS_Kernel_Drivers_IOAPIC__SetEntry 0000000010035648     guideXOS.obj
 0003:0001267c       guideXOS_guideXOS_Kernel_Drivers_IOAPIC__SetEntry_0 000000001003567c     guideXOS.obj
 0003:0001269c       guideXOS_guideXOS_Kernel_Drivers_Keyboard__InvokeOnKeyChanged 000000001003569c     guideXOS.obj
 0003:000126cc       guideXOS_guideXOS_Kernel_Drivers_Keyboard__CleanKeyInfo 00000000100356cc     guideXOS.obj
 0003:000126f8       guideXOS_guideXOS_Kernel_Drivers_LocalAPIC__ReadRegister 00000000100356f8     guideXOS.obj
 0003:00012718       guideXOS_guideXOS_Kernel_Drivers_LocalAPIC__SendIPI 0000000010035718     guideXOS.obj
 0003:00012768       guideXOS_guideXOS_Kernel_Drivers_LocalAPICTimer__StartTimer 0000000010035768     guideXOS.obj
 0003:000127d4       guideXOS_guideXOS_Kernel_Drivers_LocalAPICTimer__EstimateBusSpeed 00000000100357d4     guideXOS.obj
 0003:00012888       guideXOS_guideXOS_Kernel_Drivers_PCIDevice__WriteRegister 0000000010035888     guideXOS.obj
 0003:000128f4       guideXOS_guideXOS_Kernel_Drivers_PCIDevice___ctor 00000000100358f4     guideXOS.obj
 0003:000128f8       guideXOS_guideXOS_Kernel_Drivers_PCI__GetDevice 00000000100358f8     guideXOS.obj
 0003:00012968       guideXOS_guideXOS_Kernel_Drivers_PCI__GetDevice_0 0000000010035968     guideXOS.obj
 0003:000129ec       guideXOS_guideXOS_Kernel_Drivers_PCI__Initialise 00000000100359ec     guideXOS.obj
 0003:00012a78       guideXOS_guideXOS_Kernel_Drivers_PCI__CheckBus 0000000010035a78     guideXOS.obj
 0003:00012ef8       guideXOS_guideXOS_Kernel_Drivers_PCI__WriteRegister32 0000000010035ef8     guideXOS.obj
 0003:00012f94       guideXOS_guideXOS_Kernel_Drivers_PCI__ReadRegister32 0000000010035f94     guideXOS.obj
 0003:0001302c       guideXOS_guideXOS_Kernel_Drivers_PCI__ReadRegister16 000000001003602c     guideXOS.obj
 0003:000130d4       guideXOS_guideXOS_Kernel_Drivers_PCI__ReadRegister8 00000000100360d4     guideXOS.obj
 0003:0001317c       guideXOS_guideXOS_Kernel_Drivers_PCI__WriteRegister16 000000001003617c     guideXOS.obj
 0003:0001321c       guideXOS_guideXOS_Kernel_Drivers_PCI__GetVendorID 000000001003621c     guideXOS.obj
 0003:000132a8       guideXOS_guideXOS_Kernel_Drivers_PCI__GetHeaderType 00000000100362a8     guideXOS.obj
 0003:0001333c       guideXOS_guideXOS_Kernel_Drivers_PCI__GetAddressBase 000000001003633c     guideXOS.obj
 0003:0001335c       guideXOS_guideXOS_Kernel_Drivers_PCIExpress__Initialize 000000001003635c     guideXOS.obj
 0003:000133f4       guideXOS_guideXOS_Kernel_Drivers_PCIExpress__CheckBus 00000000100363f4     guideXOS.obj
 0003:000136c8       guideXOS_guideXOS_Kernel_Drivers_PIC__Disable 00000000100366c8     guideXOS.obj
 0003:000138b4       guideXOS_guideXOS_Kernel_Drivers_Power__Reboot 00000000100368b4     guideXOS.obj
 0003:00013950       guideXOS_guideXOS_Kernel_Drivers_PS2Keyboard__Initialize 0000000010036950     guideXOS.obj
 0003:00013e10       guideXOS_guideXOS_Kernel_Drivers_PS2Keyboard__OnInterrupt 0000000010036e10     guideXOS.obj
 0003:00013e68       guideXOS_guideXOS_Kernel_Drivers_PS2Keyboard__ProcessKey 0000000010036e68     guideXOS.obj
 0003:00014064       guideXOS_guideXOS_Kernel_Drivers_PS2Mouse__Initialise 0000000010037064     guideXOS.obj
 0003:00014268       guideXOS_guideXOS_Kernel_Drivers_PS2Mouse__WriteRegister 0000000010037268     guideXOS.obj
 0003:00014354       guideXOS_guideXOS_Kernel_Drivers_PS2Mouse__OnInterrupt 0000000010037354     guideXOS.obj
 0003:00014520       guideXOS_guideXOS_Kernel_Drivers_Ramdisk__Read 0000000010037520     guideXOS.obj
 0003:0001458c       guideXOS_guideXOS_Kernel_Drivers_Ramdisk__Write 000000001003758c     guideXOS.obj
 0003:000145fc       guideXOS_guideXOS_Kernel_Drivers_RTC__get_Second 00000000100375fc     guideXOS.obj
 0003:00014694       guideXOS_guideXOS_Kernel_Drivers_RTC__get_Minute 0000000010037694     guideXOS.obj
 0003:00014730       guideXOS_guideXOS_Kernel_Drivers_RTC__get_Hour 0000000010037730     guideXOS.obj
 0003:000147e4       guideXOS_guideXOS_Kernel_Drivers_RTC__get_Century 00000000100377e4     guideXOS.obj
 0003:00014880       guideXOS_guideXOS_Kernel_Drivers_RTC__get_Year 0000000010037880     guideXOS.obj
 0003:0001491c       guideXOS_guideXOS_Kernel_Drivers_RTC__get_Month 000000001003791c     guideXOS.obj
 0003:000149b8       guideXOS_guideXOS_Kernel_Drivers_RTC__get_Day 00000000100379b8     guideXOS.obj
 0003:00014a54       guideXOS_guideXOS_Kernel_Drivers_SATA__Initialize 0000000010037a54     guideXOS.obj
 0003:00014e34       guideXOS_guideXOS_Kernel_Drivers_SATA__CheckPortType 0000000010037e34     guideXOS.obj
 0003:00014e90       guideXOS_guideXOS_Kernel_Drivers_Serial__Initialise 0000000010037e90     guideXOS.obj
 0003:00014ff0       guideXOS_guideXOS_Kernel_Drivers_Serial__Write_0 0000000010037ff0     guideXOS.obj
 0003:00015078       guideXOS_guideXOS_Kernel_Drivers_SMBIOS__Initialise 0000000010038078     guideXOS.obj
 0003:00015138       guideXOS_guideXOS_Kernel_Drivers_SMBIOS__PrintIndex 0000000010038138     guideXOS.obj
 0003:00015198       guideXOS_guideXOS_Kernel_Drivers_Timer__Initialize 0000000010038198     guideXOS.obj
 0003:000151d4       guideXOS_guideXOS_Kernel_Drivers_Timer__EstimateCPUSpeed 00000000100381d4     guideXOS.obj
 0003:00015258       guideXOS_guideXOS_Kernel_Drivers_Timer__OnInterrupt 0000000010038258     guideXOS.obj
 0003:0001529c       guideXOS_guideXOS_Kernel_Drivers_Timer__Sleep 000000001003829c     guideXOS.obj
 0003:00015304       guideXOS_guideXOS_Kernel_Drivers_VMwareTools__Initialize 0000000010038304     guideXOS.obj
 0003:00015340       guideXOS_guideXOS_Kernel_Drivers_VMwareTools__vmware_handle_mouse 0000000010038340     guideXOS.obj
 0003:0001549c       guideXOS_guideXOS_Kernel_Drivers_VMwareTools__mouse_absolute 000000001003849c     guideXOS.obj
 0003:00015594       guideXOS_guideXOS_Kernel_Drivers_VMwareTools__is_vmware_backdoor 0000000010038594     guideXOS.obj
 0003:00015618       guideXOS_guideXOS_OS_AppCollection___ctor 0000000010038618     guideXOS.obj
 0003:00015668       guideXOS_guideXOS_OS_AppCollection__LoadDefaultApps 0000000010038668     guideXOS.obj
 0003:000159a0       guideXOS_guideXOS_OS_AppCollection__Load 00000000100389a0     guideXOS.obj
 0003:00015d04       guideXOS_guideXOS_GUI_Desktop__Initialize 0000000010038d04     guideXOS.obj
 0003:00015e80       guideXOS_guideXOS_GUI_Desktop__Update 0000000010038e80     guideXOS.obj
 0003:000165b8       guideXOS_guideXOS_GUI_Desktop__ClickEvent 00000000100395b8     guideXOS.obj
 0003:00016760       guideXOS_guideXOS_GUI_Desktop__OnClick 0000000010039760     guideXOS.obj
 0003:00016d30       guideXOS_guideXOS_GUI_FConsole___ctor 0000000010039d30     guideXOS.obj
 0003:00016e14       guideXOS_guideXOS_GUI_FConsole__Rebind 0000000010039e14     guideXOS.obj
 0003:00016e58       guideXOS_guideXOS_GUI_FConsole__Keyboard_OnKeyChanged 0000000010039e58     guideXOS.obj
 0003:00017058       guideXOS_guideXOS_GUI_FConsole__OnDraw 000000001003a058     guideXOS.obj
 0003:00017120       guideXOS_guideXOS_GUI_FConsole__DrawString 000000001003a120     guideXOS.obj
 0003:00017280       guideXOS_guideXOS_GUI_FConsole__Console_OnWrite 000000001003a280     guideXOS.obj
 0003:00017378       guideXOS_guideXOS_GUI_Icons__get_FileIcon 000000001003a378     guideXOS.obj
 0003:000173c4       guideXOS_guideXOS_GUI_Icons__get_IamgeIcon 000000001003a3c4     guideXOS.obj
 0003:00017410       guideXOS_guideXOS_GUI_Icons__get_AudioIcon 000000001003a410     guideXOS.obj
 0003:0001745c       guideXOS_guideXOS_GUI_Icons__get_FolderIcon 000000001003a45c     guideXOS.obj
 0003:000174a8       guideXOS_guideXOS_GUI_Icons__get_TaskbarIcon 000000001003a4a8     guideXOS.obj
 0003:000174f4       guideXOS_guideXOS_GUI_ImageViewer__OnDraw 000000001003a4f4     guideXOS.obj
 0003:00017588       guideXOS_guideXOS_GUI_ImageViewer__SetImage 000000001003a588     guideXOS.obj
 0003:00017668       guideXOS_guideXOS_GUI_Lockscreen__Run 000000001003a668     guideXOS.obj
 0003:000179b8       guideXOS_guideXOS_GUI_Lockscreen__DrawLockscreenUI 000000001003a9b8     guideXOS.obj
 0003:00017e78       guideXOS_guideXOS_GUI_MessageBox___ctor 000000001003ae78     guideXOS.obj
 0003:00017ecc       guideXOS_guideXOS_GUI_MessageBox__OnDraw 000000001003aecc     guideXOS.obj
 0003:00017f34       guideXOS_guideXOS_GUI_Monitor___ctor 000000001003af34     guideXOS.obj
 0003:00017fd8       guideXOS_guideXOS_GUI_Monitor__OnDraw 000000001003afd8     guideXOS.obj
 0003:000180bc       guideXOS_guideXOS_GUI_Monitor__Render 000000001003b0bc     guideXOS.obj
 0003:000181bc       guideXOS_guideXOS_GUI_Monitor__DrawLineChart 000000001003b1bc     guideXOS.obj
 0003:0001826c       guideXOS_guideXOS_GUI_Nofity___ctor 000000001003b26c     guideXOS.obj
 0003:00018330       guideXOS_guideXOS_GUI_Nofity__Dispose 000000001003b330     guideXOS.obj
 0003:000183fc       guideXOS_guideXOS_GUI_NotificationManager__Initialize 000000001003b3fc     guideXOS.obj
 0003:00018518       guideXOS_guideXOS_GUI_NotificationManager__Add 000000001003b518     guideXOS.obj
 0003:00018560       guideXOS_guideXOS_GUI_NotificationManager__Update 000000001003b560     guideXOS.obj
 0003:00018874       guideXOS_guideXOS_GUI_Paint___ctor 000000001003b874     guideXOS.obj
 0003:00018c48       guideXOS_guideXOS_GUI_Paint__OnDraw 000000001003bc48     guideXOS.obj
 0003:00018de0       guideXOS_guideXOS_GUI_Paint__OnInput 000000001003bde0     guideXOS.obj
 0003:00018ffc       guideXOS_guideXOS_GUI_Paint__AddButton 000000001003bffc     guideXOS.obj
 0003:00019084       guideXOS_guideXOS_GUI_RightMenu___ctor 000000001003c084     guideXOS.obj
 0003:000190d4       guideXOS_guideXOS_GUI_RightMenu__OnSetVisible 000000001003c0d4     guideXOS.obj
 0003:00019100       guideXOS_guideXOS_GUI_RightMenu__OnInput 000000001003c100     guideXOS.obj
 0003:000191e0       guideXOS_guideXOS_GUI_RightMenu__OnDraw 000000001003c1e0     guideXOS.obj
 0003:0001928c       guideXOS_guideXOS_GUI_StartMenu___ctor 000000001003c28c     guideXOS.obj
 0003:000192d0       guideXOS_guideXOS_GUI_Taskbar__Draw 000000001003c2d0     guideXOS.obj
 0003:000193f8       guideXOS_guideXOS_GUI_WAVPlayer___ctor 000000001003c3f8     guideXOS.obj
 0003:00019504       guideXOS_guideXOS_GUI_WAVPlayer__OnInput 000000001003c504     guideXOS.obj
 0003:0001955c       guideXOS_guideXOS_GUI_WAVPlayer__OnDraw 000000001003c55c     guideXOS.obj
 0003:000196cc       guideXOS_guideXOS_GUI_WAVPlayer__DoPlay 000000001003c6cc     guideXOS.obj
 0003:00019788       guideXOS_guideXOS_GUI_Welcome___ctor 000000001003c788     guideXOS.obj
 0003:00019850       guideXOS_guideXOS_GUI_Welcome__OnDraw 000000001003c850     guideXOS.obj
 0003:000198fc       guideXOS_guideXOS_GUI_Window__IsUnderMouse 000000001003c8fc     guideXOS.obj
 0003:00019940       guideXOS_guideXOS_GUI_Window__OnSetVisible 000000001003c940     guideXOS.obj
 0003:00019944       guideXOS_guideXOS_GUI_Window___ctor 000000001003c944     guideXOS.obj
 0003:000199c4       guideXOS_guideXOS_GUI_Window__OnInput 000000001003c9c4     guideXOS.obj
 0003:00019b24       guideXOS_guideXOS_GUI_Window__get_CloseButtonX 000000001003cb24     guideXOS.obj
 0003:00019b60       guideXOS_guideXOS_GUI_Window__get_CloseButtonY 000000001003cb60     guideXOS.obj
 0003:00019ba0       guideXOS_guideXOS_GUI_Window__OnDraw 000000001003cba0     guideXOS.obj
 0003:00019cd4       guideXOS_guideXOS_GUI_Window__DrawBorder 000000001003ccd4     guideXOS.obj
 0003:00019d4c       guideXOS_guideXOS_GUI_WindowManager__Initialize 000000001003cd4c     guideXOS.obj
 0003:00019e64       guideXOS_guideXOS_GUI_WindowManager__DrawAll 000000001003ce64     guideXOS.obj
 0003:00019eb4       guideXOS_guideXOS_GUI_WindowManager__InputAll 000000001003ceb4     guideXOS.obj
 0003:00019f0c       guideXOS_guideXOS_GUI_Widgets_Button___ctor 000000001003cf0c     guideXOS.obj
 0003:00019f10       guideXOS_guideXOS_GUI_Widgets_Base_Widget___ctor 000000001003cf10     guideXOS.obj
 0003:00019f14       guideXOS_guideXOS_DefaultApps_Calculator___ctor 000000001003cf14     guideXOS.obj
 0003:0001a250       guideXOS_guideXOS_DefaultApps_Calculator__OnDraw 000000001003d250     guideXOS.obj
 0003:0001a3b0       guideXOS_guideXOS_DefaultApps_Calculator__OnInput 000000001003d3b0     guideXOS.obj
 0003:0001a4a8       guideXOS_guideXOS_DefaultApps_Calculator__ProcessButton 000000001003d4a8     guideXOS.obj
 0003:0001a764       guideXOS_guideXOS_DefaultApps_Calculator__AddButton 000000001003d764     guideXOS.obj
 0003:0001a850       guideXOS_guideXOS_DefaultApps_Clock___ctor 000000001003d850     guideXOS.obj
 0003:0001a914       guideXOS_guideXOS_DefaultApps_Clock__OnDraw 000000001003d914     guideXOS.obj
 0003:0001ad6c       guideXOS_guideXOS_DefaultApps_Clock__DrawHand 000000001003dd6c     guideXOS.obj
 0003:0001af20       guideXOS_guideXOS_DefaultApps_Notepad__OnDraw 000000001003df20     guideXOS.obj
 0003:0001af28       guideXOS_guideXOS_DefaultApps_Notepad__OnInput 000000001003df28     guideXOS.obj
 0003:0001af2c       guideXOS_guideXOS_Misc_Interrupts_INT___ctor 000000001003df2c     guideXOS.obj
 0003:0001af30       guideXOS_guideXOS_Kernel_Drivers_EHCI_TD__Clean 000000001003df30     guideXOS.obj
 0003:0001afa0       guideXOS_guideXOS_Kernel_Drivers_EHCI_QH__Clean 000000001003dfa0     guideXOS.obj
 0003:0001b010       guideXOS_guideXOS_Kernel_Drivers_SATA_HBACommandHeader__set_CommandFISLength 000000001003e010     guideXOS.obj
 0003:0001b01c       guideXOS_guideXOS_Kernel_Drivers_SATA_HBACommandHeader__set_Write 000000001003e01c     guideXOS.obj
 0003:0001b028       guideXOS_guideXOS_Kernel_Drivers_SATA_SATADevice__Configure 000000001003e028     guideXOS.obj
 0003:0001b0fc       guideXOS_guideXOS_Kernel_Drivers_SATA_SATADevice__StartCMD 000000001003e0fc     guideXOS.obj
 0003:0001b120       guideXOS_guideXOS_Kernel_Drivers_SATA_SATADevice__StopCMD 000000001003e120     guideXOS.obj
 0003:0001b154       guideXOS_guideXOS_Kernel_Drivers_SATA_SATADevice__Read 000000001003e154     guideXOS.obj
 0003:0001b170       guideXOS_guideXOS_Kernel_Drivers_SATA_SATADevice__Write 000000001003e170     guideXOS.obj
 0003:0001b18c       guideXOS_guideXOS_Kernel_Drivers_SATA_SATADevice__ReadOrWrite 000000001003e18c     guideXOS.obj
 0003:0001b450       guideXOS_guideXOS_Kernel_Drivers_SATA_SATADevice__FindSlot 000000001003e450     guideXOS.obj
 0003:0001b488       guideXOS_guideXOS_Kernel_Drivers_SATA_SATADevice___ctor 000000001003e488     guideXOS.obj
 0003:0001b4a8       guideXOS_guideXOS_GUI_Monitor_Chart___ctor 000000001003e4a8     guideXOS.obj
 0003:0001b51c       guideXOS_System_Array_1<UInt8>___ctor 000000001003e51c     guideXOS.obj
 0003:0001b520       guideXOS_System_Collections_Generic_List_1<UInt8>__Dispose 000000001003e520     guideXOS.obj
 0003:0001b5a8       guideXOS_System_Array_1<Char>___ctor 000000001003e5a8     guideXOS.obj
 0003:0001b5ac       guideXOS_System_Array_1<guideXOS_System_ConsoleKey>___ctor 000000001003e5ac     guideXOS.obj
 0003:0001b5b0       guideXOS_System_Array_1<Int32>___ctor 000000001003e5b0     guideXOS.obj
 0003:0001b5b4       guideXOS_System_Array_1<UInt32>___ctor 000000001003e5b4     guideXOS.obj
 0003:0001b5b8       guideXOS_System_Array_1<guideXOS_IDT_IDTEntry>___ctor 000000001003e5b8     guideXOS.obj
 0003:0001b5bc       guideXOS_System_Array_1<System___Canon>___ctor 000000001003e5bc     guideXOS.obj
 0003:0001b5c0       guideXOS_System_Collections_Generic_List_1<System___Canon>__Insert 000000001003e5c0     guideXOS.obj
 0003:0001b66c       guideXOS_System_Collections_Generic_List_1<System___Canon>__IndexOf 000000001003e66c     guideXOS.obj
 0003:0001b6cc       guideXOS_System_Collections_Generic_List_1<System___Canon>__Remove 000000001003e6cc     guideXOS.obj
 0003:0001b700       guideXOS_System_Collections_Generic_List_1<System___Canon>__RemoveAt 000000001003e700     guideXOS.obj
 0003:0001b760       guideXOS_System_Collections_Generic_List_1<System___Canon>__Dispose 000000001003e760     guideXOS.obj
 0003:0001b7e8       __managed__Main            000000001003e7e8     guideXOS.obj
 0003:0001b7e8       guideXOS__Module___StartupCodeMain 000000001003e7e8     guideXOS.obj
 0004:00000000       __embedded_metadata        000000001003f000     guideXOS.obj
 0004:00002e36       __embedded_metadata_End    0000000010041e36     guideXOS.obj
 0004:00002e36       __embedded_resourcedata    0000000010041e36     guideXOS.obj
 0004:00002e36       __embedded_resourcedata_End 0000000010041e36     guideXOS.obj
 0004:00002e36       __embedded_resourceindex   0000000010041e36     guideXOS.obj
 0004:00002e39       __embedded_resourceindex_End 0000000010041e39     guideXOS.obj
 0004:00002e39       __type_to_metadata_map     0000000010041e39     guideXOS.obj
 0004:00002ff3       __type_to_cctorContext_map 0000000010041ff3     guideXOS.obj
 0004:00002ff3       __type_to_metadata_map_End 0000000010041ff3     guideXOS.obj
 0004:00002ff6       __method_to_entrypoint_map 0000000010041ff6     guideXOS.obj
 0004:00002ff6       __type_to_cctorContext_map_End 0000000010041ff6     guideXOS.obj
 0004:00002ff9       __delegate_marshalling_stub_map 0000000010041ff9     guideXOS.obj
 0004:00002ff9       __method_to_entrypoint_map_End 0000000010041ff9     guideXOS.obj
 0004:00002ffc       __delegate_marshalling_stub_map_End 0000000010041ffc     guideXOS.obj
 0004:00002ffc       __struct_marshalling_stub_map 0000000010041ffc     guideXOS.obj
 0004:00002fff       __array_type_map           0000000010041fff     guideXOS.obj
 0004:00002fff       __struct_marshalling_stub_map_End 0000000010041fff     guideXOS.obj
 0004:00003042       __array_type_map_End       0000000010042042     guideXOS.obj
 0004:00003042       __field_to_offset_map      0000000010042042     guideXOS.obj
 0004:00003045       __exact_method_instantiations 0000000010042045     guideXOS.obj
 0004:00003045       __field_to_offset_map_End  0000000010042045     guideXOS.obj
 0004:00003045       __nativelayoutinfo         0000000010042045     guideXOS.obj
 0004:00003045       __nativelayoutinfo_End     0000000010042045     guideXOS.obj
 0004:00003048       __exact_method_instantiations_End 0000000010042048     guideXOS.obj
 0004:00003048       __generic_types_hashtable  0000000010042048     guideXOS.obj
 0004:00003076       __generic_methods_hashtable 0000000010042076     guideXOS.obj
 0004:00003076       __generic_types_hashtable_End 0000000010042076     guideXOS.obj
 0004:00003079       __generic_methods_hashtable_End 0000000010042079     guideXOS.obj
 0004:00003079       __gvm_table                0000000010042079     guideXOS.obj
 0004:0000307c       __gvm_table_End            000000001004207c     guideXOS.obj
 0004:0000307c       __interface_gvm_table      000000001004207c     guideXOS.obj
 0004:0000307f       __GenericMethodsTemplateMap 000000001004207f     guideXOS.obj
 0004:0000307f       __interface_gvm_table_End  000000001004207f     guideXOS.obj
 0004:00003082       __GenericMethodsTemplateMap_End 0000000010042082     guideXOS.obj
 0004:00003082       __GenericTypesTemplateMap  0000000010042082     guideXOS.obj
 0004:00003085       __GenericTypesTemplateMap_End 0000000010042085     guideXOS.obj
 0004:00003085       __block_reflection_type_map 0000000010042085     guideXOS.obj
 0004:0000316a       _StaticsInfoHashtableNode  000000001004216a     guideXOS.obj
 0004:0000316a       __block_reflection_type_map_End 000000001004216a     guideXOS.obj
 0004:0000316d       _StaticsInfoHashtableNode_End 000000001004216d     guideXOS.obj
 0004:0000316d       __VirtualInvokeMap         000000001004216d     guideXOS.obj
 0004:00003170       __DefaultConstructor_Map   0000000010042170     guideXOS.obj
 0004:00003170       __VirtualInvokeMap_End     0000000010042170     guideXOS.obj
 0004:000031b0       __DefaultConstructor_Map_End 00000000100421b0     guideXOS.obj
 0004:000031b0       __external_CommonFixupsTable_references 00000000100421b0     guideXOS.obj
 0004:00003328       __external_CommonFixupsTable_references_End 0000000010042328     guideXOS.obj
 0004:00003328       __external_NativeReferences_references 0000000010042328     guideXOS.obj
 0004:00003360       __external_NativeReferences_references_End 0000000010042360     guideXOS.obj
 0004:00003360       __external_NativeStatics_references 0000000010042360     guideXOS.obj
 0004:00003360       __external_NativeStatics_references_End 0000000010042360     guideXOS.obj
 0004:00003360       _stacktrace_methodRVA_to_token_mapping 0000000010042360     guideXOS.obj
 0004:00003fe0       __ReadyToRunHeader         0000000010042fe0     guideXOS.obj
 0004:00003fe0       _stacktrace_methodRVA_to_token_mapping_End 0000000010042fe0     guideXOS.obj
 0004:000042c0       __readonlydata_g_compilerEmbeddedSettingsBlob 00000000100432c0     guideXOS.obj
 0004:000042c0       g_compilerEmbeddedSettingsBlob 00000000100432c0     guideXOS.obj
 0004:000042c4       __readonlydata_g_requiredCpuFeatures 00000000100432c4     guideXOS.obj
 0004:000042c4       g_requiredCpuFeatures      00000000100432c4     guideXOS.obj
 0004:000042c8       __utf8str_Error            00000000100432c8     guideXOS.obj
 0004:000042ce       __utf8str_StartThread      00000000100432ce     guideXOS.obj
 0004:000042e0       ??_7guideXOS_System_EventHandler_1@@6B@ 00000000100432e0     guideXOS.obj
 0004:00004300       ??_7guideXOS_System_Collections_Generic_List_1@@6B@ 0000000010043300     guideXOS.obj
 0004:00004320       ??_7guideXOS_System_Array@@6B@ 0000000010043320     guideXOS.obj
 0004:00004358       ??_7Boxed_UInt8@@6B@       0000000010043358     guideXOS.obj
 0004:000043a8       ??_7guideXOS_System_Delegate@@6B@ 00000000100433a8     guideXOS.obj
 0004:000043f8       ??_7guideXOS_System_MulticastDelegate@@6B@ 00000000100433f8     guideXOS.obj
 0004:00004430       ??_7Object@@6B@            0000000010043430     guideXOS.obj
 0004:00004468       ??_7String@@6B@            0000000010043468     guideXOS.obj
 0004:00004498       ??_7Boxed_UInt16@@6B@      0000000010043498     guideXOS.obj
 0004:000044d0       ??_7Boxed_UInt32@@6B@      00000000100434d0     guideXOS.obj
 0004:00004508       ??_7guideXOS_System_ValueType@@6B@ 0000000010043508     guideXOS.obj
 0004:00004558       ??_7guideXOS_System_Drawing_Image@@6B@ 0000000010043558     guideXOS.obj
 0004:00004590       ??_7guideXOS_guideXOS_Animation@@6B@ 0000000010043590     guideXOS.obj
 0004:000045e0       ??_7guideXOS_guideXOS_Misc_BitFontDescriptor@@6B@ 00000000100435e0     guideXOS.obj
 0004:00004630       ??_7guideXOS_guideXOS_Misc_Bitmap@@6B@ 0000000010043630     guideXOS.obj
 0004:00004680       ??_7guideXOS_guideXOS_Misc_IFont@@6B@ 0000000010043680     guideXOS.obj
 0004:000046d0       ??_7guideXOS_guideXOS_Misc_PNG@@6B@ 00000000100436d0     guideXOS.obj
 0004:00004708       ??_7guideXOS_guideXOS_Misc_Thread@@6B@ 0000000010043708     guideXOS.obj
 0004:00004758       ??_7guideXOS_guideXOS_Misc_USBDevice@@6B@ 0000000010043758     guideXOS.obj
 0004:00004790       ??_7guideXOS_guideXOS_Graph_Graphics@@6B@ 0000000010043790     guideXOS.obj
 0004:00004828       ??_7guideXOS_guideXOS_FS_Disk@@6B@ 0000000010043828     guideXOS.obj
 0004:00004888       ??_7guideXOS_guideXOS_FS_FileInfo@@6B@ 0000000010043888     guideXOS.obj
 0004:000048c0       ??_7guideXOS_guideXOS_FS_FileSystem@@6B@ 00000000100438c0     guideXOS.obj
 0004:00004908       ??_7guideXOS_guideXOS_FS_TarFS@@6B@ 0000000010043908     guideXOS.obj
 0004:00004950       ??_7guideXOS_guideXOS_Kernel_Drivers_IDEDevice@@6B@ 0000000010043950     guideXOS.obj
 0004:00004998       ??_7guideXOS_guideXOS_Kernel_Drivers_PCIDevice@@6B@ 0000000010043998     guideXOS.obj
 0004:000049d0       ??_7guideXOS_guideXOS_Kernel_Drivers_Ramdisk@@6B@ 00000000100439d0     guideXOS.obj
 0004:00004a28       ??_7guideXOS_guideXOS_OS_App@@6B@ 0000000010043a28     guideXOS.obj
 0004:00004a70       ??_7guideXOS_guideXOS_OS_AppCollection@@6B@ 0000000010043a70     guideXOS.obj
 0004:00004ac8       ??_7guideXOS_guideXOS_GUI_FConsole@@6B@ 0000000010043ac8     guideXOS.obj
 0004:00004b38       ??_7guideXOS_guideXOS_GUI_ImageViewer@@6B@ 0000000010043b38     guideXOS.obj
 0004:00004ba8       ??_7guideXOS_guideXOS_GUI_MessageBox@@6B@ 0000000010043ba8     guideXOS.obj
 0004:00004c18       ??_7guideXOS_guideXOS_GUI_Monitor@@6B@ 0000000010043c18     guideXOS.obj
 0004:00004c78       ??_7guideXOS_guideXOS_GUI_Nofity@@6B@ 0000000010043c78     guideXOS.obj
 0004:00004cd8       ??_7guideXOS_guideXOS_GUI_Paint@@6B@ 0000000010043cd8     guideXOS.obj
 0004:00004d50       ??_7guideXOS_guideXOS_GUI_RightMenu@@6B@ 0000000010043d50     guideXOS.obj
 0004:00004db0       ??_7guideXOS_guideXOS_GUI_StartMenu@@6B@ 0000000010043db0     guideXOS.obj
 0004:00004e18       ??_7guideXOS_guideXOS_GUI_Taskbar@@6B@ 0000000010043e18     guideXOS.obj
 0004:00004e78       ??_7guideXOS_guideXOS_GUI_WAVPlayer@@6B@ 0000000010043e78     guideXOS.obj
 0004:00004ee8       ??_7guideXOS_guideXOS_GUI_Welcome@@6B@ 0000000010043ee8     guideXOS.obj
 0004:00004f48       ??_7guideXOS_guideXOS_GUI_Window@@6B@ 0000000010043f48     guideXOS.obj
 0004:00004fb0       ??_7guideXOS_guideXOS_GUI_Widgets_Button@@6B@ 0000000010043fb0     guideXOS.obj
 0004:00004fe8       ??_7guideXOS_guideXOS_GUI_Widgets_Base_Widget@@6B@ 0000000010043fe8     guideXOS.obj
 0004:00005040       ??_7guideXOS_guideXOS_DefaultApps_Calculator@@6B@ 0000000010044040     guideXOS.obj
 0004:000050a8       ??_7guideXOS_guideXOS_DefaultApps_Clock@@6B@ 00000000100440a8     guideXOS.obj
 0004:00005110       ??_7guideXOS_guideXOS_DefaultApps_Notepad@@6B@ 0000000010044110     guideXOS.obj
 0004:00005178       ??_7guideXOS_guideXOS_Console_OnWriteHandler@@6B@ 0000000010044178     guideXOS.obj
 0004:000051a8       ??_7guideXOS_guideXOS_Misc_Interrupts_INT@@6B@ 00000000100441a8     guideXOS.obj
 0004:000051e0       ??_7guideXOS_guideXOS_Kernel_Drivers_SATA_SATADevice@@6B@ 00000000100441e0     guideXOS.obj
 0004:00005240       ??_7guideXOS_guideXOS_GUI_Monitor_Chart@@6B@ 0000000010044240     guideXOS.obj
 0004:00005290       ??_7guideXOS_System_Collections_Generic_List_1<UInt8>@@6B@ 0000000010044290     guideXOS.obj
 0004:000052e8       ??_7guideXOS_System_EventHandler_1<guideXOS_System_ConsoleKeyInfo>@@6B@ 00000000100442e8     guideXOS.obj
 0004:00005338       ??_7guideXOS_System_Collections_Generic_List_1<guideXOS_guideXOS_Animation>@@6B@ 0000000010044338     guideXOS.obj
 0004:00005398       ??_7guideXOS_System_Collections_Generic_List_1<guideXOS_guideXOS_Misc_BitFontDescriptor>@@6B@ 0000000010044398     guideXOS.obj
 0004:000053f8       ??_7guideXOS_System_Collections_Generic_List_1<guideXOS_guideXOS_Misc_Thread>@@6B@ 00000000100443f8     guideXOS.obj
 0004:00005458       ??_7guideXOS_System_Collections_Generic_List_1<guideXOS_guideXOS_FS_FileInfo>@@6B@ 0000000010044458     guideXOS.obj
 0004:000054b8       ??_7guideXOS_System_Collections_Generic_List_1<guideXOS_guideXOS_Kernel_Drivers_IDEDevice>@@6B@ 00000000100444b8     guideXOS.obj
 0004:00005518       ??_7guideXOS_System_Collections_Generic_List_1<guideXOS_guideXOS_Kernel_Drivers_PCIDevice>@@6B@ 0000000010044518     guideXOS.obj
 0004:00005578       ??_7guideXOS_System_Collections_Generic_List_1<guideXOS_guideXOS_OS_App>@@6B@ 0000000010044578     guideXOS.obj
 0004:000055d8       ??_7guideXOS_System_Collections_Generic_List_1<guideXOS_guideXOS_GUI_Nofity>@@6B@ 00000000100445d8     guideXOS.obj
 0004:00005638       ??_7guideXOS_System_Collections_Generic_List_1<guideXOS_guideXOS_GUI_Window>@@6B@ 0000000010044638     guideXOS.obj
 0004:00005698       ??_7guideXOS_System_Collections_Generic_List_1<guideXOS_guideXOS_GUI_Widgets_Button>@@6B@ 0000000010044698     guideXOS.obj
 0004:000056f8       ??_7guideXOS_System_Collections_Generic_List_1<guideXOS_guideXOS_Misc_Interrupts_INT>@@6B@ 00000000100446f8     guideXOS.obj
 0004:00005758       ??_7guideXOS_System_Collections_Generic_List_1<guideXOS_guideXOS_Kernel_Drivers_SATA_SATADevice>@@6B@ 0000000010044758     guideXOS.obj
 0004:000057a0       ??_7__Array<UInt8>@@6B@    00000000100447a0     guideXOS.obj
 0004:000057d0       ??_7__Array<Char>@@6B@     00000000100447d0     guideXOS.obj
 0004:00005800       ??_7__Array<guideXOS_System_ConsoleKey>@@6B@ 0000000010044800     guideXOS.obj
 0004:00005830       ??_7__Array<Int32>@@6B@    0000000010044830     guideXOS.obj
 0004:00005878       ??_7__Array<Object>@@6B@   0000000010044878     guideXOS.obj
 0004:000058c8       ??_7__Array<String>@@6B@   00000000100448c8     guideXOS.obj
 0004:00005900       ??_7__Array<UInt32>@@6B@   0000000010044900     guideXOS.obj
 0004:00005948       ??_7__Array<guideXOS_System_Drawing_Image>@@6B@ 0000000010044948     guideXOS.obj
 0004:00005998       ??_7__Array<guideXOS_guideXOS_Animation>@@6B@ 0000000010044998     guideXOS.obj
 0004:000059e8       ??_7__Array<guideXOS_guideXOS_Misc_BitFontDescriptor>@@6B@ 00000000100449e8     guideXOS.obj
 0004:00005a38       ??_7__Array<guideXOS_guideXOS_Misc_Thread>@@6B@ 0000000010044a38     guideXOS.obj
 0004:00005a88       ??_7__Array<guideXOS_guideXOS_FS_FileInfo>@@6B@ 0000000010044a88     guideXOS.obj
 0004:00005ad8       ??_7__Array<guideXOS_guideXOS_Kernel_Drivers_IDEDevice>@@6B@ 0000000010044ad8     guideXOS.obj
 0004:00005b28       ??_7__Array<guideXOS_guideXOS_Kernel_Drivers_PCIDevice>@@6B@ 0000000010044b28     guideXOS.obj
 0004:00005b78       ??_7__Array<guideXOS_guideXOS_OS_App>@@6B@ 0000000010044b78     guideXOS.obj
 0004:00005bc8       ??_7__Array<guideXOS_guideXOS_GUI_Nofity>@@6B@ 0000000010044bc8     guideXOS.obj
 0004:00005c18       ??_7__Array<guideXOS_guideXOS_GUI_Window>@@6B@ 0000000010044c18     guideXOS.obj
 0004:00005c68       ??_7__Array<guideXOS_guideXOS_GUI_Widgets_Button>@@6B@ 0000000010044c68     guideXOS.obj
 0004:00005ca0       ??_7__Array<guideXOS_IDT_IDTEntry>@@6B@ 0000000010044ca0     guideXOS.obj
 0004:00005ce8       ??_7__Array<guideXOS_guideXOS_Misc_Interrupts_INT>@@6B@ 0000000010044ce8     guideXOS.obj
 0004:00005d38       ??_7__Array<guideXOS_guideXOS_Kernel_Drivers_SATA_SATADevice>@@6B@ 0000000010044d38     guideXOS.obj
 0004:00005d70       __readonlydata_guideXOS_Program__SMain 0000000010044d70     guideXOS.obj
 0004:00005d88       __readonlydata_guideXOS_IDT__intr_handler 0000000010044d88     guideXOS.obj
 0004:00005dd0       __readonlydata_guideXOS_System_Math__Pow 0000000010044dd0     guideXOS.obj
 0004:00005dd8       __readonlydata_guideXOS_System_Math__Fact 0000000010044dd8     guideXOS.obj
 0004:00005de0       __readonlydata_guideXOS_System_Math__Sin 0000000010044de0     guideXOS.obj
 0004:00005de8       __readonlydata_guideXOS_System_MathF__Floor 0000000010044de8     guideXOS.obj
 0004:00005df0       __readonlydata_guideXOS_System_Drawing_Image__Resample 0000000010044df0     guideXOS.obj
 0004:00005df8       __readonlydata_guideXOS_guideXOS_Graph_Graphics__DrawPoint_0 0000000010044df8     guideXOS.obj
 0004:00005e00       __readonlydata_guideXOS_guideXOS_Graph_Graphics__DrawLine 0000000010044e00     guideXOS.obj
 0004:00005e18       __readonlydata_guideXOS_guideXOS_Kernel_Drivers_VMwareTools__vmware_handle_mouse 0000000010044e18     guideXOS.obj
 0004:00005e20       __readonlydata_guideXOS_guideXOS_GUI_Desktop__ClickEvent 0000000010044e20     guideXOS.obj
 0004:00005e28       __readonlydata_guideXOS_guideXOS_GUI_ImageViewer__SetImage 0000000010044e28     guideXOS.obj
 0004:00005e30       __readonlydata_guideXOS_guideXOS_DefaultApps_Clock__DrawHand 0000000010044e30     guideXOS.obj
 0004:00005e40       ?__GCSTATICS@guideXOS_guideXOS_Kernel_Drivers_SATA@@__PreInitData 0000000010044e40     guideXOS.obj
 0004:00005e60       __GCStaticEEType_01        0000000010044e60     guideXOS.obj
 0004:00005e88       __GCStaticEEType_011       0000000010044e88     guideXOS.obj
 0004:00005eb0       __GCStaticEEType_0111      0000000010044eb0     guideXOS.obj
 0004:00005ed8       __GCStaticEEType_01111     0000000010044ed8     guideXOS.obj
 0004:00005f00       __GCStaticEEType_011111    0000000010044f00     guideXOS.obj
 0004:00005f28       __GCStaticEEType_0111111   0000000010044f28     guideXOS.obj
 0004:00005f38       ??_7guideXOS__Module_@@6B@ 0000000010044f38     guideXOS.obj
 0004:00005f58       ??_7Boxed_Char@@6B@        0000000010044f58     guideXOS.obj
 0004:00005f80       ??_7Boxed_guideXOS_System_ConsoleKey@@6B@ 0000000010044f80     guideXOS.obj
 0004:00005fa8       ??_7Boxed_guideXOS_System_ConsoleKeyInfo@@6B@ 0000000010044fa8     guideXOS.obj
 0004:00005fd0       ??_7guideXOS_System_Enum@@6B@ 0000000010044fd0     guideXOS.obj
 0004:00005ff8       ??_7Boxed_Int32@@6B@       0000000010044ff8     guideXOS.obj
 0004:00006020       ??_7guideXOS_guideXOS_Console@@6B@ 0000000010045020     guideXOS.obj
 0004:00006048       ??_7Boxed_guideXOS_IDT_IDTEntry@@6B@ 0000000010045048     guideXOS.obj
 0004:00006070       __GenericInstance_UInt8    0000000010045070     guideXOS.obj
 0004:00006080       __GenericInstance_guideXOS_System_ConsoleKeyInfo 0000000010045080     guideXOS.obj
 0004:00006090       __GenericInstance_guideXOS_guideXOS_Animation 0000000010045090     guideXOS.obj
 0004:000060a0       __GenericInstance_guideXOS_guideXOS_Misc_BitFontDescriptor 00000000100450a0     guideXOS.obj
 0004:000060b0       __GenericInstance_guideXOS_guideXOS_Misc_Thread 00000000100450b0     guideXOS.obj
 0004:000060c0       __GenericInstance_guideXOS_guideXOS_FS_FileInfo 00000000100450c0     guideXOS.obj
 0004:000060d0       __GenericInstance_guideXOS_guideXOS_Kernel_Drivers_IDEDevice 00000000100450d0     guideXOS.obj
 0004:000060e0       __GenericInstance_guideXOS_guideXOS_Kernel_Drivers_PCIDevice 00000000100450e0     guideXOS.obj
 0004:000060f0       __GenericInstance_guideXOS_guideXOS_OS_App 00000000100450f0     guideXOS.obj
 0004:00006100       __GenericInstance_guideXOS_guideXOS_GUI_Nofity 0000000010045100     guideXOS.obj
 0004:00006110       __GenericInstance_guideXOS_guideXOS_GUI_Window 0000000010045110     guideXOS.obj
 0004:00006120       __GenericInstance_guideXOS_guideXOS_GUI_Widgets_Button 0000000010045120     guideXOS.obj
 0004:00006130       __GenericInstance_guideXOS_guideXOS_Misc_Interrupts_INT 0000000010045130     guideXOS.obj
 0004:00006140       __GenericInstance_guideXOS_guideXOS_Kernel_Drivers_SATA_SATADevice 0000000010045140     guideXOS.obj
 0004:00006150       __ehinfo_guideXOS_Allocator__Free 0000000010045150     guideXOS.obj
 0004:00006156       __ehinfo_guideXOS_Allocator__Allocate 0000000010045156     guideXOS.obj
 0004:0000615c       __ehinfo_guideXOS_Internal_Runtime_CompilerHelpers_ThrowHelpers__Error 000000001004515c     guideXOS.obj
 0004:00006162       __ehinfo_String__Format    0000000010045162     guideXOS.obj
 0004:00006168       __ehinfo_guideXOS_System_Drawing_Image__ResizeImage 0000000010045168     guideXOS.obj
 0004:0000616f       __ehinfo_guideXOS_guideXOS_Console__add_OnWrite 000000001004516f     guideXOS.obj
 0004:00006174       __ehinfo_guideXOS_guideXOS_Misc_PNG___ctor 0000000010045174     guideXOS.obj
 0004:0000617a       __ehinfo_guideXOS_guideXOS_Misc_Thread__Start 000000001004517a     guideXOS.obj
 0004:00006180       __ehinfo_guideXOS_guideXOS_Misc_Thread__Start_0 0000000010045180     guideXOS.obj
 0004:00006186       __ehinfo_guideXOS_guideXOS_DefaultApps_Clock__DrawHand 0000000010045186     guideXOS.obj
 0004:0000618c       __optionalfields_??_7guideXOS_System_Array@@6B@ 000000001004518c     guideXOS.obj
 0004:00006192       __optionalfields_??_7Boxed_UInt8@@6B@ 0000000010045192     guideXOS.obj
 0004:00006194       __optionalfields_??_7guideXOS_System_Delegate@@6B@ 0000000010045194     guideXOS.obj
 0004:00006198       __optionalfields_??_7guideXOS_System_MulticastDelegate@@6B@ 0000000010045198     guideXOS.obj
 0004:0000619c       __optionalfields_??_7Object@@6B@ 000000001004519c     guideXOS.obj
 0004:0000619f       __optionalfields_??_7Boxed_UInt16@@6B@ 000000001004519f     guideXOS.obj
 0004:000061a1       __optionalfields_??_7Boxed_UInt32@@6B@ 00000000100451a1     guideXOS.obj
 0004:000061a3       __optionalfields_??_7guideXOS_System_ValueType@@6B@ 00000000100451a3     guideXOS.obj
 0004:000061aa       __optionalfields_??_7guideXOS_System_Drawing_Image@@6B@ 00000000100451aa     guideXOS.obj
 0004:000061ac       __optionalfields_??_7guideXOS_guideXOS_Animation@@6B@ 00000000100451ac     guideXOS.obj
 0004:000061ae       __optionalfields_??_7guideXOS_guideXOS_Misc_BitFontDescriptor@@6B@ 00000000100451ae     guideXOS.obj
 0004:000061b0       __optionalfields_??_7guideXOS_guideXOS_Misc_Bitmap@@6B@ 00000000100451b0     guideXOS.obj
 0004:000061b2       __optionalfields_??_7guideXOS_guideXOS_Misc_IFont@@6B@ 00000000100451b2     guideXOS.obj
 0004:000061b4       __optionalfields_??_7guideXOS_guideXOS_Misc_PNG@@6B@ 00000000100451b4     guideXOS.obj
 0004:000061b6       __optionalfields_??_7guideXOS_guideXOS_Misc_Thread@@6B@ 00000000100451b6     guideXOS.obj
 0004:000061b8       __optionalfields_??_7guideXOS_guideXOS_Misc_USBDevice@@6B@ 00000000100451b8     guideXOS.obj
 0004:000061ba       __optionalfields_??_7guideXOS_guideXOS_FS_Disk@@6B@ 00000000100451ba     guideXOS.obj
 0004:000061c1       __optionalfields_??_7guideXOS_guideXOS_FS_FileInfo@@6B@ 00000000100451c1     guideXOS.obj
 0004:000061c3       __optionalfields_??_7guideXOS_guideXOS_FS_FileSystem@@6B@ 00000000100451c3     guideXOS.obj
 0004:000061ca       __optionalfields_??_7guideXOS_guideXOS_FS_TarFS@@6B@ 00000000100451ca     guideXOS.obj
 0004:000061cd       __optionalfields_??_7guideXOS_guideXOS_Kernel_Drivers_IDEDevice@@6B@ 00000000100451cd     guideXOS.obj
 0004:000061cf       __optionalfields_??_7guideXOS_guideXOS_Kernel_Drivers_PCIDevice@@6B@ 00000000100451cf     guideXOS.obj
 0004:000061d1       __optionalfields_??_7guideXOS_guideXOS_GUI_Nofity@@6B@ 00000000100451d1     guideXOS.obj
 0004:000061d3       __optionalfields_??_7guideXOS_guideXOS_GUI_Paint@@6B@ 00000000100451d3     guideXOS.obj
 0004:000061d5       __optionalfields_??_7guideXOS_guideXOS_GUI_StartMenu@@6B@ 00000000100451d5     guideXOS.obj
 0004:000061d7       __optionalfields_??_7guideXOS_guideXOS_GUI_Taskbar@@6B@ 00000000100451d7     guideXOS.obj
 0004:000061d9       __optionalfields_??_7guideXOS_guideXOS_GUI_Window@@6B@ 00000000100451d9     guideXOS.obj
 0004:000061df       __optionalfields_??_7guideXOS_guideXOS_GUI_Widgets_Button@@6B@ 00000000100451df     guideXOS.obj
 0004:000061e1       __optionalfields_??_7guideXOS_guideXOS_DefaultApps_Calculator@@6B@ 00000000100451e1     guideXOS.obj
 0004:000061e3       __optionalfields_??_7guideXOS_guideXOS_DefaultApps_Clock@@6B@ 00000000100451e3     guideXOS.obj
 0004:000061e5       __optionalfields_??_7guideXOS_guideXOS_DefaultApps_Notepad@@6B@ 00000000100451e5     guideXOS.obj
 0004:000061e7       __optionalfields_??_7guideXOS_guideXOS_Misc_Interrupts_INT@@6B@ 00000000100451e7     guideXOS.obj
 0004:000061e9       __optionalfields_??_7guideXOS_guideXOS_Kernel_Drivers_SATA_SATADevice@@6B@ 00000000100451e9     guideXOS.obj
 0004:000061eb       __optionalfields_??_7guideXOS_guideXOS_GUI_Monitor_Chart@@6B@ 00000000100451eb     guideXOS.obj
 0004:000061ed       __optionalfields_??_7guideXOS_System_Collections_Generic_List_1<UInt8>@@6B@ 00000000100451ed     guideXOS.obj
 0004:000061ef       __optionalfields_??_7guideXOS_System_Collections_Generic_List_1<guideXOS_guideXOS_Animation>@@6B@ 00000000100451ef     guideXOS.obj
 0004:000061f1       __optionalfields_??_7guideXOS_System_Collections_Generic_List_1<guideXOS_guideXOS_Misc_BitFontDescriptor>@@6B@ 00000000100451f1     guideXOS.obj
 0004:000061f3       __optionalfields_??_7guideXOS_System_Collections_Generic_List_1<guideXOS_guideXOS_Misc_Thread>@@6B@ 00000000100451f3     guideXOS.obj
 0004:000061f5       __optionalfields_??_7guideXOS_System_Collections_Generic_List_1<guideXOS_guideXOS_FS_FileInfo>@@6B@ 00000000100451f5     guideXOS.obj
 0004:000061f7       __optionalfields_??_7guideXOS_System_Collections_Generic_List_1<guideXOS_guideXOS_Kernel_Drivers_IDEDevice>@@6B@ 00000000100451f7     guideXOS.obj
 0004:000061f9       __optionalfields_??_7guideXOS_System_Collections_Generic_List_1<guideXOS_guideXOS_Kernel_Drivers_PCIDevice>@@6B@ 00000000100451f9     guideXOS.obj
 0004:000061fb       __optionalfields_??_7guideXOS_System_Collections_Generic_List_1<guideXOS_guideXOS_OS_App>@@6B@ 00000000100451fb     guideXOS.obj
 0004:000061fd       __optionalfields_??_7guideXOS_System_Collections_Generic_List_1<guideXOS_guideXOS_GUI_Nofity>@@6B@ 00000000100451fd     guideXOS.obj
 0004:000061ff       __optionalfields_??_7guideXOS_System_Collections_Generic_List_1<guideXOS_guideXOS_GUI_Window>@@6B@ 00000000100451ff     guideXOS.obj
 0004:00006201       __optionalfields_??_7guideXOS_System_Collections_Generic_List_1<guideXOS_guideXOS_GUI_Widgets_Button>@@6B@ 0000000010045201     guideXOS.obj
 0004:00006203       __optionalfields_??_7guideXOS_System_Collections_Generic_List_1<guideXOS_guideXOS_Misc_Interrupts_INT>@@6B@ 0000000010045203     guideXOS.obj
 0004:00006205       __optionalfields_??_7guideXOS_System_Collections_Generic_List_1<guideXOS_guideXOS_Kernel_Drivers_SATA_SATADevice>@@6B@ 0000000010045205     guideXOS.obj
 0004:00006207       __optionalfields_??_7Boxed_Char@@6B@ 0000000010045207     guideXOS.obj
 0004:00006209       __optionalfields_??_7Boxed_guideXOS_System_ConsoleKey@@6B@ 0000000010045209     guideXOS.obj
 0004:0000620b       __optionalfields_??_7Boxed_guideXOS_System_ConsoleKeyInfo@@6B@ 000000001004520b     guideXOS.obj
 0004:0000620d       __optionalfields_??_7guideXOS_System_Enum@@6B@ 000000001004520d     guideXOS.obj
 0004:00006214       __optionalfields_??_7Boxed_Int32@@6B@ 0000000010045214     guideXOS.obj
 0004:00006216       __optionalfields_??_7guideXOS_guideXOS_Console@@6B@ 0000000010045216     guideXOS.obj
 0004:0000621a       __optionalfields_??_7Boxed_guideXOS_IDT_IDTEntry@@6B@ 000000001004521a     guideXOS.obj
 0004:00006220       __GenericDict_guideXOS_System_Array_1<Object> 0000000010045220     guideXOS.obj
 0004:00006220       __GenericDict_guideXOS_System_Array_1<String> 0000000010045220     guideXOS.obj
 0004:00006220       __GenericDict_guideXOS_System_Array_1<guideXOS_System_Drawing_Image> 0000000010045220     guideXOS.obj
 0004:00006220       __GenericDict_guideXOS_System_Array_1<guideXOS_guideXOS_Animation> 0000000010045220     guideXOS.obj
 0004:00006220       __GenericDict_guideXOS_System_Collections_Generic_List_1<guideXOS_guideXOS_Animation> 0000000010045220     guideXOS.obj
 0004:00006230       __GenericDict_guideXOS_System_Array_1<guideXOS_guideXOS_Misc_BitFontDescriptor> 0000000010045230     guideXOS.obj
 0004:00006230       __GenericDict_guideXOS_System_Collections_Generic_List_1<guideXOS_guideXOS_Misc_BitFontDescriptor> 0000000010045230     guideXOS.obj
 0004:00006240       __GenericDict_guideXOS_System_Array_1<guideXOS_guideXOS_Misc_Thread> 0000000010045240     guideXOS.obj
 0004:00006240       __GenericDict_guideXOS_System_Collections_Generic_List_1<guideXOS_guideXOS_Misc_Thread> 0000000010045240     guideXOS.obj
 0004:00006250       __GenericDict_guideXOS_System_Array_1<guideXOS_guideXOS_FS_FileInfo> 0000000010045250     guideXOS.obj
 0004:00006250       __GenericDict_guideXOS_System_Collections_Generic_List_1<guideXOS_guideXOS_FS_FileInfo> 0000000010045250     guideXOS.obj
 0004:00006260       __GenericDict_guideXOS_System_Array_1<guideXOS_guideXOS_Kernel_Drivers_IDEDevice> 0000000010045260     guideXOS.obj
 0004:00006260       __GenericDict_guideXOS_System_Collections_Generic_List_1<guideXOS_guideXOS_Kernel_Drivers_IDEDevice> 0000000010045260     guideXOS.obj
 0004:00006270       __GenericDict_guideXOS_System_Array_1<guideXOS_guideXOS_Kernel_Drivers_PCIDevice> 0000000010045270     guideXOS.obj
 0004:00006270       __GenericDict_guideXOS_System_Collections_Generic_List_1<guideXOS_guideXOS_Kernel_Drivers_PCIDevice> 0000000010045270     guideXOS.obj
 0004:00006280       __GenericDict_guideXOS_System_Array_1<guideXOS_guideXOS_OS_App> 0000000010045280     guideXOS.obj
 0004:00006280       __GenericDict_guideXOS_System_Collections_Generic_List_1<guideXOS_guideXOS_OS_App> 0000000010045280     guideXOS.obj
 0004:00006290       __GenericDict_guideXOS_System_Array_1<guideXOS_guideXOS_GUI_Nofity> 0000000010045290     guideXOS.obj
 0004:00006290       __GenericDict_guideXOS_System_Collections_Generic_List_1<guideXOS_guideXOS_GUI_Nofity> 0000000010045290     guideXOS.obj
 0004:000062a0       __GenericDict_guideXOS_System_Array_1<guideXOS_guideXOS_GUI_Window> 00000000100452a0     guideXOS.obj
 0004:000062a0       __GenericDict_guideXOS_System_Collections_Generic_List_1<guideXOS_guideXOS_GUI_Window> 00000000100452a0     guideXOS.obj
 0004:000062b0       __GenericDict_guideXOS_System_Array_1<guideXOS_guideXOS_GUI_Widgets_Button> 00000000100452b0     guideXOS.obj
 0004:000062b0       __GenericDict_guideXOS_System_Collections_Generic_List_1<guideXOS_guideXOS_GUI_Widgets_Button> 00000000100452b0     guideXOS.obj
 0004:000062c0       __GenericDict_guideXOS_System_Array_1<guideXOS_guideXOS_Misc_Interrupts_INT> 00000000100452c0     guideXOS.obj
 0004:000062c0       __GenericDict_guideXOS_System_Collections_Generic_List_1<guideXOS_guideXOS_Misc_Interrupts_INT> 00000000100452c0     guideXOS.obj
 0004:000062d0       __GenericDict_guideXOS_System_Array_1<guideXOS_guideXOS_Kernel_Drivers_SATA_SATADevice> 00000000100452d0     guideXOS.obj
 0004:000062d0       __GenericDict_guideXOS_System_Collections_Generic_List_1<guideXOS_guideXOS_Kernel_Drivers_SATA_SATADevice> 00000000100452d0     guideXOS.obj
 0004:000062e0       lodepng_default_decompress_settings 00000000100452e0     NativeLib:lodepng.obj
 0004:00006308       lodepng_default_compress_settings 0000000010045308     NativeLib:lodepng.obj
 0004:00006618       ??_C@_08CJOLANMN@20220109@ 0000000010045618     NativeLib:lodepng.obj
 0004:00006624       ??_C@_04MNIAFIMC@IHDR@     0000000010045624     NativeLib:lodepng.obj
 0004:0000662c       ??_C@_04DGLHBNIA@PLTE@     000000001004562c     NativeLib:lodepng.obj
 0004:00006634       ??_C@_04LPBJCHJJ@tRNS@     0000000010045634     NativeLib:lodepng.obj
 0004:0000663c       ??_C@_04HHPKOCLH@bKGD@     000000001004563c     NativeLib:lodepng.obj
 0004:00006644       ??_C@_04LALJCFBI@tEXt@     0000000010045644     NativeLib:lodepng.obj
 0004:0000664c       ??_C@_04OHCMKLID@zTXt@     000000001004564c     NativeLib:lodepng.obj
 0004:00006654       ??_C@_04MAGMEGNB@iTXt@     0000000010045654     NativeLib:lodepng.obj
 0004:0000665c       ??_C@_04CGNPPMIJ@tIME@     000000001004565c     NativeLib:lodepng.obj
 0004:00006664       ??_C@_04PJNAKHPF@pHYs@     0000000010045664     NativeLib:lodepng.obj
 0004:0000666c       ??_C@_04KAEHPMDA@gAMA@     000000001004566c     NativeLib:lodepng.obj
 0004:00006674       ??_C@_04JDAALODL@cHRM@     0000000010045674     NativeLib:lodepng.obj
 0004:0000667c       ??_C@_04FBDBODBG@sRGB@     000000001004567c     NativeLib:lodepng.obj
 0004:00006684       ??_C@_04OMDJIEMA@iCCP@     0000000010045684     NativeLib:lodepng.obj
 0004:0000668c       ??_C@_04NHMHICBH@IDAT@     000000001004568c     NativeLib:lodepng.obj
 0004:00006694       ??_C@_04COOFLABO@IEND@     0000000010045694     NativeLib:lodepng.obj
 0004:000066a0       ??_C@_0N@MNIAGKFI@lodepng?3?5?$CFs?6@ 00000000100456a0     NativeLib:lodepng.obj
 0004:000066b0       ??_C@_07FFJHAIOD@LodePNG@  00000000100456b0     NativeLib:lodepng.obj
 0004:000066b8       ??_C@_0BN@IBGHKPF@no?5error?0?5everything?5went?5ok@ 00000000100456b8     NativeLib:lodepng.obj
 0004:000066d8       ??_C@_0BB@KHCEDELJ@nothing?5done?5yet@ 00000000100456d8     NativeLib:lodepng.obj
 0004:000066f0       ??_C@_0DF@INKBJCMB@end?5of?5input?5memory?5reached?5wit@ 00000000100456f0     NativeLib:lodepng.obj
 0004:00006728       ??_C@_0DI@OINNFIKI@error?5in?5code?5tree?5made?5it?5jump@ 0000000010045728     NativeLib:lodepng.obj
 0004:00006760       ??_C@_0CP@DDHBCAOL@problem?5while?5processing?5dynami@ 0000000010045760     NativeLib:lodepng.obj
 0004:00006790       ??_C@_0DE@PCCGDGNM@invalid?5code?5while?5processing?5d@ 0000000010045790     NativeLib:lodepng.obj
 0004:000067c8       ??_C@_0DB@CCCHOPLJ@end?5of?5out?5buffer?5memory?5reache@ 00000000100457c8     NativeLib:lodepng.obj
 0004:00006800       ??_C@_0CG@MOLAAFOP@invalid?5distance?5code?5while?5inf@ 0000000010045800     NativeLib:lodepng.obj
 0004:00006828       ??_C@_0DH@OHJCBPG@invalid?5deflate?5block?5BTYPE?5enc@ 0000000010045828     NativeLib:lodepng.obj
 0004:00006860       ??_C@_0DG@LJBKCKDJ@NLEN?5is?5not?5ones?5complement?5of?5@ 0000000010045860     NativeLib:lodepng.obj
 0004:00006898       ??_C@_0DA@BOMDJJCD@end?5of?5in?5buffer?5memory?5reached@ 0000000010045898     NativeLib:lodepng.obj
 0004:000068c8       ??_C@_0BO@LPIJIILG@invalid?5FCHECK?5in?5zlib?5header@ 00000000100458c8     NativeLib:lodepng.obj
 0004:000068e8       ??_C@_0CK@OFGJAJAB@invalid?5compression?5method?5in?5z@ 00000000100458e8     NativeLib:lodepng.obj
 0004:00006918       ??_C@_0DN@IHNMFLFH@FDICT?5encountered?5in?5zlib?5heade@ 0000000010045918     NativeLib:lodepng.obj
 0004:00006958       ??_C@_0CG@PKFJEKKJ@PNG?5file?5is?5smaller?5than?5a?5PNG?5@ 0000000010045958     NativeLib:lodepng.obj
 0004:00006980       ??_C@_0DC@KNOMKLMA@incorrect?5PNG?5signature?0?5it?8s?5n@ 0000000010045980     NativeLib:lodepng.obj
 0004:000069b8       ??_C@_0CE@PGBEOGCC@first?5chunk?5is?5not?5the?5header?5c@ 00000000100459b8     NativeLib:lodepng.obj
 0004:000069e0       ??_C@_0DI@DMLNOICN@chunk?5length?5too?5large?0?5chunk?5b@ 00000000100459e0     NativeLib:lodepng.obj
 0004:00006a18       ??_C@_0BO@NDHLKIKI@illegal?5PNG?5color?5type?5or?5bpp@ 0000000010045a18     NativeLib:lodepng.obj
 0004:00006a38       ??_C@_0BP@ODHKPHCH@illegal?5PNG?5compression?5method@ 0000000010045a38     NativeLib:lodepng.obj
 0004:00006a58       ??_C@_0BK@NEGKONLH@illegal?5PNG?5filter?5method@ 0000000010045a58     NativeLib:lodepng.obj
 0004:00006a78       ??_C@_0BN@BGHOFLAF@illegal?5PNG?5interlace?5method@ 0000000010045a78     NativeLib:lodepng.obj
 0004:00006a98       ??_C@_0DM@MBIDFHIJ@chunk?5length?5of?5a?5chunk?5is?5too?5@ 0000000010045a98     NativeLib:lodepng.obj
 0004:00006ad8       ??_C@_0CE@HJIDBMAH@illegal?5PNG?5filter?5type?5encount@ 0000000010045ad8     NativeLib:lodepng.obj
 0004:00006b00       ??_C@_0CM@DFEKLLPN@illegal?5bit?5depth?5for?5this?5colo@ 0000000010045b00     NativeLib:lodepng.obj
 0004:00006b30       ??_C@_0CE@OODHKAPE@the?5palette?5is?5too?5small?5or?5too@ 0000000010045b30     NativeLib:lodepng.obj
 0004:00006b58       ??_C@_0DN@OLGBICPI@tRNS?5chunk?5before?5PLTE?5or?5has?5m@ 0000000010045b58     NativeLib:lodepng.obj
 0004:00006b98       ??_C@_0CO@IDOGAOKB@tRNS?5chunk?5has?5wrong?5size?5for?5g@ 0000000010045b98     NativeLib:lodepng.obj
 0004:00006bc8       ??_C@_0CI@IFCNLLFM@tRNS?5chunk?5has?5wrong?5size?5for?5R@ 0000000010045bc8     NativeLib:lodepng.obj
 0004:00006bf0       ??_C@_0EB@CHDDNMPD@tRNS?5chunk?5appeared?5while?5it?5wa@ 0000000010045bf0     NativeLib:lodepng.obj
 0004:00006c38       ??_C@_0CM@HNLFOPI@bKGD?5chunk?5has?5wrong?5size?5for?5p@ 0000000010045c38     NativeLib:lodepng.obj
 0004:00006c68       ??_C@_0CO@ELMIGKLO@bKGD?5chunk?5has?5wrong?5size?5for?5g@ 0000000010045c68     NativeLib:lodepng.obj
 0004:00006c98       ??_C@_0CI@CMLABIJA@bKGD?5chunk?5has?5wrong?5size?5for?5R@ 0000000010045c98     NativeLib:lodepng.obj
 0004:00006cc0       ??_C@_0EI@GHHJBLGG@empty?5input?5buffer?5given?5to?5dec@ 0000000010045cc0     NativeLib:lodepng.obj
 0004:00006d08       ??_C@_0DJ@MHOEEPLI@jumped?5past?5memory?5while?5genera@ 0000000010045d08     NativeLib:lodepng.obj
 0004:00006d48       ??_C@_0DB@BNPOFNMD@jumped?5past?5memory?5while?5inflat@ 0000000010045d48     NativeLib:lodepng.obj
 0004:00006d80       ??_C@_0CD@ICHNJILK@jumped?5past?5memory?5while?5inflat@ 0000000010045d80     NativeLib:lodepng.obj
 0004:00006da8       ??_C@_0BM@CEJPNBLF@size?5of?5zlib?5data?5too?5small@ 0000000010045da8     NativeLib:lodepng.obj
 0004:00006dc8       ??_C@_0DK@DEJNNMNC@repeat?5symbol?5in?5tree?5while?5the@ 0000000010045dc8     NativeLib:lodepng.obj
 0004:00006e08       ??_C@_0CP@JKHHNIDN@jumped?5past?5tree?5while?5generati@ 0000000010045e08     NativeLib:lodepng.obj
 0004:00006e40       ??_C@_0EM@MLFECFBO@given?5output?5image?5colortype?5or@ 0000000010045e40     NativeLib:lodepng.obj
 0004:00006e90       ??_C@_0DH@GCCBCJBH@invalid?5CRC?5encountered?5?$CIchecki@ 0000000010045e90     NativeLib:lodepng.obj
 0004:00006ec8       ??_C@_0DP@NMFEBLDJ@invalid?5ADLER32?5encountered?5?$CIch@ 0000000010045ec8     NativeLib:lodepng.obj
 0004:00006f08       ??_C@_0CJ@PKIBMELO@requested?5color?5conversion?5not?5@ 0000000010045f08     NativeLib:lodepng.obj
 0004:00006f40       ??_C@_0EL@DFAHNGDC@invalid?5window?5size?5given?5in?5th@ 0000000010045f40     NativeLib:lodepng.obj
 0004:00006f90       ??_C@_0FB@CGBCJAKP@invalid?5BTYPE?5given?5in?5the?5sett@ 0000000010045f90     NativeLib:lodepng.obj
 0004:00006fe8       ??_C@_0DB@GEFIFIEM@conversion?5from?5color?5to?5graysc@ 0000000010045fe8     NativeLib:lodepng.obj
 0004:00007020       ??_C@_0EO@OPNCIJKM@length?5of?5a?5chunk?5too?5long?0?5max@ 0000000010046020     NativeLib:lodepng.obj
 0004:00007070       ??_C@_0DK@CGBJPOCG@the?5length?5of?5the?5END?5symbol?525@ 0000000010046070     NativeLib:lodepng.obj
 0004:000070b0       ??_C@_0FP@NKPOKJKO@the?5length?5of?5a?5text?5chunk?5keyw@ 00000000100460b0     NativeLib:lodepng.obj
 0004:00007110       ??_C@_0FO@HGBKNLHO@the?5length?5of?5a?5text?5chunk?5keyw@ 0000000010046110     NativeLib:lodepng.obj
 0004:00007170       ??_C@_0FJ@LPKJLMJ@tried?5to?5encode?5a?5PLTE?5chunk?5wi@ 0000000010046170     NativeLib:lodepng.obj
 0004:000071d0       ??_C@_0ED@FHCCPMOF@unknown?5chunk?5type?5with?5?8critic@ 00000000100461d0     NativeLib:lodepng.obj
 0004:00007218       ??_C@_0DJ@OGMBNCEO@invalid?5interlace?5mode?5given?5to@ 0000000010046218     NativeLib:lodepng.obj
 0004:00007260       ??_C@_0FN@JOBHGFBG@while?5decoding?0?5invalid?5compres@ 0000000010046260     NativeLib:lodepng.obj
 0004:000072c0       ??_C@_0BI@GJKJMBKH@invalid?5tIME?5chunk?5size@ 00000000100462c0     NativeLib:lodepng.obj
 0004:000072d8       ??_C@_0BI@NMOBNHEN@invalid?5pHYs?5chunk?5size@ 00000000100462d8     NativeLib:lodepng.obj
 0004:000072f0       ??_C@_0DJ@PANFLBNP@no?5null?5termination?5char?5found?5@ 00000000100462f0     NativeLib:lodepng.obj
 0004:00007330       ??_C@_0CP@KDAKHJNL@iTXt?5chunk?5too?5short?5to?5contain@ 0000000010046330     NativeLib:lodepng.obj
 0004:00007360       ??_C@_0CA@FGDALBLM@integer?5overflow?5in?5buffer?5size@ 0000000010046360     NativeLib:lodepng.obj
 0004:00007380       ??_C@_0CA@CBHGFENA@failed?5to?5open?5file?5for?5reading@ 0000000010046380     NativeLib:lodepng.obj
 0004:000073a0       ??_C@_0CA@EHFMONBL@failed?5to?5open?5file?5for?5writing@ 00000000100463a0     NativeLib:lodepng.obj
 0004:000073c0       ??_C@_0CD@MOHNLFBI@tried?5creating?5a?5tree?5of?50?5symb@ 00000000100463c0     NativeLib:lodepng.obj
 0004:000073e8       ??_C@_0CF@PBAGOFJG@lazy?5matching?5at?5pos?50?5is?5impos@ 00000000100463e8     NativeLib:lodepng.obj
 0004:00007410       ??_C@_0FN@POPKDEPB@color?5conversion?5to?5palette?5req@ 0000000010046410     NativeLib:lodepng.obj
 0004:00007470       ??_C@_0BJ@FDBIHNP@memory?5allocation?5failed@ 0000000010046470     NativeLib:lodepng.obj
 0004:00007490       ??_C@_0DK@JNCHGFNK@given?5image?5too?5small?5to?5contai@ 0000000010046490     NativeLib:lodepng.obj
 0004:000074d0       ??_C@_0DC@KAGBFHHD@impossible?5offset?5in?5lz77?5encod@ 00000000100464d0     NativeLib:lodepng.obj
 0004:00007510       ??_C@_0FB@OFCJJNFO@must?5provide?5custom?5zlib?5functi@ 0000000010046510     NativeLib:lodepng.obj
 0004:00007570       ??_C@_0EJ@PHLJLBOL@invalid?5filter?5strategy?5given?5f@ 0000000010046570     NativeLib:lodepng.obj
 0004:000075c0       ??_C@_0DK@LPMOJNBK@text?5chunk?5keyword?5too?5short?5or@ 00000000100465c0     NativeLib:lodepng.obj
 0004:00007600       ??_C@_0CC@EIKGNLEE@windowsize?5must?5be?5a?5power?5of?5t@ 0000000010046600     NativeLib:lodepng.obj
 0004:00007628       ??_C@_0BP@ICCEHJFD@invalid?5decompressed?5idat?5size@ 0000000010046628     NativeLib:lodepng.obj
 0004:00007648       ??_C@_0CI@JGFANBIB@integer?5overflow?5due?5to?5too?5man@ 0000000010046648     NativeLib:lodepng.obj
 0004:00007670       ??_C@_0CA@MGMLPFDK@zero?5width?5or?5height?5is?5invalid@ 0000000010046670     NativeLib:lodepng.obj
 0004:00007690       ??_C@_0CK@EGDBBGEN@header?5chunk?5must?5have?5a?5size?5o@ 0000000010046690     NativeLib:lodepng.obj
 0004:000076c0       ??_C@_0CP@IHBLLFBA@integer?5overflow?5with?5combined?5@ 00000000100466c0     NativeLib:lodepng.obj
 0004:000076f0       ??_C@_0BI@KJHGONNK@invalid?5gAMA?5chunk?5size@ 00000000100466f0     NativeLib:lodepng.obj
 0004:00007708       ??_C@_0BI@KBKJIHFD@invalid?5cHRM?5chunk?5size@ 0000000010046708     NativeLib:lodepng.obj
 0004:00007720       ??_C@_0BI@KBICNMKA@invalid?5sRGB?5chunk?5size@ 0000000010046720     NativeLib:lodepng.obj
 0004:00007738       ??_C@_0BO@IGFOGDFM@invalid?5sRGB?5rendering?5intent@ 0000000010046738     NativeLib:lodepng.obj
 0004:00007760       ??_C@_0EO@BMBKHOHC@invalid?5ICC?5profile?5color?5type?0@ 0000000010046760     NativeLib:lodepng.obj
 0004:000077b0       ??_C@_0FE@BPIFLHKO@PNG?5specification?5does?5not?5allo@ 00000000100467b0     NativeLib:lodepng.obj
 0004:00007810       ??_C@_0FC@MLLAEFDG@not?5allowed?5to?5set?5grayscale?5IC@ 0000000010046810     NativeLib:lodepng.obj
 0004:00007870       ??_C@_0EG@EPGPMDIP@invalid?5palette?5index?5in?5bKGD?5c@ 0000000010046870     NativeLib:lodepng.obj
 0004:000078c0       ??_C@_0EE@GHMHHHIO@invalid?5bKGD?5color?5while?5encodi@ 00000000100468c0     NativeLib:lodepng.obj
 0004:00007908       ??_C@_0BM@KEIHAKGF@integer?5overflow?5of?5bitsize@ 0000000010046908     NativeLib:lodepng.obj
 0004:00007928       ??_C@_0DH@FKDLAJAG@PNG?5file?5must?5have?5PLTE?5chunk?5i@ 0000000010046928     NativeLib:lodepng.obj
 0004:00007960       ??_C@_0FB@PHFDHCLM@color?5convert?5from?5palette?5mode@ 0000000010046960     NativeLib:lodepng.obj
 0004:000079b8       ??_C@_0CP@FAHPCGCI@tried?5to?5add?5more?5than?5256?5valu@ 00000000100469b8     NativeLib:lodepng.obj
 0004:000079f0       ??_C@_0EN@GBDNGCEI@tried?5to?5decompress?5zlib?5or?5def@ 00000000100469f0     NativeLib:lodepng.obj
 0004:00007a40       ??_C@_0CM@BLPPFIOD@custom?5zlib?5or?5inflate?5decompre@ 0000000010046a40     NativeLib:lodepng.obj
 0004:00007a70       ??_C@_0CK@GAHFELDC@custom?5zlib?5or?5deflate?5compress@ 0000000010046a70     NativeLib:lodepng.obj
 0004:00007aa0       ??_C@_0CD@FMIJDPHM@compressed?5text?5unreasonably?5la@ 0000000010046aa0     NativeLib:lodepng.obj
 0004:00007ac8       ??_C@_0BP@KANCDNDL@ICC?5profile?5unreasonably?5large@ 0000000010046ac8     NativeLib:lodepng.obj
 0004:00007ae8       ??_C@_0BD@KFLAIOGJ@unknown?5error?5code@ 0000000010046ae8     NativeLib:lodepng.obj
 0004:00007b50       ??_C@_03LHCJEHON@nan@      0000000010046b50     LibC:printf.obj
 0004:00007b54       ??_C@_04JDHKKAHP@fni?9@    0000000010046b54     LibC:printf.obj
 0004:00007b5c       ??_C@_04MFCAAHPJ@fni?$CL@  0000000010046b5c     LibC:printf.obj
 0004:00007b64       ??_C@_03DGIALOPI@fni@      0000000010046b64     LibC:printf.obj
 0004:00007b68       __real@3f1a36e2eb1c432d    0000000010046b68     LibC:printf.obj
 0004:00007b70       __real@3fc68a288b60c8b3    0000000010046b70     LibC:printf.obj
 0004:00007b78       __real@3fd287a7636f4361    0000000010046b78     LibC:printf.obj
 0004:00007b80       __real@3fd34413509f79fb    0000000010046b80     LibC:printf.obj
 0004:00007b88       __real@3fe0000000000000    0000000010046b88     LibC:printf.obj
 0004:00007b90       __real@3fe62e42fefa39ef    0000000010046b90     LibC:printf.obj
 0004:00007b98       __real@3ff0000000000000    0000000010046b98     LibC:printf.obj
 0004:00007ba0       __real@3ff8000000000000    0000000010046ba0     LibC:printf.obj
 0004:00007ba8       __real@4000000000000000    0000000010046ba8     LibC:printf.obj
 0004:00007bb0       __real@40026bb1bbb55516    0000000010046bb0     LibC:printf.obj
 0004:00007bb8       __real@400a934f0979a371    0000000010046bb8     LibC:printf.obj
 0004:00007bc0       __real@4018000000000000    0000000010046bc0     LibC:printf.obj
 0004:00007bc8       __real@4024000000000000    0000000010046bc8     LibC:printf.obj
 0004:00007bd0       __real@402c000000000000    0000000010046bd0     LibC:printf.obj
 0004:00007bd8       __real@412e848000000000    0000000010046bd8     LibC:printf.obj
 0004:00007be0       __real@41cdcd6500000000    0000000010046be0     LibC:printf.obj
 0004:00007be8       __real@7fefffffffffffff    0000000010046be8     LibC:printf.obj
 0004:00007bf0       __real@c1cdcd6500000000    0000000010046bf0     LibC:printf.obj
 0004:00007bf8       __real@ffefffffffffffff    0000000010046bf8     LibC:printf.obj
 0004:00007c00       __xmm@80000000000000008000000000000000 0000000010046c00     LibC:printf.obj
 0004:00007c68       __imp_free                 0000000010046c68     <linker-defined>
 0004:00007c70       __imp_malloc               0000000010046c70     <linker-defined>
 0004:00007c78       __imp_realloc              0000000010046c78     <linker-defined>
 0004:00007c80       __volatile_metadata        0000000010046c80     <linker-defined>
 0004:00007e48       _unwind0guideXOS_Program__KMain 0000000010046e48     guideXOS.obj
 0004:00007eac       _unwind0guideXOS_Program__SMain 0000000010046eac     guideXOS.obj
 0004:000080ac       _unwind0guideXOS_Program__InitConsole 00000000100470ac     guideXOS.obj
 0004:000080bc       _unwind0guideXOS_Allocator__GetPageIndexStart 00000000100470bc     guideXOS.obj
 0004:000080cc       _unwind0guideXOS_Allocator__Free 00000000100470cc     guideXOS.obj
 0004:00008114       _unwind1guideXOS_Allocator__Free 0000000010047114     guideXOS.obj
 0004:0000812c       _unwind0guideXOS_Allocator__get_MemoryInUse 000000001004712c     guideXOS.obj
 0004:00008138       _unwind0guideXOS_Allocator__Initialize 0000000010047138     guideXOS.obj
 0004:0000815c       _unwind0guideXOS_Allocator__Allocate 000000001004715c     guideXOS.obj
 0004:000081a0       _unwind1guideXOS_Allocator__Allocate 00000000100471a0     guideXOS.obj
 0004:000081b8       _unwind0guideXOS_Allocator__Reallocate 00000000100471b8     guideXOS.obj
 0004:000081dc       _unwind0guideXOS_GDT__Initialise 00000000100471dc     guideXOS.obj
 0004:000081f0       _unwind0guideXOS_IDT__Initialize 00000000100471f0     guideXOS.obj
 0004:0000821c       _unwind0guideXOS_IDT__intr_handler 000000001004721c     guideXOS.obj
 0004:00008398       _unwind0guideXOS_Native__Load_GDT 0000000010047398     guideXOS.obj
 0004:000083b8       _unwind0guideXOS_Native__Load_IDT 00000000100473b8     guideXOS.obj
 0004:000083d8       _unwind0guideXOS_Internal_Runtime_EEType__get_IsArray 00000000100473d8     guideXOS.obj
 0004:000083e0       _unwind0guideXOS_Internal_Runtime_EEType__get_ArrayRank 00000000100473e0     guideXOS.obj
 0004:000083e8       _unwind0guideXOS_Internal_Runtime_CompilerHelpers_StartupCodeHelpers____imp_GetCurrentThreadId 00000000100473e8     guideXOS.obj
 0004:000083f0       _unwind0guideXOS_Internal_Runtime_CompilerHelpers_StartupCodeHelpers____CheckForDebuggerJustMyCode 00000000100473f0     guideXOS.obj
 0004:000083f8       _unwind0guideXOS_Internal_Runtime_CompilerHelpers_StartupCodeHelpers__FailFast 00000000100473f8     guideXOS.obj
 0004:00008404       _unwind0guideXOS_Internal_Runtime_CompilerHelpers_StartupCodeHelpers__MemSet 0000000010047404     guideXOS.obj
 0004:00008410       _unwind0guideXOS_Internal_Runtime_CompilerHelpers_StartupCodeHelpers__MemCpy 0000000010047410     guideXOS.obj
 0004:0000841c       _unwind0guideXOS_Internal_Runtime_CompilerHelpers_StartupCodeHelpers__RhpFallbackFailFast 000000001004741c     guideXOS.obj
 0004:00008428       _unwind0guideXOS_Internal_Runtime_CompilerHelpers_StartupCodeHelpers__RhpReversePInvoke2 0000000010047428     guideXOS.obj
 0004:00008430       _unwind0guideXOS_Internal_Runtime_CompilerHelpers_StartupCodeHelpers__RhpReversePInvokeReturn2 0000000010047430     guideXOS.obj
 0004:00008438       _unwind0guideXOS_Internal_Runtime_CompilerHelpers_StartupCodeHelpers__RhpReversePInvoke 0000000010047438     guideXOS.obj
 0004:00008440       _unwind0guideXOS_Internal_Runtime_CompilerHelpers_StartupCodeHelpers__RhpReversePInvokeReturn 0000000010047440     guideXOS.obj
 0004:00008448       _unwind0guideXOS_Internal_Runtime_CompilerHelpers_StartupCodeHelpers__RhpPinvoke 0000000010047448     guideXOS.obj
 0004:00008450       _unwind0guideXOS_Internal_Runtime_CompilerHelpers_StartupCodeHelpers__RhpPinvokeReturn 0000000010047450     guideXOS.obj
 0004:00008458       _unwind0guideXOS_Internal_Runtime_CompilerHelpers_StartupCodeHelpers__RhpNewFast 0000000010047458     guideXOS.obj
 0004:00008478       _unwind0guideXOS_Internal_Runtime_CompilerHelpers_StartupCodeHelpers__RhpNewArray 0000000010047478     guideXOS.obj
 0004:000084a0       _unwind0guideXOS_Internal_Runtime_CompilerHelpers_StartupCodeHelpers__RhpAssignRef 00000000100474a0     guideXOS.obj
 0004:000084a8       _unwind0guideXOS_Internal_Runtime_CompilerHelpers_StartupCodeHelpers__RhpByRefAssignRef 00000000100474a8     guideXOS.obj
 0004:000084b0       _unwind0guideXOS_Internal_Runtime_CompilerHelpers_StartupCodeHelpers__RhpCheckedAssignRef 00000000100474b0     guideXOS.obj
 0004:000084b8       _unwind0guideXOS_Internal_Runtime_CompilerHelpers_StartupCodeHelpers__RhpStelemRef 00000000100474b8     guideXOS.obj
 0004:000084c4       _unwind0guideXOS_Internal_Runtime_CompilerHelpers_StartupCodeHelpers__RhTypeCast_IsInstanceOfClass 00000000100474c4     guideXOS.obj
 0004:000084dc       _unwind0guideXOS_Internal_Runtime_CompilerHelpers_StartupCodeHelpers__InitializeModules 00000000100474dc     guideXOS.obj
 0004:00008520       _unwind0guideXOS_Internal_Runtime_CompilerHelpers_StartupCodeHelpers__InitializeStatics 0000000010047520     guideXOS.obj
 0004:00008554       _unwind0guideXOS_Internal_Runtime_CompilerHelpers_SynchronizedMethodHelpers__MonitorEnterStatic 0000000010047554     guideXOS.obj
 0004:0000855c       _unwind0guideXOS_Internal_Runtime_CompilerHelpers_SynchronizedMethodHelpers__MonitorExitStatic 000000001004755c     guideXOS.obj
 0004:00008564       _unwind0guideXOS_Internal_Runtime_CompilerHelpers_ThrowHelpers__Error 0000000010047564     guideXOS.obj
 0004:0000858c       _unwind1guideXOS_Internal_Runtime_CompilerHelpers_ThrowHelpers__Error 000000001004758c     guideXOS.obj
 0004:000085a4       _unwind0guideXOS_Internal_Runtime_CompilerHelpers_ThrowHelpers__ThrowOverflowException 00000000100475a4     guideXOS.obj
 0004:000085b8       _unwind0guideXOS_Internal_Runtime_CompilerHelpers_ThrowHelpers__ThrowIndexOutOfRangeException 00000000100475b8     guideXOS.obj
 0004:000085cc       _unwind0UInt8__ToString    00000000100475cc     guideXOS.obj
 0004:000085d8       _unwind0Char__ToUpper      00000000100475d8     guideXOS.obj
 0004:000085e0       _unwind0guideXOS_System_Delegate__InitializeClosedInstance 00000000100475e0     guideXOS.obj
 0004:000085ec       _unwind0guideXOS_System_Math__Pow 00000000100475ec     guideXOS.obj
 0004:000085f8       _unwind0guideXOS_System_Math__Fact 00000000100475f8     guideXOS.obj
 0004:00008604       _unwind0guideXOS_System_Math__Sin 0000000010047604     guideXOS.obj
 0004:0000862c       _unwind0guideXOS_System_MathF__Floor 000000001004762c     guideXOS.obj
 0004:00008634       _unwind0Object___ctor      0000000010047634     guideXOS.obj
 0004:0000863c       _unwind0Object__ToString   000000001004763c     guideXOS.obj
 0004:00008644       _unwind0Object__Dispose    0000000010047644     guideXOS.obj
 0004:00008660       _unwind0String__FromASCII  0000000010047660     guideXOS.obj
 0004:0000867c       _unwind0String__Ctor_2     000000001004767c     guideXOS.obj
 0004:000086a0       _unwind0String__LastIndexOf 00000000100476a0     guideXOS.obj
 0004:000086b8       _unwind0String__ToString   00000000100476b8     guideXOS.obj
 0004:000086c0       _unwind0String__Equals_0   00000000100476c0     guideXOS.obj
 0004:000086e4       _unwind0String__Concat     00000000100476e4     guideXOS.obj
 0004:00008720       _unwind0String__IndexOf    0000000010047720     guideXOS.obj
 0004:00008738       _unwind0String__Concat_0   0000000010047738     guideXOS.obj
 0004:0000875c       _unwind0String__Concat_1   000000001004775c     guideXOS.obj
 0004:0000878c       _unwind0String__Concat_2   000000001004778c     guideXOS.obj
 0004:000087b8       _unwind0String__Format     00000000100477b8     guideXOS.obj
 0004:00008850       _unwind1String__Format     0000000010047850     guideXOS.obj
 0004:00008868       _unwind0String__Substring  0000000010047868     guideXOS.obj
 0004:00008878       _unwind0String__Substring_0 0000000010047878     guideXOS.obj
 0004:00008888       _unwind0String__EndsWith_0 0000000010047888     guideXOS.obj
 0004:000088c4       _unwind0UInt16__ToString   00000000100478c4     guideXOS.obj
 0004:000088d0       _unwind0UInt32__ToString   00000000100478d0     guideXOS.obj
 0004:000088dc       _unwind0UInt64__ToString   00000000100478dc     guideXOS.obj
 0004:000088f8       _unwind0UInt64__ToStringHex 00000000100478f8     guideXOS.obj
 0004:00008914       _unwind0guideXOS_System_Threading_Monitor__Unlock 0000000010047914     guideXOS.obj
 0004:00008930       _unwind0guideXOS_System_Runtime_TypeCast__CheckCastClass 0000000010047930     guideXOS.obj
 0004:0000893c       _unwind0guideXOS_System_Runtime_TypeCast__CheckCastArray 000000001004793c     guideXOS.obj
 0004:00008948       _unwind0guideXOS_System_Runtime_TypeCast__IsInstanceOfArray 0000000010047948     guideXOS.obj
 0004:00008958       _unwind0guideXOS_System_Drawing_Image___ctor 0000000010047958     guideXOS.obj
 0004:00008968       _unwind0guideXOS_System_Drawing_Image___ctor_0 0000000010047968     guideXOS.obj
 0004:00008970       _unwind0guideXOS_System_Drawing_Image__Resample 0000000010047970     guideXOS.obj
 0004:000089a8       _unwind0guideXOS_System_Drawing_Image__ResizeImage 00000000100479a8     guideXOS.obj
 0004:00008a10       _unwind1guideXOS_System_Drawing_Image__ResizeImage 0000000010047a10     guideXOS.obj
 0004:00008a28       _unwind0guideXOS_System_Drawing_Image__Dispose 0000000010047a28     guideXOS.obj
 0004:00008a4c       _unwind0guideXOS_System_Diagnostics_Process__Start 0000000010047a4c     guideXOS.obj
 0004:00008a80       _unwind0guideXOS_System_Diagnostics_Process__StartThread 0000000010047a80     guideXOS.obj
 0004:00008aa0       _unwind0guideXOS_System_Diagnostics_Process__FixImageRelocations 0000000010047aa0     guideXOS.obj
 0004:00008ab0       _unwind0guideXOS_guideXOS_Animation___ctor 0000000010047ab0     guideXOS.obj
 0004:00008ab8       _unwind0guideXOS_guideXOS_Animator__Initialize 0000000010047ab8     guideXOS.obj
 0004:00008adc       _unwind0guideXOS_guideXOS_Animator__OnInterrupt 0000000010047adc     guideXOS.obj
 0004:00008b08       _unwind0guideXOS_guideXOS_API__HandleSystemCall 0000000010047b08     guideXOS.obj
 0004:00008b40       _unwind0guideXOS_guideXOS_API__API_SndWrite 0000000010047b40     guideXOS.obj
 0004:00008b48       _unwind0guideXOS_guideXOS_API__API_Calloc 0000000010047b48     guideXOS.obj
 0004:00008b50       _unwind0guideXOS_guideXOS_API__API_StartThread 0000000010047b50     guideXOS.obj
 0004:00008b64       _unwind0guideXOS_guideXOS_API__API_Error 0000000010047b64     guideXOS.obj
 0004:00008b74       _unwind0guideXOS_guideXOS_API__API_GetTime 0000000010047b74     guideXOS.obj
 0004:00008b90       _unwind0guideXOS_guideXOS_API__API_DrawImage 0000000010047b90     guideXOS.obj
 0004:00008ba4       _unwind0guideXOS_guideXOS_API__API_WriteString 0000000010047ba4     guideXOS.obj
 0004:00008bc4       _unwind0guideXOS_guideXOS_API__API_Width 0000000010047bc4     guideXOS.obj
 0004:00008bd0       _unwind0guideXOS_guideXOS_API__API_Height 0000000010047bd0     guideXOS.obj
 0004:00008bdc       _unwind0guideXOS_guideXOS_API__API_Update 0000000010047bdc     guideXOS.obj
 0004:00008be4       _unwind0guideXOS_guideXOS_API__API_Clear 0000000010047be4     guideXOS.obj
 0004:00008bfc       _unwind0guideXOS_guideXOS_API__API_DebugWrite 0000000010047bfc     guideXOS.obj
 0004:00008c08       _unwind0guideXOS_guideXOS_API__API_DebugWriteLine 0000000010047c08     guideXOS.obj
 0004:00008c14       _unwind0guideXOS_guideXOS_API__API_Lock 0000000010047c14     guideXOS.obj
 0004:00008c20       _unwind0guideXOS_guideXOS_API__API_Unlock 0000000010047c20     guideXOS.obj
 0004:00008c34       _unwind0guideXOS_guideXOS_API__API_DrawPoint 0000000010047c34     guideXOS.obj
 0004:00008c48       _unwind0guideXOS_guideXOS_API__API_SwitchToConsoleMode 0000000010047c48     guideXOS.obj
 0004:00008c54       _unwind0guideXOS_guideXOS_API__API_ReadAllBytes 0000000010047c54     guideXOS.obj
 0004:00008c84       _unwind0guideXOS_guideXOS_API__API_Sleep 0000000010047c84     guideXOS.obj
 0004:00008c8c       _unwind0guideXOS_guideXOS_API__API_GetTick 0000000010047c8c     guideXOS.obj
 0004:00008c98       _unwind0guideXOS_guideXOS_API__API_Write 0000000010047c98     guideXOS.obj
 0004:00008ca4       _unwind0guideXOS_guideXOS_API__API_WriteLine 0000000010047ca4     guideXOS.obj
 0004:00008cac       _unwind0guideXOS_guideXOS_API__API_Allocate 0000000010047cac     guideXOS.obj
 0004:00008cb4       _unwind0guideXOS_guideXOS_API__API_Free 0000000010047cb4     guideXOS.obj
 0004:00008cbc       _unwind0guideXOS_guideXOS_API__API_Reallocate 0000000010047cbc     guideXOS.obj
 0004:00008cc4       _unwind0guideXOS_guideXOS_API__SayHello 0000000010047cc4     guideXOS.obj
 0004:00008cd0       _unwind0guideXOS_guideXOS_Kbd2Mouse__OnKeyChanged 0000000010047cd0     guideXOS.obj
 0004:00008cfc       _unwind0guideXOS_guideXOS_ASC16__DrawChar 0000000010047cfc     guideXOS.obj
 0004:00008d30       _unwind0guideXOS_guideXOS_Console__add_OnWrite 0000000010047d30     guideXOS.obj
 0004:00008d60       _unwind1guideXOS_guideXOS_Console__add_OnWrite 0000000010047d60     guideXOS.obj
 0004:00008d6c       _unwind0guideXOS_guideXOS_Console__Setup 0000000010047d6c     guideXOS.obj
 0004:00008d80       _unwind0guideXOS_guideXOS_Console__Write 0000000010047d80     guideXOS.obj
 0004:00008da4       _unwind0guideXOS_guideXOS_Console__Write_0 0000000010047da4     guideXOS.obj
 0004:00008dcc       _unwind0guideXOS_guideXOS_Console__WriteFramebuffer 0000000010047dcc     guideXOS.obj
 0004:00008df4       _unwind0guideXOS_guideXOS_Console__MoveUp 0000000010047df4     guideXOS.obj
 0004:00008e08       _unwind0guideXOS_guideXOS_Console__MoveUpFramebuffer 0000000010047e08     guideXOS.obj
 0004:00008e18       _unwind0guideXOS_guideXOS_Console__UpdateCursorFramebuffer 0000000010047e18     guideXOS.obj
 0004:00008e3c       _unwind0guideXOS_guideXOS_Console__WriteLine 0000000010047e3c     guideXOS.obj
 0004:00008e64       _unwind0guideXOS_guideXOS_Console__WriteLine_0 0000000010047e64     guideXOS.obj
 0004:00008e74       _unwind0guideXOS_guideXOS_Console__Clear 0000000010047e74     guideXOS.obj
 0004:00008e88       _unwind0guideXOS_guideXOS_Console__ClearFramebuffer 0000000010047e88     guideXOS.obj
 0004:00008ea4       _unwind0guideXOS_guideXOS_FPSMeter__Update 0000000010047ea4     guideXOS.obj
 0004:00008ebc       _unwind0guideXOS_guideXOS_PageTable__Initialise 0000000010047ebc     guideXOS.obj
 0004:00008ee8       _unwind0guideXOS_guideXOS_PageTable__GetPage 0000000010047ee8     guideXOS.obj
 0004:00008f04       _unwind0guideXOS_guideXOS_PageTable__Next 0000000010047f04     guideXOS.obj
 0004:00008f24       _unwind0guideXOS_guideXOS_NETv4__SwapLeftRight_0 0000000010047f24     guideXOS.obj
 0004:00008f2c       _unwind0guideXOS_guideXOS_SMP__ApplicationProcessorMain 0000000010047f2c     guideXOS.obj
 0004:00008f50       _unwind0guideXOS_guideXOS_SMP__Initialize 0000000010047f50     guideXOS.obj
 0004:00008fb0       _unwind0guideXOS_guideXOS_Misc_Audio__Initialize 0000000010047fb0     guideXOS.obj
 0004:00008fc0       _unwind0guideXOS_guideXOS_Misc_Audio__snd_write 0000000010047fc0     guideXOS.obj
 0004:00008fe4       _unwind0guideXOS_guideXOS_Misc_Audio__snd_clear 0000000010047fe4     guideXOS.obj
 0004:00008ff0       _unwind0guideXOS_guideXOS_Misc_Audio__require 0000000010047ff0     guideXOS.obj
 0004:00009014       _unwind0guideXOS_guideXOS_Misc_Bitmap___ctor 0000000010048014     guideXOS.obj
 0004:00009078       _unwind0guideXOS_guideXOS_Misc_ClassID__GetName 0000000010048078     guideXOS.obj
 0004:00009084       _unwind0guideXOS_guideXOS_Misc_EntryPoint__Entry 0000000010048084     guideXOS.obj
 0004:0000911c       _unwind0guideXOS_guideXOS_Misc_IFont__DrawChar 000000001004811c     guideXOS.obj
 0004:00009164       _unwind0guideXOS_guideXOS_Misc_IFont__DrawString 0000000010048164     guideXOS.obj
 0004:00009184       _unwind0guideXOS_guideXOS_Misc_IFont__MeasureString 0000000010048184     guideXOS.obj
 0004:000091a0       _unwind0guideXOS_guideXOS_Misc_IFont__DrawString_0 00000000100481a0     guideXOS.obj
 0004:000091e8       _unwind0guideXOS_guideXOS_Misc_Interrupts__EnableInterrupt_0 00000000100481e8     guideXOS.obj
 0004:00009200       _unwind0guideXOS_guideXOS_Misc_Interrupts__HandleInterrupt 0000000010048200     guideXOS.obj
 0004:00009228       _unwind0guideXOS_guideXOS_Misc_Panic__Error 0000000010048228     guideXOS.obj
 0004:0000925c       _unwind0guideXOS_guideXOS_Misc_PNG___ctor 000000001004825c     guideXOS.obj
 0004:000092c4       _unwind1guideXOS_guideXOS_Misc_PNG___ctor 00000000100482c4     guideXOS.obj
 0004:000092dc       _unwind0guideXOS_guideXOS_Misc_PNG__lodepng_decode_memory 00000000100482dc     guideXOS.obj
 0004:00009300       _unwind0guideXOS_guideXOS_Misc_Thread__NewThread 0000000010048300     guideXOS.obj
 0004:00009318       _unwind0guideXOS_guideXOS_Misc_Thread__Start 0000000010048318     guideXOS.obj
 0004:00009358       _unwind1guideXOS_guideXOS_Misc_Thread__Start 0000000010048358     guideXOS.obj
 0004:00009370       _unwind0guideXOS_guideXOS_Misc_Thread__Start_0 0000000010048370     guideXOS.obj
 0004:000093bc       _unwind1guideXOS_guideXOS_Misc_Thread__Start_0 00000000100483bc     guideXOS.obj
 0004:000093d4       _unwind0guideXOS_guideXOS_Misc_ThreadPool__Initialize 00000000100483d4     guideXOS.obj
 0004:00009444       _unwind0guideXOS_guideXOS_Misc_ThreadPool__Terminate 0000000010048444     guideXOS.obj
 0004:00009468       _unwind0guideXOS_guideXOS_Misc_ThreadPool__IdleThread 0000000010048468     guideXOS.obj
 0004:00009484       _unwind0guideXOS_guideXOS_Misc_ThreadPool__get_CanLock 0000000010048484     guideXOS.obj
 0004:00009490       _unwind0guideXOS_guideXOS_Misc_ThreadPool__Lock 0000000010048490     guideXOS.obj
 0004:000094a0       _unwind0guideXOS_guideXOS_Misc_ThreadPool__Schedule 00000000100484a0     guideXOS.obj
 0004:00009568       _unwind0guideXOS_guideXOS_Misc_USBDevice___ctor 0000000010048568     guideXOS.obj
 0004:00009570       _unwind0guideXOS_guideXOS_Misc_USBRequest__Clean 0000000010048570     guideXOS.obj
 0004:00009590       _unwind0guideXOS_guideXOS_Misc_USB__OnInterrupt 0000000010048590     guideXOS.obj
 0004:000095b0       _unwind0guideXOS_guideXOS_Misc_USB__DriveDevice 00000000100485b0     guideXOS.obj
 0004:000095c0       _unwind0guideXOS_guideXOS_Misc_USB__StartPolling 00000000100485c0     guideXOS.obj
 0004:000095d0       _unwind0guideXOS_guideXOS_Misc_USB__LoopPoll 00000000100485d0     guideXOS.obj
 0004:000095f0       _unwind0guideXOS_guideXOS_Misc_VendorID__GetName 00000000100485f0     guideXOS.obj
 0004:000095fc       _unwind0guideXOS_guideXOS_Graph_Graphics__FromImage 00000000100485fc     guideXOS.obj
 0004:00009610       _unwind0guideXOS_guideXOS_Graph_Graphics__Update 0000000010048610     guideXOS.obj
 0004:00009618       _unwind0guideXOS_guideXOS_Graph_Graphics__Clear 0000000010048618     guideXOS.obj
 0004:00009634       _unwind0guideXOS_guideXOS_Graph_Graphics__Copy 0000000010048634     guideXOS.obj
 0004:0000965c       _unwind0guideXOS_guideXOS_Graph_Graphics__FillRectangle 000000001004865c     guideXOS.obj
 0004:00009680       _unwind0guideXOS_guideXOS_Graph_Graphics__AFillRectangle 0000000010048680     guideXOS.obj
 0004:000096a4       _unwind0guideXOS_guideXOS_Graph_Graphics__GetPoint 00000000100486a4     guideXOS.obj
 0004:000096ac       _unwind0guideXOS_guideXOS_Graph_Graphics__DrawPoint 00000000100486ac     guideXOS.obj
 0004:000096c8       _unwind0guideXOS_guideXOS_Graph_Graphics__DrawRectangle 00000000100486c8     guideXOS.obj
 0004:000096e8       _unwind0guideXOS_guideXOS_Graph_Graphics__Save 00000000100486e8     guideXOS.obj
 0004:00009710       _unwind0guideXOS_guideXOS_Graph_Graphics__ADrawImage 0000000010048710     guideXOS.obj
 0004:0000973c       _unwind0guideXOS_guideXOS_Graph_Graphics__DrawImage 000000001004873c     guideXOS.obj
 0004:0000979c       _unwind0guideXOS_guideXOS_Graph_Graphics__FPartOfNumber 000000001004879c     guideXOS.obj
 0004:000097a4       _unwind0guideXOS_guideXOS_Graph_Graphics__DrawPoint_0 00000000100487a4     guideXOS.obj
 0004:000097b4       _unwind0guideXOS_guideXOS_Graph_Graphics__DrawLine 00000000100487b4     guideXOS.obj
 0004:000097e0       _unwind0guideXOS_guideXOS_FS_FATFS__get_fattime 00000000100487e0     guideXOS.obj
 0004:000097fc       _unwind0guideXOS_guideXOS_FS_FATFS__RAM_disk_write 00000000100487fc     guideXOS.obj
 0004:00009810       _unwind0guideXOS_guideXOS_FS_FATFS__RAM_disk_read 0000000010048810     guideXOS.obj
 0004:00009824       _unwind0guideXOS_guideXOS_FS_FileInfo__Dispose 0000000010048824     guideXOS.obj
 0004:00009848       _unwind0guideXOS_guideXOS_FS_FileInfo___ctor 0000000010048848     guideXOS.obj
 0004:00009850       _unwind0guideXOS_guideXOS_FS_FileSystem__SizeToSec 0000000010048850     guideXOS.obj
 0004:00009858       _unwind0guideXOS_guideXOS_FS_FileSystem__IsInDirectory 0000000010048858     guideXOS.obj
 0004:00009884       _unwind0guideXOS_guideXOS_FS_TarFS__GetFiles 0000000010048884     guideXOS.obj
 0004:00009920       _unwind0guideXOS_guideXOS_FS_TarFS__ReadAllBytes 0000000010048920     guideXOS.obj
 0004:00009990       _unwind0guideXOS_guideXOS_FS_TarFS___ctor 0000000010048990     guideXOS.obj
 0004:000099a0       _unwind0guideXOS_guideXOS_Kernel_Libraries_stdio___putchar 00000000100489a0     guideXOS.obj
 0004:000099b0       _unwind0guideXOS_guideXOS_Kernel_Libraries_stdio__fopen 00000000100489b0     guideXOS.obj
 0004:00009a14       _unwind0guideXOS_guideXOS_Kernel_Libraries_stdio__fseek 0000000010048a14     guideXOS.obj
 0004:00009a28       _unwind0guideXOS_guideXOS_Kernel_Libraries_stdio__fread 0000000010048a28     guideXOS.obj
 0004:00009a44       _unwind0guideXOS_guideXOS_Kernel_Libraries_stdlib__malloc 0000000010048a44     guideXOS.obj
 0004:00009a50       _unwind0guideXOS_guideXOS_Kernel_Libraries_stdlib__free 0000000010048a50     guideXOS.obj
 0004:00009a5c       _unwind0guideXOS_guideXOS_Kernel_Libraries_stdlib__realloc 0000000010048a5c     guideXOS.obj
 0004:00009a68       _unwind0guideXOS_guideXOS_Kernel_Libraries_stdlib__calloc 0000000010048a68     guideXOS.obj
 0004:00009a88       _unwind0guideXOS_guideXOS_Kernel_Libraries_stdlib__kmalloc 0000000010048a88     guideXOS.obj
 0004:00009a94       _unwind0guideXOS_guideXOS_Kernel_Libraries_stdlib__kfree 0000000010048a94     guideXOS.obj
 0004:00009aa0       _unwind0guideXOS_guideXOS_Kernel_Libraries_stdlib__krealloc 0000000010048aa0     guideXOS.obj
 0004:00009aac       _unwind0guideXOS_guideXOS_Kernel_Libraries_stdlib__kcalloc 0000000010048aac     guideXOS.obj
 0004:00009acc       _unwind0guideXOS_guideXOS_Kernel_Drivers_AC97__Initialize 0000000010048acc     guideXOS.obj
 0004:00009b34       _unwind0guideXOS_guideXOS_Kernel_Drivers_AC97__OnInterrupt 0000000010048b34     guideXOS.obj
 0004:00009b68       _unwind0guideXOS_guideXOS_Kernel_Drivers_ACPI__GetRSDP 0000000010048b68     guideXOS.obj
 0004:00009b74       _unwind0guideXOS_guideXOS_Kernel_Drivers_ACPI__Shutdown 0000000010048b74     guideXOS.obj
 0004:00009b9c       _unwind0guideXOS_guideXOS_Kernel_Drivers_ACPI__Initialize 0000000010048b9c     guideXOS.obj
 0004:00009bbc       _unwind0guideXOS_guideXOS_Kernel_Drivers_ACPI__ParseDT 0000000010048bbc     guideXOS.obj
 0004:00009c04       _unwind0guideXOS_guideXOS_Kernel_Drivers_ACPI__RemapIRQ 0000000010048c04     guideXOS.obj
 0004:00009c1c       _unwind0guideXOS_guideXOS_Kernel_Drivers_ACPITimer__SleepMicroseconds 0000000010048c1c     guideXOS.obj
 0004:00009c48       _unwind0guideXOS_guideXOS_Kernel_Drivers_EHCI__Initialize 0000000010048c48     guideXOS.obj
 0004:00009cac       _unwind0guideXOS_guideXOS_Kernel_Drivers_EHCI__SendAndReceive 0000000010048cac     guideXOS.obj
 0004:00009cd0       _unwind0guideXOS_guideXOS_Kernel_Drivers_EHCI__SetDeviceAddr 0000000010048cd0     guideXOS.obj
 0004:00009cf0       _unwind0guideXOS_guideXOS_Kernel_Drivers_EHCI__WaitForComplete 0000000010048cf0     guideXOS.obj
 0004:00009d10       _unwind0guideXOS_guideXOS_Kernel_Drivers_EHCI__GetDesc 0000000010048d10     guideXOS.obj
 0004:00009d3c       _unwind0guideXOS_guideXOS_Kernel_Drivers_EHCI__GetConfig 0000000010048d3c     guideXOS.obj
 0004:00009d68       _unwind0guideXOS_guideXOS_Kernel_Drivers_EHCI__SetConfig 0000000010048d68     guideXOS.obj
 0004:00009d8c       _unwind0guideXOS_guideXOS_Kernel_Drivers_EHCI__InitPort 0000000010048d8c     guideXOS.obj
 0004:00009de0       _unwind0guideXOS_guideXOS_Kernel_Drivers_EHCI__ScanPorts 0000000010048de0     guideXOS.obj
 0004:00009dfc       _unwind0guideXOS_guideXOS_Kernel_Drivers_ES1371__Initialize 0000000010048dfc     guideXOS.obj
 0004:00009e54       _unwind0guideXOS_guideXOS_Kernel_Drivers_ES1371__OnInterrupt 0000000010048e54     guideXOS.obj
 0004:00009e84       _unwind0guideXOS_guideXOS_Kernel_Drivers_Framebuffer__set_TripleBuffered 0000000010048e84     guideXOS.obj
 0004:00009ea0       _unwind0guideXOS_guideXOS_Kernel_Drivers_Framebuffer__Update 0000000010048ea0     guideXOS.obj
 0004:00009ecc       _unwind0guideXOS_guideXOS_Kernel_Drivers_Framebuffer__Initialize 0000000010048ecc     guideXOS.obj
 0004:00009f00       _unwind0guideXOS_guideXOS_Kernel_Drivers_HID__Initialize 0000000010048f00     guideXOS.obj
 0004:00009f10       _unwind0guideXOS_guideXOS_Kernel_Drivers_HID__GetHIDPacket 0000000010048f10     guideXOS.obj
 0004:00009f28       _unwind0guideXOS_guideXOS_Kernel_Drivers_HID__GetKeyboard 0000000010048f28     guideXOS.obj
 0004:00009f44       _unwind0guideXOS_guideXOS_Kernel_Drivers_HID__GetMouse 0000000010048f44     guideXOS.obj
 0004:00009f60       _unwind0guideXOS_guideXOS_Kernel_Drivers_HID__Initialize_0 0000000010048f60     guideXOS.obj
 0004:00009f84       _unwind0guideXOS_guideXOS_Kernel_Drivers_HID__InitializeKeyboard 0000000010048f84     guideXOS.obj
 0004:00009f98       _unwind0guideXOS_guideXOS_Kernel_Drivers_HPET__Initialize 0000000010048f98     guideXOS.obj
 0004:00009fac       _unwind0guideXOS_guideXOS_Kernel_Drivers_HPET__WriteRegister 0000000010048fac     guideXOS.obj
 0004:00009fbc       _unwind0guideXOS_guideXOS_Kernel_Drivers_HPET__ReadRegister 0000000010048fbc     guideXOS.obj
 0004:00009fc8       _unwind0guideXOS_guideXOS_Kernel_Drivers_Hub__Initialize 0000000010048fc8     guideXOS.obj
 0004:00009fd8       _unwind0guideXOS_guideXOS_Kernel_Drivers_Hub__Initialize_0 0000000010048fd8     guideXOS.obj
 0004:0000a028       _unwind0guideXOS_guideXOS_Kernel_Drivers_IDE__Initialize 0000000010049028     guideXOS.obj
 0004:0000a03c       _unwind0guideXOS_guideXOS_Kernel_Drivers_IDE__ScanPorts 000000001004903c     guideXOS.obj
 0004:0000a0bc       _unwind0guideXOS_guideXOS_Kernel_Drivers_IDE___ScanPorts_g__WaitForIdentifyData_3_2 00000000100490bc     guideXOS.obj
 0004:0000a0dc       _unwind0guideXOS_guideXOS_Kernel_Drivers_IDEDevice__ReadOrWrite 00000000100490dc     guideXOS.obj
 0004:0000a12c       _unwind0guideXOS_guideXOS_Kernel_Drivers_IDEDevice__WaitForReadyStatus 000000001004912c     guideXOS.obj
 0004:0000a14c       _unwind0guideXOS_guideXOS_Kernel_Drivers_IDEDevice__Read 000000001004914c     guideXOS.obj
 0004:0000a164       _unwind0guideXOS_guideXOS_Kernel_Drivers_IDEDevice__Write 0000000010049164     guideXOS.obj
 0004:0000a17c       _unwind0guideXOS_guideXOS_Kernel_Drivers_IDEDevice___ctor 000000001004917c     guideXOS.obj
 0004:0000a18c       _unwind0guideXOS_guideXOS_Kernel_Drivers_IOAPIC__Initialize 000000001004918c     guideXOS.obj
 0004:0000a1a8       _unwind0guideXOS_guideXOS_Kernel_Drivers_IOAPIC__In 00000000100491a8     guideXOS.obj
 0004:0000a1b4       _unwind0guideXOS_guideXOS_Kernel_Drivers_IOAPIC__Out 00000000100491b4     guideXOS.obj
 0004:0000a1c4       _unwind0guideXOS_guideXOS_Kernel_Drivers_IOAPIC__SetEntry 00000000100491c4     guideXOS.obj
 0004:0000a1d4       _unwind0guideXOS_guideXOS_Kernel_Drivers_IOAPIC__SetEntry_0 00000000100491d4     guideXOS.obj
 0004:0000a1e4       _unwind0guideXOS_guideXOS_Kernel_Drivers_Keyboard__InvokeOnKeyChanged 00000000100491e4     guideXOS.obj
 0004:0000a204       _unwind0guideXOS_guideXOS_Kernel_Drivers_Keyboard__CleanKeyInfo 0000000010049204     guideXOS.obj
 0004:0000a210       _unwind0guideXOS_guideXOS_Kernel_Drivers_LocalAPIC__ReadRegister 0000000010049210     guideXOS.obj
 0004:0000a21c       _unwind0guideXOS_guideXOS_Kernel_Drivers_LocalAPIC__SendIPI 000000001004921c     guideXOS.obj
 0004:0000a234       _unwind0guideXOS_guideXOS_Kernel_Drivers_LocalAPICTimer__StartTimer 0000000010049234     guideXOS.obj
 0004:0000a254       _unwind0guideXOS_guideXOS_Kernel_Drivers_LocalAPICTimer__EstimateBusSpeed 0000000010049254     guideXOS.obj
 0004:0000a264       _unwind0guideXOS_guideXOS_Kernel_Drivers_PCIDevice__WriteRegister 0000000010049264     guideXOS.obj
 0004:0000a27c       _unwind0guideXOS_guideXOS_Kernel_Drivers_PCIDevice___ctor 000000001004927c     guideXOS.obj
 0004:0000a284       _unwind0guideXOS_guideXOS_Kernel_Drivers_PCI__GetDevice 0000000010049284     guideXOS.obj
 0004:0000a2a8       _unwind0guideXOS_guideXOS_Kernel_Drivers_PCI__GetDevice_0 00000000100492a8     guideXOS.obj
 0004:0000a2d0       _unwind0guideXOS_guideXOS_Kernel_Drivers_PCI__Initialise 00000000100492d0     guideXOS.obj
 0004:0000a2e8       _unwind0guideXOS_guideXOS_Kernel_Drivers_PCI__CheckBus 00000000100492e8     guideXOS.obj
 0004:0000a354       _unwind0guideXOS_guideXOS_Kernel_Drivers_PCI__WriteRegister32 0000000010049354     guideXOS.obj
 0004:0000a378       _unwind0guideXOS_guideXOS_Kernel_Drivers_PCI__ReadRegister32 0000000010049378     guideXOS.obj
 0004:0000a39c       _unwind0guideXOS_guideXOS_Kernel_Drivers_PCI__ReadRegister16 000000001004939c     guideXOS.obj
 0004:0000a3c0       _unwind0guideXOS_guideXOS_Kernel_Drivers_PCI__ReadRegister8 00000000100493c0     guideXOS.obj
 0004:0000a3e4       _unwind0guideXOS_guideXOS_Kernel_Drivers_PCI__WriteRegister16 00000000100493e4     guideXOS.obj
 0004:0000a408       _unwind0guideXOS_guideXOS_Kernel_Drivers_PCI__GetVendorID 0000000010049408     guideXOS.obj
 0004:0000a42c       _unwind0guideXOS_guideXOS_Kernel_Drivers_PCI__GetHeaderType 000000001004942c     guideXOS.obj
 0004:0000a450       _unwind0guideXOS_guideXOS_Kernel_Drivers_PCI__GetAddressBase 0000000010049450     guideXOS.obj
 0004:0000a458       _unwind0guideXOS_guideXOS_Kernel_Drivers_PCIExpress__Initialize 0000000010049458     guideXOS.obj
 0004:0000a47c       _unwind0guideXOS_guideXOS_Kernel_Drivers_PCIExpress__CheckBus 000000001004947c     guideXOS.obj
 0004:0000a4ec       _unwind0guideXOS_guideXOS_Kernel_Drivers_PIC__Disable 00000000100494ec     guideXOS.obj
 0004:0000a52c       _unwind0guideXOS_guideXOS_Kernel_Drivers_Power__Reboot 000000001004952c     guideXOS.obj
 0004:0000a550       _unwind0guideXOS_guideXOS_Kernel_Drivers_PS2Keyboard__Initialize 0000000010049550     guideXOS.obj
 0004:0000a56c       _unwind0guideXOS_guideXOS_Kernel_Drivers_PS2Keyboard__OnInterrupt 000000001004956c     guideXOS.obj
 0004:0000a58c       _unwind0guideXOS_guideXOS_Kernel_Drivers_PS2Keyboard__ProcessKey 000000001004958c     guideXOS.obj
 0004:0000a5b0       _unwind0guideXOS_guideXOS_Kernel_Drivers_PS2Mouse__Initialise 00000000100495b0     guideXOS.obj
 0004:0000a600       _unwind0guideXOS_guideXOS_Kernel_Drivers_PS2Mouse__WriteRegister 0000000010049600     guideXOS.obj
 0004:0000a62c       _unwind0guideXOS_guideXOS_Kernel_Drivers_PS2Mouse__OnInterrupt 000000001004962c     guideXOS.obj
 0004:0000a660       _unwind0guideXOS_guideXOS_Kernel_Drivers_Ramdisk__Read 0000000010049660     guideXOS.obj
 0004:0000a67c       _unwind0guideXOS_guideXOS_Kernel_Drivers_Ramdisk__Write 000000001004967c     guideXOS.obj
 0004:0000a698       _unwind0guideXOS_guideXOS_Kernel_Drivers_RTC__get_Second 0000000010049698     guideXOS.obj
 0004:0000a6bc       _unwind0guideXOS_guideXOS_Kernel_Drivers_RTC__get_Minute 00000000100496bc     guideXOS.obj
 0004:0000a6e0       _unwind0guideXOS_guideXOS_Kernel_Drivers_RTC__get_Hour 00000000100496e0     guideXOS.obj
 0004:0000a704       _unwind0guideXOS_guideXOS_Kernel_Drivers_RTC__get_Century 0000000010049704     guideXOS.obj
 0004:0000a728       _unwind0guideXOS_guideXOS_Kernel_Drivers_RTC__get_Year 0000000010049728     guideXOS.obj
 0004:0000a74c       _unwind0guideXOS_guideXOS_Kernel_Drivers_RTC__get_Month 000000001004974c     guideXOS.obj
 0004:0000a770       _unwind0guideXOS_guideXOS_Kernel_Drivers_RTC__get_Day 0000000010049770     guideXOS.obj
 0004:0000a794       _unwind0guideXOS_guideXOS_Kernel_Drivers_SATA__Initialize 0000000010049794     guideXOS.obj
 0004:0000a850       _unwind0guideXOS_guideXOS_Kernel_Drivers_SATA__CheckPortType 0000000010049850     guideXOS.obj
 0004:0000a858       _unwind0guideXOS_guideXOS_Kernel_Drivers_Serial__Initialise 0000000010049858     guideXOS.obj
 0004:0000a88c       _unwind0guideXOS_guideXOS_Kernel_Drivers_Serial__Write_0 000000001004988c     guideXOS.obj
 0004:0000a8ac       _unwind0guideXOS_guideXOS_Kernel_Drivers_SMBIOS__Initialise 00000000100498ac     guideXOS.obj
 0004:0000a8c4       _unwind0guideXOS_guideXOS_Kernel_Drivers_SMBIOS__PrintIndex 00000000100498c4     guideXOS.obj
 0004:0000a8dc       _unwind0guideXOS_guideXOS_Kernel_Drivers_Timer__Initialize 00000000100498dc     guideXOS.obj
 0004:0000a8f0       _unwind0guideXOS_guideXOS_Kernel_Drivers_Timer__EstimateCPUSpeed 00000000100498f0     guideXOS.obj
 0004:0000a914       _unwind0guideXOS_guideXOS_Kernel_Drivers_Timer__OnInterrupt 0000000010049914     guideXOS.obj
 0004:0000a928       _unwind0guideXOS_guideXOS_Kernel_Drivers_Timer__Sleep 0000000010049928     guideXOS.obj
 0004:0000a948       _unwind0guideXOS_guideXOS_Kernel_Drivers_VMwareTools__Initialize 0000000010049948     guideXOS.obj
 0004:0000a958       _unwind0guideXOS_guideXOS_Kernel_Drivers_VMwareTools__vmware_handle_mouse 0000000010049958     guideXOS.obj
 0004:0000a984       _unwind0guideXOS_guideXOS_Kernel_Drivers_VMwareTools__mouse_absolute 0000000010049984     guideXOS.obj
 0004:0000a9ac       _unwind0guideXOS_guideXOS_Kernel_Drivers_VMwareTools__is_vmware_backdoor 00000000100499ac     guideXOS.obj
 0004:0000a9cc       _unwind0guideXOS_guideXOS_OS_AppCollection___ctor 00000000100499cc     guideXOS.obj
 0004:0000a9f0       _unwind0guideXOS_guideXOS_OS_AppCollection__LoadDefaultApps 00000000100499f0     guideXOS.obj
 0004:0000aa2c       _unwind0guideXOS_guideXOS_OS_AppCollection__Load 0000000010049a2c     guideXOS.obj
 0004:0000aa88       _unwind0guideXOS_guideXOS_GUI_Desktop__Initialize 0000000010049a88     guideXOS.obj
 0004:0000aab8       _unwind0guideXOS_guideXOS_GUI_Desktop__Update 0000000010049ab8     guideXOS.obj
 0004:0000ab74       _unwind0guideXOS_guideXOS_GUI_Desktop__ClickEvent 0000000010049b74     guideXOS.obj
 0004:0000abe0       _unwind0guideXOS_guideXOS_GUI_Desktop__OnClick 0000000010049be0     guideXOS.obj
 0004:0000acd4       _unwind0guideXOS_guideXOS_GUI_FConsole___ctor 0000000010049cd4     guideXOS.obj
 0004:0000acf4       _unwind0guideXOS_guideXOS_GUI_FConsole__Rebind 0000000010049cf4     guideXOS.obj
 0004:0000ad0c       _unwind0guideXOS_guideXOS_GUI_FConsole__Keyboard_OnKeyChanged 0000000010049d0c     guideXOS.obj
 0004:0000ad50       _unwind0guideXOS_guideXOS_GUI_FConsole__OnDraw 0000000010049d50     guideXOS.obj
 0004:0000ad7c       _unwind0guideXOS_guideXOS_GUI_FConsole__DrawString 0000000010049d7c     guideXOS.obj
 0004:0000ada8       _unwind0guideXOS_guideXOS_GUI_FConsole__Console_OnWrite 0000000010049da8     guideXOS.obj
 0004:0000addc       _unwind0guideXOS_guideXOS_GUI_Icons__get_FileIcon 0000000010049ddc     guideXOS.obj
 0004:0000adf0       _unwind0guideXOS_guideXOS_GUI_Icons__get_IamgeIcon 0000000010049df0     guideXOS.obj
 0004:0000ae04       _unwind0guideXOS_guideXOS_GUI_Icons__get_AudioIcon 0000000010049e04     guideXOS.obj
 0004:0000ae18       _unwind0guideXOS_guideXOS_GUI_Icons__get_FolderIcon 0000000010049e18     guideXOS.obj
 0004:0000ae2c       _unwind0guideXOS_guideXOS_GUI_Icons__get_TaskbarIcon 0000000010049e2c     guideXOS.obj
 0004:0000ae40       _unwind0guideXOS_guideXOS_GUI_ImageViewer__OnDraw 0000000010049e40     guideXOS.obj
 0004:0000ae54       _unwind0guideXOS_guideXOS_GUI_ImageViewer__SetImage 0000000010049e54     guideXOS.obj
 0004:0000ae70       _unwind0guideXOS_guideXOS_GUI_Lockscreen__Run 0000000010049e70     guideXOS.obj
 0004:0000aee4       _unwind0guideXOS_guideXOS_GUI_Lockscreen__DrawLockscreenUI 0000000010049ee4     guideXOS.obj
 0004:0000afa0       _unwind0guideXOS_guideXOS_GUI_MessageBox___ctor 0000000010049fa0     guideXOS.obj
 0004:0000afb4       _unwind0guideXOS_guideXOS_GUI_MessageBox__OnDraw 0000000010049fb4     guideXOS.obj
 0004:0000afc8       _unwind0guideXOS_guideXOS_GUI_Monitor___ctor 0000000010049fc8     guideXOS.obj
 0004:0000afe0       _unwind0guideXOS_guideXOS_GUI_Monitor__OnDraw 0000000010049fe0     guideXOS.obj
 0004:0000affc       _unwind0guideXOS_guideXOS_GUI_Monitor__Render 0000000010049ffc     guideXOS.obj
 0004:0000b024       _unwind0guideXOS_guideXOS_GUI_Monitor__DrawLineChart 000000001004a024     guideXOS.obj
 0004:0000b03c       _unwind0guideXOS_guideXOS_GUI_Nofity___ctor 000000001004a03c     guideXOS.obj
 0004:0000b058       _unwind0guideXOS_guideXOS_GUI_Nofity__Dispose 000000001004a058     guideXOS.obj
 0004:0000b084       _unwind0guideXOS_guideXOS_GUI_NotificationManager__Initialize 000000001004a084     guideXOS.obj
 0004:0000b0b4       _unwind0guideXOS_guideXOS_GUI_NotificationManager__Add 000000001004a0b4     guideXOS.obj
 0004:0000b0c8       _unwind0guideXOS_guideXOS_GUI_NotificationManager__Update 000000001004a0c8     guideXOS.obj
 0004:0000b188       _unwind0guideXOS_guideXOS_GUI_Paint___ctor 000000001004a188     guideXOS.obj
 0004:0000b1c0       _unwind0guideXOS_guideXOS_GUI_Paint__OnDraw 000000001004a1c0     guideXOS.obj
 0004:0000b1ec       _unwind0guideXOS_guideXOS_GUI_Paint__OnInput 000000001004a1ec     guideXOS.obj
 0004:0000b264       _unwind0guideXOS_guideXOS_GUI_Paint__AddButton 000000001004a264     guideXOS.obj
 0004:0000b280       _unwind0guideXOS_guideXOS_GUI_RightMenu___ctor 000000001004a280     guideXOS.obj
 0004:0000b290       _unwind0guideXOS_guideXOS_GUI_RightMenu__OnSetVisible 000000001004a290     guideXOS.obj
 0004:0000b2a0       _unwind0guideXOS_guideXOS_GUI_RightMenu__OnInput 000000001004a2a0     guideXOS.obj
 0004:0000b2c0       _unwind0guideXOS_guideXOS_GUI_RightMenu__OnDraw 000000001004a2c0     guideXOS.obj
 0004:0000b2d8       _unwind0guideXOS_guideXOS_GUI_StartMenu___ctor 000000001004a2d8     guideXOS.obj
 0004:0000b2e8       _unwind0guideXOS_guideXOS_GUI_Taskbar__Draw 000000001004a2e8     guideXOS.obj
 0004:0000b310       _unwind0guideXOS_guideXOS_GUI_WAVPlayer___ctor 000000001004a310     guideXOS.obj
 0004:0000b338       _unwind0guideXOS_guideXOS_GUI_WAVPlayer__OnInput 000000001004a338     guideXOS.obj
 0004:0000b34c       _unwind0guideXOS_guideXOS_GUI_WAVPlayer__OnDraw 000000001004a34c     guideXOS.obj
 0004:0000b384       _unwind0guideXOS_guideXOS_GUI_WAVPlayer__DoPlay 000000001004a384     guideXOS.obj
 0004:0000b39c       _unwind0guideXOS_guideXOS_GUI_Welcome___ctor 000000001004a39c     guideXOS.obj
 0004:0000b3bc       _unwind0guideXOS_guideXOS_GUI_Welcome__OnDraw 000000001004a3bc     guideXOS.obj
 0004:0000b3d4       _unwind0guideXOS_guideXOS_GUI_Window__IsUnderMouse 000000001004a3d4     guideXOS.obj
 0004:0000b3e4       _unwind0guideXOS_guideXOS_GUI_Window__OnSetVisible 000000001004a3e4     guideXOS.obj
 0004:0000b3ec       _unwind0guideXOS_guideXOS_GUI_Window___ctor 000000001004a3ec     guideXOS.obj
 0004:0000b404       _unwind0guideXOS_guideXOS_GUI_Window__OnInput 000000001004a404     guideXOS.obj
 0004:0000b430       _unwind0guideXOS_guideXOS_GUI_Window__get_CloseButtonX 000000001004a430     guideXOS.obj
 0004:0000b43c       _unwind0guideXOS_guideXOS_GUI_Window__get_CloseButtonY 000000001004a43c     guideXOS.obj
 0004:0000b448       _unwind0guideXOS_guideXOS_GUI_Window__OnDraw 000000001004a448     guideXOS.obj
 0004:0000b478       _unwind0guideXOS_guideXOS_GUI_Window__DrawBorder 000000001004a478     guideXOS.obj
 0004:0000b48c       _unwind0guideXOS_guideXOS_GUI_WindowManager__Initialize 000000001004a48c     guideXOS.obj
 0004:0000b4b4       _unwind0guideXOS_guideXOS_GUI_WindowManager__DrawAll 000000001004a4b4     guideXOS.obj
 0004:0000b4d8       _unwind0guideXOS_guideXOS_GUI_WindowManager__InputAll 000000001004a4d8     guideXOS.obj
 0004:0000b500       _unwind0guideXOS_guideXOS_GUI_Widgets_Button___ctor 000000001004a500     guideXOS.obj
 0004:0000b508       _unwind0guideXOS_guideXOS_GUI_Widgets_Base_Widget___ctor 000000001004a508     guideXOS.obj
 0004:0000b510       _unwind0guideXOS_guideXOS_DefaultApps_Calculator___ctor 000000001004a510     guideXOS.obj
 0004:0000b550       _unwind0guideXOS_guideXOS_DefaultApps_Calculator__OnDraw 000000001004a550     guideXOS.obj
 0004:0000b584       _unwind0guideXOS_guideXOS_DefaultApps_Calculator__OnInput 000000001004a584     guideXOS.obj
 0004:0000b5c8       _unwind0guideXOS_guideXOS_DefaultApps_Calculator__ProcessButton 000000001004a5c8     guideXOS.obj
 0004:0000b604       _unwind0guideXOS_guideXOS_DefaultApps_Calculator__AddButton 000000001004a604     guideXOS.obj
 0004:0000b624       _unwind0guideXOS_guideXOS_DefaultApps_Clock___ctor 000000001004a624     guideXOS.obj
 0004:0000b634       _unwind0guideXOS_guideXOS_DefaultApps_Clock__OnDraw 000000001004a634     guideXOS.obj
 0004:0000b6c4       _unwind0guideXOS_guideXOS_DefaultApps_Clock__DrawHand 000000001004a6c4     guideXOS.obj
 0004:0000b700       _unwind1guideXOS_guideXOS_DefaultApps_Clock__DrawHand 000000001004a700     guideXOS.obj
 0004:0000b718       _unwind0guideXOS_guideXOS_DefaultApps_Notepad__OnDraw 000000001004a718     guideXOS.obj
 0004:0000b720       _unwind0guideXOS_guideXOS_DefaultApps_Notepad__OnInput 000000001004a720     guideXOS.obj
 0004:0000b728       _unwind0guideXOS_guideXOS_Misc_Interrupts_INT___ctor 000000001004a728     guideXOS.obj
 0004:0000b730       _unwind0guideXOS_guideXOS_Kernel_Drivers_EHCI_TD__Clean 000000001004a730     guideXOS.obj
 0004:0000b750       _unwind0guideXOS_guideXOS_Kernel_Drivers_EHCI_QH__Clean 000000001004a750     guideXOS.obj
 0004:0000b770       _unwind0guideXOS_guideXOS_Kernel_Drivers_SATA_HBACommandHeader__set_CommandFISLength 000000001004a770     guideXOS.obj
 0004:0000b778       _unwind0guideXOS_guideXOS_Kernel_Drivers_SATA_HBACommandHeader__set_Write 000000001004a778     guideXOS.obj
 0004:0000b780       _unwind0guideXOS_guideXOS_Kernel_Drivers_SATA_SATADevice__Configure 000000001004a780     guideXOS.obj
 0004:0000b7a8       _unwind0guideXOS_guideXOS_Kernel_Drivers_SATA_SATADevice__StartCMD 000000001004a7a8     guideXOS.obj
 0004:0000b7b8       _unwind0guideXOS_guideXOS_Kernel_Drivers_SATA_SATADevice__StopCMD 000000001004a7b8     guideXOS.obj
 0004:0000b7c8       _unwind0guideXOS_guideXOS_Kernel_Drivers_SATA_SATADevice__Read 000000001004a7c8     guideXOS.obj
 0004:0000b7d4       _unwind0guideXOS_guideXOS_Kernel_Drivers_SATA_SATADevice__Write 000000001004a7d4     guideXOS.obj
 0004:0000b7e0       _unwind0guideXOS_guideXOS_Kernel_Drivers_SATA_SATADevice__ReadOrWrite 000000001004a7e0     guideXOS.obj
 0004:0000b82c       _unwind0guideXOS_guideXOS_Kernel_Drivers_SATA_SATADevice__FindSlot 000000001004a82c     guideXOS.obj
 0004:0000b840       _unwind0guideXOS_guideXOS_Kernel_Drivers_SATA_SATADevice___ctor 000000001004a840     guideXOS.obj
 0004:0000b850       _unwind0guideXOS_guideXOS_GUI_Monitor_Chart___ctor 000000001004a850     guideXOS.obj
 0004:0000b86c       _unwind0guideXOS_System_Array_1<UInt8>___ctor 000000001004a86c     guideXOS.obj
 0004:0000b874       _unwind0guideXOS_System_Collections_Generic_List_1<UInt8>__Dispose 000000001004a874     guideXOS.obj
 0004:0000b898       _unwind0guideXOS_System_Array_1<Char>___ctor 000000001004a898     guideXOS.obj
 0004:0000b8a0       _unwind0guideXOS_System_Array_1<guideXOS_System_ConsoleKey>___ctor 000000001004a8a0     guideXOS.obj
 0004:0000b8a8       _unwind0guideXOS_System_Array_1<Int32>___ctor 000000001004a8a8     guideXOS.obj
 0004:0000b8b0       _unwind0guideXOS_System_Array_1<UInt32>___ctor 000000001004a8b0     guideXOS.obj
 0004:0000b8b8       _unwind0guideXOS_System_Array_1<guideXOS_IDT_IDTEntry>___ctor 000000001004a8b8     guideXOS.obj
 0004:0000b8c0       _unwind0guideXOS_System_Array_1<System___Canon>___ctor 000000001004a8c0     guideXOS.obj
 0004:0000b8c8       _unwind0guideXOS_System_Collections_Generic_List_1<System___Canon>__Insert 000000001004a8c8     guideXOS.obj
 0004:0000b904       _unwind0guideXOS_System_Collections_Generic_List_1<System___Canon>__IndexOf 000000001004a904     guideXOS.obj
 0004:0000b924       _unwind0guideXOS_System_Collections_Generic_List_1<System___Canon>__Remove 000000001004a924     guideXOS.obj
 0004:0000b934       _unwind0guideXOS_System_Collections_Generic_List_1<System___Canon>__RemoveAt 000000001004a934     guideXOS.obj
 0004:0000b95c       _unwind0guideXOS_System_Collections_Generic_List_1<System___Canon>__Dispose 000000001004a95c     guideXOS.obj
 0004:0000b980       _unwind0guideXOS__Module___StartupCodeMain 000000001004a980     guideXOS.obj
 0005:00000000       __FrozenSegmentRegionStart 000000001004c000     guideXOS.obj
 0005:00000008       __Str_                     000000001004c008     guideXOS.obj
 0005:00000020       __Str________________________________F9B74DCC2C30B833333DF39209DF1D350F28DAD78C0CCF4488DEC08673AE266D 000000001004c020     guideXOS.obj
 0005:00002038       __Str___869F1DFB999A452F497A4CF7F44DB2D6EE661F74A9E7E05251BC1420E50672D4 000000001004e038     guideXOS.obj
 0005:00002050       __Str__Configured_5922E3C8AAB74D690AA4D06B9DF341DB60A4B1862FB622162AD4A4AE76E753FB 000000001004e050     guideXOS.obj
 0005:00002080       __Str__by__74094911964D78E62D232B70406D7B686597E2090825DBA80F9576D527E68EFC 000000001004e080     guideXOS.obj
 0005:000020a0       __Str__from__40F30B053D5BFFC199A827E6EC6711394A444E9616D570CD82C5406863FF727E 000000001004e0a0     guideXOS.obj
 0005:000020c8       __Str__is_not_found__FD845D57E9E54361143D8F52AC79ED9257C55D6B55340B1C86C3DF14A2DEEFEC 000000001004e0c8     guideXOS.obj
 0005:00002100       __Str__to__4704C585B23A1EE1197E71C7EF5316E957CC5665E6542823D4393ACBB2F2D737 000000001004e100     guideXOS.obj
 0005:00002120       __Str________________0123456789______F7BF6D38F3A9D914233DDAFB3D4E6DC2429E6CDAD1083CA3CD14A08C2A885C7F 000000001004e120     guideXOS.obj
 0005:000021f8       __Str___37AA3970B6801C9D286464F7D86E50BF41C88E54C7B4D08F3FF61935B3F59C3C 000000001004e1f8     guideXOS.obj
 0005:00002210       __Str___is_not_found_83939CD445D2BC021F4028A01FDE5517453ED4B51B26E4EB3BC9F2FEF568FD40 000000001004e210     guideXOS.obj
 0005:00002248       __Str___17D5F5A33AB5F6AED0395D2BC0A4E5DF61D92441EA8D77B0952C01BC8AA8BDE0 000000001004e248     guideXOS.obj
 0005:00002260       __Str___206014A4266C2082B9433011FB2991059F972D570A8B3C976E5B2B8DFCFBFC8D 000000001004e260     guideXOS.obj
 0005:00002278       __Str____159F0875013DAD37050AD50DDFAF4061A6569D160655235D4311F0A1AC685FD2 000000001004e278     guideXOS.obj
 0005:00002298       __Str___24EA1EBD0BAFD39482DB46EC2D8959E61353A90EFC072719E1308F86C3A106BA 000000001004e298     guideXOS.obj
 0005:000022b0       __Str____C7D10CEAFB0974092160E3ED2F2C029A9B6EF35EF6149AA328E34F80F58D154E 000000001004e2b0     guideXOS.obj
 0005:000022d0       __Str__bmp_930DE8F09EEB7E0A6A097DA4298EC752B087A86AD7ED7509FC9147B1598D9417 000000001004e2d0     guideXOS.obj
 0005:000022f0       __Str__mue_6FCEE403DC96EE81AB870F9AEC397D00E7A92E617A61B1B4E554F6B0724DCCFA 000000001004e2f0     guideXOS.obj
 0005:00002310       __Str__png_8553D5B341E1075AB39612DF6F9B58B0AC7D702D6088B5AF443D3DC513BB303B 000000001004e310     guideXOS.obj
 0005:00002330       __Str__wav_0A4E88975981D40CD5B288B9344D3DB8FE84BBF5E282E714539B8AE747D5A8E4 000000001004e330     guideXOS.obj
 0005:00002350       __Str___ADE0274F84B828B0980112609BB51775D0A4E39BF4728F21DCDD04A627ABB92A 000000001004e350     guideXOS.obj
 0005:00002368       __Str__0_E4F60D0AA6D7F3D3B6A6494B1C861B99F649C6F9EC51ABAF201B20F297327C95 000000001004e368     guideXOS.obj
 0005:00002380       __Str__1_E79E418E48623569D75E2A7B09AE88ED9B77B126A445B9FF9DC6989A08EFA079 000000001004e380     guideXOS.obj
 0005:00002398       __Str__2_913DA1F8DF6F8FD47593840D533BA0458CC9873996BF310460ABB495B34C232A 000000001004e398     guideXOS.obj
 0005:000023b0       __Str__3_AC11339FFA8F270C4F781E0A3922BB1C80D9DEE6E4B6911CA34538ED9AE03CAA 000000001004e3b0     guideXOS.obj
 0005:000023c8       __Str__3A_International_Inc_5315B88D11BA929A4204C30298F9569260789D622828A638FEE0586FBECC7B2C 000000001004e3c8     guideXOS.obj
 0005:00002408       __Str__3Com_Corporation_92A37FA265807647BE8AA185BFCE29B50C23B1417FBA500E40B477FEFE41861F 000000001004e408     guideXOS.obj
 0005:00002440       __Str__3Dlabs__Inc_Ltd_871288597BABC2D48EABB8F97CDB8ED41993DDCCFFD68300FB592FA1E21A0380 000000001004e440     guideXOS.obj
 0005:00002478       __Str__3com_Corporation_8CA316728EBB2F7815FFB260D2C59D5E3B4BA0261AB8F2FB897260E8D91086FB 000000001004e478     guideXOS.obj
 0005:000024b0       __Str__3dfx_Interactive_Inc_01417CCEED199870B4E1CB6FA42C7042B39BEC1DE96207F27E2D70EC08C551B9 000000001004e4b0     guideXOS.obj
 0005:000024f0       __Str__3dpower_B48782B3D819767FAD492A3EE96BAA04A8F186AF72711F5B9F9F369CD7460B4A 000000001004e4f0     guideXOS.obj
 0005:00002518       __Str__3pardata_Inc_14396FD3D74223653C3B0D0A82012B6B131273A2B03AE0737A513AF603DA4D78 000000001004e518     guideXOS.obj
 0005:00002548       __Str__4_3089C464221340FED4229D6BA913A04224C91B44158C22163E8849EB7DCC4878 000000001004e548     guideXOS.obj
 0005:00002560       __Str__4links_377009DE7BD19117AE35BE35F1E4817C03186F1C89114F1986209BDC43080358 000000001004e560     guideXOS.obj
 0005:00002588       __Str__5_166F829E016F2315A8099E3A8D2DBEC6D91572379FF02C760BA4E0335789D47F 000000001004e588     guideXOS.obj
 0005:000025a0       __Str__6_AA4FB8A61CAB7DB73F42671F2BB987A7291A436929B3D5F17FFE05F96BE13371 000000001004e5a0     guideXOS.obj
 0005:000025b8       __Str__7_BB153E97380F82AA57033ADD2C11B28A3AE640C8DAAA89D2BD5BD317456ECB03 000000001004e5b8     guideXOS.obj
 0005:000025d0       __Str__8_0C59629D81806B2B169BCD633F8A9CB7DA43A8D692DBC95BC201D0F5CF5E08D5 000000001004e5d0     guideXOS.obj
 0005:000025e8       __Str__8x8_Inc_D4049E13F1A632DF5A9863E7D05AE49BCDCCF93F79CAE798C76508A84B50FCE6 000000001004e5e8     guideXOS.obj
 0005:00002610       __Str__9_B58D15E89A953322B7AC8FC0D6E37710C1EACD25D8304EFD002904CB18EF62C6 000000001004e610     guideXOS.obj
 0005:00002628       __Str___7648EB81C4E9FEF7B51879C6FCD6FB4B8863EEA0CB2A978C508711DC52C80041 000000001004e628     guideXOS.obj
 0005:00002640       __Str___4A2A7B898F79E4E459B8BB00C50430A11D5936AD43EE9C14660A267789F7BE23 000000001004e640     guideXOS.obj
 0005:00002658       __Str___E7DAC261E841E53EB65AC8C2A0E56544DF49C46D71E8002D7764F92C66C4C868 000000001004e658     guideXOS.obj
 0005:00002670       __Str___0D549A9E1389098A9E7C5D1E01E30A361DA49F46C8F166E55D8A7F18E063B3C3 000000001004e670     guideXOS.obj
 0005:00002688       __Str___as_Ltd_de_Phoenix_del____de__4292D2E78C087C167239AE35B024CEDB5173C6B129B8EFAF53B24E85A125EAA7 000000001004e688     guideXOS.obj
 0005:000026f0       __Str_A_Max_Technology_Co_Ltd_A082B5684391625C8566FE551E3DEEBE55B81BC0B675A0FBED9F7C557A31F5EF 000000001004e6f0     guideXOS.obj
 0005:00002738       __Str_A_Trend_Technology_E83601E314C813DF4C76644197752E5EF2C0D80B9651F7955F884CE906A1362D 000000001004e738     guideXOS.obj
 0005:00002778       __Str_A_Trend_Technology_Co_Ltd_245B4D947530E472E89093FFBC1D9B55A09A83D9A36F4E05BE159A49581C49C5 000000001004e778     guideXOS.obj
 0005:000027c0       __Str_ABB_AB__Sweden__F1BCD1EAD2D36F852E35F1FAD338C3976021D881E34E69255CCFA916445697AE 000000001004e7c0     guideXOS.obj
 0005:000027f8       __Str_ABB_Network_Partner_AB_EDB0641A0655DC11BB53FA52BF1B54D303E288911937DB6D15E35098C75E921F 000000001004e7f8     guideXOS.obj
 0005:00002840       __Str_ABB_Power_Systems_00FF0129BB9721C53FDA150FC4B573F4C14D91EADD159E6D66F86DCC1C3564B4 000000001004e840     guideXOS.obj
 0005:00002878       __Str_ABB_Robotics_Products_AB_AAFADC6ECBA4848A80B4E5B6D93C6A015D3E6E8DF1021DC7BC2ACD3EE737EC7A 000000001004e878     guideXOS.obj
 0005:000028c0       __Str_ACPI_VEN_INT_DEV_33A0_063E808A8B8BEE47F58BABCB07C0F47E52007117BEB8327FE5B296E16BD46329 000000001004e8c0     guideXOS.obj
 0005:00002900       __Str_ADLINK_Technology_Inc_31E68A8C11868E35758D1C5B207BC82D397C1DEFAD324A9DFE092171908B87CA 000000001004e900     guideXOS.obj
 0005:00002940       __Str_ADMtek_Inc_D84B340B389F2F908A8182BE311F6AA76174D2BDFEBBE567B58CBB6AFA16D7AD 000000001004e940     guideXOS.obj
 0005:00002970       __Str_AEG_Electrocom_GmbH_000D3E8E3826C3D9C8C3502BCD19F0A4C606622C16D716E610A5A80B2FC40F11 000000001004e970     guideXOS.obj
 0005:000029b0       __Str_AG_Communications_EAE04245C54AD983942B32A6B269672EDDE6286B9429E61E588B3DB31C98E4B2 000000001004e9b0     guideXOS.obj
 0005:000029e8       __Str_AG_Electronics_Ltd_9425E60EE67DB6349C0C7D07C3749F5686FE65D6EB4F8FD8EE0DC59AD0D557FA 000000001004e9e8     guideXOS.obj
 0005:00002a28       __Str_AGEIA_Technologies__Inc_47F5B368F0EDA400439613A4323843EDE0F045B9455E0D3DC4638380A5B14DBB 000000001004ea28     guideXOS.obj
 0005:00002a70       __Str_AMO_GmbH_FBB82CADD6EA439143F275CAF963ED60E51ECDF625E72D6C3C2795FED2605711 000000001004ea70     guideXOS.obj
 0005:00002a98       __Str_AMP_Incorporated_DDC23C6ED016AD955E0A12C9C4B65F4DC5D33F0F4A112A05B5BE7D90A89F7237 000000001004ea98     guideXOS.obj
 0005:00002ad0       __Str_APD_SA_2A3060A994CEEBEB898A26AFEF97A961842CE685D1E3AD2B74A8949225EF9806 000000001004ead0     guideXOS.obj
 0005:00002af8       __Str_ARCOM_Control_Systems_Ltd_2F10130C2368E093465927952BA26CB8B5954BE948840D5A29B33D276CF8FF07 000000001004eaf8     guideXOS.obj
 0005:00002b40       __Str_ARK_Logic__Inc_C49DFD84EAD5539A7E746BD19A464775D8ACF9B3EC59EBA07338CE0419BEDF8B 000000001004eb40     guideXOS.obj
 0005:00002b78       __Str_ARK_Research_Corp_8CED1A5241F52107D66C1C1EC10493A10038C1CEC055D2B726AE5CDC35D68831 000000001004eb78     guideXOS.obj
 0005:00002bb0       __Str_ARM_Ltd_415CA24C11C4C7FB4002D219E390693EE88C472D6B49790E23B9774ECD7F76C3 000000001004ebb0     guideXOS.obj
 0005:00002bd8       __Str_ARN                  000000001004ebd8     guideXOS.obj
 0005:00002bf8       __Str_ARVOO_Engineering_BV_3E7529247BCEA32308D1B8A4F031A2142C04A6ECE2C76DA3F373B0063CF4B455 000000001004ebf8     guideXOS.obj
 0005:00002c38       __Str_ASMedia_Technology_Inc_CE3B086AB8B04A6E76757B618B895E37B6592F4F7467B8E4DAC38818211FD065 000000001004ec38     guideXOS.obj
 0005:00002c80       __Str_AST_Research_A8F25840B6BA56318F774DE4775BCF2929E14A75CFEE89244A339C3FA80B27EE 000000001004ec80     guideXOS.obj
 0005:00002cb0       __Str_ASUS                 000000001004ecb0     guideXOS.obj
 0005:00002cd0       __Str_AVC_Technology_Inc_0D86D1182F9DEF802647D3CC6F11CD701B6F05E2F6B7EDABAD466A03227D4857 000000001004ecd0     guideXOS.obj
 0005:00002d10       __Str_AVM_AUDIOVISUELLES_MKTG___Comp_230E0D99E5101A5CB5059DF3DC42DD916EC3E9B55C8852FF80442145869427EF 000000001004ed10     guideXOS.obj
 0005:00002d78       __Str_Aaeon_Electronics_Inc_E4F430BDE674107897CAE8FBA04F849D180B244BBD8C4BAF220D6CC75A84FFB6 000000001004ed78     guideXOS.obj
 0005:00002db8       __Str_Aashima_Technology_BV_F6AC862FFF42626D6AF62139A9EBB87BB6497F19AA742057C8AA45A313FF9E1D 000000001004edb8     guideXOS.obj
 0005:00002df8       __Str_Abekas__Inc_CB921FC7BEBC0BCBA44DA6FA6126A6E23F9590480F7D0E8166BE328F7587576A 000000001004edf8     guideXOS.obj
 0005:00002e28       __Str_Abit_Computer_Corp_EB0C3BD0D2E2B09B4B31926D663159D9CBC3B92E8BC08E6DE17D5585003C1A11 000000001004ee28     guideXOS.obj
 0005:00002e68       __Str_AboCom_Systems__Inc_FCCF25FF3608191201B386A177A13AAAD5433445E3A6856626AAE95B697E9601 000000001004ee68     guideXOS.obj
 0005:00002ea8       __Str_Absolute_Analysis_85DF9BE3A8AF986BA65AAE9215D9340AE97500752EFB2DD158159403E1D71055 000000001004eea8     guideXOS.obj
 0005:00002ee0       __Str_Acard_Technology_Corp_8C3CAE73E61513F0863FCE76B409FE8DC8EC4A8FE8B05DB1B6E9238E8A89984C 000000001004eee0     guideXOS.obj
 0005:00002f20       __Str_Accton_Technology_Corporation_1186FDB73383269CBEF403E6321C99B9BD1AA486A510E0BF29E81E46EC376DA4 000000001004ef20     guideXOS.obj
 0005:00002f70       __Str_Accusys_Inc_CF4A597E330FFD3C0FDD2C1FE3C1C68B917997E3BE927FEB33E15AFC31CBAD92 000000001004ef70     guideXOS.obj
 0005:00002fa0       __Str_Acer_Incorporated_A36AF58C8BC59A1E694BBC139102A716ECA9913FE8860C4C20761410560E3EF8 000000001004efa0     guideXOS.obj
 0005:00002fd8       __Str_Acer_aspire_one_86D3DB2277665BAD455E2B3F17DE7344AF4C75306AA8F10AA9368B181CAA2B32 000000001004efd8     guideXOS.obj
 0005:00003010       __Str_Achme_Computer_Inc___GONE______17A425830FFFF0848E2B2EA593032ABB0A5CC8AC42C53E8DA8710DF1497D32EA 000000001004f010     guideXOS.obj
 0005:00003068       __Str_Acksys               000000001004f068     guideXOS.obj
 0005:00003090       __Str_Acqiris              000000001004f090     guideXOS.obj
 0005:000030b8       __Str_Acresso_Software_Inc_D516599B0026A8566D65F33C899F7489ED6C0A0B8CD0BA970B0B9DC38608D67F 000000001004f0b8     guideXOS.obj
 0005:000030f8       __Str_Actel                000000001004f0f8     guideXOS.obj
 0005:00003118       __Str_Actiontec_Electronics_Inc_6B683D7E397D07BFF7D09539BA550B8C3BEBBAEBA182107E71696403A3E1F427 000000001004f118     guideXOS.obj
 0005:00003160       __Str_Aculab_Plc_0B0E001B3B8AB42BF9D24454C03341169E1F04DEDF30AF0907D6CB1660D888F8 000000001004f160     guideXOS.obj
 0005:00003190       __Str_Acumen               000000001004f190     guideXOS.obj
 0005:000031b8       __Str_Adac_Corporation_C284073941731BA4FC4F8860FEB067B445829E8508814E6E9DAA5D44750C6969 000000001004f1b8     guideXOS.obj
 0005:000031f0       __Str_Adaptec_Inc_5A629FDEDFEDCDDA1518E251E58EE9249D39588F51C194147B8727C084FA45AE 000000001004f1f0     guideXOS.obj
 0005:00003220       __Str_Adaptec_Cogent_Data_Technologi_48BE63829EC3B3E9572472B6710CB27E76513417BE075ABA17CAE3A7EB5EEEDA 000000001004f220     guideXOS.obj
 0005:00003278       __Str_Adaptive_Solutions_E24314EF71B3B6C8DF7C49CCF10DAFEB5343B358BFD8EEC4B263D8039D88ADAC 000000001004f278     guideXOS.obj
 0005:000032b8       __Str_Adax_Inc_5A269ABDEE5F71A0DB813D1E5FB87BB9B6CA8CB45AE13AD8A8D18F7F1CA1B439 000000001004f2b8     guideXOS.obj
 0005:000032e0       __Str_Add__392B1158288CD88AC451741A1FFFFDBE40E3C19EF12FF45C7F3AD4B448D77393 000000001004f2e0     guideXOS.obj
 0005:00003300       __Str_Addi_Data_GMBH_68C49C825846F453278C50F647618E3F8E98F40BA9CCF110300ADDEF388C8058 000000001004f300     guideXOS.obj
 0005:00003338       __Str_Addonics             000000001004f338     guideXOS.obj
 0005:00003360       __Str_Adicti_Corp_AA60D3E9C15BB0152270B7BC8D6B11825D8EE76C7E640BABEB900F52C56BD5AD 000000001004f360     guideXOS.obj
 0005:00003390       __Str_Admore_Technology_Inc_BAD9ADE6FE66E54251F3570F9EBA0A5CF063742CCD3FAD105B5FDB9ADC9BADED 000000001004f390     guideXOS.obj
 0005:000033d0       __Str_Adobe_Systems_848E82D27920AC353B65A820D1262E25AA4B9FFD57274BA7816C14C5E3E0FCB5 000000001004f3d0     guideXOS.obj
 0005:00003400       __Str_Adtek_System_Science_Co_Ltd_DD12635BA840687B556A503F448174D693420E45922DADEC124F80B77D472488 000000001004f400     guideXOS.obj
 0005:00003450       __Str_Adtran               000000001004f450     guideXOS.obj
 0005:00003478       __Str_Advanced_Integration_Research_A28A2D48CA71348ADD18C1F8226BED078F117269F3B4434C27200BC20140B517 000000001004f478     guideXOS.obj
 0005:000034c8       __Str_Advanced_Logic_Research_Inc_E33791A6B40CF657709F4998F4283BD43D8FDBD084BE8A41121738806D40C7EC 000000001004f4c8     guideXOS.obj
 0005:00003518       __Str_Advanced_Micro_Devices_2C69C41EEBB6D75227D339C1364D2B07EFCEED3246559E004DB1C18D13BE4113 000000001004f518     guideXOS.obj
 0005:00003560       __Str_Advanced_Micro_Devices__Inc_593FFF61AFD70788E51763891C535D843CA868CACF7A20A244E300BFE108121C 000000001004f560     guideXOS.obj
 0005:000035b0       __Str_Advanced_Peripherals_Labs_43F3195029E7DF37562DB49D3F930ED173DDAF72ED82BBD6290E8A1C0EA65CCE 000000001004f5b0     guideXOS.obj
 0005:000035f8       __Str_Advanced_Peripherals_Tech_B8B92DB1885EE4D4107D9A3E833397231416B3451FA3C9661AAD6E7C5F1C3C54 000000001004f5f8     guideXOS.obj
 0005:00003640       __Str_Advanced_System_Products_6B1926E09847C43C6B3CBC1853333CE3C37864057F24E8AAFC676C6B6D388761 000000001004f640     guideXOS.obj
 0005:00003688       __Str_Advanced_Telecommunications_Mo_6295D638F68CB5231171F6802A20D8402A7DCEA552CE5244C873E3BBFF9D5800 000000001004f688     guideXOS.obj
 0005:000036e8       __Str_Advanet_Inc_B3CC521E9CA14095FCC465269EF939287E59F42A8271FD523F57DE8ED05702DD 000000001004f6e8     guideXOS.obj
 0005:00003718       __Str_Advantech_Co__Ltd_69AFC9128633D0AC9D9A16BE060264ECB8EA5009FA785D27AB654B8AD660A82C 000000001004f718     guideXOS.obj
 0005:00003750       __Str_Agere_Inc_8C245A89510DD9B93FAEE7CE4F84FC4C4534EB83013DB96167F7D04773208F43 000000001004f750     guideXOS.obj
 0005:00003778       __Str_Agie_SA_32D49BC638BDDB0B6BB3C2496B0060AAE4603ADCB355CFDD5A8A7065E7CFCE11 000000001004f778     guideXOS.obj
 0005:000037a0       __Str_Agilent_Technologies_26ABC5A14EF08CE65782A0A23F4C5923F992DE126779728203A3346C2F1EC291 000000001004f7a0     guideXOS.obj
 0005:000037e0       __Str_Aim_GMBH_02CAD2EC3A14432F6D75F9FB6A920B05E233E8D84A3C7FCA4C313DF3F6E1D2CE 000000001004f7e0     guideXOS.obj
 0005:00003808       __Str_Aims_Lab_D246B34E809D8EAFF44E1D2F4F899B96B2F653C6F83C27809A5C6462189B8B01 000000001004f808     guideXOS.obj
 0005:00003830       __Str_Aiptek_USA_D484C95F1D8ECBD44BF9F6C32962536EE2E527284E5179E306883E5A8C58E5CF 000000001004f830     guideXOS.obj
 0005:00003860       __Str_Air_Prime_Inc_7B049485B0B76B6DE1D052F5FAA616FD677E744D41A6D1F255C84875F8C3BBE8 000000001004f860     guideXOS.obj
 0005:00003890       __Str_Aironet_Wireless_Communication_EF7712506211208B95906BD29107651B4B991A273EC44852194CE5F785252098 000000001004f890     guideXOS.obj
 0005:000038e8       __Str_Aiwa_Co_Ltd_E416CF3BA67D9857940BACC7E09307D737C42D6D253B3FB783B3C29EC54050E1 000000001004f8e8     guideXOS.obj
 0005:00003918       __Str_Alacritech_Inc_1AD6D9D4DF8FA4323EDAB708EB905287112ADE598DD91596A789712EC91A53E5 000000001004f918     guideXOS.obj
 0005:00003950       __Str_Alacron              000000001004f950     guideXOS.obj
 0005:00003978       __Str_Aladdin_E_Token_B08154EE5680DB3044C6F034BC17F71ABE3E183CAE2B79F03974FB18D29DC2E6 000000001004f978     guideXOS.obj
 0005:000039b0       __Str_Aladdin_Knowledge_Systems_8C712A7A9524CAAE01BCDC5B69B144C68E7D63BB56C2547F02EB82A1F7DEACCE 000000001004f9b0     guideXOS.obj
 0005:000039f8       __Str_Alaris_Inc_FC77DC42860562DD27C2566DDFCC6F93288D7212ABEF0115FD003E5BFA7EBA6F 000000001004f9f8     guideXOS.obj
 0005:00003a28       __Str_Alcatel_Cit_4A4DDC8227F58532D8276637B77B1544C2BE6884748BB940D1F36DE1AD58D2C5 000000001004fa28     guideXOS.obj
 0005:00003a58       __Str_Alchemy_Semiconductor_Inc_FEF5AE157365A6014F1FE55A085D3703184068D9D6A5E1C858F89BADBE406270 000000001004fa58     guideXOS.obj
 0005:00003aa0       __Str_Alcor_Micro_Corp_53DDA22582831B5627E67106B8E8052BD7349524C01CFB3F5633A705606208F9 000000001004faa0     guideXOS.obj
 0005:00003ad8       __Str_Alesis_Studio_7B297AC3460C76CDEF24BDD7B47CE4C5A43D8E488A159445C5FA48BA2B131C36 000000001004fad8     guideXOS.obj
 0005:00003b08       __Str_Alfa_Inc_52D872790A68C8AFFC05D38B4B6BF1AE893791D716250F34349ED2289D2E4E7F 000000001004fb08     guideXOS.obj
 0005:00003b30       __Str_Ali_Corporation_2CB9123EB88044AA08280FA6456DEF377F348030F7A74C71DCA932AEA3F4589C 000000001004fb30     guideXOS.obj
 0005:00003b68       __Str_All_CPU_Halted_Now__75307B9727CB3F43D618ED4B269841D634DC23C3C6C9BA7E29F38D99D863D1E4 000000001004fb68     guideXOS.obj
 0005:00003ba8       __Str_Allen_Bradley_Co_1B84BA64726DDB6157D5AE45F20818AFCDADB121DB553FD8631332B0CFD325F8 000000001004fba8     guideXOS.obj
 0005:00003be0       __Str_Alliance_Semiconductor_E86223FEAD3F0CABF4634ED23CD1DB7B10B4FEEDA51A75880BF3E68CD3CDAA0F 000000001004fbe0     guideXOS.obj
 0005:00003c28       __Str_Allied_Data_Technologies_0219B74210568201F23EA2F9D8425A5AB77E0B92574E52EDB052851BAF3E66BE 000000001004fc28     guideXOS.obj
 0005:00003c70       __Str_Allied_Telesyn_International_D7A5B280D758EC9E981FDE0EB85F9E1A742381D65193ED6D9887A3AA2D89A6A7 000000001004fc70     guideXOS.obj
 0005:00003cc0       __Str_Allocate             000000001004fcc0     guideXOS.obj
 0005:00003ce8       __Str_Aloka_Co_Ltd_AD5D712D825B9BB50AA69C8BD716104B5D214C461C1AC840D43CCB7D9142D87D 000000001004fce8     guideXOS.obj
 0005:00003d18       __Str_Alpha_Data_1142658E87A93521B67B5A3B72D843797A1C66E49D53AF9BD2510947EEDB7B53 000000001004fd18     guideXOS.obj
 0005:00003d48       __Str_Alpha_Processor_Inc_1EC2DBB44F5B22B028C0DB76BAF28B1F25AEC8BBC405C717C0FFBDEB1C378E13 000000001004fd48     guideXOS.obj
 0005:00003d88       __Str_Alpha_Top_Corp_5B4787BA00151888A1360A071B191C8B4E97DB29B7ED9FE721A73F25B80D5584 000000001004fd88     guideXOS.obj
 0005:00003dc0       __Str_Alpine_Electronics_Inc_C51C3217C7512E5C8CC9C4D5DF9C99146A059902273A8451C2A74EC565EC78B1 000000001004fdc0     guideXOS.obj
 0005:00003e08       __Str_Alps_Electronic_Corp_Ltd_8D63F3878AE0B940BD5B9A828A6DFAE8B26CA16DF64E139A0383FBF2D67D3907 000000001004fe08     guideXOS.obj
 0005:00003e50       __Str_Alta_Technology_Corp_6C79F4AD8F65115B06AD56585B8C6BF556AF3C2107C33FB490B82C2659BA69EC 000000001004fe50     guideXOS.obj
 0005:00003e90       __Str_Alteon_Networks_Inc_61CBE0FD3A197F8B675BD32FB264F2AAE3E83AC16C07EA1C3324981ADA4B7390 000000001004fe90     guideXOS.obj
 0005:00003ed0       __Str_Altera_Corporation_3A5F55C7CF0B2C5F58803476378A58B71793E04FDA5BA17DEA0E6499E631C7BB 000000001004fed0     guideXOS.obj
 0005:00003f10       __Str_Altima_Communications_Inc_68A0BF54A42D6EBAC006F19C799F7E3448F3D76CFE16DF9FE18E8443795EC5A7 000000001004ff10     guideXOS.obj
 0005:00003f58       __Str_Altos_India_Ltd_4FA08F184C70CDFFC384805AC25460ADFE0C9E49AF23DB4C777C8DB2A9D00BF1 000000001004ff58     guideXOS.obj
 0005:00003f90       __Str_Ambicom_Inc_300E67D8487BFBB8F2C24B2638BB1D3BD4F75DFAF698D55299525486A4EC1697 000000001004ff90     guideXOS.obj
 0005:00003fc0       __Str_Ambient_Technologies_Inc_800351612D9BA794DFA15CB16D24223CD4306417BA1B9C6AFDC071DF42401D47 000000001004ffc0     guideXOS.obj
 0005:00004008       __Str_Ambit_Microsystems_Corp_15BD24AFF4AC0F37B8F5429A074FF6B750F0572ECC137A51FF79CE29859D0D54 0000000010050008     guideXOS.obj
 0005:00004050       __Str_Amdahl_Corp_BDF81019C1E8C309B6275C7306A0C9EF7B49A33FD8631EEE92C63F8889F52CF2 0000000010050050     guideXOS.obj
 0005:00004080       __Str_American_Megatrends_Inc_4139EFB9A8A8563D72A49C4846F3CFCA19E11874FFB9B6CB420F52D1E4DC273A 0000000010050080     guideXOS.obj
 0005:000040c8       __Str_American_Microsystems_Inc_D098466E4B3443CB7D4378BF71DD86506BB7ECF0E351EE94ABAD0AD2B7B913ED 00000000100500c8     guideXOS.obj
 0005:00004110       __Str_Amersham_Pharmacia_Biotech_D6B62B16B2C0F5F820F2EDF508C355F60F36570E985C4607509035BE3571DF8E 0000000010050110     guideXOS.obj
 0005:00004160       __Str_Amplicon_Liveline_Limited_EAD35D0F8E3D572FB87DACE04320499530B21A1501D343BD82BD59B14FCEFE80 0000000010050160     guideXOS.obj
 0005:000041a8       __Str_Amtelco              00000000100501a8     guideXOS.obj
 0005:000041d0       __Str_Analog_Devices__Inc_03F97B9F9655DF5C54276D125128A8FF65F8A08CF05C7C48118AC586331C5A5D 00000000100501d0     guideXOS.obj
 0005:00004210       __Str_Analogic_Corp_B7D0224AE0CD2D084247C7C63BEF8A55F35D4507B28323B8B0CB4AD117352BD9 0000000010050210     guideXOS.obj
 0005:00004240       __Str_Ancor_Communications_Inc_B1001CE3E1E0FBF3BE7917CA0C8DA085D9925B79785482867689D49E0C3D5ED9 0000000010050240     guideXOS.obj
 0005:00004288       __Str_Andor_Technology_Ltd_B2BA34D2FDB9166E03B798988C8B8A82D8A12C57BAA70E301ADFD2A073CDFD27 0000000010050288     guideXOS.obj
 0005:000042c8       __Str_Andrew_Corp_73AD779363A4EA2A7D773E87487D3D02CFC3B438421A9F1AB07D06D615700ACE 00000000100502c8     guideXOS.obj
 0005:000042f8       __Str_Anigma_Corp_EFF09BD896DAE615845C03501710BFDD80475E629AA8E40DC569DA2D231B0943 00000000100502f8     guideXOS.obj
 0005:00004328       __Str_Annabooks            0000000010050328     guideXOS.obj
 0005:00004350       __Str_Annapolis_Micro_Systems_Inc_B6D865880D0A8201354B6D4289AB482A54CECC48DD122F840069EB872933225A 0000000010050350     guideXOS.obj
 0005:000043a0       __Str_Antal_Electronic_73169586878BCD2CC9ACC6BA3514ABCB9CD2BC8285F68E56558767ED0D1853D3 00000000100503a0     guideXOS.obj
 0005:000043d8       __Str_Antara_LLC_96741F28BED32B86C13BC45F2ECA897593C4BBACD7064E0E1BF22D77D7FBC2D1 00000000100503d8     guideXOS.obj
 0005:00004408       __Str_Antex_Electronics_Corp_0BAB5FD130085D4424E12C6F99DC7F59C26522D003E725F427EC7787550F7D41 0000000010050408     guideXOS.obj
 0005:00004450       __Str_Aopen_Inc_9E10D2579501BDE8DE09A5EC7C293A416AD638353923762B9DE0A1BFDF324C75 0000000010050450     guideXOS.obj
 0005:00004478       __Str_Apex_Inc_A60B70AEA2352B70BB2E46F1FC790AB39C911A1C47EB10880674FD6CE27ACBB0 0000000010050478     guideXOS.obj
 0005:000044a0       __Str_Apostolos            00000000100504a0     guideXOS.obj
 0005:000044c8       __Str_Appian_Graphics_D583FD6101ED7BBFE2986ABBF746A40733EF431CB6F70F39443E19F6A819708D 00000000100504c8     guideXOS.obj
 0005:00004500       __Str_Apple_Inc_B057706865C085A98F6C3FE7EE52A20DBD3971DEFEFCA092A5BAE2E27B721E6C 0000000010050500     guideXOS.obj
 0005:00004528       __Str_Applicom_International_D4CF49CDA19D24AC340ABBD65A4D33D33B2C2C4A0F274AFA6592ADF855083DD4 0000000010050528     guideXOS.obj
 0005:00004570       __Str_Applied_Computing_Systems_Inc_2F1389EC842656499D6BE3AEC4DD36FA17B36C29CBC17D88E6BC7B1F58ED84B3 0000000010050570     guideXOS.obj
 0005:000045c0       __Str_Applied_Integration_Corporatio_417307491D2933E2EECBB9A1796328D49A74EBE26D258B29DA3E3B3DE10630BF 00000000100505c0     guideXOS.obj
 0005:00004618       __Str_Applied_Intelligent_Systems_In_CC95329118057B1D10FCEC6BBECAE38A478CEFF180C867C5DD2B10A3A3F5F087 0000000010050618     guideXOS.obj
 0005:00004670       __Str_Applied_Micro_Circuits_Corp_9F3DD74B04D276AACBF6712786E1F403A520A54D45E561F8EDDACD79CBAA2D9E 0000000010050670     guideXOS.obj
 0005:000046c0       __Str_Apricot_Computers_C7997C71CD9191AD1C31ED2B06339FA94A3CB01FF293E7A78C8C763377CA1225 00000000100506c0     guideXOS.obj
 0005:000046f8       __Str_April                00000000100506f8     guideXOS.obj
 0005:00004718       __Str_Aptix_Corporation_11721BA62F29F7299DE585518723667D2F52A3651BC5365E7C83749BA5D3ACF1 0000000010050718     guideXOS.obj
 0005:00004750       __Str_Aralion_Inc_09D18A35FDE2134725717C461B856499C956F638626601BAC00B26BF5AC17DB6 0000000010050750     guideXOS.obj
 0005:00004780       __Str_Archtek_Telecom_Corp_BB7A2DD45A6B5B85F9399AD928AA5957E763226787ACA515DC705A053571BD82 0000000010050780     guideXOS.obj
 0005:000047c0       __Str_Arcus_Technology_Inc_72085BCE48ADF199132054BAB112A7AF6F161C43691086717B2BCBA8DB70BE78 00000000100507c0     guideXOS.obj
 0005:00004800       __Str_Ardent_Technologies_Inc_7EEBD02881C4CE7C96C2CA8A4B6926A8F21A84AF36ACD413B5783280109DC86D 0000000010050800     guideXOS.obj
 0005:00004848       __Str_Ariel_Corporation_D3C7226AAD7B785837FC3F002EE0E435E9E7FB3D2F02E761085A6DDE9CA52F89 0000000010050848     guideXOS.obj
 0005:00004880       __Str_Arima_Computer_Corporation_F1F410756CE0A7CFD8641E25FF4778B434121697A2EC84F0FE22591CCD0D2F5D 0000000010050880     guideXOS.obj
 0005:000048d0       __Str_Array_Corp_6E16F95912D165FE1B57BBE1A54947DD565D57AA6C0C1A9FFAD515A75064BB96 00000000100508d0     guideXOS.obj
 0005:00004900       __Str_Array_Microsystems_2AFDE0F99510A6807C7F437C02B436913D80D743DB7370E31A72F43718C511ED 0000000010050900     guideXOS.obj
 0005:00004940       __Str_ArtX_Inc_D0BE36D71586680DAB9E290A772B57C9E2CC1E0CE7129DD47B3EC2F5E5E8216B 0000000010050940     guideXOS.obj
 0005:00004968       __Str_Artesyn_Embedded_Technologies_A618E0BB6CB52D366BBD5D65C06A393A9AC99868074034C915055180693B0B78 0000000010050968     guideXOS.obj
 0005:000049b8       __Str_Artist_Graphics_44E4431FA498D43558A178ACFD8ACB4D4400119CEC82BFE62BFC18AD0D9FDB77 00000000100509b8     guideXOS.obj
 0005:000049f0       __Str_Asante_Technologies_Inc_E730A1D0475070999B998055EA96229167A6C9BA111F71F936AB0761C7218845 00000000100509f0     guideXOS.obj
 0005:00004a38       __Str_Ascii_Corporation_DA9FACB3453B5534CBCDB6A94C5F8AF5EE1356C53D302CE6391C5FECD61E2E5E 0000000010050a38     guideXOS.obj
 0005:00004a70       __Str_Asiliant__Chips_And_Technologi_50A4C35B585B60281FE2FD387A82D7CA627F91E099F446642116F58CF13957B5 0000000010050a70     guideXOS.obj
 0005:00004ac8       __Str_Asix_Electronics_Corp_DC51E8FED5B91B0659A04B71E42C781BB52D8D093BFAFB035CAC3429E5183BB5 0000000010050ac8     guideXOS.obj
 0005:00004b08       __Str_Astrodesign_Inc_4C11EAEA4CD8251AA994D8EA6AA46B4C81B044E943DB9FE2C627105BABEFD357 0000000010050b08     guideXOS.obj
 0005:00004b40       __Str_Asustek___ASMedia_Technology_I_930F624AE66E213E78F21616CBB5418BD35AAC1FC003BC45B6806028EC699E4D 0000000010050b40     guideXOS.obj
 0005:00004b98       __Str_Asustek_Computer_Inc_5BC3CA6F54B11126D106D7786A0EB0CD68D02B01A1C76D965D965822178ECAAE 0000000010050b98     guideXOS.obj
 0005:00004bd8       __Str_Atan_Technology_Inc_4FCD11F8AC09A79DF616A15F1000D093868C3ABDA0E4E73D6AB13BB3B1674917 0000000010050bd8     guideXOS.obj
 0005:00004c18       __Str_Atelier_Informatiques_et_Elect_EADBB942CE472DFE3D2A4FF82624D5080D4C7CD417CFAC7A53ED8910E755E980 0000000010050c18     guideXOS.obj
 0005:00004c80       __Str_Aten_Research_Inc_1791B4E814D13ACE7FFEEF71247E0AFF0DDB1FC068C08CFC5403BC383DC6BDAD 0000000010050c80     guideXOS.obj
 0005:00004cb8       __Str_Atheros_Communications_09980DEC74ADC18FA7CF905DF41A4BF6BCA6890E58D81C338A8EC99B0A78A4AD 0000000010050cb8     guideXOS.obj
 0005:00004d00       __Str_Atheros_Communications_Inc_FF817C8A831BD3DBDF526CFB6110F522C01F5D59D38077FFEA481640FA49D7F2 0000000010050d00     guideXOS.obj
 0005:00004d50       __Str_Atlantek_Microsystems_Pty_Ltd_FE26D17AEEFFCF1460AFC0CF741CBFDF37FBB2B553A5797DD8CB4519EFECCABD 0000000010050d50     guideXOS.obj
 0005:00004da0       __Str_Atmel_Corp_0CA0621457E112B5B8920468A07CA56067B975F7B5A9D029C357EDFF7FE414A3 0000000010050da0     guideXOS.obj
 0005:00004dd0       __Str_Atmel_Dream_B131DA6506688572ED14F9CC48A639A6009B4BC7809F74C9B20A8AEFDAAA4819 0000000010050dd0     guideXOS.obj
 0005:00004e00       __Str_Attachmate_Corp_4B41CAA9D875E5835BF78AB5EF702A6E04D72DC034BBEAE8B99850C318EC05D5 0000000010050e00     guideXOS.obj
 0005:00004e38       __Str_Atto_Technology_D90A517B570B8BE51CB1E6D6398AB24FC076CA5CF935948D9586813989A3071D 0000000010050e38     guideXOS.obj
 0005:00004e70       __Str_Audio_controller_is_unavailabl_9AA959F097FE666E97C812339008097A7E966AA2AD3B58577DC98E349F955029 0000000010050e70     guideXOS.obj
 0005:00004ec8       __Str_Audiocodes_Inc_735B282FAD332DF94A2C3A5A8AA69072C34B68A6D6F3D3D3A471206CFC7A1C84 0000000010050ec8     guideXOS.obj
 0005:00004f00       __Str_Augest               0000000010050f00     guideXOS.obj
 0005:00004f28       __Str_AuraVision_Corporation_E9C3480DE7C32792511D149B4A10ED122DA4FC8D2B544FAD21009BD5200FC6D5 0000000010050f28     guideXOS.obj
 0005:00004f70       __Str_Aureal_Semiconductor_7F085B7D913F901C504405F5999E02D74D3DB52D22427E2F5A074815DEFE0B92 0000000010050f70     guideXOS.obj
 0005:00004fb0       __Str_Aurora_Technologies_Inc_C0F6C28136D93848C87D154C7E0C9BF316D497A74183E1FC2489457001A7E317 0000000010050fb0     guideXOS.obj
 0005:00004ff8       __Str_Auspex_Systems_Inc_92CAAFDF72FFA0AF395EEA8C03963F70108989BAB92114CB2323A19CFC5F248C 0000000010050ff8     guideXOS.obj
 0005:00005038       __Str_Autologic_Inc_61601D4912DDEE2E4BBA62DAFB9DA56634E32B8FBB55E56BD087A11BC4BE28F2 0000000010051038     guideXOS.obj
 0005:00005068       __Str_Automated_Wagering_Internation_6CE40F508FDC4177BA3E85D168D83C9A483A4DD333DA347A479EBDCAD3EC2FA3 0000000010051068     guideXOS.obj
 0005:000050c0       __Str_Aval_Nagasaki_Corp_2FA7B87351C6B70E7D56554AE3845608108510999784958F4E3B14CF627E2553 00000000100510c0     guideXOS.obj
 0005:00005100       __Str_Avance_Logic_Inc_D6E0FC63C8F70481CE59EEB6ECD9E4448B3517F8ECEF31ED69404C1E6DEDEB16 0000000010051100     guideXOS.obj
 0005:00005138       __Str_Averna               0000000010051138     guideXOS.obj
 0005:00005160       __Str_Avid_Technology__Inc_6328F8C81970AE7D9139D43EADB3D9CC72673F5A8918BD4251CD3E3A82C522ED 0000000010051160     guideXOS.obj
 0005:000051a0       __Str_Avlab_Technology_Inc_2E39392D297D62497A41ECB791B466FE18F7E324E4A69121E737F99261F444CF 00000000100511a0     guideXOS.obj
 0005:000051e0       __Str_Avocent              00000000100511e0     guideXOS.obj
 0005:00005208       __Str_Avsys_Corporation_D16AD7F6D5888DDEE160335D40D3F900ED49E27EEC4AC6A65537199ACCFF6878 0000000010051208     guideXOS.obj
 0005:00005240       __Str_Avtec_Systems_Inc_AA94FB54E136659340A03AC19D9919E3E6FFF59533BBFD8AF0920E73F67B7C83 0000000010051240     guideXOS.obj
 0005:00005278       __Str_Award_Software_Int_l_Inc_C998D27A54558122D3C8270031B63CEFB74B7CE705DBA9AB35D64EFC542A07FC 0000000010051278     guideXOS.obj
 0005:000052c0       __Str_Axil_Computer_Inc_390975726756A014A3CD9F0F16F62DEC89CE20580ACC1CCA30E45DFAF8B2C931 00000000100512c0     guideXOS.obj
 0005:000052f8       __Str_Axzam_Corporation_C35DC7CDFC73D556C0088837D43EFBD48277B89C5A8940FF7AA2A51B021F8186 00000000100512f8     guideXOS.obj
 0005:00005330       __Str_Aydin_Corp_86772007F9359756E7DD9795ECD675978F9E45A8157C81E71546D003F230DDA0 0000000010051330     guideXOS.obj
 0005:00005360       __Str_Aztech_System_Ltd_2C13180C130A80416CDAF552CBFFA061E346E5D0A7871A1D627B802584942E64 0000000010051360     guideXOS.obj
 0005:00005398       __Str_B_Tree_Systems_Inc_C35FB4BC6F3D38F1FAE2EBE8682431D2C7E501722D9245883248B6A790B81C1F 0000000010051398     guideXOS.obj
 0005:000053d8       __Str_B2C2_Inc_3379DF9268AE5644D5BAE6E1E495CD495B28C33C703233D86BEF76DB919A87B2 00000000100513d8     guideXOS.obj
 0005:00005400       __Str_BAE_SYSTEMS___Manassas_810533FD2262C17CF196B827C8234B8B88B6A440A118637F9E7EE0FB4EB769B0 0000000010051400     guideXOS.obj
 0005:00005448       __Str_BCM_Advanced_Research_77117F1666C266E9657B562F96CE060F9A4B1AE5EDD34BD578E89DCDD95C8B35 0000000010051448     guideXOS.obj
 0005:00005488       __Str_BCom_Electronics_Inc_145440EF8CB915D4D00B43B23988C73A814FBF9FBE84071BA6B6CFB309867061 0000000010051488     guideXOS.obj
 0005:000054c8       __Str_BOUNDS_CHECK_26C6F58B86CDDB8934469E9F36BFD063D539D01530ACE0733089794894E8ECA6 00000000100514c8     guideXOS.obj
 0005:000054f8       __Str_BREA_Technologies_Inc_EEF6C73FD4FCCCC5641AE771A03305433304627CC80C42BCED1DECEEA895ED66 00000000100514f8     guideXOS.obj
 0005:00005538       __Str_BREAKPOINT           0000000010051538     guideXOS.obj
 0005:00005568       __Str_BVM_Limited_97E8477E43E28F543375A343870F4DC0DE5D9398324996DC6D0ADD924EAA5D4E 0000000010051568     guideXOS.obj
 0005:00005598       __Str_Baldor_Electric_Company_0C3AD20E22B040755E88B2D9267FD7ECA1D48457B0DF8086B081D271260EA08A 0000000010051598     guideXOS.obj
 0005:000055e0       __Str_Baltimore            00000000100515e0     guideXOS.obj
 0005:00005608       __Str_Banctec              0000000010051608     guideXOS.obj
 0005:00005630       __Str_Banksoft_Canada_Ltd_564B432EB7CD32812A1B9003016FB9E8FF0E824A640424B4938E370DC1885D26 0000000010051630     guideXOS.obj
 0005:00005670       __Str_Barco                0000000010051670     guideXOS.obj
 0005:00005690       __Str_Barr_Systems_Inc_D50F6ADC1DB65D1709A41B53FA3191C2D99CCF0A4EBF24031935F444B5EA7540 0000000010051690     guideXOS.obj
 0005:000056c8       __Str_Basler_GMBH_9491185A5D8945C30E4171CFC45257CC5880B11C085E150D73077803C4B02F8E 00000000100516c8     guideXOS.obj
 0005:000056f8       __Str_Bayer_Corporation_Agfa_Div_D13D6CA244F7D11B2B09BB74766ED094C5530BB9535614B997CFE6C3F2B9263A 00000000100516f8     guideXOS.obj
 0005:00005748       __Str_Beckhoff_Automation_GmbH_9E864163B9340143297B67C3919D1BF6B8468FF37E4F73A24A41DF513B095BFB 0000000010051748     guideXOS.obj
 0005:00005790       __Str_Becton___Dickinson_E21A84E4DE43FFF4F792E810170CEE99A61F7CD8003CD04C0C49D23782ED4BEA 0000000010051790     guideXOS.obj
 0005:000057d0       __Str_Behavior_Tech_Computer_Corp_BBFD072C573656F9ACA56F9FBF792B22EB834C59184D01EFF62EEDD8B7C7ECDE 00000000100517d0     guideXOS.obj
 0005:00005820       __Str_Bel_Fuse_Inc_C74F5D115F0DABF7E59820771AB14891F2422A026C2C6CFB98686BC392335AC6 0000000010051820     guideXOS.obj
 0005:00005850       __Str_Bell_Corporation_02EC8FAA352D2EED4E0D55EE63A7266C4972077BCEE79461325FD6307B195F08 0000000010051850     guideXOS.obj
 0005:00005888       __Str_Berg_Electronics_89C2CD32BC07E904295C5D4F724A4359BEE5A0D90AB6B969847E43713FF892D6 0000000010051888     guideXOS.obj
 0005:000058c0       __Str_Berkshire_Products_F60548076288C62446DA8661BF3048FF7AE065361C0E016DF6A99AAF03775612 00000000100518c0     guideXOS.obj
 0005:00005900       __Str_Bernecker___Rainer_0BB3B4474C07188E5711EAF0AA85D9B69E3AA7EDDC1709F20E7427069587925C 0000000010051900     guideXOS.obj
 0005:00005940       __Str_Billionton_Systems_Inc_Cadmus__1FDC6DAFE79FCF214DB7AB37F990C71D29590FB76C725E3983B44F03745F21C2 0000000010051940     guideXOS.obj
 0005:000059a8       __Str_Biostar_Microtech_Intl_Corp_606032B572546228A538ED9C3EDCF00289DCFFE4E8AEE9A330FBAC6C585F53E7 00000000100519a8     guideXOS.obj
 0005:000059f8       __Str_Biotronic_SRL_585EFBED77D6FFEB903DD7790E969B3240E95D45732E4BFB4166DB244C521D95 00000000100519f8     guideXOS.obj
 0005:00005a28       __Str_BitFlow_Inc_FD8C397A36577D2A1A939EE721DC909D81C844515FA0878E5D6A92C143AA17CE 0000000010051a28     guideXOS.obj
 0005:00005a58       __Str_Bitboys_OY_F8F09114D7FB88016E563B9FD4F295F647B398E69C7376A463F8E33257179072 0000000010051a58     guideXOS.obj
 0005:00005a88       __Str_Bitland              0000000010051a88     guideXOS.obj
 0005:00005ab0       __Str_Bittware__Inc_CA35CDC43E311E71FFF61E2B3077DFD485D0D799CD16DD778C0C1992BEA4066C 0000000010051ab0     guideXOS.obj
 0005:00005ae0       __Str_Blue_Chip_Technology_Ltd_0521FB17E4F8DD330C3B9F4AAE8A2B58CC6F271272CF4A80992F61D7382CB707 0000000010051ae0     guideXOS.obj
 0005:00005b28       __Str_Bluesteel_Networks_Inc_A3A10652B5CC3FB33DEBDFD86EB54B18B80AC6F0C834EAC5A46D7E882FF57A97 0000000010051b28     guideXOS.obj
 0005:00005b70       __Str_Boca_Research_Inc_5D4E5270B43816F71AF295D1A77A332B218FED49979C0389FD9D41E3A740709B 0000000010051b70     guideXOS.obj
 0005:00005ba8       __Str_Boeing___Sunnyvale_12F4179E4AE96112F05756B6EA5862B8A0C6F0E6A762ED36D415789302829D60 0000000010051ba8     guideXOS.obj
 0005:00005be8       __Str_Bops_Inc_305AD16260FDDBDC3F743334FE8CBB946695E7D04CCD7DBBD3AC8ED433ADA32F 0000000010051be8     guideXOS.obj
 0005:00005c10       __Str_Brain_Boxes_Limited_6CE3122D1D1288EAC2E90E3EE230568BF1AACC3B09EF5E3CA5742EB1637B3E3F 0000000010051c10     guideXOS.obj
 0005:00005c50       __Str_Brains_Co_Ltd_59831DFC6258FFE7599460C2E2646A33A2F05B2FEDB2915B2C7AB51BF18BF277 0000000010051c50     guideXOS.obj
 0005:00005c80       __Str_Braintech_Inc_6BB7A9C49CBFE578D1241018FD00ECE96CBFB8A93A2FBC800D4899072463934F 0000000010051c80     guideXOS.obj
 0005:00005cb0       __Str_Bridge               0000000010051cb0     guideXOS.obj
 0005:00005cd8       __Str_Bridgeport_Machines_992C48F4CD8580326AF93B3F66E5774FC5C8BC46057EAADC0333C6161C5BF7C9 0000000010051cd8     guideXOS.obj
 0005:00005d18       __Str_Broadcom             0000000010051d18     guideXOS.obj
 0005:00005d40       __Str_Broadcom___ServerWorks_3332002CCE2E6387FE87612DEA6620A52894A2553B3C9960D77B70A3506764E3 0000000010051d40     guideXOS.obj
 0005:00005d88       __Str_Broadcom_Corporation_028D00C1E1306498CB4297A1A53BFF96267D60507DDD53F1B4878B864CE4469B 0000000010051d88     guideXOS.obj
 0005:00005dc8       __Str_Brocade_Communications_Systems_4D5A77BF14CFCE7DCAEAD6F89EFA2FA655450EC964856BEF2AB7E987963387A1 0000000010051dc8     guideXOS.obj
 0005:00005e20       __Str_Brooktree_Corporation_6116EFA032EADEB1F2776E744B3221C2529D4515A17806FD6C75CD49094BDCDF 0000000010051e20     guideXOS.obj
 0005:00005e60       __Str_Brooktrout_Technology_Inc_6C845C7ADB393A9B65D2C8B032AE2CEF72C65B2EDB50BCED7B4E0CAD2BA5A3FA 0000000010051e60     guideXOS.obj
 0005:00005ea8       __Str_Brown___Sharpe_Mfg_Co_D55C38F42A66C51E6BFE93420C4C0CADF57E99A1F13E46F21DFC7505DD7C422C 0000000010051ea8     guideXOS.obj
 0005:00005ee8       __Str_Bug_Sapporo_Japan_8A1A2AC862473A3057C99B654DAA82BB9552EFFF440F5A1F1F14D308B0A35AEF 0000000010051ee8     guideXOS.obj
 0005:00005f20       __Str_Bull_Hn_Information_Systems_E40AD3C0B1DA4B7E216FD283DE390B64AB9B412B69930157660752A72FF07104 0000000010051f20     guideXOS.obj
 0005:00005f70       __Str_Burndy_Corporation_25D77770D4D4F6925B3DA471286CDEEB1CA88666536750C565787F6284EB8D9F 0000000010051f70     guideXOS.obj
 0005:00005fb0       __Str_Bus_Tech_Inc_181A3AA962EC3077E5D5039554AA9AB0DD073630295EFCDA671EEFA7735380B3 0000000010051fb0     guideXOS.obj
 0005:00005fe0       __Str_C                    0000000010051fe0     guideXOS.obj
 0005:00005ff8       __Str_C_H_Technologies_Inc_00D8D65422089EAF32F6F03A99AE5AA4E9173ABF07C810DEA6E3DF9BB16D085C 0000000010051ff8     guideXOS.obj
 0005:00006038       __Str_C_Cube_Microsystems_D1837AEF9A81AC093E55FAA4ECDBDD952736FDC0EDDA5969830304A5A0E3A72A 0000000010052038     guideXOS.obj
 0005:00006078       __Str_C_Media_Electronics_Inc_A6A03E367486EC08BA97F444EE6A0D6DB1664E24D0AF2754CFDD479656C49AAE 0000000010052078     guideXOS.obj
 0005:000060c0       __Str_C_Media_Electronics__Inc_16E576F9C7657AA3BEC0DBDD136A2AC3C92A2CA0F8EA3730B6983FD37FF766D6 00000000100520c0     guideXOS.obj
 0005:00006108       __Str_C_Port_Corporation_2D45C3ADCDF439132DFD1D436DFB5877156DCD3CBC6457039ECCAC53FCF7909F 0000000010052108     guideXOS.obj
 0005:00006148       __Str_CCI_Triad_2E397E444E9C59FFDD4412BD5E14F0122F013372E1451C38AF75C75F51248780 0000000010052148     guideXOS.obj
 0005:00006170       __Str_CE_Infosys_GMBH_E3A9C7568AC692D1E90D31039309F22631E1D0D796B32561109B817BDF86CE94 0000000010052170     guideXOS.obj
 0005:000061a8       __Str_CERN_European_Lab_for_Particle_4A8F5E90F11371EB379CAD26BA80A92ECD67964945D2BC052BEB42EADFEE9A41 00000000100521a8     guideXOS.obj
 0005:00006210       __Str_CIFELLI_SYSTEMS_CORPORATION_12339E99447D22181F2359F2DBDB5C4682EFBA3950CD096AE972D1F52ECCFE21 0000000010052210     guideXOS.obj
 0005:00006260       __Str_CIS_Technology_Inc_129632CA5A5B2B68F8E8F5323FECDE9F9E8616AEFCE06833FAC0FD9A7A6297C3 0000000010052260     guideXOS.obj
 0005:000062a0       __Str_CML_Emergency_Services_73D904FD93C2B26400340756FF8240BFF674D971ADAACC0EFC18A597344392D6 00000000100522a0     guideXOS.obj
 0005:000062e8       __Str_CNF_Mobile_Solutions_C6B1F5C3F5917561391DEF352A79A6D243D7ABB2AD7449FE1731B7B6955EC0F9 00000000100522e8     guideXOS.obj
 0005:00006328       __Str_COPR_ERROR_C27F1F3E7F2ED4CFBD0EDCF5C7AA20D245CD9D1EBC80EDC243013215C2577FF9 0000000010052328     guideXOS.obj
 0005:00006358       __Str_COPR_SEGMENT_OVERRUN_C449D79B0140F10083FD8C197428B494C3F5BC5E85A89FC5A9F3F9DFFE5E25AD 0000000010052358     guideXOS.obj
 0005:00006398       __Str_COPR_UNAVAILABLE_834C85FB4D56A054FA75E003F62E454BF546EBD0D8DB2CB27CDAA76A62BF3C08 0000000010052398     guideXOS.obj
 0005:000063d0       __Str_CP_Technology_Co_Ltd_8D8CECD9E91CAD657863C66EF84CE2470F61AF8C74B5112DCD58D42EEE33C055 00000000100523d0     guideXOS.obj
 0005:00006410       __Str_CPU                  0000000010052410     guideXOS.obj
 0005:00006430       __Str_CPU_Technology_37051B1D7E41D1F9A4541C719CAF2219E2E07FE7A9EC36F394E28D6A06F4DC6C 0000000010052430     guideXOS.obj
 0005:00006468       __Str_CPU_0__KERNEL_PANIC____C05498139D3BBA90278660F4350C5C79B9E0ED965BE04033C021609789DD5E4C 0000000010052468     guideXOS.obj
 0005:000064b0       __Str_CRISC_Corp_335D2375F33257EA5908712E9277B3D520F4E4840892F63B4CBDBA8F28E9DBA4 00000000100524b0     guideXOS.obj
 0005:000064e0       __Str_CSPI                 00000000100524e0     guideXOS.obj
 0005:00006500       __Str_CSS_Corp_A7B5142706924D5AE2E431C6AA66274F495DB8F643B105B5B4A00E93FFC0CF6D 0000000010052500     guideXOS.obj
 0005:00006528       __Str_Cabletron_Systems_Inc_6E8313C2799DF5845607844E846636E19B983B82869EB5A5AB3F470B8D356D4F 0000000010052528     guideXOS.obj
 0005:00006568       __Str_Cache_Computer_7726AAC1B4D90A03E25626D353ACFF6BAB1AA96DBD0308C52F2DBCCE2E56EF56 0000000010052568     guideXOS.obj
 0005:000065a0       __Str_Cacheflow_Inc_893FF8AB4AD8AC7B28540543ED099917AB49173B9242D1ADF1FD7C8F532ED0A8 00000000100525a0     guideXOS.obj
 0005:000065d0       __Str_Cadence_Design_Systems_D75852540155661EFADCB8913ED9CAD32FF8BD6129C1F6F086ECD3D212171F5B 00000000100525d0     guideXOS.obj
 0005:00006618       __Str_Calculator           0000000010052618     guideXOS.obj
 0005:00006648       __Str_Calculex_Inc_ED3FECDF457FA1BB858DA415B000B751E9DDDDA7378965A77A983C009EA34FBB 0000000010052648     guideXOS.obj
 0005:00006678       __Str_Calloc               0000000010052678     guideXOS.obj
 0005:000066a0       __Str_Canon                00000000100526a0     guideXOS.obj
 0005:000066c0       __Str_Canon_Information_Systems_5BCAB568D01331FC81A8642E31A355A11C2ABBEC49978155C04C9CFE9ABC9B1F 00000000100526c0     guideXOS.obj
 0005:00006708       __Str_Canopus_corporation_7B6A6ABA4D5FE552F90E34C8FE81B7E88B5B4722A7C06764F201B04697245A76 0000000010052708     guideXOS.obj
 0005:00006748       __Str_Capital_Equipment_Corp_859D57F3310220BE58A4DE64401E65655A1AAB3F607564443265FCB5E731B94F 0000000010052748     guideXOS.obj
 0005:00006790       __Str_Carry_Computer_Eng_Co_Ltd_296A7BE57F697885EB0157D3EF1B9B9E66657655E69BAA30AD50AC1B37A920BF 0000000010052790     guideXOS.obj
 0005:000067d8       __Str_Casio_Computer_Co_Ltd_31FA68182BEF840884B859F18538210A9B28A3B98E11D6508800D69034231462 00000000100527d8     guideXOS.obj
 0005:00006818       __Str_CastleNet_Technology_Inc_24E6D986C1D3BDABD064CB62CE3679E67574D2EC6A1D70295BD72E112D990415 0000000010052818     guideXOS.obj
 0005:00006860       __Str_Catalyst_Enterprises_Inc_2573609F60D811CD390EF4716080E324B7CF818A42E0BF6E04241F12C428A121 0000000010052860     guideXOS.obj
 0005:000068a8       __Str_Catapult_Communications_10C3A886906B40B2DFB060A0CC25C0BD59781F41FE475DAABA3E761B1CF6F64F 00000000100528a8     guideXOS.obj
 0005:000068f0       __Str_Cenatek_Inc_7EF1EE45C955AAC1A79D201A63C27FB3CF06256E7E97D52F67B27F4D071C621C 00000000100528f0     guideXOS.obj
 0005:00006920       __Str_Centillium_Technology_Corp_BB15EB77DB1DFCAE10CDDF4BA4EEADBC5FB08FB479CDA72E07F85E532F0E766F 0000000010052920     guideXOS.obj
 0005:00006970       __Str_Central_Data_Corp_B36EB9CAEF49B652D2C36196B24A04B9323E83DBADB614687EA68B8D73115C9E 0000000010052970     guideXOS.obj
 0005:000069a8       __Str_Central_System_Research_Co_Ltd_07640EDFA7F46CB2E61AD501CDB3315F4F85E9A5141917F4456A093E9DB5F0AA 00000000100529a8     guideXOS.obj
 0005:00006a00       __Str_Centre_f_Dev_of_Adv_Computing_349F6B6651E166B7126060AD15BFD352A1214D14FF725C870A4781C7EBC634AE 0000000010052a00     guideXOS.obj
 0005:00006a50       __Str_Century_Systems_Inc_0CB2F70AF8986EBC870F2B5C73B655ED73F09E67CE5A81848860FA5B8000B06E 0000000010052a50     guideXOS.obj
 0005:00006a90       __Str_ChainTek_Computer_Co_Ltd_B7D5D0DA4DE7BA50521CE10AD3B3B74BE14EF46CF27E055E5710F8616B19B5BF 0000000010052a90     guideXOS.obj
 0005:00006ad8       __Str_Chameleon_Systems_Inc_C7B80E1CBC4E1F56E43DA864B424EB4CAB27C0605BF633338693A54344813C4B 0000000010052ad8     guideXOS.obj
 0005:00006b18       __Str_Chaparral_Network_Storage_54FC70A9C28ED1AC0C157CAEAD1D6F0C92807C98672853E2B8D4FB9F18A31A24 0000000010052b18     guideXOS.obj
 0005:00006b60       __Str_Chaplet_System_Inc_EB758C5BA788D9F85478712AC5FF0D4250686733E841118D82A371554D5AE9DE 0000000010052b60     guideXOS.obj
 0005:00006ba0       __Str_Chase_Research_PLC_1A9C9287F1DB7228FBDC6B6E6C22EA49ADEE73B07A823A5B7CFA76F153030E98 0000000010052ba0     guideXOS.obj
 0005:00006be0       __Str_Chelsio_Communications_B21580930ADF6FE0183A93803FA59E419865B129B2A1EFA596EE9E28A1ECC6EC 0000000010052be0     guideXOS.obj
 0005:00006c28       __Str_Chicony_Electronics_Co_113BDCCDAEFD2BA841E4F090062A3063C68DDB251094BDF61C490959BA41B30E 0000000010052c28     guideXOS.obj
 0005:00006c70       __Str_Chicony_Electronics_Co_Ltd_F7E6DF03605A4DA166456D944C71E294696D960480B250FA3208A64E16FE779B 0000000010052c70     guideXOS.obj
 0005:00006cc0       __Str_Chori_Joho_System_Co_Ltd_2C550385A9240A01B09CF799F10BB5D33F5C12090DA8983A58A116F7689A5BD3 0000000010052cc0     guideXOS.obj
 0005:00006d08       __Str_Chromatic_Research_Inc_5CD36F3E9D33F1C686FE08E8C75770E1A7F1456DF628487A2170B6E13E1B11A8 0000000010052d08     guideXOS.obj
 0005:00006d50       __Str_Chrysalis_ITS_4045CC5D648CBC7F4957E36B037728708B42017DFF6D0E9CA319B29B2C2D1034 0000000010052d50     guideXOS.obj
 0005:00006d80       __Str_Cimetrics_Inc_CFDEA821CF7755B68285056361B5FFAA899F3CF21F0488B15B6452BD86B8A137 0000000010052d80     guideXOS.obj
 0005:00006db0       __Str_Cincinnati_Milacron_619211338F2E72D7BACDE8B141D07A5D69F2F96E212F911372B2FA0051A66E80 0000000010052db0     guideXOS.obj
 0005:00006df0       __Str_Cipher_Systems_Inc_65BA90BB09D90D0611F31C5ED6F07619495CF3E6079145719487C3A9DAE71F74 0000000010052df0     guideXOS.obj
 0005:00006e30       __Str_Circut_Assembly_Corp_259DDB791AF93F2C893A3863387BFCD0E72042FB46D69E6B89BFAF19E97BCD69 0000000010052e30     guideXOS.obj
 0005:00006e70       __Str_Cirel_Systems_1573608F9028E81DB10A9FCF4F25251975B4738ED4B6F79C3AC93C60AE9E6C0E 0000000010052e70     guideXOS.obj
 0005:00006ea0       __Str_Cirrus_Logic_88842AEAC46B4F71259EDBB3AD6D5565B334C78C068C6DF53ED47625FD221B63 0000000010052ea0     guideXOS.obj
 0005:00006ed0       __Str_Cisco_Systems_Inc_559B0E59B454DB3D287B7CB0233E41DF20C6388EE0587E3BB24D2611AEBAE550 0000000010052ed0     guideXOS.obj
 0005:00006f08       __Str_Citrix_Systems__Inc_6528285C8AD078281D6EB300FDCAD9E14609F2B40150FF4B0BE9C5A0E1AFD6B1 0000000010052f08     guideXOS.obj
 0005:00006f48       __Str_City_Gate_Development_LTD_6C3639585A7F68125C6C120873635512D5ECA7E4F6FAF3B77CA2E8F4291619BF 0000000010052f48     guideXOS.obj
 0005:00006f90       __Str_Clarion_Co_Ltd_B7C009FD7AAC79D4C4D4F24B62705444EA42F83F2253527FB997E1B4F186FB7F 0000000010052f90     guideXOS.obj
 0005:00006fc8       __Str_Clear                0000000010052fc8     guideXOS.obj
 0005:00006fe8       __Str_Clearwater_Networks_12E37D07748FD2624BAC57D8EA8BD888DA627BB0BB8AE807B5D192A76B28EA83 0000000010052fe8     guideXOS.obj
 0005:00007028       __Str_Cleveland_Motion_Controls_08C4D4CEAA6CE4AFD320AADBD9A57FBEAA0BCFBC09A158BB03B5D38EA28EA36A 0000000010053028     guideXOS.obj
 0005:00007070       __Str_Clevo_Kapok_Computer_D65A58D2C260E5BAD5A332DB59966511AE9792E7B83F1E1C5742D19F7A0ACDE6 0000000010053070     guideXOS.obj
 0005:000070b0       __Str_Clock                00000000100530b0     guideXOS.obj
 0005:000070d0       __Str_Co_Time_Computer_Ltd_CDA455C0ED4694F13A334B81B77ADA95C18A718B222B960DC26CA358B832CD45 00000000100530d0     guideXOS.obj
 0005:00007110       __Str_CoSystems_Inc_236E105E5E48D1E6FAA533100BEA66B4A9D1F9B9DE504C8C3A4B387F13B241B6 0000000010053110     guideXOS.obj
 0005:00007140       __Str_Code_Segment__0x_59E9C71515ACBA75EDA39E41819DA0ED83ED8F44AE065B7AA7ABB675EE2A7387 0000000010053140     guideXOS.obj
 0005:00007178       __Str_Cogency_Semiconductor_Inc_0C5BAEAB4D1B59563F4C6F08FE83D08212F88134EEFA6E242DFA05C9E74083C8 0000000010053178     guideXOS.obj
 0005:000071c0       __Str_Cognex               00000000100531c0     guideXOS.obj
 0005:000071e8       __Str_Cologne_Chip_Designs_GmbH_023F69251752EE7B32FC6B4C0AE441F29911598B865C0C88B1A189F6E1972722 00000000100531e8     guideXOS.obj
 0005:00007230       __Str_Colorgraphic_Communications_Co_84E26AC6434B831CC211BD918490D3C2B78B43115F69C4F9B107EEE117F3F2FE 0000000010053230     guideXOS.obj
 0005:00007288       __Str_Comartsystem_Korea_907E818EFB50DC3E8240EFE7CF0E63A272B1AC078EE211AA014A58E518D72C4B 0000000010053288     guideXOS.obj
 0005:000072c8       __Str_Combox_Ltd_D2DA7FEC223F3FB42A17F56712F3BE07E62F2E95C24B02E69E0F957D02BFF049 00000000100532c8     guideXOS.obj
 0005:000072f8       __Str_Commtech__Inc_6A946A9D609DD530E452CABA40028B4000440B9A7B2C8D1C7CEA88BAE7BEBED2 00000000100532f8     guideXOS.obj
 0005:00007328       __Str_Communication_controller_5F60BEE8F6D6D54F479E11E5535BBB24AB8AF9BD14F5227E8861FD2C3AE048B9 0000000010053328     guideXOS.obj
 0005:00007370       __Str_CompCore_Multimedia_Inc_DD63F55C50ABD8A6D6AC112F209D8F381274B19837C1C4E1E700812BE28282C6 0000000010053370     guideXOS.obj
 0005:000073b8       __Str_Compal_Electronics__Inc_1A7953F2EFD813AE66502FE2563FB8573AEE6FD6D8CAD8FFCEB028FAAD3226E1 00000000100533b8     guideXOS.obj
 0005:00007400       __Str_Compaq_Computer_Corp_CB09C8BB9A6F37E04F0FD60A4CE0B4E7C36270D9A47E4F911C78A9EDAE8BDF9F 0000000010053400     guideXOS.obj
 0005:00007440       __Str_Compression_Labs_Inc_02337C0018900CE28F9EDA463470E5EC35E7727BEA95A5908B362870A576C203 0000000010053440     guideXOS.obj
 0005:00007480       __Str_Compumaster_SRL_CE1847802402D672634062CABE723751B132C2752415CCE391360411CF33A7AF 0000000010053480     guideXOS.obj
 0005:000074b8       __Str_ComputerBoards       00000000100534b8     guideXOS.obj
 0005:000074f0       __Str_Computerm_Corp_76F24DE9587ED5B8A989EC6006A703F807CE3CA4AE9657716E5B9F532E06EBF8 00000000100534f0     guideXOS.obj
 0005:00007528       __Str_Computervision       0000000010053528     guideXOS.obj
 0005:00007560       __Str_Computex_Co_Ltd_55358C8D83655556401657E4E257BC39D8D37256F530E5CB45C84F3AD6AE6975 0000000010053560     guideXOS.obj
 0005:00007598       __Str_Computing_Devices_Intl_DAE16844DD24E27825FB3ADBA1D92572296A1526A324282399215F7ECA2BD167 0000000010053598     guideXOS.obj
 0005:000075e0       __Str_Computone_Corporation_5157206532DFB01507F8B0E61374601A80429BDA76067387AEF70F9261ED487F 00000000100535e0     guideXOS.obj
 0005:00007620       __Str_Computrend           0000000010053620     guideXOS.obj
 0005:00007650       __Str_Comstream            0000000010053650     guideXOS.obj
 0005:00007678       __Str_Comtrol_Corp_9B1B16F385D86E7B8CE641D4E7FE3AE3B410E0D40CB72306697C1C55A2971F0C 0000000010053678     guideXOS.obj
 0005:000076a8       __Str_Concept_Development_Inc_924B7D6B1DCBD02B85B1790C8700FC7E6FEED9126799CB02F1B0968565A8929B 00000000100536a8     guideXOS.obj
 0005:000076f0       __Str_Concurrent_Technologies_Inc_3F9B2915BA66056AFE01B91769460381BA3EA73D4FA854AC842AACF2CC380AF2 00000000100536f0     guideXOS.obj
 0005:00007740       __Str_Conexant             0000000010053740     guideXOS.obj
 0005:00007768       __Str_Connect_Components__Ltd_605F9302D2593C478820926A7BD04E1A67F1CD2330E74226ACD2CFB61A3282DD 0000000010053768     guideXOS.obj
 0005:000077b0       __Str_Connect_Tech_Inc_2B28BA21625F918E7A14B76AE2A9FF761F61AE84387B5919D6CBA3D3ED9C1398 00000000100537b0     guideXOS.obj
 0005:000077e8       __Str_Connectware_Inc_39920F70A20830A9925D912A53DF12231FD172599C3F5AE91949DAC154172E31 00000000100537e8     guideXOS.obj
 0005:00007820       __Str_Console              0000000010053820     guideXOS.obj
 0005:00007848       __Str_Contec_Microelectronics_Europe_D7FDC0268B12245593970B296D61D29502C5F42CA4D1E476356E1F129117C44D 0000000010053848     guideXOS.obj
 0005:000078a0       __Str_Contemporary_Controls_6BB8FE3B732C4DE81521FA518412D990E474E54459784B1CA479AE7E1F6691FF 00000000100538a0     guideXOS.obj
 0005:000078e0       __Str_Coprocessor          00000000100538e0     guideXOS.obj
 0005:00007910       __Str_Coreco_Inc_D58E64C22831FE459B051E17F4FCC8C93EE6F2914450A2C23641AEEC43690098 0000000010053910     guideXOS.obj
 0005:00007940       __Str_Cornerstone_Technology_16FCE7B884C8C5CDD567D4B278B49977CF3F36F66F62030D0120B39AC628B9BC 0000000010053940     guideXOS.obj
 0005:00007988       __Str_Corollary_Inc_55EAFFD8070E4C7906E790E7F4C71C12B282621BA678351A9645DB78F731DCF6 0000000010053988     guideXOS.obj
 0005:000079b8       __Str_Coyote_Technologies_LLC_FAACA481485942666FEF82A74F1DEBEFF7442577C9C7EC153D28D24A1A976A5F 00000000100539b8     guideXOS.obj
 0005:00007a00       __Str_Cray__Inc_D4135B9D59C2CFC44D7D8F99177FE420B247C8E7CF94B3E7C4884D879FBA8607 0000000010053a00     guideXOS.obj
 0005:00007a28       __Str_Creamware_GmbH_D7235B2CEB02F974FBA18A580EB0BD27BBC306F9F1FA279483CC8E091D3E26C2 0000000010053a28     guideXOS.obj
 0005:00007a60       __Str_Creative_Electronic_Systems_SA_647745EDE8816DCDAB3907068ACFA8663FDD58300EE0D857D4C90C5C600DE7CE 0000000010053a60     guideXOS.obj
 0005:00007ab8       __Str_Creative_Technology_LTD_338937889A086827E9BAB453E6F2A6DABB288315B49D569DC346927B7AEBAC4D 0000000010053ab8     guideXOS.obj
 0005:00007b00       __Str_Crest_Microsystem_Inc_8D65DC2C3C2692684E00C6F221C4B8DFE74E95C926BB84BF08CCF401AA956C71 0000000010053b00     guideXOS.obj
 0005:00007b40       __Str_Crosfield_Electronics_Ltd_918C9D72C2F137727379BFB0A94A9018BDA7CCF60F62ED911BF746321DAEB3F8 0000000010053b40     guideXOS.obj
 0005:00007b88       __Str_Crosspoint_Solutions_Inc_49FD00031F5B20EEE67D8B475442B014F7437EA4676A8858EA404905BFCF96A2 0000000010053b88     guideXOS.obj
 0005:00007bd0       __Str_Cryptek              0000000010053bd0     guideXOS.obj
 0005:00007bf8       __Str_Crystal_Group_Inc_C83F407304DA54211C8C852302898C41E0683C6403372EB7D0E08F763AC0ED0E 0000000010053bf8     guideXOS.obj
 0005:00007c30       __Str_Curtiss_Wright_Controls_Electr_DB890332E26A3683CEBB5293F9B6FCF8EB1B7FDC9196175A13A50F69BD302B23 0000000010053c30     guideXOS.obj
 0005:00007ca0       __Str_Curtiss_Wright_Controls_Electr_BFD39866ACB6D65C79474DB293C0AA4E026E5268A98A2F88D877514B21B35D2A 0000000010053ca0     guideXOS.obj
 0005:00007d10       __Str_Curtiss_Wright_Controls_Embedd_DF77DDCBDC595D916AB21BE69396C676BFAC221609E2FBAC454796CC34B39F74 0000000010053d10     guideXOS.obj
 0005:00007d80       __Str_Cyberdyne_Inc_3FCE5670C9B95B9442C2EFBB0F072B39D4C2C8013DB5F59414F835D28534ABC2 0000000010053d80     guideXOS.obj
 0005:00007db0       __Str_Cyberfirm_Inc_5F5235C29179423863E34A3CF3EEE7CE02639762AFC81CE417E379F5C8361852 0000000010053db0     guideXOS.obj
 0005:00007de0       __Str_Cybernetics_Technology_Co_Ltd_282D6C38DCE3B47C64186087D53F199B78D64142FA00E2E1C4D50FEB08D4CC80 0000000010053de0     guideXOS.obj
 0005:00007e30       __Str_Cyclades_Corporation_A93BDFCD8002D8E59A393EBF8B9B854DF9D2F7A1AE82509D42C8CE0408C16BF6 0000000010053e30     guideXOS.obj
 0005:00007e70       __Str_Cyclone_Microsystems_Inc_6132F632416B7256FEE0E65D93B56D4A83C9D68EB200CCC1B80C8826276D651A 0000000010053e70     guideXOS.obj
 0005:00007eb8       __Str_Cylink               0000000010053eb8     guideXOS.obj
 0005:00007ee0       __Str_Cypress_Semiconductor_98603700CF5C10ECB46D0CF96B5A8FEB1347B0558512D16B9B53B81C2ED37CD3 0000000010053ee0     guideXOS.obj
 0005:00007f20       __Str_Cyrix_Corporation_75E1C9F377A9E29158F1207CDE83D3B47200E51E4D84A1C93E4B291046E5A39F 0000000010053f20     guideXOS.obj
 0005:00007f58       __Str_Cytec_Corporation_74AE665D9EF1E2C2E666BAC9936B30CD0CD7BF8D039FC3B8D08C91814D0B16B4 0000000010053f58     guideXOS.obj
 0005:00007f90       __Str_D_Link_Corporation_205FF0AE30CDC4D4E0C55DB05406713A7A0FCFED450AF241644856641471ED04 0000000010053f90     guideXOS.obj
 0005:00007fd0       __Str_D_Link_System_Inc_8D9666101E033E4A5FD9289A5F2011B51B62BDD86C96190A66708CFC7BEFF3B2 0000000010053fd0     guideXOS.obj
 0005:00008008       __Str_D_MAX_6E213982A44681D862A76BBB755140B591CD50650F07F0EA4D72E68552C660B1 0000000010054008     guideXOS.obj
 0005:00008028       __Str_DAQDATA_GmbH_BA24ED6288C5166D17757777D08E52C29602146CC01053086F8B46F956891D8F 0000000010054028     guideXOS.obj
 0005:00008058       __Str_DCM_Data_Systems_B4E78F6C4DE17B209FAA1020E5AC7AB426C0BF122476686865EB76F0C7CDCB88 0000000010054058     guideXOS.obj
 0005:00008090       __Str_DCM_Technologies_Ltd_AD173249DCEB0E02EA6D83D4C68B1B2870A5624EF6FC292641933AF5AB63D3A9 0000000010054090     guideXOS.obj
 0005:000080d0       __Str_DDK_Electronics_Inc_A2A9EEB330ABEA8EEE23838241D8D5F7224A4FC30D536B7F6AB466AC97C3AF28 00000000100540d0     guideXOS.obj
 0005:00008110       __Str_DDRdrive_LLC_6A779D815A7CAFC435862D4B83338A1D4B1F9CD0F77A6E715FBE17ABBCA190B7 0000000010054110     guideXOS.obj
 0005:00008140       __Str_DFI_Inc_E7A961C05113CDE59260224B2643DB2DC8B39C010FE3BC42DD08BE24093A8109 0000000010054140     guideXOS.obj
 0005:00008168       __Str_DH_electronics_GmbH___Sabrent_89A6D130F547F69ADD307FCA7242610F0BFA4D30CD953B10B71421556565AE3F 0000000010054168     guideXOS.obj
 0005:000081b8       __Str_DIVIDE_BY_ZERO_35A15510F680DC765661E0D29DFAD7145E1665F9617FC031C21ECB78DB53A063 00000000100541b8     guideXOS.obj
 0005:000081f0       __Str_DLoG_Gesellschaft_f_r_elektron_FB167874471EE01087CE3394AF93B8B506E221239B9E9D44F49DDB578DC301C9 00000000100541f0     guideXOS.obj
 0005:00008270       __Str_DOUBLE_FAULT_D7745D19D21BED4FCAE5949B361E7C3770F0F6F00771FC35E0C922926FC4F820 0000000010054270     guideXOS.obj
 0005:000082a0       __Str_DSC_Communications_FB98387705ED8240B1B2D706FD4017D3F6A6ABB94BA02E5D58C70DD917D85C00 00000000100542a0     guideXOS.obj
 0005:000082e0       __Str_DSP_Research_Inc_01DF1921B156ECF68093AFA42E6B6BE5E355D8FE6ACC68943F65AFCE6AA831CD 00000000100542e0     guideXOS.obj
 0005:00008318       __Str_DTC_Technology_Corp_D0C115E6DE03EEF15832BD4D47161C2AA42E11719CD6644B0D4A6C0E35B08894 0000000010054318     guideXOS.obj
 0005:00008358       __Str_DTK_Computer_B16E0809556F88B648C2855C0BBCEF9A8E397891F1507E4368F23CCBC7794AE6 0000000010054358     guideXOS.obj
 0005:00008388       __Str_Daewoo_Telecom_Ltd_BCADCF17418474AEF764DEF1EE650A6E149E7CF12A1007091783D0201DE91A5E 0000000010054388     guideXOS.obj
 0005:000083c8       __Str_Dainippon_Screen_Mfg_Co_0D172685807961C3A663D4BB8A44B936BF834F5F04FD34F2BF4499B12EA8353A 00000000100543c8     guideXOS.obj
 0005:00008410       __Str_Dallas_Semiconductor_E1BBDA5B471FAE147CAD36462175E0FE95981BE6FFEE07CF44CE5AA8B62110E3 0000000010054410     guideXOS.obj
 0005:00008450       __Str_Dapha_Electronics_Corporation_F6568CB494C025942D96E63ED7133212586AE50CBAA8E316E54C6BAD961FB5BD 0000000010054450     guideXOS.obj
 0005:000084a0       __Str_Data_General_Corporation_B05357BB42C658D2DDC7B258ACF020A6D7BF0545686DE30776B6225FB4C0FC05 00000000100544a0     guideXOS.obj
 0005:000084e8       __Str_Data_Kinesis_Inc_0EB8781ACAA6C7E35BC1CDF578978F252EC812D3C166B3AF634413DBC8CDB5F2 00000000100544e8     guideXOS.obj
 0005:00008520       __Str_Data_Race_Inc_CF3DFC7EF6F6A0D22DBFC7A46107385323C371F03F52EBDC6789A9DA526C3E2F 0000000010054520     guideXOS.obj
 0005:00008550       __Str_Data_Technology_Corporation_C5629D40BC5457B98BA0FE4DF936B8D6904AB1AF81885654459F2FD44839C86D 0000000010054550     guideXOS.obj
 0005:000085a0       __Str_Data_Translation__Inc_D6764C1B6811EC294EB69ACA6D2B5D9121F46451BA3DBB4D3D743592A379AFAC 00000000100545a0     guideXOS.obj
 0005:000085e0       __Str_Databook_Inc_5F3C0E31CFCCF6E69958D69BB35153C6F592F6A16DA0CD089C247C37992A9E07 00000000100545e0     guideXOS.obj
 0005:00008610       __Str_Datacube_Inc_BCE46DDBA07361263390F5DAC4AEAC2F5AEACFFF4DE726FFCBD1F31F8888B546 0000000010054610     guideXOS.obj
 0005:00008640       __Str_Dataexpert_Corporation_DEE4F76463189DBC0F5A823E36013C8A5D59AA26001FA8319F181C97F965A475 0000000010054640     guideXOS.obj
 0005:00008688       __Str_Datakinetics_Ltd_0EE5ADDDB3842AC474C7CF514283469F1DA58CE8BA84AFEF9F0BC6240EB19388 0000000010054688     guideXOS.obj
 0005:000086c0       __Str_Datalex_Communcations_38D4CAD5D5AB7E88A56B0951E48E27F12076D1845D38D2F2F5E694E9DAC7FC83 00000000100546c0     guideXOS.obj
 0005:00008700       __Str_Datavoice__Pty__Ltd_E07C1BA3FE3CCCE4CD8C6511FE2B8B8D5BA9D8A2B76ADB2D78FA7A67BCDACF06 0000000010054700     guideXOS.obj
 0005:00008740       __Str_Dataworld            0000000010054740     guideXOS.obj
 0005:00008768       __Str_Datel_Inc_CBBC6ED21BA5FF2CEDD5326DDA8CD97606D250D7715B2593FFA0AA36F8E98565 0000000010054768     guideXOS.obj
 0005:00008790       __Str_Datum_Inc_Bancomm_Timing_Divis_3A4F80CE9D44917BCD020D931F26C48010D7F419C478FD8B5AC54E2A53ED5874 0000000010054790     guideXOS.obj
 0005:000087e8       __Str_Davicom_Semiconductor_Inc_DF9DDCBCD1F5E29062C025AB0A74B757CE612879774E3C46A7DB1D6D96A2A2DC 00000000100547e8     guideXOS.obj
 0005:00008830       __Str_Dawicontrol          0000000010054830     guideXOS.obj
 0005:00008860       __Str_Dazzle_Multimedia_Inc_91F1F7EC8AC67383E8AB13E34476FAE00BF5B7BA7BF1EEC4A2320FEE097FD635 0000000010054860     guideXOS.obj
 0005:000088a0       __Str_DebugWrite           00000000100548a0     guideXOS.obj
 0005:000088d0       __Str_DebugWriteLine       00000000100548d0     guideXOS.obj
 0005:00008908       __Str_December             0000000010054908     guideXOS.obj
 0005:00008930       __Str_Decision_Computer_Internationa_B1CFBB100B7B0871C487C645DB166195990F2910DFEFDA9037D6159303580128 0000000010054930     guideXOS.obj
 0005:00008990       __Str_Decros___SICZ_as_0BF4B9911B45299A9682EB2D41B22322D3354F7431CF038F4009B5071DBA980E 0000000010054990     guideXOS.obj
 0005:000089c8       __Str_Dell_Inc_85EC5932B450212AB21DB0422EC8A083142A404AC81C2B44E224992E9555829D 00000000100549c8     guideXOS.obj
 0005:000089f0       __Str_Delphax              00000000100549f0     guideXOS.obj
 0005:00008a18       __Str_Delta_Electronics_Inc_7E7BFFF4AF025E98B2523074FEFD4103E6A347D56B16DAB000BA419AE568034A 0000000010054a18     guideXOS.obj
 0005:00008a58       __Str_Densan_Co_Ltd_3B3CB13BC388D6AE5E7E6500D6084E517E7D97C1DD82E8A824F3CEDA72ABA10F 0000000010054a58     guideXOS.obj
 0005:00008a88       __Str_Department_Of_Defense_253D3258A03C17AF91A30106664B813F350C4C3C1F7FFC690587D62070AE9E78 0000000010054a88     guideXOS.obj
 0005:00008ac8       __Str_Desana_Systems_8AA8FC5D1C58EA1CC71AA8DA3674E7858CFA98D5340E8E00D437D8F1065467D2 0000000010054ac8     guideXOS.obj
 0005:00008b00       __Str_Deuretzbacher_GmbH___Co_Eng_KG_D7365ADE4E122B220EF627DC6C9535F2317FC7DFC3C17E7847722E2A6FAFA7D9 0000000010054b00     guideXOS.obj
 0005:00008b58       __Str_Device_Located___F8CFC9E60868ED15B1780B94E0B265DEF23923F5EFD42B74A3785D815329ABE2 0000000010054b58     guideXOS.obj
 0005:00008b90       __Str_Dialogic_Corp_67DB692BA8169288EF4E2C1D96F0737366809A2FDF15A4A164AF1B1B521ECF08 0000000010054b90     guideXOS.obj
 0005:00008bc0       __Str_Diamond_Computer_Systems_82F07403D10CBB8D9CC69D488CBE31CC3A1D9F1049FF7FE88EB3C953A0B30D26 0000000010054bc0     guideXOS.obj
 0005:00008c08       __Str_Diatrend_Corporation_F48A7F4E86E947496CFEBFC2F60184714ADC6AA200F9BF4E1032FAEDC6A1AC08 0000000010054c08     guideXOS.obj
 0005:00008c48       __Str_Digalog_Systems_Inc_CC6783A63E1231FF01ED7BF3A516B0B090E1CBC403D9D8E4914C564F43552E54 0000000010054c48     guideXOS.obj
 0005:00008c88       __Str_Digi_International_FA9069972F8673745CCB3E5086F63A2FD361B185B618D2C3CC1AE660CA21730F 0000000010054c88     guideXOS.obj
 0005:00008cc8       __Str_Digicom              0000000010054cc8     guideXOS.obj
 0005:00008cf0       __Str_Digicom_Systems_Inc_E73CB270FFD5A7793DD30E6076276E6BC50C860B72FE62382559B35F092718B7 0000000010054cf0     guideXOS.obj
 0005:00008d30       __Str_Digigram             0000000010054d30     guideXOS.obj
 0005:00008d58       __Str_Digital_Audio_Labs_Inc_46E6D1243AEDCBBDC1594B575D14CDC62E1F5B971A844D7E9B32E44FD6B11833 0000000010054d58     guideXOS.obj
 0005:00008da0       __Str_Digital_Equipment_Corporation_AB2A9681069DD0F78A691A38336C38C35638C988850B9B01D9DB9D9FF238FE00 0000000010054da0     guideXOS.obj
 0005:00008df0       __Str_Digital_First_3DB4F831DFB1368305EB6B049F218E266690E55F5DD343CFE21BA63096EC7D7C 0000000010054df0     guideXOS.obj
 0005:00008e20       __Str_Digital_Processing_Systems_Inc_243B878D874CF31198547DD31D40ED74450CD6819B2C26E662A2F9A8EBA0C5AB 0000000010054e20     guideXOS.obj
 0005:00008e78       __Str_Digital_Receiver_Technology_In_2E566517E9CBE41F9AF1A93C4B2F064159242F5AB523852A528984E51D560262 0000000010054e78     guideXOS.obj
 0005:00008ed0       __Str_Digitmedia_Corp_08ECA5B0AE961D01622540BB5320D268267A7A2E2297B23CC7DBE03850CF3967 0000000010054ed0     guideXOS.obj
 0005:00008f08       __Str_Dipix_Technologies_Inc_2566DF1AB1B111869180C0B38B8AD04B906C84A7AAF6F4E584B7B5464CFB45C6 0000000010054f08     guideXOS.obj
 0005:00008f50       __Str_Display_controller_2AB0112D09C2DF772BE7424FC0DEA80D8FF45FC0E01AE94843BB1ECC2A1554E3 0000000010054f50     guideXOS.obj
 0005:00008f90       __Str_Distributed_Processing_Tech_83CD494490DD6B839D56120B86BC4B360DF6A76AA2C91C197A219A01DCD3612E 0000000010054f90     guideXOS.obj
 0005:00008fe0       __Str_Ditect_Coop_3C916798932A48E3CA451B558AB38052AC355E4C5A8B0DB5EB7649ABAD108CB3 0000000010054fe0     guideXOS.obj
 0005:00009010       __Str_Diva_Systems_Corp_BAACD83FCAB7E8A94A950613FA64337CEBF62ED1AC64D601F89582B6EACB2188 0000000010055010     guideXOS.obj
 0005:00009048       __Str_Diversified_Technology_EC84F2AB1070D3D27F45A66B629DC9B878988520326410C742A0A7338D47F61D 0000000010055048     guideXOS.obj
 0005:00009090       __Str_Docking_station_AFC491B5DBBBB1DB7A195B3F75F3A7438D68F11E2AD6B44F1FEB286BF3B1FCB3 0000000010055090     guideXOS.obj
 0005:000090c8       __Str_Document_Technologies_Ind_42F8EB62BFFEBAEFA33AFF9560D83A4EE9F6510582C43A59E0535F3BEF53DDE4 00000000100550c8     guideXOS.obj
 0005:00009110       __Str_Dolphin_Interconnect_Solutions_85F05B94E5FD0E7E0A7238237D4715AF5A55C7C0A5A136150DD99F7AF4F67277 0000000010055110     guideXOS.obj
 0005:00009168       __Str_Dome_Imaging_Systems_Inc_64EEDBDD5A3231B99C1358468496D89C670D449006A732DFFEC79DFA847E3EB5 0000000010055168     guideXOS.obj
 0005:000091b0       __Str_Doug_Carson___Associates_9F20DC8368786AAEF062E9896798AE70E39E8D8EDC6BA43FA9973E8DE1281148 00000000100551b0     guideXOS.obj
 0005:000091f8       __Str_DrawImage            00000000100551f8     guideXOS.obj
 0005:00009220       __Str_DrawPoint            0000000010055220     guideXOS.obj
 0005:00009248       __Str_Dreamtech_Co_Ltd_513CD4C225EA12DA5408E1BD1F1ADDE1170EA8DA91B6C69697C826C52CF25169 0000000010055248     guideXOS.obj
 0005:00009280       __Str_Drsearch_GMBH_1A2B1272BE0D42526EAF41E57288D259F9EAEDF6110FD63D6CBC4DA056F11755 0000000010055280     guideXOS.obj
 0005:000092b0       __Str_Dual_Technology_Corporation_C985D2FA1B445991FF51A0658577FFC9FEE42328453F2E147716024BB2EE0D4F 00000000100552b0     guideXOS.obj
 0005:00009300       __Str_Dunti_Corp_995C2CDA28FEBA228EAD0A463B2A41A602E56474FC36D44B59A198FA4F2F9989 0000000010055300     guideXOS.obj
 0005:00009330       __Str_Dynachip_Corporation_E68360CF40A48FA1721869DEF4FD1FDBC8225936ADAF833DC186217E133EA1DD 0000000010055330     guideXOS.obj
 0005:00009370       __Str_Dynamic_Pictures_Inc_71D6B75882A99095DF9F79E58850111710CC02EE62007A11DFF304E0A0B345C1 0000000010055370     guideXOS.obj
 0005:000093b0       __Str_Dynarc_Inc_B210AA24FD8D4959E073DDF1134FF45121310D5315EB23557D6FB96CF055BD10 00000000100553b0     guideXOS.obj
 0005:000093e0       __Str_E_Tech_Inc_328D7157CD1FE70DCA5D802B152680E365A4A142E4AED463DBD9C5527FD748DD 00000000100553e0     guideXOS.obj
 0005:00009410       __Str_EFA_Corporation_Of_America_E73FC03DB0BF7789667E2AF0B50BFAAC6AA55533F1A6B2662CBC79B83237152A 0000000010055410     guideXOS.obj
 0005:00009460       __Str_EKF_Elektronik_GMBH_268F1EC416635B2D62863DF60BF27170953D17CED09FBDF24F9DA3A23D0C5F17 0000000010055460     guideXOS.obj
 0005:000094a0       __Str_ELSA_GmbH_9A0FF92A9FD4AE526A6F6498F9EDED89E2275B4AAAB1BA88620C7DA77FF44727 00000000100554a0     guideXOS.obj
 0005:000094c8       __Str_EMC_Corp_660742B8E749C319EE0C4063356AFB632F3A77DEFE0ECAB21056EA625BC78D24 00000000100554c8     guideXOS.obj
 0005:000094f0       __Str_ENE_Technology_Inc_11134AD7CD3A028BD1503FFE661AF20C918EF0BD2FDEF1CD646D87917B7C4110 00000000100554f0     guideXOS.obj
 0005:00009530       __Str_EPoX_Computer_Co__Ltd_3C71B0AA8F5EDF137284BF798E58F630B6B05A69DE910983587E90B0A020541B 0000000010055530     guideXOS.obj
 0005:00009570       __Str_ES_Computer_Co_Ltd_20F6E5C5803CABAE6AC41088675CB1DC9427D9D1D319831EAD8BF2293DAC72C5 0000000010055570     guideXOS.obj
 0005:000095b0       __Str_ESS_Technology_E6EA65F0FC606E7F78610B87AAB50E32FA1A8A66056A3B14937D7A1229A28D18 00000000100555b0     guideXOS.obj
 0005:000095e8       __Str_EVSX_Inc_D2E4EF7683EAE974699B5B643645537DF28BF00A826327C04E27814D41A43D0D 00000000100555e8     guideXOS.obj
 0005:00009610       __Str_Eagle_Technology_23C664804169DA5266A41BFE30880D00B27189D8F232BB83F774186B08B34036 0000000010055610     guideXOS.obj
 0005:00009648       __Str_Eastman_Kodak_52019B0BD62C01A43E6B8FCA7669F6D0C9F061D00077F5D556336BFDDC0B7CAB 0000000010055648     guideXOS.obj
 0005:00009678       __Str_Echelon_Corporation_C6800493C53F9995383CE2403D785F376D553D1461296FDD77A0D8F9EAA34E6E 0000000010055678     guideXOS.obj
 0005:000096b8       __Str_Echo_Digital_Audio_Corporation_061F0AA7B89D9571532060C792B03BAA842DE4C87765855AD31F53692D1F6CF1 00000000100556b8     guideXOS.obj
 0005:00009710       __Str_Echostar_Data_Networks_37A818FDA95A65D9B6E5066D6F45C3B29A76376412099FC6E0FFFF7D1473152A 0000000010055710     guideXOS.obj
 0005:00009758       __Str_Echotek_Corporation_01C47E273E728CC9C37FD52438625A53766ABB78F447D04B52E088AC1FCA9A71 0000000010055758     guideXOS.obj
 0005:00009798       __Str_Edax_Inc_72757C4945811675C26C862ADCCA5A60B00C567F87FA5B77F7BA11AFC4283FE9 0000000010055798     guideXOS.obj
 0005:000097c0       __Str_Edec_Co_Ltd_58450C46C6222ED89BFB44F051A0E1E9E0980236CAE548D7F4A1156EFDC3A13F 00000000100557c0     guideXOS.obj
 0005:000097f0       __Str_Efficent_Networks_BB1167D187F2A748F7CD0C44BD67B949B009B6940377E0D2B38E9FD422A7890B 00000000100557f0     guideXOS.obj
 0005:00009828       __Str_Egenera__Inc_EAAE0BF33F1DE441F07661100824BBB940CFB79BCDD5066FAA043A4E00160E2E 0000000010055828     guideXOS.obj
 0005:00009858       __Str_Egosys__Inc_1A5F1AC6D489BDEC234C994AE9D19209EB45EA98D7F7D66CEBD362810E51423A 0000000010055858     guideXOS.obj
 0005:00009888       __Str_Eicon_Networks_Corporation_347370B846A7BF957F4BE810598A31793D1505962B1D1CDBCEEF33357D781284 0000000010055888     guideXOS.obj
 0005:000098d8       __Str_Elan_Digital_Systems_Ltd_98012FF4573393B79B1B993C11AA37E4FE8D73B5840747ABF2BAAD119CC2D979 00000000100558d8     guideXOS.obj
 0005:00009920       __Str_Electronic_Design_GmbH_956224E25F47EA7DED98A40C88F59B945230009A24D865C4B7E68897A15F8274 0000000010055920     guideXOS.obj
 0005:00009968       __Str_Electronics___Telecommunicatio_3ED60D7921E6F8DFC6AFAAE4BDFD04B28D51B6AAB54D05DE448BE9B28D9CC1C0 0000000010055968     guideXOS.obj
 0005:000099c8       __Str_Electronics_for_Imaging_E4543C86C3F560E5D89AB1D1D87AADE487A9A1A75228B8C73A429A5BF348465E 00000000100559c8     guideXOS.obj
 0005:00009a10       __Str_Elitegroup_Computer_System_79B4CF695BCA1C87CCA4075B927E9004C46D843AC1A2CA8AFB347EAE1B75D009 0000000010055a10     guideXOS.obj
 0005:00009a60       __Str_Elmec_Inc_Ltd_10EFC0F92D8BB6BA3D2C1A2CA34CD983E06204E8318E2581398D2DF8829E31F2 0000000010055a60     guideXOS.obj
 0005:00009a90       __Str_Elsag_Bailey_FC42AAD3AC29360E48414D0EE4EA2414770D343B4E35BD33325605F9B7F8B6EC 0000000010055a90     guideXOS.obj
 0005:00009ac0       __Str_Eltec_Elektronik_AG_77020268F2E08041BBF037628512439DF90460C8623B8791249362EA74634EE1 0000000010055ac0     guideXOS.obj
 0005:00009b00       __Str_Emachines_Inc_006122CE67E9A40102022EE597D16EC6B4041B143E3A88B42DB7D8BC25CACE1D 0000000010055b00     guideXOS.obj
 0005:00009b30       __Str_Emulex_Corporation_76538A082AD56CAF6F8C65E7441A628ABF287108FC87D6B01819A1C35F8ADE1F 0000000010055b30     guideXOS.obj
 0005:00009b70       __Str_Encore_Computer_Corporation_0EE4BA28260B488C11AD47B5600305A38A6A811C75AEBF7A37C0D326F17BC572 0000000010055b70     guideXOS.obj
 0005:00009bc0       __Str_Encryption_controller_2CEF5C77FC3216B9B387996BC95C2A7D21E8C70AE0FE835213818F1614FDA204 0000000010055bc0     guideXOS.obj
 0005:00009c00       __Str_Endace_Measurement_Systems_Ltd_03B657D7FC5011388A20365D7339B6860D5E042DD580549E687582635AA37D52 0000000010055c00     guideXOS.obj
 0005:00009c58       __Str_Engineering_Design_Team_Inc_461AA47D90B22B50301DE744A31AD8EBE5C8A35F87C895DB6CFF9B2B94A566E0 0000000010055c58     guideXOS.obj
 0005:00009ca8       __Str_Ennyah_Technologies_Corp_68EBBDC384853A52709545904F14C379CB472DAE9BAD7B07077A7105A94C98E9 0000000010055ca8     guideXOS.obj
 0005:00009cf0       __Str_Ensoniq              0000000010055cf0     guideXOS.obj
 0005:00009d18       __Str_Entridia_Corporation_7D14811845EA43F0568F40BCEA53E77FF22C791215FA5253F7A87CE5B222F4C3 0000000010055d18     guideXOS.obj
 0005:00009d58       __Str_Epix_Inc_B05F2A6D51CD96EF3529C838F628C1B71C00C5043EE8FF3BB0AED6BCB49541D5 0000000010055d58     guideXOS.obj
 0005:00009d80       __Str_Epson                0000000010055d80     guideXOS.obj
 0005:00009da0       __Str_Equator_Technologies_8F4741EC1E8AEBDADD3943298F45E68012131ED4C201DB0306A2EDD62DB1250D 0000000010055da0     guideXOS.obj
 0005:00009de0       __Str_Equinox_Systems_F7C751B841162E2E1EAACE5542CDE99E48E2E988511B33855D8B0BCC427A1176 0000000010055de0     guideXOS.obj
 0005:00009e18       __Str_Equus_Computer_Systems_Inc_9CD153E5BD40692EAE54B7F04C3288A0CD979E5033B364F74C5F6E80FBEC1EE9 0000000010055e18     guideXOS.obj
 0005:00009e68       __Str_Erma___Electronic_GMBH_A0DBD627415D3B7993EC7C6348141B1FD2707876C4AE3DE734D717EE2FB11D17 0000000010055e68     guideXOS.obj
 0005:00009eb0       __Str_Error                0000000010055eb0     guideXOS.obj
 0005:00009ed0       __Str_Error__Bootstrap_CPU_is_not_CP_8E5BB52DA59971F05AFE6E2E4C038E56CFC7C306A2CFEDBBA2D7ED35CCCF76D3 0000000010055ed0     guideXOS.obj
 0005:00009f28       __Str_Esec_SA_21098DAC3B75B60AF87077809B12F7B149867A2B56CE0266A8AF89D8A074D0C6 0000000010055f28     guideXOS.obj
 0005:00009f50       __Str_Essential_Communications_B8D7CE4C6CF90C91579EB25523C1B59FB1CF56520948640D3AB7AAA293E56FB4 0000000010055f50     guideXOS.obj
 0005:00009f98       __Str_Etron                0000000010055f98     guideXOS.obj
 0005:00009fb8       __Str_Eumitcom_Technology_Inc_FBBDF7B099C38A4028EF8A204962497B8CB67BC6DD9E2917EE42F8EBA28AF12F 0000000010055fb8     guideXOS.obj
 0005:0000a000       __Str_Eurocore_Vigra_3798BB5C362987270DEED2956212C7A8DC4C172E2476A6458DA0CEE9CB7C0714 0000000010056000     guideXOS.obj
 0005:0000a038       __Str_Europop_AG_64C4028C3C80812D3F5C2E54E7C14F4366A17AA7904BAA33574AA45C1DA52AEA 0000000010056038     guideXOS.obj
 0005:0000a068       __Str_Eurosoft__UK__EA1DECBBDB5542C2F06DD5BF2A8F1236EF634D43EB56E8082B5E1EB1BFC01828 0000000010056068     guideXOS.obj
 0005:0000a098       __Str_Evans___Sutherland_9DD54E8C694F7CA50DC82E3F9C8746CFB02E7EB04A530BEE9BBE64FEAA08D48A 0000000010056098     guideXOS.obj
 0005:0000a0d8       __Str_Everex_Systems_Inc_5EA17B060417C8FE2D1093DB3B352AF042B9B1E5A2CF0B5CD598AB8062002AEB 00000000100560d8     guideXOS.obj
 0005:0000a118       __Str_Evergreen_Technologies_Inc_299132823C3F4EA12CC9EE6123297D762DF6E44D7ADE10AA75E2C31F57723130 0000000010056118     guideXOS.obj
 0005:0000a168       __Str_Exar_Corp_35D76E399C0E0424229D0B55A852C4D75488206461C1A98CF585015D2627E82C 0000000010056168     guideXOS.obj
 0005:0000a190       __Str_Excel_Switching_Corp_B9B832FF3F8FF7CC7347709C3315C5FDD7BDAD56CCA699D44E915BED13CB05C9 0000000010056190     guideXOS.obj
 0005:0000a1d0       __Str_Excellent_Design_Inc_33E716DC6BCF8CE6391B800D9C3961FD097B71E30DB82E74382BFA82D0242543 00000000100561d0     guideXOS.obj
 0005:0000a210       __Str_Extreme_Packet_Device_Inc_55B15181BAB577FA87933D26FEC151417A8530C10F3D22FE3F0676751D1DDFFC 0000000010056210     guideXOS.obj
 0005:0000a258       __Str_F5_Networks_Inc_8116F8929D331C48E5E5B463DF3CDBEAA4AB6743EA25B12E3AEDB3E9DFD9701D 0000000010056258     guideXOS.obj
 0005:0000a290       __Str_FConsole_Constructor_765B8F4DB177CF752FC1FA068D4D6956648A267A4753A185A548DB7F97B9F8B2 0000000010056290     guideXOS.obj
 0005:0000a2d0       __Str_FERMA                00000000100562d0     guideXOS.obj
 0005:0000a2f0       __Str_FIC__First_International_Compu_881D4E2E2C8DA4A6644C7AE2AE2E7C6976B8E7949CF85E081F222016681C300A 00000000100562f0     guideXOS.obj
 0005:0000a358       __Str_FORE_Systems_E7F4C0AFAB5BB750518C32522F1BECA7B1840178699DCF5BAF283FE8F05BFEA4 0000000010056358     guideXOS.obj
 0005:0000a388       __Str_FWB_Inc_25DBDC846CE02C4B48177A71537740E8EA8EA0BF28392334BAE2A416FE4318A3 0000000010056388     guideXOS.obj
 0005:0000a3b0       __Str_Fairchild_Semiconductor_C87E760A4207169D4C14730D0037E10E6EF726C006A834FC41EAC53909092613 00000000100563b0     guideXOS.obj
 0005:0000a3f8       __Str_Fanuc_Co_Ltd_D07605609A3315DA555A02ECEEDB79C5FD42C645506384786ED7CC9D49189298 00000000100563f8     guideXOS.obj
 0005:0000a428       __Str_FarSite_Communications_Limited_803A0A8CC38B6F6556BB5EEC1E3F3D3F7988163D4828FE06EA1DAEB4F9A1F458 0000000010056428     guideXOS.obj
 0005:0000a480       __Str_Faraday_Technology_Corp_C81EE8375D3785DC802C104DCD3C61181167AC0FCF0AACAC0C675B6EAA706B3B 0000000010056480     guideXOS.obj
 0005:0000a4c8       __Str_Fast_Corporation_D68EBC9794596D37BC15EFFB27C900097EF7EA490CF2FAFA67C05349834504B9 00000000100564c8     guideXOS.obj
 0005:0000a500       __Str_Fast_Electronic_GmbH_7B17BE47E20464CAFF34C2BCA42EB7F11B1FFD0C9E0BD6B44759487DADD96737 0000000010056500     guideXOS.obj
 0005:0000a540       __Str_Fastfame_Technology_Co_Ltd_020601763DE6891048317F073CAD0EE01A1A8A177331D3A1A2EC580573406993 0000000010056540     guideXOS.obj
 0005:0000a590       __Str_Fastpoint_Technologies_Inc_30F960F55ECADF2D8BA5F756D11F5193AE1C5A149E62036224DE6AA7A5094798 0000000010056590     guideXOS.obj
 0005:0000a5e0       __Str_February             00000000100565e0     guideXOS.obj
 0005:0000a608       __Str_Feedback_Instruments_Ltd_7C512D69DEB37529B0DE312D5B6D81B61DE34A4E38658FBDC3F1751F9D5E390D 0000000010056608     guideXOS.obj
 0005:0000a650       __Str_Filanet_Corporation_77B7756176D97663D4717ECECA7ED9461FB985F20C1F0C5B8F0F9C8842A106FD 0000000010056650     guideXOS.obj
 0005:0000a690       __Str_Filco                0000000010056690     guideXOS.obj
 0005:0000a6b0       __Str_Firmworks            00000000100566b0     guideXOS.obj
 0005:0000a6d8       __Str_First_International_Computer_I_7FE9CDC3FC93AB6FAB94B64D5F724D9C26F79627D17F13F5633A95912E241D6F 00000000100566d8     guideXOS.obj
 0005:0000a730       __Str_First_Virtual_Corp_E7F801DE2AB1C75638C3651666CD24B18333934CD664C13A05A728867E01A11E 0000000010056730     guideXOS.obj
 0005:0000a770       __Str_Fishcamp_Engineering_52EE8A76E4D758D961658D5EC0DE7ABD5ADB1E11554E992775BFE6593924FCBE 0000000010056770     guideXOS.obj
 0005:0000a7b0       __Str_Flytech_Technology_Co_Ltd_EB9E1EE5573C8F39A7B50D72204C1E119FA853CF1C9A9B43B5A79A3237A5FF28 00000000100567b0     guideXOS.obj
 0005:0000a7f8       __Str_Folsom_Research_Inc_1C57747736EA3441FAA5B068EA08BE0CAE257857657873F71CCE82B8EAA01C63 00000000100567f8     guideXOS.obj
 0005:0000a838       __Str_Fonts_Song_btf_0C2E893F617D84DF7BA042768AED505263F35F39AABC5A36163E5151AB8C3C24 0000000010056838     guideXOS.obj
 0005:0000a870       __Str_Force_Computers_DB9855B1E54FF998EE2BAA55729FF2A658617064E3E1CFA3CB4F9A629C5844E0 0000000010056870     guideXOS.obj
 0005:0000a8a8       __Str_Forex_Computer_Corporation_6A26E0382C930CFCDF12B3AB567054A3707D862D77163793C52F93645480AB6C 00000000100568a8     guideXOS.obj
 0005:0000a8f8       __Str_Forks                00000000100568f8     guideXOS.obj
 0005:0000a918       __Str_Forks_Inc_1A7BCCED460E91CFADF956AFF04DD21D614FE20765396BD702C88C87FD1849B2 0000000010056918     guideXOS.obj
 0005:0000a940       __Str_Formation__Inc_89EE54B033BE2C2042AB0E1B298CAB4C1EFB06C87EDC159C41355724B03B58B1 0000000010056940     guideXOS.obj
 0005:0000a978       __Str_Forte_Media_D7C92A017ED00D11963800038BDC9B893FDB414C412B1BB4C37358F62C07BFC9 0000000010056978     guideXOS.obj
 0005:0000a9a8       __Str_Fountain_Technology_471D3645F4A27DA02511DB63367BD1518088A7738A8D202D4178BE2BA993039F 00000000100569a8     guideXOS.obj
 0005:0000a9e8       __Str_FourFold_Technologies_89894C86F5972FD1F03058FF41BFA9FA9E182B2383F70466EDB0E401F787AB32 00000000100569e8     guideXOS.obj
 0005:0000aa28       __Str_Free                 0000000010056a28     guideXOS.obj
 0005:0000aa48       __Str_Fresco_Logic_Inc_F72534EDAED5BEC10149CCEA5815DBF9326E58CB960CDF157F745D33E53D3AD2 0000000010056a48     guideXOS.obj
 0005:0000aa80       __Str_Fuji_Xerox_Co_Ltd_F7B413ED91DB0DD226A593262CAF9D56B6868BF854651725B9CC98C553D13BB6 0000000010056a80     guideXOS.obj
 0005:0000aab8       __Str_Fujifilm             0000000010056ab8     guideXOS.obj
 0005:0000aae0       __Str_Fujifilm_Microdevices_96B259B0745FDFD058D86743C98002EEFCC9F9731D5E6C03A83F206F1E0A3192 0000000010056ae0     guideXOS.obj
 0005:0000ab20       __Str_Fujikura_Ltd_9A40C3C946D408C8D437AC8F50CA17A8BF50245DFE4BD7FD71493C87013B03BC 0000000010056b20     guideXOS.obj
 0005:0000ab50       __Str_Fujitsu_Computer_Products_Of_A_846DB319718FE44F57AB5FB1667654FB1047299011B91EBCF95A269859D9B89E 0000000010056b50     guideXOS.obj
 0005:0000abb0       __Str_Fujitsu_ICL_Computers_391CA6AFE89222A8BD287A6551F56DEDEED3086D006C6E9AAF43067D9EFCFA7E 0000000010056bb0     guideXOS.obj
 0005:0000abf0       __Str_Fujitsu_Ltd_DFCB76B9157ECF8FA2BC977EF4A5D02836846D24B5CD2691628C5226242A7F18 0000000010056bf0     guideXOS.obj
 0005:0000ac20       __Str_Fujitsu_Microelectronics_Ltd_96312B0C119D65B9D731B22E2C8CB748BF20B79A63F21E90503D9D3C9544B0B1 0000000010056c20     guideXOS.obj
 0005:0000ac70       __Str_Fujitsu_Siemens_1B32222FFAD5C77F39A88F4864B4452ADC3A664C92DAD30305AA5A89683724DB 0000000010056c70     guideXOS.obj
 0005:0000aca8       __Str_Fujitsu_Siemens_Computers_GmbH_385A20B3E60A728C9342D562937D7D3AAC4BBF4152D078D22E176C85548A2738 0000000010056ca8     guideXOS.obj
 0005:0000ad00       __Str_Fundamental_Software_Inc_B7C7A03883CE107885E7B86E6DC420E25AF4145A1624D70ECC9BA03354F10A0A 0000000010056d00     guideXOS.obj
 0005:0000ad48       __Str_Futronic             0000000010056d48     guideXOS.obj
 0005:0000ad70       __Str_Future_Domain_E9536502C249AA96909F1B315D385E4CAA9459679CC4E070DE6652B9440CBAF6 0000000010056d70     guideXOS.obj
 0005:0000ada0       __Str_Future_Tel_Inc_D24EB7196C00D8B8D02CCFE551F3B84B3E74482FF428AA15B81551E9FEBAAD52 0000000010056da0     guideXOS.obj
 0005:0000add8       __Str_Future__Systems_8702D1C9155F2BBE06A1A4D8B639952E72235D01406ED955FAD6F9433C639329 0000000010056dd8     guideXOS.obj
 0005:0000ae10       __Str_G_Force_Co_Ltd_62BAC8791DC0CB193F582CDDACBCCDA61697068B4E23B78F688484EFD6A26D2A 0000000010056e10     guideXOS.obj
 0005:0000ae48       __Str_G2_Networks_Inc_67B581E7058F9F60C9E7828F447DDD12FB2DD4A0DE75DD23C15BD2A5FEB721FD 0000000010056e48     guideXOS.obj
 0005:0000ae80       __Str_GDE_Systems_Inc_7F7DF3C10B142ED658A1C606A1F03DB9101EFE62015659D2B0419B1744AAB99B 0000000010056e80     guideXOS.obj
 0005:0000aeb8       __Str_GE_Spacenet_7370E284522CAE488BBB8EAFCC20A0EF7FE2FD248A8AFBF4E392C61AC7CA02C6 0000000010056eb8     guideXOS.obj
 0005:0000aee8       __Str_GENERAL_PROTECTION_8D0356CF6D03FD20FD9501FFF77BCB0EE6F4A84DDE8C5B8CD0FEE47094CDD3E5 0000000010056ee8     guideXOS.obj
 0005:0000af28       __Str_GET_Engineering_Corp_8C47E4D2BDAF5BF7F69A645C341989F817D3C5A2C2D090BD2EEA56BD650412A3 0000000010056f28     guideXOS.obj
 0005:0000af68       __Str_GIT_Co_Ltd_3B88BEAA28CCB08C9B3FDAA6384AE47799BBF2A42BED2B997F404BFFB59AE226 0000000010056f68     guideXOS.obj
 0005:0000af98       __Str_GMM_Research_Corp_0C3EE88CFB92716CA98C1840498D63E675C6C56BC13CC659C119561001E24968 0000000010056f98     guideXOS.obj
 0005:0000afd0       __Str_GVC_Corporation_E36F3A43D77C59615339F7FBD3F3271A96864EB78B9541B9E972164943EB7302 0000000010056fd0     guideXOS.obj
 0005:0000b008       __Str_GVC_BCM_Advanced_Research_1CD4291BDDAA26A0E90F61D10501E365CC972FB514C978309943D5117B703CF1 0000000010057008     guideXOS.obj
 0005:0000b050       __Str_GW_Instruments_C34BAB6A5300FEF6A46318F6BB470BFD1E97816A407B63857A5FB1A4271CAEAA 0000000010057050     guideXOS.obj
 0005:0000b088       __Str_Gage_Applied_Technologies_B8353761204B0CD2A11E76CAEC0F629BA12EEA4B623CB4AB311651B2C930360B 0000000010057088     guideXOS.obj
 0005:0000b0d0       __Str_Gainbery_Computer_Products_Inc_F0EA2A6357B5ED106CD4168D54989B5AABDCF7E3D9B82E762D64505D2DF0FDB2 00000000100570d0     guideXOS.obj
 0005:0000b128       __Str_Gainward_GmbH_BEE468DC3B19101E66B89C7ACACD743045B0CD27065C92B5E68988C084A4BF5D 0000000010057128     guideXOS.obj
 0005:0000b158       __Str_Galea_Network_Security_674DF5A3EB3FB477F48F8F88F47A94AF87806DEC99B4558D3A8B5457080AACFB 0000000010057158     guideXOS.obj
 0005:0000b1a0       __Str_GammaLink            00000000100571a0     guideXOS.obj
 0005:0000b1c8       __Str_Gammagraphx_Inc_4727038CD7ED4C4FAF9F025C6A1D44F22121DE9F825664AD2BBE177B301A80D0 00000000100571c8     guideXOS.obj
 0005:0000b200       __Str_Gatec                0000000010057200     guideXOS.obj
 0005:0000b220       __Str_Gateway_2000_67008035DDE72E03E67C0786A6BBA3144E21CDCD7DDDB00515BC1FD798B3F584 0000000010057220     guideXOS.obj
 0005:0000b250       __Str_Gec_Plessey_Semi_Inc_9D41B628A8B7A82183D96444749DB73A455573447BE73E68D799B9C1E69D3B80 0000000010057250     guideXOS.obj
 0005:0000b290       __Str_Gemflex_Networks_1B02FED7C2AB1DF51428728B331EECB466FA2D8C8C977DC4DF82032B66735F03 0000000010057290     guideXOS.obj
 0005:0000b2c8       __Str_Gemlight_Computer_Ltd_69725A948156D61C5F75F0DA9B106C39E8A03216517BC53034997E6475809A86 00000000100572c8     guideXOS.obj
 0005:0000b308       __Str_General_Dynamics_2B301561D05BC9E54819629FFFA11EA790075601EB6EC762559AC5EF8B6ED487 0000000010057308     guideXOS.obj
 0005:0000b340       __Str_General_Dynamics_Canada_A306224A20D7093D8C457B6B5B92476E0BB78E27DA35B100DF417F55804367A1 0000000010057340     guideXOS.obj
 0005:0000b388       __Str_General_Electric_8A6A6B2928895F157FA9DEA019829CA3DF48947FBCD1E6C1700EF603852B1346 0000000010057388     guideXOS.obj
 0005:0000b3c0       __Str_General_Instrument_9552A453574A45769BAB4D839B84BA1999520E5BD05E652826501E00769E9A0D 00000000100573c0     guideXOS.obj
 0005:0000b400       __Str_General_Signal_Networks_56576B56D23056C9873D8D35880AD0FF405E90098F9041852219EC80B6AB07F8 0000000010057400     guideXOS.obj
 0005:0000b448       __Str_Generic_system_peripheral_F5A2A8D00322A4A76D2530D793FBAC15DD860EE1B1108A654DB3A495D44DD3A9 0000000010057448     guideXOS.obj
 0005:0000b490       __Str_Genoa_Systems_Corp_07E79FA9CD38601163C8DA2F4E4BF58FF5310BE6C9ABEAAAC3B1D8C0A6F7DC67 0000000010057490     guideXOS.obj
 0005:0000b4d0       __Str_Genrad_Inc_191BED4EF3469C60EEAA6D947F4C9E2F97CDFA4C8B54288E4EF9F0E5DF8A2DA8 00000000100574d0     guideXOS.obj
 0005:0000b500       __Str_Genroco_Inc_7942BE393EE3E2BDC681BCD8754856C5293FADD503BA5A4869C769804A7AB942 0000000010057500     guideXOS.obj
 0005:0000b530       __Str_Geocast_Network_Systems_Inc_BF34DCDD2B07D28F7CA64D12D7203A856CAFFDE518E647645DE1C00D271FA686 0000000010057530     guideXOS.obj
 0005:0000b580       __Str_Gespac               0000000010057580     guideXOS.obj
 0005:0000b5a8       __Str_Gesytec_GmbH_7590E390E902390775FBD8AAA6237AC11AE0233F1942543AF552FF3454BE8371 00000000100575a8     guideXOS.obj
 0005:0000b5d8       __Str_GetTick              00000000100575d8     guideXOS.obj
 0005:0000b600       __Str_GetTime              0000000010057600     guideXOS.obj
 0005:0000b628       __Str_Giga_Byte_Technologies_A17A47384A44E0EDA81C8E2020767A64044CE64567018E1B83A92BFE904D2E31 0000000010057628     guideXOS.obj
 0005:0000b670       __Str_Giganet_Inc_21B0A5A32EA90EB9AD2B11F910A9158466CE0BA3A71C9052B49F5C9779B29811 0000000010057670     guideXOS.obj
 0005:0000b6a0       __Str_Gigapixel_Corp_E01B0B9993C7605FC2CC73A77925CB3AA67E8F29B7A6F97755BB731678604E21 00000000100576a0     guideXOS.obj
 0005:0000b6d8       __Str_Gigi_Operations_00763D80295D4A15D3EA78A6C05E2587159DB08581704849158CD7A4E15421CA 00000000100576d8     guideXOS.obj
 0005:0000b710       __Str_Gilbarco_Inc_2E9386ED20ED9FC122DCD1A125DDEC4867164503E6862C12053E88F2BB9F822A 0000000010057710     guideXOS.obj
 0005:0000b740       __Str_Global_Brands_Manufacture_Ltd_3C9DAD1D606E5E8B5645E0A57B67D0266375D89D8E13F9AC76D013968FA579E3 0000000010057740     guideXOS.obj
 0005:0000b790       __Str_Globe_Manufacturing_Sales_2F2C3E632AAC55A0F7453D603CD9B6296915DD0243F7F22A43CE090B1C96790A 0000000010057790     guideXOS.obj
 0005:0000b7d8       __Str_Globetek_Inc_F70E07523B73B6CB6E0CF660F4AB1C886B22E37A51E48E59F26C609DFC4293E5 00000000100577d8     guideXOS.obj
 0005:0000b808       __Str_Glotrex_Co_Ltd_89DD6A8EF2004E5E3BFF7F2A9ADC1CCBE6ADA0AC088F467FF05654A42DF97132 0000000010057808     guideXOS.obj
 0005:0000b840       __Str_Goldstar_Co_Ltd_331D27E3D2A690191D1127D9223B2E72E762A1004D278051579FA49DFE6E18B5 0000000010057840     guideXOS.obj
 0005:0000b878       __Str_Granite_Microsystems_D0C63D9E3181A3547C1A1896739BD88DF82CA2EBFB82ABA2503713C14B56E309 0000000010057878     guideXOS.obj
 0005:0000b8b8       __Str_Granite_Systems_Inc_D90C57FB486F20068BB71B62BF4E17122F7D7ECDF726D42E33387D1059D83CEF 00000000100578b8     guideXOS.obj
 0005:0000b8f8       __Str_Graphics_Microsystems_Inc_CD50AFF2F6A8C1812377B64FC7CA5B5EEE7CD1713998A7675673194F4693DE3A 00000000100578f8     guideXOS.obj
 0005:0000b940       __Str_Graphin_Co__LTD_25DD54E23F04B4C1612305D6AE537EE504596E2871B70ABA2C3502AAFDC9B4CF 0000000010057940     guideXOS.obj
 0005:0000b978       __Str_Green_Logic_27B32B0CB008645E42A851C08F18EC68D6AA3B5A69DD23B62882FECEC13D27DE 0000000010057978     guideXOS.obj
 0005:0000b9a8       __Str_Growth_Networks_3FB42821D410623014750540033428EF7FD38B10BD60DD690945BAFA0C697DAD 00000000100579a8     guideXOS.obj
 0005:0000b9e0       __Str_Guzik_Technical_Enterprises_4D2235A5029932F2D3471613E40BBDD5FE32477AA42A76FEB3EE12E40AD20709 00000000100579e0     guideXOS.obj
 0005:0000ba30       __Str_HAL_Computer_Systems_Inc_DFFAA5C1DF26208EA6591C9F419F28862734A90151B77F387D188BE0C7E8C873 0000000010057a30     guideXOS.obj
 0005:0000ba78       __Str_HI_FN_Inc_6B50519DF5882732827FC3D6E663348FD97774DE940DE984100C2509BB912CDF 0000000010057a78     guideXOS.obj
 0005:0000baa0       __Str_Hajime_Industries_Ltd_688C1326E3632A9997B55CC623F5738D52BDBA58D2D704BABF3248579E0D5F68 0000000010057aa0     guideXOS.obj
 0005:0000bae0       __Str_Hamamatsu_Photonics_KK_73D9D410872D182471785B4FA1FF1071013926CE63B7DCEE3403D7A95DEFE598 0000000010057ae0     guideXOS.obj
 0005:0000bb28       __Str_Harlequin_Ltd_A6A9A4B4C88EFC625CFE813EA4176A34BDE7C158A5798861D0E6068AF609BD75 0000000010057b28     guideXOS.obj
 0005:0000bb58       __Str_Harris_Corp_5F9E8F133C4455EFF0DB3AA9B0B9D18B07F93B9CBEF682A2FB97D65DDA48A3F8 0000000010057b58     guideXOS.obj
 0005:0000bb88       __Str_Hauppauge_Computer_Works_Inc_F56E1B2905D41BFC8D3415E17FEF21A6ACAF9DD30337966B6E6FA92ADED11051 0000000010057b88     guideXOS.obj
 0005:0000bbd8       __Str_Heidelberg_Digital_LLC_6C496F87AED4B33EA41659AF9007D240D1E5BF8CDD85616F58E1C58C20BF35B0 0000000010057bd8     guideXOS.obj
 0005:0000bc20       __Str_Height               0000000010057c20     guideXOS.obj
 0005:0000bc48       __Str_Hello_from_exe__1F7CE0FD93E65615A080617D357E4CF78B774C91E634F739EC761B02253D5E92 0000000010057c48     guideXOS.obj
 0005:0000bc80       __Str_Hercules             0000000010057c80     guideXOS.obj
 0005:0000bca8       __Str_Hercules_Computer_Technology_294607D5F61C6D1300BA2A0621158DC898977FA8CC0A8637B74C191CA8C4C344 0000000010057ca8     guideXOS.obj
 0005:0000bcf8       __Str_Hermes_Electronics_Co_Ltd_DA3F2283E3980E1BD40A90921872395FF72C13E1B808734AC94AF10DF6A6B5D3 0000000010057cf8     guideXOS.obj
 0005:0000bd40       __Str_Hermstedt_AG_0D6C31A333669DAA00AEDADC902B129CF94E3B41414DD7EC5CF418E1E9C38819 0000000010057d40     guideXOS.obj
 0005:0000bd70       __Str_Hertz_Systemtechnik_GMBH_5B9F1756311B9F746AC2C52BFBC08E5674E8CDFE657F13E5246E1AF4B676608B 0000000010057d70     guideXOS.obj
 0005:0000bdb8       __Str_Hewlett_Packard_DE3363686FBE49CDEFD99C212FEABEE84BAE2E23D3601629362BF3DD03B32787 0000000010057db8     guideXOS.obj
 0005:0000bdf0       __Str_Hewlett_Packard_B4755DFD2A4EA28E51F96E588273A7B2D477851DEE8B9AADD93BAC694AA6314A 0000000010057df0     guideXOS.obj
 0005:0000be28       __Str_High_Street_Consultants_BA9D1510C457B7DA4282FA07EDE815BFE8295F175893363958DCEDBF1CAAFC28 0000000010057e28     guideXOS.obj
 0005:0000be70       __Str_High_Tech_Computer_Corp__HTC__87ED2631BB82B9E396AC0C381C47B2E6B4B2FD10C942D2749D6FB0D6AEEE4335 0000000010057e70     guideXOS.obj
 0005:0000bec0       __Str_HighPoint_Technologies__Inc_5B6F707F4FD4B334C23157C5CEBCC0CBC5477CB8AB86FBACCA2F7C9A1E4406CC 0000000010057ec0     guideXOS.obj
 0005:0000bf10       __Str_Highland_Technology__Inc_E015A62801E997AE0B2943DC156832E016257C778F940B6ABC65C8AE6EE4F35E 0000000010057f10     guideXOS.obj
 0005:0000bf58       __Str_Hightech_Information_Systems___174C7C5FE587F92B476327E0636B91E8BCFF3FC27F63AD22EFD58B87219EA8A1 0000000010057f58     guideXOS.obj
 0005:0000bfb0       __Str_Highwater_Designs_Ltd_016E358A60A7B9A6BA25AD1EF4CBEE1D21AE45364F18719193EFDB1C7F216BC2 0000000010057fb0     guideXOS.obj
 0005:0000bff0       __Str_Hilevel_Technology_D8C8183EC99182DA2F7B9B3047A00D8026CC646E4F16B81C9A80FDD20E900D4A 0000000010057ff0     guideXOS.obj
 0005:0000c030       __Str_Hilscher_GMBH_8B86F2A141C12988A71C71A14BDC12425505A2769B540FCBCDE9D107785FB842 0000000010058030     guideXOS.obj
 0005:0000c060       __Str_Hint_Corp_427415C7AE41AD7B880729275F0B0DF2F664616977E2524B7AB76E51A2AF6A07 0000000010058060     guideXOS.obj
 0005:0000c088       __Str_Hirakawa_Hewtech_Corp_B02A6856709C8FE45DD5B5EB5DF81301EE25E194D832F37F90B5B35BC6B0A021 0000000010058088     guideXOS.obj
 0005:0000c0c8       __Str_Hitachi_Computer_Electronics_C2D7603619987EA039C28600C15A322500A49499D7639B3B482BF05618C2E93C 00000000100580c8     guideXOS.obj
 0005:0000c118       __Str_Hitachi_Information_Technology_5E3DD1DBE557B23E50E896A3909A97F6AE103BFBF466E7565BF947B0AEE3C73A 0000000010058118     guideXOS.obj
 0005:0000c178       __Str_Hitachi_Ltd_DC08D72CF88F4B36E21D43E3DCD92E52A2A32E0016E32831DDF1FA21170F0E85 0000000010058178     guideXOS.obj
 0005:0000c1a8       __Str_Hitachi_Micro_Systems_Inc_D705AA1B6647115DCABA70F709A915A748BEF8C9F0C13E680A4A492D0FB5BE26 00000000100581a8     guideXOS.obj
 0005:0000c1f0       __Str_Hitachi_Microcomputer_System_L_5E1EF2FA43840994AAC52FB2F497C92F02BBE20C025F550F62ED99919074D705 00000000100581f0     guideXOS.obj
 0005:0000c248       __Str_Hitachi_Semiconductor___Device_F1E7B156DD2171E14B2DC69E139C7F018B8D8FB9238BAAA2BB7575273D09BA31 0000000010058248     guideXOS.obj
 0005:0000c2b0       __Str_Hitachi_Zosen_Corporation_7B881C77594FA3BC5317C627F530283DB4250E6DFE23DD143201C70EB6CC5B06 00000000100582b0     guideXOS.obj
 0005:0000c2f8       __Str_Hitt                 00000000100582f8     guideXOS.obj
 0005:0000c318       __Str_Hivertec_Inc_34129C94404E2015386FECB0384A3C7E39ED2F36DE8938F4C614F4E70825E8C6 0000000010058318     guideXOS.obj
 0005:0000c348       __Str_Holtek               0000000010058348     guideXOS.obj
 0005:0000c370       __Str_Holtek_Microelectronics_Inc_C0E8F35B8FA80DA04AFB62F7B7229988EB868C5F4A299E1E9B04B889D1F7F055 0000000010058370     guideXOS.obj
 0005:0000c3c0       __Str_Honeywell_IASD_400FCD924C7A3A4137D390F046919653BBEB5A8D8AD279167F96C2D417A6D364 00000000100583c0     guideXOS.obj
 0005:0000c3f8       __Str_Hopf_Elektronik_GMBH_BC237BC797384A2344808A1EDB473F5F6930C7A63FE0593779FD5D5F735F8609 00000000100583f8     guideXOS.obj
 0005:0000c438       __Str_Hotrail_Inc_B9A352D807C9B60F789078FC62EF62FD6DFA6D5965802BC3705782CAE0113B3E 0000000010058438     guideXOS.obj
 0005:0000c468       __Str_Hsing_Tech_Enterprise_Co_Ltd_ECF33D8B1F37DA5A64442B8BDF6EC3342F8EEEFDFF9D34141D4DCF53B0F5F264 0000000010058468     guideXOS.obj
 0005:0000c4b8       __Str_Htec_Ltd_B95293A810713AF30D65476589CF46EA66E6D15A0B01275983E688946CF44CB6 00000000100584b8     guideXOS.obj
 0005:0000c4e0       __Str_Hualon_Microelectronics_95BB9D106822A2E99E7FAE01E463169E5608969EF098D4648B743C91431C915B 00000000100584e0     guideXOS.obj
 0005:0000c528       __Str_Huawei_Technologies_Co__Ltd_F181426EF66724911C2179EEFC0CA8E8D3906E689B99B606B2D4EF99D861580A 0000000010058528     guideXOS.obj
 0005:0000c578       __Str_Hudson_Soft_Co_Ltd_0B452B3873F56A1F501096457206CBCB62CF65C235B93C3309F61F236170315F 0000000010058578     guideXOS.obj
 0005:0000c5b8       __Str_Hughes_Network_Systems_64B837F03CE4B20BED2BD70BC5F0A98826ECA12E355020099D2EFC8CEB488A81 00000000100585b8     guideXOS.obj
 0005:0000c600       __Str_Humusoft_SRO_D8B4C112FDF78ACD4781C28EA025EBB3169B988ADE2233A26703ACF2CF5F9BBC 0000000010058600     guideXOS.obj
 0005:0000c630       __Str_Hybricon_Corp_1464BDC34B3E2C71F35F90C0CB8329041CE0A8BFD6315F2A1961AB29BE292BDF 0000000010058630     guideXOS.obj
 0005:0000c660       __Str_Hypercope_Corp_AF7A5B608F8D8621AA7A3B4A01CFC52105DB9FE2D17CB4114D5EEFE43FCF40FD 0000000010058660     guideXOS.obj
 0005:0000c698       __Str_Hyperparallel_Technologies_5B766BC0113B7EF9A3E771DA623A77B25AE3D2ABCD5E2CE5AE151288B11D44F9 0000000010058698     guideXOS.obj
 0005:0000c6e8       __Str_Hypertec_Pty_Ltd_5715AC06B67A71DA71E46370A79582FFBFB446DC4FFBC78134E69E088E9C521C 00000000100586e8     guideXOS.obj
 0005:0000c720       __Str_Hytec_Electronics_Ltd_3CD8D7B9E2BFEE60DCF7E2CD34A5C351D9F1620E7B0AB630B369DB76C4E4AB16 0000000010058720     guideXOS.obj
 0005:0000c760       __Str_Hyundai_Electronics_America_058F5C27A98467BB6E886D085EF6F7786AEE8543C39A7181C4FDAC6DF24078A6 0000000010058760     guideXOS.obj
 0005:0000c7b0       __Str_Hyundai_MultiCAV_Computer_Co_L_4F055C18081412B9EBFB4CBDE1D4C548CBC97FE77E4139ED9034ADBD95EA3C48 00000000100587b0     guideXOS.obj
 0005:0000c808       __Str_Hyunju_Computer_Co_Ltd_A56BD3FA49767BCB0485026F97357A13E9352AF2198638E46B1CDAA8BAD0D4A0 0000000010058808     guideXOS.obj
 0005:0000c850       __Str_I_Bus_B89A5D28957C7B61D1A94E4424F5A15FF94BE3707A96A207357E8762B323E8CE 0000000010058850     guideXOS.obj
 0005:0000c870       __Str_I_Cube_Inc_23A8FF1ACE62E676D18D1CA29608B9F5230C0F0958261230E3E7DB09E30370C9 0000000010058870     guideXOS.obj
 0005:0000c8a0       __Str_I_Data_International_A_S_B2357AA5DFB3B623A72F39DA6D9BB860BD4576B7B886B0851B0AF29F9615B62F 00000000100588a0     guideXOS.obj
 0005:0000c8e8       __Str_I_O_Data_Device_Inc_FFA2545BA20D14EB05D4D66DA2A15BBA26AFEFA86C7B65B77EE967106F34D3E7 00000000100588e8     guideXOS.obj
 0005:0000c928       __Str_IBM                  0000000010058928     guideXOS.obj
 0005:0000c948       __Str_IC_Corporation_2C59D6A68335127B75EC9FC831A03ABD6FC1787DB8D31AE48D7CB8AA55F63794 0000000010058948     guideXOS.obj
 0005:0000c980       __Str_IC_Ensemble__Inc_C3B590697ABF59C2B4FC4EB619AF197E90E955BE5D079CB1642E9C9027BF9332 0000000010058980     guideXOS.obj
 0005:0000c9b8       __Str_IC_Plus_Corporation_AAB6E4BEE435A4E7C42807152D761100770C26660B97D6C48DE63166EA7C897E 00000000100589b8     guideXOS.obj
 0005:0000c9f8       __Str_ICL                  00000000100589f8     guideXOS.obj
 0005:0000ca18       __Str_ICM_Corp_Ltd_FE81B2E995E32FF0A690F7C6B512707480286F979D3FD8F3A3C5CA14D5F2CC05 0000000010058a18     guideXOS.obj
 0005:0000ca48       __Str_ICP_vortex_Computersysteme_Gmb_57FA5847C35EE4B77BFCF02F4DF0B44F66DF529221366BB8ED64A78AFC3C542A 0000000010058a48     guideXOS.obj
 0005:0000caa0       __Str_ICS_Advent_C76C8D93A43DD69F39D9D0D90B561B44CFF022F09046E6ECAA2AE3958E855E04 0000000010058aa0     guideXOS.obj
 0005:0000cad0       __Str_IDE_bad_status_A4340D590FA84CCD8C75301D057B2E518ABCEA7EA8522D4B3D5C33ABEBBDC062 0000000010058ad0     guideXOS.obj
 0005:0000cb08       __Str_IIX_Consulting_6ECC0056AA1EEF41C51C2F61A9D5EE1E78A75034EC1A9EFA80A35717FA8966B0 0000000010058b08     guideXOS.obj
 0005:0000cb40       __Str_ILC_Data_Device_Corp_66F1D92B735E84B83AFDCCF9BC34E465F118A1C27D74A9584E9BE7830F82FACC 0000000010058b40     guideXOS.obj
 0005:0000cb80       __Str_IN_Win_Development_Inc_BDA15120DD70508B3820186CBB6D377C9E77412C687AB7E8886E73E47CF3F2D4 0000000010058b80     guideXOS.obj
 0005:0000cbc8       __Str_INH_Semiconductor_2B6CBF0E796075B50A6728B0E3ECC21D08390BBF120F9A7A94395200E06D90DE 0000000010058bc8     guideXOS.obj
 0005:0000cc00       __Str_INPROCOMM            0000000010058c00     guideXOS.obj
 0005:0000cc28       __Str_INVALID_OPCODE_54C9591B5203C421C322A7A77E8C2F0AE28E0F9288BC942670E066AC6B19994B 0000000010058c28     guideXOS.obj
 0005:0000cc60       __Str_INVALID_TSS_C62F37B994D6314510E6F050579212502983A0D22E662A0176CBB15DABFE9B12 0000000010058c60     guideXOS.obj
 0005:0000cc90       __Str_IOI_Technology_Corp_16182D15FDBFACEDEE0D40381F774512CA0C36D378F9C595D4E71634866BAA39 0000000010058c90     guideXOS.obj
 0005:0000ccd0       __Str_IPC_Corporation_LTD_0129102F068F83B176FCA9AAB2BC013773AEA1919030DB53FC3F67D0D8CE3A65 0000000010058cd0     guideXOS.obj
 0005:0000cd10       __Str_ISS_Inc_94477F915B9ECC7735CB5485D22BAB38C036F5FEF395ECB56D679534E7683FE7 0000000010058d10     guideXOS.obj
 0005:0000cd38       __Str_ITEC_Co_Ltd_66F78E35AD164B3D0C9D33CC93C2B096FBF07257F0DD81FD5C25DBCD7170D469 0000000010058d38     guideXOS.obj
 0005:0000cd68       __Str_ITT_Aerospace_Communications_D_016FDF992E3D105F6698285F4F642CEB36789F4EAC481C794E71EF071FC5EFAF 0000000010058d68     guideXOS.obj
 0005:0000cdc8       __Str_Image_Access_032835B698BB1811ECBBA5C89E16E9B23F411F0A93AF0D7A3F8C73908F450F55 0000000010058dc8     guideXOS.obj
 0005:0000cdf8       __Str_Image_Technologies_Development_0C1C393CC01A7639063FCD0035871B63FEAE5053F190BD29016E220727575FDD 0000000010058df8     guideXOS.obj
 0005:0000ce50       __Str_ImageViewer          0000000010058e50     guideXOS.obj
 0005:0000ce80       __Str_Imagenation_Corp_B72B75EEBEB57D900A6F3D1A49F4EE63D70ACDEC34827212746CAB8952D88488 0000000010058e80     guideXOS.obj
 0005:0000ceb8       __Str_Images_Audio_png_74DCFEEE7CF6863A244B3AE97ED22C3355BDF74963AB5B96B61DFC81F7150DBC 0000000010058eb8     guideXOS.obj
 0005:0000cef0       __Str_Images_Banner_png_D65648DCB25465A71819AA95FE8BE5190647EA988FE8A207514EF2959BA89CB0 0000000010058ef0     guideXOS.obj
 0005:0000cf28       __Str_Images_Close_png_E83BA82A5884CB22A3CCB427F09381AEA4C0483E53EFAD12DAFA935558F9D65A 0000000010058f28     guideXOS.obj
 0005:0000cf60       __Str_Images_Cursor_png_AC506033248495AC481F454E27FA40045B5573223CDC2A42EA4F26851E86782B 0000000010058f60     guideXOS.obj
 0005:0000cf98       __Str_Images_Folder_png_A184A63803BC2ACA9EB0C9C869798EE0056A34B852A7C7E2E2FB1F087EE21BEE 0000000010058f98     guideXOS.obj
 0005:0000cfd0       __Str_Images_Grab_png_8F484418E4D181663A730C2B76026CE3F684AC0645CDC8E26049E26AE7F2B9ED 0000000010058fd0     guideXOS.obj
 0005:0000d008       __Str_Images_Image_png_4164E816ECC04556E5EFCBBB1CEAA8733DDDBF1F2EE60E501FD88C3B5A286EF3 0000000010059008     guideXOS.obj
 0005:0000d040       __Str_Images_Wallpaper1_png_F60BA6270EFD7DA17BD24A11783598BA04D01FA7EEE624E0A24F9914709B1A31 0000000010059040     guideXOS.obj
 0005:0000d080       __Str_Images_Yahei128_png_76A2CBEC77C5D986807BC1880DF83C4C461D690EEDC26E89134B4DF7CB9674CA 0000000010059080     guideXOS.obj
 0005:0000d0c0       __Str_Images_audiopause_png_682D140B382B9E51E2D5E38B7D19D4F125C9852392685E3CBFE01733D990F4D4 00000000100590c0     guideXOS.obj
 0005:0000d100       __Str_Images_audioplay_png_3E4920191A2B0CB2BA3D13B350BD9D86EFF1AC9B614CAFD1541A7D2557504CEC 0000000010059100     guideXOS.obj
 0005:0000d140       __Str_Images_calculator_png_3552151D54DC673B766E92ADDE43F1D77C769384084C0314AADD18B2270F96D5 0000000010059140     guideXOS.obj
 0005:0000d180       __Str_Images_defaultfont_png_D08CDE5A44C00FCC7BBDA59C508F7685AC8EB36A5B426A8281B88068B272B16E 0000000010059180     guideXOS.obj
 0005:0000d1c8       __Str_Images_file_png_F66857A9BC0278AEA1628DCB0FF519FE2609C577FEEF7DB6000CA53DE19FF692 00000000100591c8     guideXOS.obj
 0005:0000d200       __Str_Images_taskbar_png_A560FC389C3BAC92F2B9ADD36F572CB9A41DA47CB0AA77B7708A79A9F4A0F08F 0000000010059200     guideXOS.obj
 0005:0000d240       __Str_Images_teamnexgenlink_png_E971834CD58DA7F6E244C5FF2E7857818E02FC43D9305A39E9B2ADBD086768BB 0000000010059240     guideXOS.obj
 0005:0000d288       __Str_Images_tools_png_1EB73DA82B70408EB77DF151942CF30341ACCDBD486F446CA1206ACFD25213F1 0000000010059288     guideXOS.obj
 0005:0000d2c0       __Str_Imaginant            00000000100592c0     guideXOS.obj
 0005:0000d2e8       __Str_Imagraph_Corporation_CBCF49C078EC6C246AB023AD28DE4FA416B75255049F799CA4F9A726E2A28C6A 00000000100592e8     guideXOS.obj
 0005:0000d328       __Str_Imation_Corp___Medical_Imaging_B53C65CE63524972812D58857755443035F872EA36A36CCF6A5654A90840BA27 0000000010059328     guideXOS.obj
 0005:0000d388       __Str_Imodl_Inc_1F8D88A29E0F207922E2DD4A2B2BC64C228C9D37E4A9091AA97316E1CF385428 0000000010059388     guideXOS.obj
 0005:0000d3b0       __Str_Impacct_Technology_Corp_58C1D52CC8137B059B5F510D5B549B02C5754E2BF90770C0417D1D1018C1A591 00000000100593b0     guideXOS.obj
 0005:0000d3f8       __Str_Impact_Technologies_103F566D4CF6EB9EDCFE250A4A1A6C578867F380E9E883E0AB11A938A1DDAA36 00000000100593f8     guideXOS.obj
 0005:0000d438       __Str_Inari_Inc_04E3EA3EAC9DE45E19295DFC23721B652AEF01D4E15693C3097329CB0B1121BC 0000000010059438     guideXOS.obj
 0005:0000d460       __Str_Index_Out_Of_Range_Exception_0108F3A5E7999B46899A5F2F4A926D277374A00B9411092F771E427BD0366012 0000000010059460     guideXOS.obj
 0005:0000d4b0       __Str_Indigita_Corporation_DCACB98FE9AD28697A5C293E18642BE4B41623AB4D5C104EF8F3DD34ABEB6ABF 00000000100594b0     guideXOS.obj
 0005:0000d4f0       __Str_Inet_Technologies_Inc_3DAB47C43518B4ECCE289BE8C7950E6A706851125915A7C269E77E67E538727D 00000000100594f0     guideXOS.obj
 0005:0000d530       __Str_Infimed              0000000010059530     guideXOS.obj
 0005:0000d558       __Str_Infineon_Technologies_AG_3AEDDA8E97408706FEF101E975780A07B26F1A015BDF4A4A907CA671B5D730E1 0000000010059558     guideXOS.obj
 0005:0000d5a0       __Str_InfiniCon_Systems__Inc_15FFD8B9F2EBB82B1730CE97F3A2B5036B90E2B0170099A1A639D4D67ECB12DB 00000000100595a0     guideXOS.obj
 0005:0000d5e8       __Str_Info_Tek_Corp_35CEBC9F40622BCDE5219C1811F53A24EC56B0EEE857CE1F0A7E9C9E5B7F507E 00000000100595e8     guideXOS.obj
 0005:0000d618       __Str_Info__USB_keyboard_available_3BB7FAB19C189ED71D64A3FD364A555867E2A2BBDBAAEE04A77B4D1EDF70ABB5 0000000010059618     guideXOS.obj
 0005:0000d668       __Str_Info__USB_mouse_available_7478997D3FA0DB7B6759990962D419AC4CD7A35DC8173E8758EA14C7D6E9CC87 0000000010059668     guideXOS.obj
 0005:0000d6b0       __Str_Infomedia            00000000100596b0     guideXOS.obj
 0005:0000d6d8       __Str_Information_Technology_Inst_51A4DD57AA9C7B88F274A6438AE3D17ECEACD7F514E4F33E37F7461AFDA4915A 00000000100596d8     guideXOS.obj
 0005:0000d728       __Str_Infortrend_Technology_Inc_076897263212B3F900CFEEF3B1D36ABB39348314B5BD2DBEAE9C865775FFD926 0000000010059728     guideXOS.obj
 0005:0000d770       __Str_Infotronic_America_Inc_D07C46AEB6254006C17061AB876A5CF2DA29E14CC7FC4659153665A0C17EA1DA 0000000010059770     guideXOS.obj
 0005:0000d7b8       __Str_Initio_Corporation_78A4C84FEF0D2A2C781B4120854BC1785A0337B6DFF523881BAC4CA42090CCDC 00000000100597b8     guideXOS.obj
 0005:0000d7f8       __Str_InnoSys_Inc_21AF7B5DD004DE8D302373D6E1C483D0F4BA0E4213AD01E8D3EAFFCF168463B5 00000000100597f8     guideXOS.obj
 0005:0000d828       __Str_Innomedia_Inc_1CC4E47A93D0263772CC724139C21E3BF12EDF2E8420C82A095E01B3D6A8007E 0000000010059828     guideXOS.obj
 0005:0000d858       __Str_Innomedialogic_Inc_7DD16E97EA05C8526001935B130DCB802E872DB01818302C3E2E4AAFBB99832B 0000000010059858     guideXOS.obj
 0005:0000d898       __Str_Innovative_Integration_96DACF461542EB83DC501EB68D529F4B7DDEA8A58FA383D0DE05510B146B848F 0000000010059898     guideXOS.obj
 0005:0000d8e0       __Str_Input_device_controller_2DC0271626A35EE4D244058CF95E053D3ADD0A35744222F472628921328A37CA 00000000100598e0     guideXOS.obj
 0005:0000d928       __Str_Insyde_Software_Corp_24AE12B87FE534D1E0238F53CBD5DB1655D1819C2CBFA3D40A9A6B70F70C35EF 0000000010059928     guideXOS.obj
 0005:0000d968       __Str_Int_Labs_5E3B860E24278D8BDCA258387E6BEAE8775E32C7DFBBB82042BBD2F3570ED52A 0000000010059968     guideXOS.obj
 0005:0000d990       __Str_Intec_GMBH_21F81FC8AA68990960D1C27D5AE738544BB4801389E86EAD2CFFE0BD3AAA224E 0000000010059990     guideXOS.obj
 0005:0000d9c0       __Str_Integral_Technologies_281A645650FA8C86483FB84501CF987EFF3416FD029845B4088E714CC896F74D 00000000100599c0     guideXOS.obj
 0005:0000da00       __Str_Integrated_Circuit_Systems_DDEBF6323BF5915237EC7552D4929613001FF9ADF3B6ECF4875397C2822BA9FB 0000000010059a00     guideXOS.obj
 0005:0000da50       __Str_Integrated_Computing_Engines___3D94FC986DD8A391FE1AB0C6BEA1D89DEF927720F25BF8E957581C169FC9DCB9 0000000010059a50     guideXOS.obj
 0005:0000daa8       __Str_Integrated_Device_Technology_I_93496EFCAE1330B104A6F79AE50FA98B196E71AF6B03D9F5AE20E09B3F7211A0 0000000010059aa8     guideXOS.obj
 0005:0000db00       __Str_Integrated_Telecom_A03E60959BF6DC44F28A686EFB938A886B86FE99CBA0AAD17C22514795B0A285 0000000010059b00     guideXOS.obj
 0005:0000db40       __Str_Integrated_Telecom_Express_Inc_527A34E528CC360CDCAA5D6E4863B1D3A2DDFC0E81D9FEBDC80E978AC4A9B659 0000000010059b40     guideXOS.obj
 0005:0000db98       __Str_Intel                0000000010059b98     guideXOS.obj
 0005:0000dbb8       __Str_Intel_Corporation_6F8B852A4DDFDC8AC6277AC38CF3399CE9854C17A400B714659F63DF4D0061BF 0000000010059bb8     guideXOS.obj
 0005:0000dbf0       __Str_Intelligent_Paradigm_Inc_EB849DF5A313C98564635DCD65E06439534102304687C1168EA2AF1EE09262AA 0000000010059bf0     guideXOS.obj
 0005:0000dc38       __Str_Intelligent_Resources_577A03CE29D26E106BB736BCE71EC63C15015D4A353704BA8B7236C33B32BDAC 0000000010059c38     guideXOS.obj
 0005:0000dc78       __Str_Intelligent_controller_5A8B8BDE14EF112DAF874B33E7ABDE34D99AD5AE518F401C7EA5D27E72FB2954 0000000010059c78     guideXOS.obj
 0005:0000dcc0       __Str_Intelliworxx_Inc_84441AA0468D0FD645BC00C89796CD7D06EA6DCC686D4833BEDB1FB3269DF216 0000000010059cc0     guideXOS.obj
 0005:0000dcf8       __Str_Intellon_Corporation_D0D51BC595CBC1A42AE90D499A564E1A47C120F327424B68A2475981968D5566 0000000010059cf8     guideXOS.obj
 0005:0000dd38       __Str_Interactive_Circuits___Systems_2A06B8CECD146DFF5379AA535819149CC2614C6B94014E91F4152916FECE8557 0000000010059d38     guideXOS.obj
 0005:0000dd98       __Str_Interactive_Computer_Products__723A3485593ED76EEF359D2C31D996D405F0D3FEFA78F2E9366950C056FFBAE7 0000000010059d98     guideXOS.obj
 0005:0000ddf0       __Str_Interactive_Images_5B76E7D5D1A301565D96B898E24373D086B2ADB9577BD8EB04C559BB40D3F9B4 0000000010059df0     guideXOS.obj
 0005:0000de30       __Str_Interagon_AS_632CF20B858029480009114B573754D5251AE7853D8B279F99745BDCC27232F3 0000000010059e30     guideXOS.obj
 0005:0000de60       __Str_Intercom_Inc_398DAA927D04DCEAF50940C224D776FA569481B9767484B7A9EA888EA620C828 0000000010059e60     guideXOS.obj
 0005:0000de90       __Str_Interconnect_Systems_Solutions_7BA7A95CCACC1CA8F78270583E543F76779C687CDA5FF428230E9CE478D3C93B 0000000010059e90     guideXOS.obj
 0005:0000dee8       __Str_Interface_Corp_EB2372C7511C969B51C333CACA4F1B0C6A09A5B4102DC0D84608B4FB0E26FD22 0000000010059ee8     guideXOS.obj
 0005:0000df20       __Str_Interface_Corp_Ltd_698FADBB160B0E48FE2EB169575945C93B0327FBCCE84B8A2A6DC436EAEDBE0D 0000000010059f20     guideXOS.obj
 0005:0000df60       __Str_Intergraph_Corporation_42BFFCFDE090BCE468CBA656F7F76BEFA47DE9552764ED75DE01FA7EDB286CE6 0000000010059f60     guideXOS.obj
 0005:0000dfa8       __Str_International_Business_Machine_BD0857D282F7C90FFAEF95AECF4551CC7EE79402C132565EACE3085AE1EBC57D 0000000010059fa8     guideXOS.obj
 0005:0000e008       __Str_International_Microcircuits_In_B184CC2264E2A743A42E5CC719792A5DFF409E2969EEA0B55DD2DCB076FA0762 000000001005a008     guideXOS.obj
 0005:0000e060       __Str_Internet_Machines_Corp_71A7FED690A6150324035D9A2A8685A492609295532A105E5592CC756543E754 000000001005a060     guideXOS.obj
 0005:0000e0a8       __Str_Internix_Inc_AE8FD08D3ED3D0EF8CA959FC01C32A741619192725C121BC23201CAFC2F6BACE 000000001005a0a8     guideXOS.obj
 0005:0000e0d8       __Str_Intersil_Corporation_33ADA9DF6171AB3FDCAA9070746C5DC878566D536C2A52257C189D3DAF3CF70A 000000001005a0d8     guideXOS.obj
 0005:0000e118       __Str_Intervoice_Inc_8BA1D1CF7656DEEF842970CD4EF3D9C2FDCC36CD216E256DE049EDB35F81431D 000000001005a118     guideXOS.obj
 0005:0000e150       __Str_Interware_Co_Ltd_479A96BA2C8A2FB6D124A43AB4FC2D146AB563CA56D114CC0EB854BCB557134A 000000001005a150     guideXOS.obj
 0005:0000e188       __Str_Intraserver_Technology_Inc_A7F91BF6BCDA7DC4374951FF2656C062D0FF728C2D5A7B4CCC850AD22B7D47EB 000000001005a188     guideXOS.obj
 0005:0000e1d8       __Str_Invalid_address_7AC5EA86BEB9120D370C3BAD3E7ED36E4C71A46767A05393B7FF8E4872782BE0 000000001005a1d8     guideXOS.obj
 0005:0000e210       __Str_Invalid_buf_546BA989310B58551F339E33C980220B401F2B6065830A24E9934AA7443B9761 000000001005a210     guideXOS.obj
 0005:0000e240       __Str_Inventec_Corporation_A633F68ED4B36CC655B0B9349A793A44128F6301972E438057EAACF6E10FF561 000000001005a240     guideXOS.obj
 0005:0000e280       __Str_Iotech_Inc_93497498BF852E740345BE668856D29DE5DF3E9D1610744488BACA1BBC2E7D0C 000000001005a280     guideXOS.obj
 0005:0000e2b0       __Str_Ishoni_Networks_0AFF329B93BEA2B3B5C012373DB149AE56B518D47E985FF389E0F1F0F7CAD715 000000001005a2b0     guideXOS.obj
 0005:0000e2e8       __Str_Isytec___Integrierte_Systemtec_7DF93D9E85B04C078143D7AD9087DDF474527307A2D0B59565D0B17156092B3A 000000001005a2e8     guideXOS.obj
 0005:0000e350       __Str_Italtel              000000001005a350     guideXOS.obj
 0005:0000e378       __Str_Iwasaki_Information_Systems_Co_5B712FF92FE6904EA97F4A790B5B66AF07416CD9B60F72AD36507757D4709656 000000001005a378     guideXOS.obj
 0005:0000e3d8       __Str_Iwatsu_Electric_Co_Ltd_324D71F6AEB5E1F6236CCAF49547EEFDD9F43DB9777C57D77B02F3232463FCEF 000000001005a3d8     guideXOS.obj
 0005:0000e420       __Str_Iwill_Corporation_EF15680E58BA2C1C29E1DF3B66A3AAD69A6CEA852DE6328B42CF884D24ABB0D9 000000001005a420     guideXOS.obj
 0005:0000e458       __Str_J_Bond_Computer_Systems_6004C98A5D25B1F92BF14D2348D6E938F2812D1B10280FDAE40AAE275055AC16 000000001005a458     guideXOS.obj
 0005:0000e4a0       __Str_JAE_Electronics_Inc_02F9DB8121844AA000D838086B3802DCC839849C00040DE420D99E40EF5F6D05 000000001005a4a0     guideXOS.obj
 0005:0000e4e0       __Str_JMicron_Technology_Corp_4CC68AEBB678F42649DB789B126F83151AF16999228E9EE60A00A03E623AEF81 000000001005a4e0     guideXOS.obj
 0005:0000e528       __Str_JNI_Corporation_3ADDEA8F61D6D5D9CD495F96F060939FF618A9BA1B69F3FCFB59C39DD76D5ECB 000000001005a528     guideXOS.obj
 0005:0000e560       __Str_Jabil_Circuit_Inc_F1D73CEEBCDE598E42B2E1CBCE2C5F3EF00A0FFC40F52652F8F46C8AB0201ECC 000000001005a560     guideXOS.obj
 0005:0000e598       __Str_Jace_Tech_Inc_5EF4C844EE588AE32EAE646B1BE58782EB02ABE7FFEC5E42586E7ED8533DBD49 000000001005a598     guideXOS.obj
 0005:0000e5c8       __Str_January              000000001005a5c8     guideXOS.obj
 0005:0000e5f0       __Str_Janz_Computer_AG_2FBE89D618095A1AF088AE3E6BC450399789CAF6EB0D7CF8E138EDEA728C6BC6 000000001005a5f0     guideXOS.obj
 0005:0000e628       __Str_Japan_Elecronics_Ind_Inc_83A074E1F20BBD175A5A9D51366F895264D359D5F00A3E718EDECDAB8ABA51DB 000000001005a628     guideXOS.obj
 0005:0000e670       __Str_Jato_Technologies_Inc_41F083E4004FCE3FDB1C5553F02704C43FDE066330A87156D2BC0F9ECD94E2D0 000000001005a670     guideXOS.obj
 0005:0000e6b0       __Str_Jaton_Corporation_USA_3ED9C452C9FBD060D3982DA65665CA266A9D7CA4681C81C481BBD162F1345543 000000001005a6b0     guideXOS.obj
 0005:0000e6f0       __Str_Jazz_Multimedia_005D3E9AC807A5EDB5F0349F815EE8AD03ACD29FFBC6804DFAC5D98C217293C2 000000001005a6f0     guideXOS.obj
 0005:0000e728       __Str_Jean_Company_Ltd_C1C36ABC50C4C34C46DAECE12729184D53DF4A06DA06BA4A9459676108D820CB 000000001005a728     guideXOS.obj
 0005:0000e760       __Str_Jet_Propulsion_Laboratory_3E087B98F210362B66D000CDF1838A052733BD3E603F075B792F21E7CAFF6DB7 000000001005a760     guideXOS.obj
 0005:0000e7a8       __Str_Jetway_Information_Co__Ltd_B5CB04CC571A9BC85B035370B5922299E0DDB43C89E8113917E91E39C5F3FA4B 000000001005a7a8     guideXOS.obj
 0005:0000e7f8       __Str_Jorge_Scientific_Corp_AE15042039F447EBBB80FCD1F755ACD82856C9B46D73A3FEC43EF06CD2824D16 000000001005a7f8     guideXOS.obj
 0005:0000e838       __Str_Joytech_Computer_Co_Ltd_5EBC4383B0A697F64B04AA9C7A101C88861C0ABE79F34F4FEE0F971D3ABE6142 000000001005a838     guideXOS.obj
 0005:0000e880       __Str_Juko_Electronics_Inc_Ltd_23C4F0C94F2A4614A94AABCF0484C4EC247143C25AE63DE9987C1880B7C58410 000000001005a880     guideXOS.obj
 0005:0000e8c8       __Str_July                 000000001005a8c8     guideXOS.obj
 0005:0000e8e8       __Str_June                 000000001005a8e8     guideXOS.obj
 0005:0000e908       __Str_Jungsoft             000000001005a908     guideXOS.obj
 0005:0000e930       __Str_Juniper_Networks_Inc_0DAB7DA0374C83E5ACBAE3E7DC03C4488EC22992EC23C8862346AC7A4180EEF9 000000001005a930     guideXOS.obj
 0005:0000e970       __Str_Jupiter_Systems_88CA764154FBA485894648600BDD2ECD13EA7D00CD9B28D4F8CC199E75BCB431 000000001005a970     guideXOS.obj
 0005:0000e9a8       __Str_KDS_Innotech_Corp_42DA558CBE26F2B8D8A584B5C18D604DA5E5CBE2617F0F1F0A611C211F007B0A 000000001005a9a8     guideXOS.obj
 0005:0000e9e0       __Str_KI_Technology_Co_Ltd_646521F905ADD98CCF9CAF7B534B9E5231759BA42186404B411BBE98AC57FD25 000000001005a9e0     guideXOS.obj
 0005:0000ea20       __Str_KRF_Tech_Ltd_28A1F71F247D53E9BEAF670D90EAFF8EB761532553DEBC26430810FABC7AC8B1 000000001005aa20     guideXOS.obj
 0005:0000ea50       __Str_KUKA_Roboter_GmbH_C1902F1D9293F1765D40ECFDC7E697CBFB9D0FEC0BE8F29CCBA91B32C5F1A5CA 000000001005aa50     guideXOS.obj
 0005:0000ea88       __Str_KYE_Systems_Corp___Pixart_Imag_BE37354A8B85739517E4446C056DD6B3C4C0EB8998047AB8AC5D7EA3CDB70B7D 000000001005aa88     guideXOS.obj
 0005:0000eae0       __Str_KYE_Systems_Corporation_2CB1C7A54E39DF66A81F5B448AE859776C0750820D916DB611BA0A8FAAD5E383 000000001005aae0     guideXOS.obj
 0005:0000eb28       __Str_Kaiser_Electronics_EAEEA948C5C0328370A3454892F6E1581977FC090B4F4D7C6A21DC864E07EEC6 000000001005ab28     guideXOS.obj
 0005:0000eb68       __Str_Kasan_Electronics_Co_Ltd_77B51D245352F5D8B59AE05FF82A8D0F69BF08C30AD9010EA2B06EBAE89D16DA 000000001005ab68     guideXOS.obj
 0005:0000ebb0       __Str_Kasten_Chase_Applied_Research_FEBFC6FD2481C39A2659C108FE520EAF75294D0739F2811D7ACDC70923E5F9B6 000000001005abb0     guideXOS.obj
 0005:0000ec00       __Str_Kawasaki_Heavy_Industries_Ltd_D985729E47D4DCAF20079920259E26099252DE799E21C55435F691CCD3D97B38 000000001005ac00     guideXOS.obj
 0005:0000ec50       __Str_Kawasaki_LSI_USA_Inc_190AC6FEBED904A9FF64EDAE6A22C6938627348CACB847FDA8C8DA33CD1F6EE7 000000001005ac50     guideXOS.obj
 0005:0000ec90       __Str_Kawasaki_Steel_Corporation_4D72F03C955864B7AC71E038BD205004D8DE68A3CE4BA10BB5A97D44B69744D5 000000001005ac90     guideXOS.obj
 0005:0000ece0       __Str_Keithley_Instruments__Inc_89967E163BB466EDBC603DEAAED46559FD440143F6307F301C2A6937035ABCDC 000000001005ace0     guideXOS.obj
 0005:0000ed28       __Str_Kinetic_Systems_Corporation_2FF227DAE46634485FB6FE442FA99AE80B5432B282C20EDA1BF0EA03D6BEB8BB 000000001005ad28     guideXOS.obj
 0005:0000ed78       __Str_Kingmax_Technology_Inc_43D5D0F6C7B15BBE545F2EEC072BAFB12968D0A9F2F1A5216DD5735DB3412D57 000000001005ad78     guideXOS.obj
 0005:0000edc0       __Str_Kingston_Technology_Co_B7112F45A044903D1EF64CDCB5F888626DD1910EEA7E12CC9D7054DE54B24B60 000000001005adc0     guideXOS.obj
 0005:0000ee08       __Str_Kinpo_Electronics_Inc_241E722796B76C20A7E06926D49C987685CE35BB9C861CE7502001ECD45E45A9 000000001005ae08     guideXOS.obj
 0005:0000ee48       __Str_Knowledge_Technology_Laborator_0F7AEDBFA69A498F716FDAA162E08E92282A42E918177897AA7E9E3D980B1F7A 000000001005ae48     guideXOS.obj
 0005:0000eea0       __Str_Kofax_Image_Products_3BA018E16E7336B705FF14E8DAD9B6E9D78B6D85F15E0C99337585DA0269DB9E 000000001005aea0     guideXOS.obj
 0005:0000eee0       __Str_Koga_Electronics_Co_5E6F54A5CAEE00ADEDDDCF567395651B00FE75A5AED55091E843CBCFDADDE7B9 000000001005aee0     guideXOS.obj
 0005:0000ef20       __Str_Kollmorgen_Servotronix_C42A8B3E5CC70673036933B07A178DE9235F734978D773D34A199E637DE9DF18 000000001005af20     guideXOS.obj
 0005:0000ef68       __Str_Kolter_Electronic___Germany_D9453AF93BD3CD242067D96CB6C3F09430045DDAAE37ACF37738DBC48C5D3753 000000001005af68     guideXOS.obj
 0005:0000efb8       __Str_Komatsu_Ltd_62DB7BF2957EC2C3CEAC3F88007AE2996D5F9862BFA70A36975CC80CDBF67FC6 000000001005afb8     guideXOS.obj
 0005:0000efe8       __Str_Kondo_Kagaku_9E89A7A58F3355D6B7A2259D254DEA42EBF4D8904D61FE79A76D531351EC6C5C 000000001005afe8     guideXOS.obj
 0005:0000f018       __Str_Kongsberg_Spacetec_as_999C7DD6737BF14BDA40B694CFF02F9A8D9C55A0993280E89E4151761B3A8B32 000000001005b018     guideXOS.obj
 0005:0000f058       __Str_Konica_Corporation_5B21E236AF4D434D2A90E4BAD94DE569452E5C919EB334DCAB3B2E9809087F1C 000000001005b058     guideXOS.obj
 0005:0000f098       __Str_Kontron_Canada_847C102F3DBB8D57052D0A1429BEE261B36BDE75E05CD29E8551F4D697BF381B 000000001005b098     guideXOS.obj
 0005:0000f0d0       __Str_Kontron_Modular_Computers_GmbH_3F1798F929EAB4508CC0755A70A1149465B8DD462EF24BED2FE632EC9E853915 000000001005b0d0     guideXOS.obj
 0005:0000f160       __Str_Korg                 000000001005b160     guideXOS.obj
 0005:0000f180       __Str_Kyoei_Sangyo_Co_Ltd_D57F4D4A70E1D96B0974E0C709929A3595805CAB857BEA380CFB6787787C148B 000000001005b180     guideXOS.obj
 0005:0000f1c0       __Str_Kyopal_Co_Ltd_B5564FEC106246D302240C04FE9BC3BA1BFFC9AC4F73DC12A1DF1BC1637AED6F 000000001005b1c0     guideXOS.obj
 0005:0000f1f0       __Str_Kyushu_Electronics_Systems_Inc_6AAC28F6694C0859DA017551D9FDBCFF18036E591660B64336CD8AD7BCF1FE40 000000001005b1f0     guideXOS.obj
 0005:0000f248       __Str_L3_Communications_F4E8B887F8B25E3E2A3A281F011B844117C476634AADFC03C01C0463B256504F 000000001005b248     guideXOS.obj
 0005:0000f280       __Str_LG__Lucky_Goldstar__Electronic_4FAC516EBEF37BE9EC04BD7E973C1E7B355B5DE76792C864796A4FFD1B6D4FCD 000000001005b280     guideXOS.obj
 0005:0000f2e0       __Str_LG_Industrial_Systems_Co_Ltd_0E3D9A12603C05DE06633F99395A450D6DE85D67D72DB8A2453AA0DFD90B7706 000000001005b2e0     guideXOS.obj
 0005:0000f330       __Str_LSI                  000000001005b330     guideXOS.obj
 0005:0000f350       __Str_LSI_Corporation_607AA779C0ED1FD0C473C52AB0571394F4490477EF4BAA290B484EE8109BA1B9 000000001005b350     guideXOS.obj
 0005:0000f388       __Str_LSI_Logic_4DD9E67F12733DB94B44CF9B782A4723C88F6EC4BB09B46C8628D9E5264BD715 000000001005b388     guideXOS.obj
 0005:0000f3b0       __Str_LSI_Logic_Headland_Division_59B03266AEF49A44E2587E4923D25DCABECF17920EFB58CABCE258E26DFE47BA 000000001005b3b0     guideXOS.obj
 0005:0000f400       __Str_LSI_Systems_Inc_11113363BE8A9DA7E3E37A5363779DF796F699BA6A8628FE17156D15974072F0 000000001005b400     guideXOS.obj
 0005:0000f438       __Str_Labway_Coporation_74A5BB1B31E3F30A5BFB72C3D2F211A054E36B21F0D28E5C4602F572376D8204 000000001005b438     guideXOS.obj
 0005:0000f470       __Str_Lambda_Systems_Inc_5610E9E8BF89473AD8970D533074719F8577A59899D0108468EFD41B4904B672 000000001005b470     guideXOS.obj
 0005:0000f4b0       __Str_Lancast_Inc_233E46ED1FF1903962ECAD49B628A24227EFD8D11F6930E3320DAB6067A949EC 000000001005b4b0     guideXOS.obj
 0005:0000f4e0       __Str_Land_Win_Electronic_Corp_CEB0D2C855444D2D039F1CB45DAE368A2D0322060C45566C8527330712B29F91 000000001005b4e0     guideXOS.obj
 0005:0000f528       __Str_Lara_Technology_Inc_B345108F8D663BA5ADCBA4A43DFEDD40CA230249CA380D6C847D24CDE73E0B0C 000000001005b528     guideXOS.obj
 0005:0000f568       __Str_LaserLinc_Inc_B61FE81BA37C5F234CD9203874C6CA3CBE5403135123160CD60DF5685624842D 000000001005b568     guideXOS.obj
 0005:0000f598       __Str_Lattice___Vantis_8D8780EBC3529BB8744080EF137F84924108238880AA50EAA4D4FC6E00D082B4 000000001005b598     guideXOS.obj
 0005:0000f5d0       __Str_Lattice_Semiconductor_Corp_83D80C18EBAA80746E9F51A4F0C7FEDB62BB1C0275F5343D35CDD9C5141E323D 000000001005b5d0     guideXOS.obj
 0005:0000f620       __Str_Lava_Computer_MFG_Inc_CC6B07D3C7ADBB0F45737DC919D5D202B78BFC857B573A9D123E5074D915C73E 000000001005b620     guideXOS.obj
 0005:0000f660       __Str_Lava_Semiconductor_Manufacturi_FA978C57DB1C0C9B60A9DC76F42C92367E48003732AAF21570FA08DB58274482 000000001005b660     guideXOS.obj
 0005:0000f6c0       __Str_Leading_Edge_Products_Inc_C56B095BB0D5263F3E05F11D49E12C9420636F00B37EF1EDA439AE3A00A261C3 000000001005b6c0     guideXOS.obj
 0005:0000f708       __Str_Leadtek_Research_37CB16A63F65BBBF308915B35FB1937FC6B0C53EDD7D6D520AB929AD02AA6E21 000000001005b708     guideXOS.obj
 0005:0000f740       __Str_Lecroy_Corporation_45881E56052EEB674A4640DCF130F4D3D85A970448E92110490EDF0AC1EBC741 000000001005b740     guideXOS.obj
 0005:0000f780       __Str_Lectron_Co_Ltd_DCDDB02484C7808E34501ED6141195FA3BF8A4141C9797D423140076F2EC046B 000000001005b780     guideXOS.obj
 0005:0000f7b8       __Str_Legend_Ltd__Beijing__FBD7BA670EFEAA5D1F603264EA139B126339E95A878FAE37E34E824A2CB31092 000000001005b7b8     guideXOS.obj
 0005:0000f7f8       __Str_Leitch_Technology_Internationa_7BD1145A8C0664CF058E5F7642E170DE08DEC5754BF775DA957E5E9C0DC384B9 000000001005b7f8     guideXOS.obj
 0005:0000f850       __Str_Leutron_Vision_AG_55201712B121BA2B8CD399CC63411D6AE59946DA366A4C379637BCA5E7DBA04B 000000001005b850     guideXOS.obj
 0005:0000f888       __Str_Level_One_Communications_6F96FF3C11769FBD3924D9438D8D56779569803F4AE293E5DEFC8129706F43C1 000000001005b888     guideXOS.obj
 0005:0000f8d0       __Str_Lexmark_International_Inc_27BD4E36B61D8071A0C8614A1633D6EB172187C49E7BFC98446E22C49A05988B 000000001005b8d0     guideXOS.obj
 0005:0000f918       __Str_LiPPERT_Embedded_Computers_Gmb_B0FAB082B766D93B0F17CDB8CDAC69C5B6B7B9FA13ECECD7B3469FE9E9BA0014 000000001005b918     guideXOS.obj
 0005:0000f970       __Str_Lightwell_Co_Ltd___Zax_Divisio_8DCB5B344E4EC826189709C29AE5A4770B87EECFAD956C3D0CDDA837508EC3FF 000000001005b970     guideXOS.obj
 0005:0000f9c8       __Str_Linear_Systems_Ltd_90E19B764F2C8D5AF32B2F3A2CD7AB5D210DFA3CD2FA79FD2FAC9746134DB099 000000001005b9c8     guideXOS.obj
 0005:0000fa08       __Str_LinkSys              000000001005ba08     guideXOS.obj
 0005:0000fa30       __Str_Linux_Networx_26F8316F515ACB5A4FB7AD75A0C97D7D86FC00F763086C3E3258263455DFC3BB 000000001005ba30     guideXOS.obj
 0005:0000fa60       __Str_Lite_On_Technology_Corp_F882A2920B57C4165E3574FE322AF3B1560063A33CFB0F7775773776ED58498A 000000001005ba60     guideXOS.obj
 0005:0000faa8       __Str_Litronic_Inc_05E93008087210E3EFA330A45CBDF8F8DD49A1F33206DA5AB288A7FDEAA10FFD 000000001005baa8     guideXOS.obj
 0005:0000fad8       __Str_Loading_App___71605982CB929B15E58F671BDD0C017D6EC94ABBAE4BEC8562B65AF5957FF41C 000000001005bad8     guideXOS.obj
 0005:0000fb08       __Str_Lock                 000000001005bb08     guideXOS.obj
 0005:0000fb28       __Str_Logic_Modeling_1A6C7AE2B42A0596F948279456E5244D5E79080607911982EC548AB305DA77C8 000000001005bb28     guideXOS.obj
 0005:0000fb60       __Str_Logical_Co_Ltd_83E4B74EC82EF6E8997235C436402EFA9CBA21ABA0479E5FE9C49216BD6DCC4D 000000001005bb60     guideXOS.obj
 0005:0000fb98       __Str_Logitec_Corp_2A0474E5DABB56BB477A589559E76CE27867E32C79D1288E7C1A56562D064033 000000001005bb98     guideXOS.obj
 0005:0000fbc8       __Str_Logitech_Inc_99AFF6F07AE5707470F022E3A361A32B5CF2260BD2E5BF609415A5B6D269BC26 000000001005bbc8     guideXOS.obj
 0005:0000fbf8       __Str_Loronix_Information_Systems__I_EF91FE4F4B9F97269756B2B2856289A7546B2D68DD196F7F73CA545C0C09A0B9 000000001005bbf8     guideXOS.obj
 0005:0000fc50       __Str_Lucent_Technologies_AMR_7225A7D12957CBB29D094EF98E164219AECD0A4EFAEFA8995B16728B618008D0 000000001005bc50     guideXOS.obj
 0005:0000fc98       __Str_Luminex_Software__Inc_0F08EC8E35FD1C9A5F70BA39509C5C2679862D88C0CFE9DC0DFED82EBED69CFD 000000001005bc98     guideXOS.obj
 0005:0000fcd8       __Str_Lung_Hwa_Electronics_F6CA0EC0B0E709946D92EC18C76D8FA335DB2962F8B34071376D87D0A3973CBF 000000001005bcd8     guideXOS.obj
 0005:0000fd18       __Str_LuxSonor_Inc_BD0873F3AE08BB45AE6ACA00E40A090786040AD32BCECC8BEC84841A5572A8D2 000000001005bd18     guideXOS.obj
 0005:0000fd48       __Str_Lynx_Studio_Technology_Inc_BC59C01CC88CE2A5C8F6EFD2ACDCA8F0798006E14EC815C7F197B68903BDE22C 000000001005bd48     guideXOS.obj
 0005:0000fd98       __Str_M_Systems_Flash_Disk_Pioneers__41252DFE7AD369E357CDCC52664E23E5F66274B8C993698ACA52F467A9996894 000000001005bd98     guideXOS.obj
 0005:0000fdf0       __Str_MAC_System_Co_Ltd_D87AB65205CC84B5E1B3E1D5E0BC8FC965B114883B90822D015D312453109B3E 000000001005bdf0     guideXOS.obj
 0005:0000fe28       __Str_MAGMA                000000001005be28     guideXOS.obj
 0005:0000fe48       __Str_MAZeT_GmbH_BD92310289AC0CBE458D1A116FA4D154640894527D68705020EF94CED79920E2 000000001005be48     guideXOS.obj
 0005:0000fe78       __Str_MIPS_Technologies__Inc_2C306F8379EDD7A86906BEDAA9B93E5F0FEF41524DD63124E3E5464B12B07CEC 000000001005be78     guideXOS.obj
 0005:0000fec0       __Str_MKNet_Corporation_FE064C4F244FB3EEB747FB8A9BA18E6C8377156E8E55A8428014A2F288862895 000000001005bec0     guideXOS.obj
 0005:0000fef8       __Str_MOST_Corp_F8C54BCAFDF06F875268A3A27C5DCEFBE784BF173D8683BA8E036948A35389B4 000000001005bef8     guideXOS.obj
 0005:0000ff20       __Str_MULTIDATA_GmbH_91CD555FB3C8D2E898583746FACF0B988FA9C805826224372C8EAD770FDE3BE6 000000001005bf20     guideXOS.obj
 0005:0000ff58       __Str_Macraigor_Systems_LLC_43B8CD2A132A561167C303FA2B643A4BCD5267429DB92C25F69C05056DCE3EFF 000000001005bf58     guideXOS.obj
 0005:0000ff98       __Str_Macrolink_Inc_65535C24276D86383958AE45561A4AB93C8DB298F6662074FB0ACE368E7693BE 000000001005bf98     guideXOS.obj
 0005:0000ffc8       __Str_Macronix_International_Co_Ltd_50A25F45CAE26497715C1D0D832B3A9936F2D216BB61CD5163AD60A9E250A23E 000000001005bfc8     guideXOS.obj
 0005:00010018       __Str_Madge_Networks_76353CBE43A9DD784C89F08184B3DF3351C61E23DBAF64547865A2E90010C228 000000001005c018     guideXOS.obj
 0005:00010050       __Str_Maestro_Digital_Communications_77927F56E86B89FB174E4EAF129A8256DA68C0F5A684E77AC6ADC580BB362332 000000001005c050     guideXOS.obj
 0005:000100a8       __Str_Mainpine_Limited_7341134D3216F4EDEAB3C4B912759AD42EB612F0E070A433D9BB139B92485664 000000001005c0a8     guideXOS.obj
 0005:000100e0       __Str_Maker_Communications_6077D2772F384DD4787A867FCF20520C047EDEAC25AC34EA38595E649B8DE3E1 000000001005c0e0     guideXOS.obj
 0005:00010120       __Str_Malleable_Technologies_Inc_A798450BD4EC8E8F98A393F56CF87A57DA6E80C95023B1CAB777D3E1FD53551E 000000001005c120     guideXOS.obj
 0005:00010170       __Str_Management_Graphics_Inc_0A17408BAA66A16AC55EDB2D1C0F0169EA24EB9088351A0D401CCE3CE43C783F 000000001005c170     guideXOS.obj
 0005:000101b8       __Str_Mapletree_Networks_Inc_4D4D5EC7874082C6665CD709657E5FC4720522F67FE5CE2E1607314B03431D14 000000001005c1b8     guideXOS.obj
 0005:00010200       __Str_Marathon_Technologies_Corp_FAF844C5E71A704572FAADE92E35A1FDBE8DB82EA26D8D9EC7A3CDD32363EBC1 000000001005c200     guideXOS.obj
 0005:00010250       __Str_March                000000001005c250     guideXOS.obj
 0005:00010270       __Str_Marconi_Commerce_Systems_SRL_DEF3778328A1F7803414027A47430E5B2A5CF8912C27F41CB33C2B3B36937BDC 000000001005c270     guideXOS.obj
 0005:000102c0       __Str_Margi_Systems_Inc_594F154C8FDCAB7011DE1A18B269F60F10BD790932AE83B6064C6CECD52AD997 000000001005c2c0     guideXOS.obj
 0005:000102f8       __Str_Marian___Electronic___Software_9246C5D5C0DF8C020CC724A9415B4AD8EEEFC4A8B50D844CBD30DC9A89CF6645 000000001005c2f8     guideXOS.obj
 0005:00010350       __Str_Mark_Of_The_Unicorn_Inc_9CC85FCA37473719495C92F45C849DB479B023F023CEA6D0FE2026649221CA7E 000000001005c350     guideXOS.obj
 0005:00010398       __Str_Marvell_Semiconductor_9027B552B222722C0ADD6E90003D54BF8A239DE26E8200977E85EB92D46D70E9 000000001005c398     guideXOS.obj
 0005:000103d8       __Str_Marvell_Semiconductor_Germany__D77D0BE3CDFF6F65BF55003577E8E77DB1B960CA142B292D7F02F775777F1235 000000001005c3d8     guideXOS.obj
 0005:00010438       __Str_Maspar_Computer_Corp_431533D57E202FD91B826DB59BD27270EC9B00A04A4CCD19ADD38221C08B0B88 000000001005c438     guideXOS.obj
 0005:00010478       __Str_Mass_storage_controller_CAAD88EC05406BEF6DE46B59D3DA0C0B1DD28FCD29F413D5240AC39083528C9E 000000001005c478     guideXOS.obj
 0005:000104c0       __Str_Matrix_Corp_AA863D82964D8AB7F514037FB2C7B5AFB49430E6F1E81ADF3FE2E74E9436FB93 000000001005c4c0     guideXOS.obj
 0005:000104f0       __Str_Matrox_Electronic_Systems_Ltd_FE0DF5C583DA0360AB8FB06A16E285A4283D97CBD11C0DCE7282BC30C8BFCCD8 000000001005c4f0     guideXOS.obj
 0005:00010540       __Str_Matsushita_Electric_Industrial_ECDA6DB8ADE42BD487E01DCA7F0ED9CF5FE610A37885311B6458323A1702EBF2 000000001005c540     guideXOS.obj
 0005:000105a0       __Str_Matsushita_Electric_Works_Ltd_663ACA6E6546752BCAF0BD61D99F6E41CB9A72A247886DE4FF6A563030BBE21D 000000001005c5a0     guideXOS.obj
 0005:000105f0       __Str_Matsushita_Electronics_9188C8DC2345314EF5471F12B22AD5CA11DA7AEF9E085B3F08A39BA64F2A615E 000000001005c5f0     guideXOS.obj
 0005:00010638       __Str_Matsushita_Kotobuki_Electronic_73F96A91C2D11E59C9C783347FAF054B5E447DC2E653153A70959ECE66D02A84 000000001005c638     guideXOS.obj
 0005:00010698       __Str_Max_Technologies_Inc_245A501A845AF24004D0C2A39A0C843313FA81759D7FA8AF0B650AF353BAFEDA 000000001005c698     guideXOS.obj
 0005:000106d8       __Str_Maxtor_Corporation_CC261267BBA556599EF11A18A8BE6AAA16FDEA9C40A96B87BBB9DB5F810DD168 000000001005c6d8     guideXOS.obj
 0005:00010718       __Str_May                  000000001005c718     guideXOS.obj
 0005:00010738       __Str_MeasureX_Corp_0BF0623D021B1638D7EF1CA721C2DB866E28E6B9AD92F1B71498C050ADA9C65B 000000001005c738     guideXOS.obj
 0005:00010768       __Str_Med_Associates_Inc_EFB6D852A5FAA93B805E4113D57EF0FA3BB8E015553A9DE3647043AD3D13F892 000000001005c768     guideXOS.obj
 0005:000107a8       __Str_Media_Reality_Technology_BA8A70E4E523100DF1996EF7EA237EFD6BF1168DE1F66F01F52381AFBC06BC29 000000001005c7a8     guideXOS.obj
 0005:000107f0       __Str_MediaTek_Inc_180714EAE7C7772DB6277795AA0E65F6E8ADEC8923E73B1808ED57121B8C593E 000000001005c7f0     guideXOS.obj
 0005:00010820       __Str_Mediamatics          000000001005c820     guideXOS.obj
 0005:00010850       __Str_Mediaq_Inc_704CBA1F27600BC6390043082361619D7D9DFAB094D182E4931D8218F019D019 000000001005c850     guideXOS.obj
 0005:00010880       __Str_Mediastar_Co_Ltd_458E3CB36354398512CF8AC544CB125BD9EDC92F4F09C789E3CCDF9914C01EA5 000000001005c880     guideXOS.obj
 0005:000108b8       __Str_Megachips_Corporation_5A62F8AA5EE91CCF368CF107AABB0C461422DB40E822595320827E87EC68E722 000000001005c8b8     guideXOS.obj
 0005:000108f8       __Str_Megasoft_Inc_E9E2EF357591606587958D4E86DD568D528C2135599D14984DFF07DB1D821B59 000000001005c8f8     guideXOS.obj
 0005:00010928       __Str_Megatel              000000001005c928     guideXOS.obj
 0005:00010950       __Str_Meidensha_Corporation_E15194EF358B7EA9264EAEDCD048584EF907131901FA5EE1662E342F46FC2061 000000001005c950     guideXOS.obj
 0005:00010990       __Str_Meilhaus_Electronic_GmbH_Germa_8183FD2906B79C7821560217D5CF9A507F028BFFCF0E353F4BAAA4F9F81AB32C 000000001005c990     guideXOS.obj
 0005:000109e8       __Str_Meinberg_Funkuhren_GmbH___Co_K_0B8BA73D218E89A9EE356A95966E9B610B14ECED5429895F509891A762202497 000000001005c9e8     guideXOS.obj
 0005:00010a40       __Str_Melco_Inc_BE434BCEDFFFEA1D19882898085273BA8618179CAA81DCE2E8EAAA0F359D5C6C 000000001005ca40     guideXOS.obj
 0005:00010a68       __Str_Melec_Inc_79853C57FE9F4CC8E269B86EA1E07D87C547E63567062DE68DCD3A0397295C2B 000000001005ca68     guideXOS.obj
 0005:00010a90       __Str_Mellanox_Technology_F8C020519986BEB2E5B2A0E7360AF5AF45BE63828DECFDAD7C8E46FAC09F1AAB 000000001005ca90     guideXOS.obj
 0005:00010ad0       __Str_MeltDown_Systems_LLC_76B0F981A3C89960EE501C6216358CA10AC4A1628FDE058095F6BC83BDA8E689 000000001005cad0     guideXOS.obj
 0005:00010b10       __Str_Memec_Design_Services_7E3CCAD3824DF39A0D77F56205BEDACBBCDB7204FB98D73B2F3F2F9ED1198906 000000001005cb10     guideXOS.obj
 0005:00010b50       __Str_Memory_controller_191058670AD0F45547E9C208471546B782AAA2E7E73139194B3FD03D1D625FF5 000000001005cb50     guideXOS.obj
 0005:00010b88       __Str_Memory_leak_E720373216761F9ADFAEAD740F6DE581C8946620241F34CDAABD3C0EF616261D 000000001005cb88     guideXOS.obj
 0005:00010bb8       __Str_Mentec_Ltd_C40C8A8AFD326EBE4978AC2394871664E01A92643EF31BEC3CB2D65009CB6E1D 000000001005cbb8     guideXOS.obj
 0005:00010be8       __Str_Mentor_Graphics_Corp_A82C846216797684500D33A9EBEAA0F0D994F0403584265EF3CD0B5A1FD92A3B 000000001005cbe8     guideXOS.obj
 0005:00010c28       __Str_Mercury_Computer_Systems_Inc_9AB49658CDCD3A99C45731D2A5306CC54648424A3C2324BC4F04872135894815 000000001005cc28     guideXOS.obj
 0005:00010c78       __Str_MessageBox           000000001005cc78     guideXOS.obj
 0005:00010ca8       __Str_Metheus_Corporation_0AD688AEC4B7742DD42780C7EC24725EF90DF9C90C7DBB43DCC3CAADAACD4E9D 000000001005cca8     guideXOS.obj
 0005:00010ce8       __Str_MiB                  000000001005cce8     guideXOS.obj
 0005:00010d08       __Str_Michels___Kleberhoff_Computer__1AC81D1CDFBCEE920787604104D82608ADCA690FD7A67A861DCF5234959F88B5 000000001005cd08     guideXOS.obj
 0005:00010d68       __Str_Micrel_Inc_DF5BC9EE4D97F244D726A7F4EC6ADB81B195C75AA2DC26D5B797F1EB4A054D80 000000001005cd68     guideXOS.obj
 0005:00010d98       __Str_Micro_Computer_Systems_Inc_2F6F9BAD9E1FA2B497E1A208EB0A2D825359E9C830F812FA088FEEF6AEB63D02 000000001005cd98     guideXOS.obj
 0005:00010de8       __Str_Micro_Industries_Corporation_36FBAFB7E8E0FB2CAD06BDD9E44011E617EBC552C687C23C1282CBB8AB1E9B1A 000000001005cde8     guideXOS.obj
 0005:00010e38       __Str_Micro_Science_Inc_1BBF762FE64F6B8F6F454A9159E6374F9845A8B5B0B9BFFCB3D9C3C04453E1B8 000000001005ce38     guideXOS.obj
 0005:00010e70       __Str_Micro_Star_International_Co_Lt_40AB5813EF6121CCE85123D140F06FD737DD804992FCBBB5D5A525715F0618AC 000000001005ce70     guideXOS.obj
 0005:00010ec8       __Str_Micro_Technology_Co_Ltd_E26FAB7695FB8565EADCE5AC62FE4998B9807EB8DC1F3548005FAD7A27367850 000000001005cec8     guideXOS.obj
 0005:00010f10       __Str_MicroUnity_Systems_Engineering_258965A6799BA99A76A07C6FFD27ED877F7503E6945E48A9B38BFEF82B3AA552 000000001005cf10     guideXOS.obj
 0005:00010f70       __Str_Microcomputer_Systems__M__Son_659C6C27D876695BAD2F645AFFD2F4F7B15857F655D4554373F1F868285BF3BF 000000001005cf70     guideXOS.obj
 0005:00010fc0       __Str_Microdia_Ltd_6F18D1BD8A18F3F040F914250607D17A0DEA986F295001A97F84FF4E266D775E 000000001005cfc0     guideXOS.obj
 0005:00010ff0       __Str_Microdyne_Corp_6FFDBE7C6885EEAEFCF1418787B710DF34BE6375CD28C6BDE74FFEA6196050D2 000000001005cff0     guideXOS.obj
 0005:00011028       __Str_Microgate_Corp_1E08BB86C316F4236C07EE16CB650E94D4C1E5BFD2E0E7973B3BBCDF1472BEC1 000000001005d028     guideXOS.obj
 0005:00011060       __Str_Micron_Technology__Inc_066DEBF2D08DADE01348EB8A494B6B4FAB68546688B1CB4EA61C44C58B068721 000000001005d060     guideXOS.obj
 0005:000110a8       __Str_Micron_Crucial_Technology_DA8E147E3D00D3E18FF643ED118F40089BB7FE1E9C7A7388770F58F453EC57D5 000000001005d0a8     guideXOS.obj
 0005:000110f0       __Str_Micronics_Computers_Inc_1EA9138ADEF6CDB391946CEB2C099D4B81D4FCC17DD1328F1F4638B994A1893E 000000001005d0f0     guideXOS.obj
 0005:00011138       __Str_Microscan_Systems_Inc_0B528C36AB6DC6AFA3619C261112B31D880F76AB725A8A83F02DC5AEA11EEAFA 000000001005d138     guideXOS.obj
 0005:00011178       __Str_Microtechnica_Co_Ltd_862ECD643A88EB6A6511DB8FAD7555583D60F06DAFA600AE4F2DB80A3AD47AAA 000000001005d178     guideXOS.obj
 0005:000111b8       __Str_Middle_Digital__Inc_FF3DB3560E192C5ADF323311FECA8826DC177DF5683834E62E856640033617DF 000000001005d1b8     guideXOS.obj
 0005:000111f8       __Str_Mikrotik             000000001005d1f8     guideXOS.obj
 0005:00011220       __Str_Millennium_Engineering_Inc_04EEB72515A3AE4B87520EAB9EE7D7318BFB2C0FEC2C469BDD95EC2F8C3ABCE4 000000001005d220     guideXOS.obj
 0005:00011270       __Str_Millogic_Ltd_5D5EF9888A840410D4F3BBB8F33512B6ED8FA2C61C577FB8D31CBA879A672E90 000000001005d270     guideXOS.obj
 0005:000112a0       __Str_Mind_Share_Inc_FAB3C875E43A42CCA5645D96BA1B8ECF82F0A0F59A7B8B5059BAAFA8DEBF7287 000000001005d2a0     guideXOS.obj
 0005:000112d8       __Str_Mindstream_Computing_23CD3E095485CAFFF9FE1DA8CEB037C9E7AB005386911FC731A39B9A7AAD8AE8 000000001005d2d8     guideXOS.obj
 0005:00011318       __Str_Mini_Max_Technology_Inc_91503288AF852E9207E472431CB5C2FC48C6A24A037F13105B55E8C8081239F9 000000001005d318     guideXOS.obj
 0005:00011360       __Str_Minolta_Co_Ltd_A92D53434DC866F137D05BCB0C2648A56586C386EEBD418B267EE9EBB75D075A 000000001005d360     guideXOS.obj
 0005:00011398       __Str_Minton_Optic_Industry_Co_Ltd_A0B474D74852B63F356DEFC94FE349391991931EEA4DE0CFFEB84A2CEE295482 000000001005d398     guideXOS.obj
 0005:000113e8       __Str_Miranda_Technologies_Ltd_D7A156739ED63528A70D5E80A30A68CE27B48DB124ABDECCA4D9F9F50D95261F 000000001005d3e8     guideXOS.obj
 0005:00011430       __Str_Mitac                000000001005d430     guideXOS.obj
 0005:00011450       __Str_Mitani_Corp_545ADD980D2B2EF89FC31F769828293DA515B5B812220A79840F6CE98A280D9B 000000001005d450     guideXOS.obj
 0005:00011480       __Str_Mitel_Corp_1E48DC8FD3F9FF06326F9FEC9B434DC123C44B85CBE4116A5B5C735A69C0C7F9 000000001005d480     guideXOS.obj
 0005:000114b0       __Str_Mitron_Computer_Inc_00C798B4EF57D4A29C76778C9FA06AD6FCAB3B82946654D60930D8DA82930262 000000001005d4b0     guideXOS.obj
 0005:000114f0       __Str_Mitsubishi_Electric_Logistics__D6B6D743EEE762F568F029C87FBA483ED68FFBA5C9FFDE0873F00FAC0220E12E 000000001005d4f0     guideXOS.obj
 0005:00011558       __Str_Mitsubishi_Electric_Microcompu_CEE8D0FB7D8CF5F36EE24F079E826FBF31213D63578B21927CD710F97DD00639 000000001005d558     guideXOS.obj
 0005:000115b0       __Str_Mitsubishi_Electronics_53EEFA9C1AD3187DD92C7F075C006F6FDAD7A1E0016C542D361FF2117EDDBA32 000000001005d5b0     guideXOS.obj
 0005:000115f8       __Str_Mitsubishi_Electronics_Corp_A1EA5C54A2EC553AA1EFD8229A0585344B8E929DD115C70EA17E0119BEBD64D3 000000001005d5f8     guideXOS.obj
 0005:00011648       __Str_Mitsui_Zosen_System_Research_B63C995268995A0F35B0630786F4118CC2DA609433EB42F9A3675F764D02D1C2 000000001005d648     guideXOS.obj
 0005:00011698       __Str_Mitutoyo_Corporation_153CCB68EAF3D5B44FABE4FBB38333B630DEFF975C25B9D2E645EEDC29352A7C 000000001005d698     guideXOS.obj
 0005:000116d8       __Str_Mobham_chip_3552E2111782100825A660B5DD2DBED31643AEEFA81BFE5A21E11DE146D1BEBB 000000001005d6d8     guideXOS.obj
 0005:00011708       __Str_Mobilian_Israel_Ltd_E6DC45D336BA97E36596E6CD64F162C48ECB3A7E30EEE0B5A87E76C58C6FE370 000000001005d708     guideXOS.obj
 0005:00011748       __Str_Mobility_Electronics__Inc_A6EB5CAF03406B8D40A0FB2E76FD6CB5AA5C4993592441B0C978E464AC1CE4AA 000000001005d748     guideXOS.obj
 0005:00011790       __Str_Modular_Technology_Ltd_CC70E17FD47848C260E52C6B3931C9F7BFE966E7CAF2BD85DF2383398A16FA67 000000001005d790     guideXOS.obj
 0005:000117d8       __Str_Molex_Incorporated_0173CD7DE4C54C6AF63A7AFA2F6DD2D4792DBE147CE700EE97D5EA29173527ED 000000001005d7d8     guideXOS.obj
 0005:00011818       __Str_Momentum_Data_Systems_E947B83B388E0A5D099429867DA1A911C95F2BB3B56E5F1C79FA3419BF1FB017 000000001005d818     guideXOS.obj
 0005:00011858       __Str_Monarch_Innovative_Technologie_86A9D215B0A86378F6204E703F9B02EA1E84F1CCA6F01C68F0CCB1C7DDE28D04 000000001005d858     guideXOS.obj
 0005:000118c0       __Str_Monitor              000000001005d8c0     guideXOS.obj
 0005:000118e8       __Str_Moreton_Bay_F80068FD7EDF49968403BAB98DB4DAD38DF823CBBA77C1926157AE5AAB724E3B 000000001005d8e8     guideXOS.obj
 0005:00011918       __Str_MosChip_Semiconductor_Technolo_49CA48C9529CC4DC6CF74CD0697B603AC22A1CA891FCC977B81B0F40EC62CECB 000000001005d918     guideXOS.obj
 0005:00011970       __Str_Mosaid_Technologies_Inc_1563F8E5566922C8C5F3DBE6A75FF7D98A8A65B326796FEF4DE3AB9685E6695B 000000001005d970     guideXOS.obj
 0005:000119b8       __Str_Motion_Engineering_Inc_CB57FC0E33DFCD153F3125652BD9D12DA6B769A2515AB6E2004D3C1DA56BBE5D 000000001005d9b8     guideXOS.obj
 0005:00011a00       __Str_Motorola             000000001005da00     guideXOS.obj
 0005:00011a28       __Str_Movita               000000001005da28     guideXOS.obj
 0005:00011a50       __Str_Moxa_Technologies_Co_Ltd_631CA30633EE938E3DF731081EEA79C627B8C16EC01B69A4BE1CA846900CDA14 000000001005da50     guideXOS.obj
 0005:00011a98       __Str_Multimedia_controller_FB819CF3E8FC540A605736429A12B25C6DEAF0E588F97A2D860BFEC36E902612 000000001005da98     guideXOS.obj
 0005:00011ad8       __Str_Multiply__C936E7AC7B3AEC83F1B9EBA6447FBEC31F112EE9DF21D1558D6AAD223F16B876 000000001005dad8     guideXOS.obj
 0005:00011b00       __Str_Music_Semiconductors_A54678CE7D80E1CE781FB56DF5B956505B202C12E6BBB526F32F27F10915ABEF 000000001005db00     guideXOS.obj
 0005:00011b40       __Str_Mutech               000000001005db40     guideXOS.obj
 0005:00011b68       __Str_Mutoh_Industries_Inc_1DB2789BEF3556556933416C5F708D6B6A357CD359ADC9BE3F3E5F4BCCDAAA8D 000000001005db68     guideXOS.obj
 0005:00011ba8       __Str_MyName_Technologies__Inc_6059B7954AFEA64E78FB7812BE1F99FB8CEF1B5D9E0ABE1F71F8D981CE13C61E 000000001005dba8     guideXOS.obj
 0005:00011bf0       __Str_Mycom_Inc_A1D4FBB5F446E419EA9E1CBD18FC149663E0FFAFFC6BE7D275F1D8EF37931C7A 000000001005dbf0     guideXOS.obj
 0005:00011c18       __Str_Mylex___Buslogic_E7C6AB0CBC042E8E9D173A0B5B4B3FE69B7C1220489A3626F9A7964D1B3CBB62 000000001005dc18     guideXOS.obj
 0005:00011c50       __Str_Myricom_Inc_3C3850E0588F80B51F1001DADF3653401F85E232FB79FAC51B81E95B1B8B4E43 000000001005dc50     guideXOS.obj
 0005:00011c80       __Str_Myson_Technology_Inc_500C1FBA98606751FA51659340F459F1907814B3B7DFB90D5982D04C7739A411 000000001005dc80     guideXOS.obj
 0005:00011cc0       __Str_N_CubedNet_A6F1D092320F7973DD96980A9FDCB6879DAFBE5F5BDBB6F67CBCFDD6F6EA1098 000000001005dcc0     guideXOS.obj
 0005:00011cf0       __Str_NCR_Corporation_3E0D2C2CCF127A1BD1AA5298502153A7D0CD1AAF97E0901091F26642CF4197AE 000000001005dcf0     guideXOS.obj
 0005:00011d28       __Str_NCS_Computer_Italia_E28B75887BEE2C3B2326B576ACB4CF6F209E0EA138809A1AAE02D812314C451E 000000001005dd28     guideXOS.obj
 0005:00011d68       __Str_NDS_Technologies_Israel_Ltd_80EC01651E24DA17FC1D8908443B990F6A5A747FE7A19593CEE95A1944347F37 000000001005dd68     guideXOS.obj
 0005:00011db8       __Str_NEC_Computer_International_4881A2BDA6A935F1F4B85C52E21CF6400221322FC4B1783D7430F8422B616E66 000000001005ddb8     guideXOS.obj
 0005:00011e08       __Str_NEC_Corp_0DEE06AFBF6B0B13F3D4118E9CFDC741F54F381B7A32C4520D9C1892B6E61C6C 000000001005de08     guideXOS.obj
 0005:00011e30       __Str_NEC_Electronics_BF0B0C386ADFDB1B25B2BD7BCF614C0AE98948AE33CD76CA4EF37BF3EFE685F8 000000001005de30     guideXOS.obj
 0005:00011e68       __Str_NICE_Systems_Inc_529F4F381E792131DC87B2DBFE12ACACB4485F766B94CE4C769DDA75BC7A5D14 000000001005de68     guideXOS.obj
 0005:00011ea0       __Str_NKK_Corporation_45A132F82CF9AABEC55DAA95DCD32630436DE1E661FC7990D44756FBF1A42198 000000001005dea0     guideXOS.obj
 0005:00011ed8       __Str_NMI                  000000001005ded8     guideXOS.obj
 0005:00011ef8       __Str_NMI_Electronics_Ltd_350A509D6FEECA26FA414F95E7A388BA56EAF3BABE7BBAD68E2E29088BC18857 000000001005def8     guideXOS.obj
 0005:00011f38       __Str_NSI                  000000001005df38     guideXOS.obj
 0005:00011f58       __Str_NTT_Advanced_Technology_Corp_63AEEE142FC13D96B8CB20EC4C02128452C59BED5E2AB4C319F8F1CEAD1FE07E 000000001005df58     guideXOS.obj
 0005:00011fa8       __Str_NTT_Electronics_Corp_EE4D3CAEC71C6F150511D7DBDE40936A8E2224BF3CF40C84A9C79400425B2B3E 000000001005dfa8     guideXOS.obj
 0005:00011fe8       __Str_NULL_POINTER_2AB6F4D59E2DA1CEED3F4C3E01F564F254667D66DEADAA97B0E61DE8A62C3227 000000001005dfe8     guideXOS.obj
 0005:00012018       __Str_NVIDIA               000000001005e018     guideXOS.obj
 0005:00012040       __Str_NXP_Semiconductors_NV_2BDACFCA092FA98FD3EB25A177C1D01DE344E4A26998423946B84085082F8C8B 000000001005e040     guideXOS.obj
 0005:00012080       __Str_Nallatech            000000001005e080     guideXOS.obj
 0005:000120a8       __Str_Napatech_A_S_191F3A0EB8A33C93AA6BF56218FDBD5D4F80C6D8DD47D082828A51F78DBA6769 000000001005e0a8     guideXOS.obj
 0005:000120d8       __Str_National_Datacomm_Corp_659374591CAF30958069CA02E5F9C435F0749FDAD6C3C83C35D7DA73C1403077 000000001005e0d8     guideXOS.obj
 0005:00012120       __Str_National_Instruments_C36ED1B3B68BAC6094672D9EFEDC4D10295EEA02CAAFDBA97473B057F48EC319 000000001005e120     guideXOS.obj
 0005:00012160       __Str_National_Semiconductors_F8EDC8EF4A49AAEB340B9DEA5DB20EBF4313CF8DE88F26E214A308F5652F8B01 000000001005e160     guideXOS.obj
 0005:000121a8       __Str_Nature_Worldwide_Technology_Co_74F3021ABE043CF918DA703B07F27883B48B5DF4F03C83EC85CD9302265C37B1 000000001005e1a8     guideXOS.obj
 0005:00012200       __Str_Ncube                000000001005e200     guideXOS.obj
 0005:00012220       __Str_Neomagic_Corporation_C5BD3CDE53CAA2516F5667C28F0087D77DA80C90270200E7A31EBEBCB9534D7F 000000001005e220     guideXOS.obj
 0005:00012260       __Str_Nest_Inc_6F1F7EE676EF7EFD7BCEE812A0818CDBE201903EC7FBE7153BC0929D6FEC5260 000000001005e260     guideXOS.obj
 0005:00012288       __Str_Net_Insight_80F1591918EF9BAC212664618AC858867B4CC70D122B212C942696B607DF6135 000000001005e288     guideXOS.obj
 0005:000122b8       __Str_NetChip              000000001005e2b8     guideXOS.obj
 0005:000122e0       __Str_NetContinuum__Inc_1D25F7D34DB448264F1E8D7F573B3464348A53CECCD392A50359183E603470B4 000000001005e2e0     guideXOS.obj
 0005:00012318       __Str_NetOctave_Inc_457EF111CE850021F094485C7C8023677CBA02A7748A4BB0C09BE220FCE07076 000000001005e318     guideXOS.obj
 0005:00012348       __Str_Netboost_Corporation_D78CA4AD1E5496E4407E5E7E3A547D99E81F2B9914A57FA4B1FE2176C3E8B27F 000000001005e348     guideXOS.obj
 0005:00012388       __Str_Neterion_Inc_67DF1C691AA5C7F24BADD93DAD9F0A829E2AFFD4F90A86FA65D5E7453F4FA63B 000000001005e388     guideXOS.obj
 0005:000123b8       __Str_Netframe_Systems_Inc_DC9469F692C3D1E1562FAECAE83F0FBB618B1CD862E5BB05037F66DA0C1AD42B 000000001005e3b8     guideXOS.obj
 0005:000123f8       __Str_Netgame_Ltd_2EEBE345F3D5274E208FEEBEF8EA90B229599D7B311C1FB61382B0FF868608D5 000000001005e3f8     guideXOS.obj
 0005:00012428       __Str_Netgear              000000001005e428     guideXOS.obj
 0005:00012450       __Str_Netpower_Inc_A1CD988A5C714B1797B31FDF0862502488B384ED83123FF4FE228CD5D4A267B7 000000001005e450     guideXOS.obj
 0005:00012480       __Str_Netspeed_Inc_BE6D99FC7FCBF3384F2772EC6626F05AA5E4D1CB6DEF0635426D171AE23CC81D 000000001005e480     guideXOS.obj
 0005:000124b0       __Str_Network_Appliance_57290BA128DB6CA9333CBAF1CB22EB3361B13AE724F3430F5EEF9A6816C75474 000000001005e4b0     guideXOS.obj
 0005:000124e8       __Str_Network_Computing_Devices_0777AE6C422C655E15FF4BE40F8822DA12736B62B785541C1E3900498637D4C0 000000001005e4e8     guideXOS.obj
 0005:00012530       __Str_Network_General_Corp_219420E2301F1AF8B7F5394B6E3541541FF516020BB5A2AC0579E6DFAEB3BEFB 000000001005e530     guideXOS.obj
 0005:00012570       __Str_Network_Peripherals_Inc_9B6F74B1020835526517853D36581FE4292E398D0EBFC4BED3667008E3D651A8 000000001005e570     guideXOS.obj
 0005:000125b8       __Str_Network_Security_Technologies__99BF39EDE061569A3AC464C9D2D9DAA43D8E0A928F58E67CCC8CAC7F66957CC1 000000001005e5b8     guideXOS.obj
 0005:00012628       __Str_Network_controller_A76E2A0BAA343927207A71311E7F1114A44F3449A710D2CC0592B655E82EFC56 000000001005e628     guideXOS.obj
 0005:00012668       __Str_Networth_Technologies_Inc_5AE90C18350E3E018A6837A3DCF8BFF7CE2F2C749B1D109D407312616D840F46 000000001005e668     guideXOS.obj
 0005:000126b0       __Str_Networth_controls_5E8F90DB9B87BA9F9A711A74196F564A5DBCD8C62238CC10907EBF6C5CC9F2BE 000000001005e6b0     guideXOS.obj
 0005:000126e8       __Str_NewGen_Systems_Corp_E3506CBA8742F515A25D9C3F4E10B28C8DB7C6FC30775A3DEDA6DE5248A6DF86 000000001005e6e8     guideXOS.obj
 0005:00012728       __Str_Newer_Technology_Inc_A47B00885BF72D4309234DAE7ACBC19B3240BFF2FBEEC0FC21E9946B8ED5A482 000000001005e728     guideXOS.obj
 0005:00012768       __Str_News_Datacom_8D6BAE7B0FDDA503867198E6C2F223A93543FB9060FCA33A2C2AD55F043DB999 000000001005e768     guideXOS.obj
 0005:00012798       __Str_Nexgen_Microsystems_2B3ECE83699E584E062F133353DECB47D48E3330997EEF4395E1E42D2473D07D 000000001005e798     guideXOS.obj
 0005:000127d8       __Str_Nextcom_KK_02CC96B2B10E3FD8ADF277CBFBEF6427DB74052F8AB0647C0BC0241FFA7C9439 000000001005e7d8     guideXOS.obj
 0005:00012808       __Str_Nicolet_Technologies_BV_D0C37A2A56F345ED0B9BDF31CD67BED4D5A2B92472F843F3DE7E67B8690746A2 000000001005e808     guideXOS.obj
 0005:00012850       __Str_Nihon_Unisys_Ltd_1C4292673E262C256FA99F7AD2A8EE36E9AB5DB2953E2EECBB2CE429694F8026 000000001005e850     guideXOS.obj
 0005:00012888       __Str_Nikon_Systems_Inc_03AB346B769768E80771158F1F07E1200C444964EF51FE8706AF3C3F040AC3B4 000000001005e888     guideXOS.obj
 0005:000128c0       __Str_Ningbo_Harrison_Electronics_Co_6E35089723DE2901D8725E69AAED1AABD5EDAB253911205D10BE9A558BEDCBC3 000000001005e8c0     guideXOS.obj
 0005:00012920       __Str_Nintendo_Co_Ltd_F01D8F1A560AA19C4D543B07FFEFCEB5E0F747E8497A43DEF37E318AC613D12D 000000001005e920     guideXOS.obj
 0005:00012958       __Str_Nippon_Systemware_Co_Ltd_84C9B3C6A69E0424AED80AB0001EE22437BE3AC1258D97E13EA4511CD0DF7659 000000001005e958     guideXOS.obj
 0005:000129a0       __Str_Nippon_Texa_Co_Ltd_D28D262DF5F564067F9AC3F94108B9A61CD69AA04D1F4F7A0F1BECDD35F7250A 000000001005e9a0     guideXOS.obj
 0005:000129e0       __Str_Nippon_Unisoft_Corp_CC50296638EB7017C2CAFDEADA3C232A94DE5DE4666FE0EB2E97E0E79F97F92A 000000001005e9e0     guideXOS.obj
 0005:00012a20       __Str_Nissin_Inc_Co_361A58B3EB7707249E0B7ABA98AF82F62E86C4C828E0BFC8A2F5638ABFF70026 000000001005ea20     guideXOS.obj
 0005:00012a50       __Str_Nitsuko_Corporation_48D5F42F3C874282ABD487303E51CC3B6A04287D64C2F693776CBEAD04E22E27 000000001005ea50     guideXOS.obj
 0005:00012a90       __Str_No_application_can_open_this_f_EF2E53B752B2F7D3971E742848D13DE99FE49F50B5ABB6B4416A9212DE1E0BDF 000000001005ea90     guideXOS.obj
 0005:00012af0       __Str_Nokia_Home_Communications_11ACA342FF93C0CAF7447028C4072CBF6AE50475F69E6D906D21FB99F06B2AF2 000000001005eaf0     guideXOS.obj
 0005:00012b38       __Str_Nokia_Telecommunications_OY_7AA04B1868575E09E1F95ADE910507F2A1ADC650AFDA51A7CC7A13FE04F271B6 000000001005eb38     guideXOS.obj
 0005:00012b88       __Str_Nokia_Wireless_Business_Commun_0EC91059712BA82473EA9BAF25C47E86A2D0C53DCDCB35F41262728FB046A3AE 000000001005eb88     guideXOS.obj
 0005:00012bf0       __Str_Non_Essential_Instrumentation_092D60ACFC5125763F2053793A3846EF2C8DB8D372DA0D2DAD420504CFDB64D8 000000001005ebf0     guideXOS.obj
 0005:00012c40       __Str_Norpak_Corporation_DFFF8C353FF938EA7D1EDD4FF4984D6763D44E6C06FFF61797C0A027E16C78B9 000000001005ec40     guideXOS.obj
 0005:00012c80       __Str_Norsk_Elektro_Optikk_A_S_87FA14FB8675EF6F8A0884DAD1002E61E0C828B3498BEE20BA436B8B0F0778FD 000000001005ec80     guideXOS.obj
 0005:00012cc8       __Str_Nortel_Networks___BWA_Division_6F214F436A799AD152203843B99675B8FC7135B11C6AA38B45FBED3B785B10B2 000000001005ecc8     guideXOS.obj
 0005:00012d20       __Str_Nortel_Networks_Corp_609B68CC2C1ADE8EDE33761E48038702BC698A27272F15F213CAD9D6728FFAC2 000000001005ed20     guideXOS.obj
 0005:00012d60       __Str_North_Atlantic_Instruments_1FA5A60D036F9E72FDA4E05EC842C165E2E6D321B87E285B8384C442698C841B 000000001005ed60     guideXOS.obj
 0005:00012db0       __Str_Northrop_Grumman___Canada_Ltd_B217403AFF33737AA47CB3441CC4C589444EE5B14E79B02D2F0B9B64873FD68A 000000001005edb0     guideXOS.obj
 0005:00012e00       __Str_Notepad              000000001005ee00     guideXOS.obj
 0005:00012e28       __Str_Novell               000000001005ee28     guideXOS.obj
 0005:00012e50       __Str_November             000000001005ee50     guideXOS.obj
 0005:00012e78       __Str_Number_Nine_Visual_Technology_A2175B8642AF1AE1BC6285BD4E152F039334B6F3E561E0E9977BE872B9157ABE 000000001005ee78     guideXOS.obj
 0005:00012ec8       __Str_O2Micro_Inc_B667760B5B194F8144A176FCE3FE6FD4FCA2B23416D27E779A822A00C5FF1D61 000000001005eec8     guideXOS.obj
 0005:00012ef8       __Str_OA_Laboratory_Co_Ltd_F842EB4EEA8CF30AA6C8BF4A9B20F7FB130E88E9D9122DAF8082ACF19E355012 000000001005eef8     guideXOS.obj
 0005:00012f38       __Str_OCE___Industries_SA_13861F1F36451071DAFCB16E345BA410FF29D858612A50A0B02AD4F4881BC70F 000000001005ef38     guideXOS.obj
 0005:00012f78       __Str_OEC_Medical_Systems_Inc_8C848EF457753548B21B92655F710476BDD96412CDD2A802759E65078E0E43FB 000000001005ef78     guideXOS.obj
 0005:00012fc0       __Str_ON_Electric_Co_Ltd_D969C05F95597C05B766F8BECCF5826B37D8B5798732603381ED6DF5F4EBF6C2 000000001005efc0     guideXOS.obj
 0005:00013000       __Str_ONO_Sokki_24D69E2F3E9872CE04383A329B244FC1F1C6712D22A0F6DA72D533272AB62859 000000001005f000     guideXOS.obj
 0005:00013028       __Str_OPTi_Inc_60781C21EB68CE833C8DD4BCC14CC465197EACBCE9E04B13C6566F9EBF2D5061 000000001005f028     guideXOS.obj
 0005:00013050       __Str_OSI_Plus_Corporation_8F12889C95FE801A7696F526ECFD06385D94FD92EF0C8184A35D05912EF6DDFA 000000001005f050     guideXOS.obj
 0005:00013090       __Str_OVERFLOW             000000001005f090     guideXOS.obj
 0005:000130b8       __Str_Oak_Technology_75029A7292BD448B0B4BA3AC894C73C4B66684B64960C0D718706A5EB4F1F03A 000000001005f0b8     guideXOS.obj
 0005:000130f0       __Str_Oakleigh_Systems_Inc_D785608F855353C41C6FAB05954887CDCF2763D13FA5FB9B8445FCBAC62F6549 000000001005f0f0     guideXOS.obj
 0005:00013130       __Str_Oce_Print_Logics_Technologies__92A72EFF98ADA1EB5E4C55B6E80A23FFFE6F7E503E3311EA8C8627AF8310ED5C 000000001005f130     guideXOS.obj
 0005:00013188       __Str_Ocean_Office_Automation_3F2B4E7C16E8EC8702E22717DFC7F6FE9096112C60ADA38F55E2AC5AFDD13EBE 000000001005f188     guideXOS.obj
 0005:000131d0       __Str_Octave_Communications_Ind_5DDC6C601FD7FB3F202CBB0B1369E33F117B94F0D4A0385663A0A44F9DA580A7 000000001005f1d0     guideXOS.obj
 0005:00013218       __Str_October              000000001005f218     guideXOS.obj
 0005:00013240       __Str_Odin_Telesystems_Inc_BE4745B86350B05DFCD81CA6B50C9E9027FCB2515DF88386C3A82F00597B369B 000000001005f240     guideXOS.obj
 0005:00013280       __Str_Oki_Electric_Industry_2462222A0BDDC7417A936DB1CE39AD55248206574F24CCDAF7B8D62033242C93 000000001005f280     guideXOS.obj
 0005:000132c0       __Str_Olicom               000000001005f2c0     guideXOS.obj
 0005:000132e8       __Str_Olivetti_Advanced_Technology_9EA7F655C9AA41BA5B224E268760880C50868D4F95B56DFDC67284C966F9FE3E 000000001005f2e8     guideXOS.obj
 0005:00013338       __Str_Olympus_Optical_Co_Ltd_9485BBC8B299C79BEF615FF6D7E00DF3192DB772396A33C3DA5D3EE21A16CDE7 000000001005f338     guideXOS.obj
 0005:00013380       __Str_Omega_Micro_Inc_0FC5C09E4F8F36FD984783167CBD2CFB9F53D28B37CB98641912EC2991E75146 000000001005f380     guideXOS.obj
 0005:000133b8       __Str_Omni_Media_Technology_Inc_08488DEF90F73A0FB6A654C02E91F248F05944B3473FA5505ED644211C0468E5 000000001005f3b8     guideXOS.obj
 0005:00013400       __Str_Omron_Corp_5DE304FA61E8D004B197D5E4C66AD4006B424859765651803D9408BFAF066D29 000000001005f400     guideXOS.obj
 0005:00013430       __Str_Omron_Corporation_B5A89116C11CFE5178D1E8EF3483757313AC8B19F9B940A9B5D899BEF3E083E6 000000001005f430     guideXOS.obj
 0005:00013468       __Str_One_Stop_Systems__Inc_2A8FFA6920B53F9ACDA7903F6A2B2C24E0AF708207DDC920BA0A5DAEFD48475F 000000001005f468     guideXOS.obj
 0005:000134a8       __Str_Onkyo_Corp_91C1BF9391217954AEF8970CD7D4FF72DB1D8FCA4BE735C6A2681C8D7B76EC10 000000001005f4a8     guideXOS.obj
 0005:000134d8       __Str_Only_support_24bit_or_32bit_bi_984E25FAF83A38D5E57070929DCC7CBC85BA94FF70C3BDC698DA775197E0C8C1 000000001005f4d8     guideXOS.obj
 0005:00013538       __Str_Open_Network_Co_Ltd_7F8CB79084758160C19C2AE8D6574F7F1C755BF52C647B6D0E65A9A14926F161 000000001005f538     guideXOS.obj
 0005:00013578       __Str_Optibase_Ltd_8A8237E9E7EB98C61EE6B70DCA6092EBB0958DE4D9BF50CBD2FCF8B0274CD80F 000000001005f578     guideXOS.obj
 0005:000135a8       __Str_Option_NV_E9274052E34568F2DA12E9B17B88EEDFC624EDF3F18CB2D3EC3CDE14DB476E1C 000000001005f5a8     guideXOS.obj
 0005:000135d0       __Str_Optivision_Inc_E3B03502636D45C791CC1B7060078426786040BFD02B91F64F18F9C6086C189C 000000001005f5d0     guideXOS.obj
 0005:00013608       __Str_Opto_22_241B57CDB39DBD754AFA09F3528EEE8F3A1CC4F163AF3F5826ACB634DEA9C04A 000000001005f608     guideXOS.obj
 0005:00013630       __Str_Oracle_Corporation___InnoTek_S_BA0624C7E60ED8CBF4A4964D0D811F9996CB9AEBA83516F10159B28BFCE5F4D2 000000001005f630     guideXOS.obj
 0005:000136a8       __Str_Orange_Micro__Inc_10BDF63960E93CDB6DF47E45E798F63FECC07B5C8C76D81F4DD207F45AA4DF77 000000001005f6a8     guideXOS.obj
 0005:000136e0       __Str_Oregon_Micro_Systems_Inc_E07CBE1DEDFF434AD55F32FC9B44F4A42EB3DC0FB77E86694C923974A79DF22C 000000001005f6e0     guideXOS.obj
 0005:00013728       __Str_Osicom_Technologies_Inc_FCC39AFB5A29080D616895C4CA48B403EEA21A4AA225DB81D91FEAA252F15058 000000001005f728     guideXOS.obj
 0005:00013770       __Str_Otis_Elevator_Company_D3E2A10CE272FB7C2C8D008C9BEFE354C09DA03FDBC5140756027B2B5EA38749 000000001005f770     guideXOS.obj
 0005:000137b0       __Str_Overflow_Exception_17237AF782D07A92022A4D5580D2801A70B34EB55F2A9A808C4A85755371880F 000000001005f7b0     guideXOS.obj
 0005:000137f0       __Str_Oxford_Semiconductor_Ltd___now_55078A26B5B67AAE3C342722A67F75A3F9D0944C8BE76FCC43B61647D9748848 000000001005f7f0     guideXOS.obj
 0005:00013870       __Str_PAGE_FAULT_AC0C9BB7DF0A800C1DAAE3D0672B6A1CC78305DCE93C4796332016D0426511AF 000000001005f870     guideXOS.obj
 0005:000138a0       __Str_PAN_International_Industrial_C_9E636674693EED6914DC767C52C9E65F1318CA25DA9D689769557AD63C862D44 000000001005f8a0     guideXOS.obj
 0005:000138f8       __Str_PANIC___18B9166B01C111C4C7D12C937E9C010FAC0A3B1BA35AA56F1A4A9DC62B7F3624 000000001005f8f8     guideXOS.obj
 0005:00013920       __Str_PC_Direct_509E517DE3E36F641F00408D0E31333398DB38DA91CCD5FE8A1D85FE0461C3CF 000000001005f920     guideXOS.obj
 0005:00013948       __Str_PC_Partner_Limited_91FDE4E85EDFE6B64B188DB6345313A7B4AE76F9D5490979DFFDA5C08D25E13B 000000001005f948     guideXOS.obj
 0005:00013988       __Str_PCTEL_Inc_971904C7EAEFDFBC03963D0BA464E959E2D638192CE80D5D8DA57D0432FF6E55 000000001005f988     guideXOS.obj
 0005:000139b0       __Str_PFU_Ltd_C3AFBE7BA1F96AC1BFF8551D83DE46EE1C494140B64C12AB5CDFD8FBAED7AD37 000000001005f9b0     guideXOS.obj
 0005:000139d8       __Str_PINE_Technology__Ltd_102895491967AD089FF5A5328A68F57BD937AFE9B87C36E9A6BA652A5DD4F6E8 000000001005f9d8     guideXOS.obj
 0005:00013a18       __Str_PLDA                 000000001005fa18     guideXOS.obj
 0005:00013a38       __Str_PLX_Technology_Inc_26A55268CCDF266F7579A74A2F28F239CB62E706062ADC132AD4A709CFEF9C52 000000001005fa38     guideXOS.obj
 0005:00013a78       __Str_PMC_Sierra_Inc_32C159E77F417A2F2B214ED771466EDB0596784B56B8E5735199342E8EDAFD62 000000001005fa78     guideXOS.obj
 0005:00013ab0       __Str_PPT_Vision_0F66683FE68E052EE78A21373159E644FA080654AB69ADF1C947D740E0C9A3A8 000000001005fab0     guideXOS.obj
 0005:00013ae0       __Str_PX_Instruments_Technology_Ltd_DB0CBCD6C731F15AA2B6239C5ED9294B0023453C6C4E852F29144B10696042AC 000000001005fae0     guideXOS.obj
 0005:00013b30       __Str_Pacific_Broadband_Communicatio_08FBD76E305918F3D8FCD1E9FACDA9A50F76463BC6CFFE3D160AB9BBF1D8305D 000000001005fb30     guideXOS.obj
 0005:00013b88       __Str_Pacific_Digital_Corp_DBAFF23EED4BA882251F45662F6C97E95069278FF159FFD2ADADF17796A6B926 000000001005fb88     guideXOS.obj
 0005:00013bc8       __Str_Packard_Bell_ED15B9729671ABF48A972DE637C8665399C831C02169828475A623B9AEF1D64E 000000001005fbc8     guideXOS.obj
 0005:00013bf8       __Str_Packet_Engines__Inc_E6759A2A20B4751DC5E07B60BB550E74FAD997AFFD134F6EB5FD11250E00FB6E 000000001005fbf8     guideXOS.obj
 0005:00013c38       __Str_Paint                000000001005fc38     guideXOS.obj
 0005:00013c58       __Str_Pairgain_Technologies_BC2A2C568F5F83433FDF1A96CB0F4A7C9E9295BC96D9063FA3405ACBB1FD9558 000000001005fc58     guideXOS.obj
 0005:00013c98       __Str_Palit_Microsystems_Inc_FB122F85C617D33A397DF577105A86BED2F000F0ABBA631F46F7372486D34FBE 000000001005fc98     guideXOS.obj
 0005:00013ce0       __Str_Panacom_Technology_Corporation_450165E7DD1975024B956A4300220572816C4E59EF628A08B0E9BEF38CD227AC 000000001005fce0     guideXOS.obj
 0005:00013d38       __Str_Panda_Platinum_1F94E460BF03F8312C7FF6DE0DAA483FF2DC4BD09196FCA43ED0E5BF1D255CB1 000000001005fd38     guideXOS.obj
 0005:00013d70       __Str_Parador              000000001005fd70     guideXOS.obj
 0005:00013d98       __Str_Paradyne_Corp_E2DACA2B50CEE326A77AA5EC78BD390E9CC3A990BF1AC09557B49F82E3A967CF 000000001005fd98     guideXOS.obj
 0005:00013dc8       __Str_Parallax_Graphics_D23D7E04B067C12BB1E51DFB115067E741BD2D9A39787A972D5C07961B3ECE27 000000001005fdc8     guideXOS.obj
 0005:00013e00       __Str_Parsytec_GmbH_1EE08BB9EDD7746BC2BFC176BF00C8B51A6308989D8764032E17029DBD7A067B 000000001005fe00     guideXOS.obj
 0005:00013e30       __Str_Patapsco_Designs_Inc_78B70D36B09F72CFE8DF4B7AD3121B00C62EF2654EE4EE65530E29209A9D3B77 000000001005fe30     guideXOS.obj
 0005:00013e70       __Str_Pathlight_Technology_Inc_4963761E0C5A3DC8162171F4C48602808357866A59B78C40017007AD75EE66ED 000000001005fe70     guideXOS.obj
 0005:00013eb8       __Str_Patriot_Scientific_Corp_134C6462222A24D2944F314ECA1D382A3928E79018CC6763CAF2EF21805769B1 000000001005feb8     guideXOS.obj
 0005:00013f00       __Str_Peer_Protocols_Inc_52DD121B528475C807A219CAB65C18F0245F97630668D6ADE470532325C48D30 000000001005ff00     guideXOS.obj
 0005:00013f40       __Str_Pelago_Networks_2A2596AD8EFF3F3809AACE12082F5DA7B9F61BED40DC095A54159718C964A83B 000000001005ff40     guideXOS.obj
 0005:00013f78       __Str_Penta_Media_Co_Ltd_587C874765A3D2527B6C686803388C0D1AC292F28B27DF41C8D0E264645B615A 000000001005ff78     guideXOS.obj
 0005:00013fb8       __Str_Pentek               000000001005ffb8     guideXOS.obj
 0005:00013fe0       __Str_Pentland_Systems_Ltd_B5D0E33222204F5D8DA663EB60D084F2884D70F7209F263FFA7FA26E75ABC83A 000000001005ffe0     guideXOS.obj
 0005:00014020       __Str_Peppercon_AG_7A0278BFA714EE296FCD8B996BE36B0FBD07B73CEED059BB085830505212FE77 0000000010060020     guideXOS.obj
 0005:00014050       __Str_Perceptive_Solutions_Inc_29A5268B8094A12C6CC310862F1F5E67A62E6C9512E15D5BFF4D751201E3CB2B 0000000010060050     guideXOS.obj
 0005:00014098       __Str_Performance_Technologies_Inc_E7F52A29A92B622F6BEB47A4FADC4ABECE4E758B6958D822A3DD8BFBC37D3D75 0000000010060098     guideXOS.obj
 0005:000140e8       __Str_Pericom_Semiconductor_9F1BE433E85714C63C46777380953D07ED95AF66777F36574D8A82E8A09085F7 00000000100600e8     guideXOS.obj
 0005:00014128       __Str_Periscope_Engineering_584D05949A41BFBF25C76523F4B3B9020566E29D29D084E0828684F2341853A3 0000000010060128     guideXOS.obj
 0005:00014168       __Str_Perle_Systems_Limited_AC2AA8E88C5C6E3EA1CD4B8095B5AB967A32827B44A18626CE4AABBC6E42FE44 0000000010060168     guideXOS.obj
 0005:000141a8       __Str_Philips___Crypto_40B997D9861DE95DBD52490526F6D013E3EF3EBCAC80B2F7273B2FB319C8F09B 00000000100601a8     guideXOS.obj
 0005:000141e0       __Str_Philips_Business_Electronics_B_4246CC29D51104A71FFA46BF6E4DD469479D9AF544AAD060D546DFAF36F2B955 00000000100601e0     guideXOS.obj
 0005:00014238       __Str_Philips_Healthcare_1B9544B9FC78BCD7AC98DFA1D02BCA465177C57277BF8FFB34029FF22A5680D7 0000000010060238     guideXOS.obj
 0005:00014278       __Str_Philips_Semiconductors_12E4FD6A6C5C115A1DA31B3F3F46E119931297B4A97CB57AB648FF118799F237 0000000010060278     guideXOS.obj
 0005:000142c0       __Str_Phillips_Components_B00A70C50A998A12659B049AEBDB1DAC8AFD0C84692F14F346FE81467B05E9DF 00000000100602c0     guideXOS.obj
 0005:00014300       __Str_Phobos_Corporation_51883516A86BC4C8480476D381BB15AFA0C54C12B4D4339C9AB116E7503A192D 0000000010060300     guideXOS.obj
 0005:00014340       __Str_Phoenix_Technologies_Ltd_F6EBCECB9ABF957C4F2120BABF44C9349FFEC8358311848557957FBEBB564F8E 0000000010060340     guideXOS.obj
 0005:00014388       __Str_Photoscript_Group_Ltd_D757DB638B4577EAAF9FF69FD81DA6787A64D15881D3A0812690C83908DCC546 0000000010060388     guideXOS.obj
 0005:000143c8       __Str_Photron_Ltd_3EBA193C81172BABB292053E1B3D5E21EBA8C05CBC29A10C448355426DD29D1F 00000000100603c8     guideXOS.obj
 0005:000143f8       __Str_Picopower_Technology_43A63679E868A60217312960C071CC95B66DE52488B175E371A64D02ED630268 00000000100603f8     guideXOS.obj
 0005:00014438       __Str_Picture_Elements_Inc_E0B2B6B6AEA10F5B6E1EEB2E96BC5A590AE4A7EBF3328C682CD579E938EB5E16 0000000010060438     guideXOS.obj
 0005:00014478       __Str_Picture_Tel_Japan_KK_D90083FAA7B2F2A0072431C0D885F98045887D21776F80645E9D70B3D3990080 0000000010060478     guideXOS.obj
 0005:000144b8       __Str_PictureTel_Corp_1AA3ED8C8EBD7DD433A83E931EC6E6F02D10BE52C943BC1EAF5FEAB38768A7DF 00000000100604b8     guideXOS.obj
 0005:000144f0       __Str_Pine_Technology_Ltd_B4DE6B47E6DB09BCF52EE15763A6929D229C940E788263DD2965AED949DF8FB8 00000000100604f0     guideXOS.obj
 0005:00014530       __Str_Pinnacle_system_78A643B642AD4409E53BD689238D98253A3883150182BC115DBC484AD4737540 0000000010060530     guideXOS.obj
 0005:00014568       __Str_Pioneer_Electronic_Corporation_AB53688D0869CC0F4650205882DEA09ED2CBB7320E94497B64A0C44F2E98A247 0000000010060568     guideXOS.obj
 0005:000145c0       __Str_Pixera_Corp_3752A1E491BD690B9E3CDC1450F75987DFD7546AC3715C1D386A21A8C7BDE39A 00000000100605c0     guideXOS.obj
 0005:000145f0       __Str_Pixstream_Inc_442B10FC987FAADBC1C5D2CE89DC25B97E96215ED1F06AEF340665EC6CB22A48 00000000100605f0     guideXOS.obj
 0005:00014620       __Str_Planex_Communications__Inc_910BA443A82DEF5ADD62BD69F358ABC680BBED36D246E12960B45C73459285A2 0000000010060620     guideXOS.obj
 0005:00014670       __Str_Plant_Equipment_Inc_0D12A83C804D8CC88E5EC681388AEF06FABC99339003A9AF7CD23C902AA539F0 0000000010060670     guideXOS.obj
 0005:000146b0       __Str_Platform_Technologies_Inc_F97819099E54A317E5AF39EF4ADE696093176826DFFF65BE6B53AF58B07805E9 00000000100606b0     guideXOS.obj
 0005:000146f8       __Str_Playing___14AEC08E8DC91D73BE51B9C962FDF20C9B37C67B9945CF01643FFC01942F827A 00000000100606f8     guideXOS.obj
 0005:00014720       __Str_Pluto_Technologies_Internation_A744AF0D0383835E713FFFABB03223CCCD12A5F7018AD4C8B9F0C75628CD2B84 0000000010060720     guideXOS.obj
 0005:00014778       __Str_Point_Multimedia_Systems_B5635E84FD7FFE54400212FED0CD5C6FCFCAF63F35DD2A73B875EF8FCD192E6B 0000000010060778     guideXOS.obj
 0005:000147c0       __Str_Portwell_Inc_99820425709A9C103B0C1351F5C78088FC62CCD39FF68BB5B8461BC1C3776CC6 00000000100607c0     guideXOS.obj
 0005:000147f0       __Str_Power_Computing_Corp_1391EF29A32AB06139436EFB3699CF9F44B3326FD584F2639B18B8BCFF7E300A 00000000100607f0     guideXOS.obj
 0005:00014830       __Str_Power_I_O_Inc_D47307FC05772FBEB90159BDD98C93B36FD20251FEDFF611F6AE4D1EE6CC8738 0000000010060830     guideXOS.obj
 0005:00014860       __Str_Power_Micro_Research_B05D3BC762F0FBF23599EF91D5D4D7D35AF95B0B48BE623859B200A500DB17FD 0000000010060860     guideXOS.obj
 0005:000148a0       __Str_Powermatic_Data_Systems_Ltd_7464C1FBB0CA8DEAA2DF0D1A3DC9419DCCBAFC20E7A3CF4F87842BC722727223 00000000100608a0     guideXOS.obj
 0005:000148f0       __Str_Precision_Digital_Images_F0952804EF5E7DA7CE141808128A863A536C6529D22E877C4CD2BD33E01C3990 00000000100608f0     guideXOS.obj
 0005:00014938       __Str_Press_W_or_Up_Arrow_to_unlock_3D98A364B179911418DD1FCB3A6D92AF94DF8A37D23EE0BF7406BF94DE8C6423 0000000010060938     guideXOS.obj
 0005:00014988       __Str_Primagraphics_Ltd_E87CE5391A76ECF8DBD0392C04632658C0950946D9A718AE4F56D2E8B144328C 0000000010060988     guideXOS.obj
 0005:000149c0       __Str_Primary_Rate_Inc_8179425528818A9B0576EB5405DEEA71F94041572A3EB1E8959FA3CBA615FCC8 00000000100609c0     guideXOS.obj
 0005:000149f8       __Str_Primex_Aerospace_Co_51EB86127DAEF57D505698861897423E40E73A55DFC22D22E8AE8DAA9ECA8C61 00000000100609f8     guideXOS.obj
 0005:00014a38       __Str_Prisa_Networks_63932DC182B11A4CA85D20606F9D1EB157B2DDA4756B49E01EF90A4710E9A1DD 0000000010060a38     guideXOS.obj
 0005:00014a70       __Str_Processing_accelerators_74B60FC4FD0F94701A0A213F310212D0B30D4625F7F2265AE2D81102608D1DB5 0000000010060a70     guideXOS.obj
 0005:00014ab8       __Str_Processor            0000000010060ab8     guideXOS.obj
 0005:00014ae0       __Str_Procomp_Informatics_Ltd_0896422A76CE7808FA48D5969AC13910C677F7140451BEAEC95534CFA2EA203A 0000000010060ae0     guideXOS.obj
 0005:00014b28       __Str_Prolific_Technology_Inc_3F16A5C513019E9504BE979010352C26C931ABCBE074290A5AD32A8A3EDC36CD 0000000010060b28     guideXOS.obj
 0005:00014b70       __Str_Prolink_Microsystems_Corp_22C861F4E85DA3BEBC1B64EEF3D94E156887BC3DA7479022B3DA108DE42135B7 0000000010060b70     guideXOS.obj
 0005:00014bb8       __Str_Promax_Systems_Inc_83E9BFFC14D591130298DE27AE2021A71593F82C8A38A71B1C9B04A3F5E87013 0000000010060bb8     guideXOS.obj
 0005:00014bf8       __Str_Promise_Technology_3F1440AABD793E967249F3FFDE671CE0554D28131ECF86A2D5B40BD8307D8F18 0000000010060bf8     guideXOS.obj
 0005:00014c38       __Str_Prophet_Systems_Inc_7099497A51A71FB42EF59A8C5A32B269BF81D28F0A01FEFCB068AAC6C927BC28 0000000010060c38     guideXOS.obj
 0005:00014c78       __Str_Prosys_TEC_Inc_ADA75385ECDAF4A4C7BA42BF00B8DD3B9C89F27C9E379EE230C4845DFE5F4F18 0000000010060c78     guideXOS.obj
 0005:00014cb0       __Str_Protac_International_Corp_D04BFB3A7DA2D0635F8065CD2776CF22195A8C144D9A8E07A23E90A46774F765 0000000010060cb0     guideXOS.obj
 0005:00014cf8       __Str_Proteon_Inc_8E755B752DAD9311527A63AD28594105C932E83BE456893BF6640B9B3223BE13 0000000010060cf8     guideXOS.obj
 0005:00014d28       __Str_Provideo_Multimedia_Co_Ltd_653627DD020D4097CF40D3593854D245AE8DD9E61F7C63FFBCF0C47D2A3CC1FC 0000000010060d28     guideXOS.obj
 0005:00014d78       __Str_Proxim_Inc_1EB95DCB425CA0900D5E77B11B0024010F3624001E5BEF8BA527AE8733B71E39 0000000010060d78     guideXOS.obj
 0005:00014da8       __Str_Psion_Dacom_PLC_B293DB36D6EF878467305CB16D8EE5F2F25A5674FCA3F70EB5446102594E7718 0000000010060da8     guideXOS.obj
 0005:00014de0       __Str_Pure_Data_FC55F022D0C6D961F62C19B5ABF30B7DC9F54EAB7576FA5011E1DF739BF59274 0000000010060de0     guideXOS.obj
 0005:00014e08       __Str_Purup_Eskofot_A_S_C277555CBD6FB38C7A90B7E427C4C4A9D09D1B16C12B8EA72DE87906C4589B09 0000000010060e08     guideXOS.obj
 0005:00014e40       __Str_Pyramid_Technology_508253E747B4DAF3567F483609E845CA497F7B55732C6B74930EEDBC0143128C 0000000010060e40     guideXOS.obj
 0005:00014e80       __Str_QLogic_Corporation_A321B8A0905C9EE11012F969CF970EEF155480FAF1EC02FD47FE79873A71EB0E 0000000010060e80     guideXOS.obj
 0005:00014ec0       __Str_Quadrics_Ltd_36A1475B84F2996606923F5E8D5F0EAFED2541A110BF084FE0E45F6E7042F950 0000000010060ec0     guideXOS.obj
 0005:00014ef0       __Str_Qualcomm_Inc_USA_DCDA21B92C4AA93DD1587A7007C356C7E44EAA85BCCFB2F274C85872B67C1897 0000000010060ef0     guideXOS.obj
 0005:00014f28       __Str_Quanta_Computer_Inc_82DB575EA48152BC268B9800A1003DE855152154E82F6D9EDEA799F10F7D8486 0000000010060f28     guideXOS.obj
 0005:00014f68       __Str_Quantel              0000000010060f68     guideXOS.obj
 0005:00014f90       __Str_Quantum_Corporation_8CCEC303A50A902E850B753579984804569030ED7D9072CC037C8D3065839A10 0000000010060f90     guideXOS.obj
 0005:00014fd0       __Str_Quantum_Data_Corp_49EC29320DBC8A6F1230B811B80155C57ED127DA149415E950817E563F919939 0000000010060fd0     guideXOS.obj
 0005:00015008       __Str_Quantum_Designs__HK__Inc_0C8EACB5F74182B21B3BAEB2D2373B7E69DBE9471069C0CCA77B3232F7C8A28B 0000000010061008     guideXOS.obj
 0005:00015050       __Str_Quantum_Designs_Ltd_B67667E3FF081269504A253B7A80CAF20566B2595D20AA0131538E60A60E2211 0000000010061050     guideXOS.obj
 0005:00015090       __Str_Quatech_Inc_394B453E9F2CC698763E89AC989B4269191FE9792F2958C5FA445581D31AD5B0 0000000010061090     guideXOS.obj
 0005:000150c0       __Str_Questra_Corp_782352F56AE377A5B5674BB53B243A670EA9B3F89852B1548C33BC83451F7634 00000000100610c0     guideXOS.obj
 0005:000150f0       __Str_Quick_Serv_Computer_Co_Ltd_02C16A493DAE440844D2F90FA21E40D958477CB5EAFE6CB5006DD35230E8C666 00000000100610f0     guideXOS.obj
 0005:00015140       __Str_Quicklogic_Corp_3CC9BCF3F30FFB32C69888BD1A61D850B6AB738E2C3754EA394B8096C98F01C8 0000000010061140     guideXOS.obj
 0005:00015178       __Str_Quicknet_Technologies_Inc_72C0713A19084B53990C39E675FA5D0D68064FCFC0E98D26A8EA2EBD62C906D4 0000000010061178     guideXOS.obj
 0005:000151c0       __Str_Quickturn_Design_Systems_66EB5CD568E3882D0EDB205109E4B237B2504EAEDE72B3CDE980B655F756EC5F 00000000100611c0     guideXOS.obj
 0005:00015208       __Str_RAM                  0000000010061208     guideXOS.obj
 0005:00015228       __Str_RDC_Semiconductor_Co__Ltd_137649B488236DE7DE094345808183FCEE2A964C7FC1BAA7349AAF0F57CAD4C9 0000000010061228     guideXOS.obj
 0005:00015270       __Str_RFlags__0x_8ACBA5D7389FEEEED3DABFFD03FCEBD6A9416AFCDD9D8E5DC1A9B24BE8D4F7F3 0000000010061270     guideXOS.obj
 0005:000152a0       __Str_RIP__0x_7BDADD2EB1AA2A6E33279702F102A457C30B21891F6349AD9B96D8B0E5489AFC 00000000100612a0     guideXOS.obj
 0005:000152c8       __Str_RSP__0x_19200D7261218E2940DA9362C1600A61F54D390A03CB4AC3136E8B6B37A9CC9B 00000000100612c8     guideXOS.obj
 0005:000152f0       __Str_RTD_Embedded_Technologies__Inc_70C054791DC286B33B520348C4C9FD389BCD0209BFB941169D992EE1152F1ADA 00000000100612f0     guideXOS.obj
 0005:00015348       __Str_Racal_Interlan_5419DBF4EE116BCE3FD80471F2685ADD6C30B558F0E5C73B2258C1D631DF1598 0000000010061348     guideXOS.obj
 0005:00015380       __Str_Racore_Computer_Products_00009C3CEEB7D4FD987784C412D9DEBBF6A4BC50A9BD2835A3BF07729EED443D 0000000010061380     guideXOS.obj
 0005:000153c8       __Str_RadiSys_Corporation_9C1BF19FC7F6F9D114085838D6DECDC3F4E8306B8C7F8C075D7961C315552EB0 00000000100613c8     guideXOS.obj
 0005:00015408       __Str_Radiolan             0000000010061408     guideXOS.obj
 0005:00015430       __Str_Radius_Inc_7C2C1DA07C812DB51A5600AC157D81BBC20EF7CBCC3E452CBBBA17CA49A78B61 0000000010061430     guideXOS.obj
 0005:00015460       __Str_Radstone_Technology_Ltd_3AF9AC93EACF37C85A525C55E833AD98CA824AF8FEBC8F15DE8DBFB638ACE9F6 0000000010061460     guideXOS.obj
 0005:000154a8       __Str_Rainbow_Technologies_4699DF18D0DA12A65E3678AEA83362643ED47AD56D6077B2BCA3EEE3E5F0B860 00000000100614a8     guideXOS.obj
 0005:000154e8       __Str_Ralink_Technology__Corp_3EA16B416D833CE72ABECF76639181C7ADA852F061549A131AB08B0947801A8B 00000000100614e8     guideXOS.obj
 0005:00015530       __Str_Rambus_Inc_25369DF47B6BBB520CB2F4DD5E721EC3CEF808B606093E25066657F342305575 0000000010061530     guideXOS.obj
 0005:00015560       __Str_Ramix_Inc_BA642C616129EB44313BCD99F866EED7056E2A62FE591EC745D20792C007AE94 0000000010061560     guideXOS.obj
 0005:00015588       __Str_Rapidstream_Inc_17E4D53871CC8C10CF4FA21AF2472F66970F558D9CE6DAE0A6E86E9594307CBD 0000000010061588     guideXOS.obj
 0005:000155c0       __Str_Rascom_Inc_99767D91772670BDE536365087FB01F3A0181C042CF136C49255159AAB196CAE 00000000100615c0     guideXOS.obj
 0005:000155f0       __Str_Rasterops            00000000100615f0     guideXOS.obj
 0005:00015618       __Str_Ratoc_System_Inc_5AF3085FA47E2259D8DACE796013EAF696DF881F550F220614A90B7247C46CBF 0000000010061618     guideXOS.obj
 0005:00015650       __Str_Ravicad              0000000010061650     guideXOS.obj
 0005:00015678       __Str_Raychem              0000000010061678     guideXOS.obj
 0005:000156a0       __Str_Raytheon_Company_DB6506319722137F24F084F393D2B8996F4344E22AD8E334A25F1664AE710F18 00000000100616a0     guideXOS.obj
 0005:000156d8       __Str_ReFLEX_CES_0EABE9623AB376422448E7DD932D11D43FA0E5D8353A9CEA6D456019B01FA398 00000000100616d8     guideXOS.obj
 0005:00015708       __Str_ReadAllBytes         0000000010061708     guideXOS.obj
 0005:00015738       __Str_Real_Time_Digital_Inc_B2CD6FFEA1861F6AC849195DFE97B4A24F4163CF298FE8AF23BBB64C918B8010 0000000010061738     guideXOS.obj
 0005:00015778       __Str_Reallocate           0000000010061778     guideXOS.obj
 0005:000157a8       __Str_Realtek_Semiconductor_Corp_63D8791F4A4FC24AB9E1BDFA70E63FF2BB752E9B30D47D575346DFF17A88FCA2 00000000100617a8     guideXOS.obj
 0005:000157f8       __Str_Rearden_Steel_BFF5AEBB3E87FB8A59D3C1EB1D6AF1E828843E2F7F90206ABD281C3763ECC6FB 00000000100617f8     guideXOS.obj
 0005:00015828       __Str_Renesas_Electronics_44056ECCAACF3FA426B591EAC77EAA167A535B19001959BD00F33DCED2677277 0000000010061828     guideXOS.obj
 0005:00015868       __Str_Renishaw_PLC_6207C28E752A9C08F47B896E1BF032F688FA0A8C110CA778E16D2A180FEC794F 0000000010061868     guideXOS.obj
 0005:00015898       __Str_Reply_Group_FD03D73B181CDFEE6E01356ED9C3957D00747A955011607E29805AD37D0C2F37 0000000010061898     guideXOS.obj
 0005:000158c8       __Str_Reprosoft_Co_Ltd_492609842539EF36F1B592E38D7F6EA4007CC7234B293469F2D2446EDB55F600 00000000100618c8     guideXOS.obj
 0005:00015900       __Str_Resilience_Corporation_37D156EFCEBBC0837454690AF6A431029E0179628CCB5290C8D69F48BCA54E4B 0000000010061900     guideXOS.obj
 0005:00015948       __Str_Retix_Corp_0929877960EDD1A3D5FE42E57EF63EE2439DB08C5F33A3C3E0F68E8AF1A2C705 0000000010061948     guideXOS.obj
 0005:00015978       __Str_Rhetorex_Inc_9275CAC06725F4DF272B8F12AFD0E4094ABAC95851CB16F36C517839D9CDFDE3 0000000010061978     guideXOS.obj
 0005:000159a8       __Str_RicohCompany_Ltd_34F55C245517F2BDAE9BAF376697ED32AEAAD0FD1217F94602EF0CBFD1A79843 00000000100619a8     guideXOS.obj
 0005:000159e0       __Str_Ritmo                00000000100619e0     guideXOS.obj
 0005:00015a00       __Str_Road_Corporation_E8492351F4E5143CE76868F40190FD1BBB7FFD5C7A35C67F53634B5D9698DCB8 0000000010061a00     guideXOS.obj
 0005:00015a38       __Str_Rockwell_Collins_Inc_9C32F98670333935B2CF94BABE297CC1D0E9B6D73BF8548FC055B74394BEAB47 0000000010061a38     guideXOS.obj
 0005:00015a78       __Str_Rohde___Schwarz_GMBH___Co_KG_90EAC25431852C6BD75A270901C05A618BFF680AD7891C1EDA5935F66E4ABB89 0000000010061a78     guideXOS.obj
 0005:00015ac8       __Str_Rohm_Research_87121A6CC0500147B1B84BCBB0D357162BCB9DE5FAE9BD59D6B6AC57F61AB39C 0000000010061ac8     guideXOS.obj
 0005:00015af8       __Str_Ross_Technology_9C1170CFA85B416C132553237BC107604F86C0900296682D112DC2F77A300356 0000000010061af8     guideXOS.obj
 0005:00015b30       __Str_Rosun_Technologies_Inc_F4793EC378996471DAFF9B8BF0AD283C48F04FEF8257163A929EBEFC54B2AA15 0000000010061b30     guideXOS.obj
 0005:00015b78       __Str_Ruby_Tech_Corp_E06C59D80CCF7793C24AF8E84F7A01CBC33D38FEC1F7AD66A9F689D57202E99E 0000000010061b78     guideXOS.obj
 0005:00015bb0       __Str_S_S_Technologies_FAC418914136EE8225BD1720A07B4E115704C457FD920AFE59B9B61C8569FEB4 0000000010061bb0     guideXOS.obj
 0005:00015be8       __Str_S_Mos_Systems_95BFCC2307F939968A39D148C1EC514361A547E3E0B3B4E78E8CFB7CDC915887 0000000010061be8     guideXOS.obj
 0005:00015c18       __Str_S2io_Inc_AA7A4DEF5C8FC3D600C62E523383F6F6C4629905CE0B3CF512C1C3D50A5FAB88 0000000010061c18     guideXOS.obj
 0005:00015c40       __Str_S3_Graphics_Co__Ltd_245CC2C29FFC4A550B680CC324A36845F7ED3B2E5B033C53B78E0E6464BDA264 0000000010061c40     guideXOS.obj
 0005:00015c80       __Str_SA_Telecommunications_30FB01D60DDD33D0C73C89156274AF72D40FFFED1D64082600ECF5362278649E 0000000010061c80     guideXOS.obj
 0005:00015cc0       __Str_SBE                  0000000010061cc0     guideXOS.obj
 0005:00015ce0       __Str_SBS_Operations_BE839A29576EC6DBADE9619507F84D993505F2D61253D26A0831ECAF4702DD55 0000000010061ce0     guideXOS.obj
 0005:00015d18       __Str_SBS_Technologies_Inc_7E1D5DB19CB76EA7D960BFDBB4343E30E7F128E5045D10EC91E3E0F52C06A6B8 0000000010061d18     guideXOS.obj
 0005:00015d58       __Str_SBS_OR_Industrial_Computers_10949DD6C37C3383424143C11103F008F76F46F2B70DD95171FF28BD27268DA1 0000000010061d58     guideXOS.obj
 0005:00015da8       __Str_SCM_Microsystems_F58B7AAC39885F6DFFCF77B581CF4DE40AD8FF2CAA1ADABD95C7CDD61ADA53A0 0000000010061da8     guideXOS.obj
 0005:00015de0       __Str_SDL_Communications_Inc_AD9C55F8437105E606BAB38501DBE4197B97C93CC44E218131543FF17FEE969D 0000000010061de0     guideXOS.obj
 0005:00015e28       __Str_SEGMENT_NOT_FOUND_7A09929F1094DAEB41502BFFC9E93921CA8FB9590AC80713AC7C7171F9511232 0000000010061e28     guideXOS.obj
 0005:00015e60       __Str_SEH_Computertechnik_GMBH_262C91228AFFBE20BCF9C90CF147CB520ED19F6AAA661B3D7400C7127C34757D 0000000010061e60     guideXOS.obj
 0005:00015ea8       __Str_SI_Logic_Ltd_2829E60599E8E9988A390B51B28AF3A0C4C893C45CD3AE18D51EB80C3C058E1D 0000000010061ea8     guideXOS.obj
 0005:00015ed8       __Str_SIIG                 0000000010061ed8     guideXOS.obj
 0005:00015ef8       __Str_SIIG__Inc_F5B35629FC6124339C6E27CF8D49D1CDC4093084445A7A0FC8872DB2C8F86909 0000000010061ef8     guideXOS.obj
 0005:00015f20       __Str_SINGLE_STEP_6E04E38E6AD9353B584BEB7F19DBD415786549605ECAFBD876AF6406D9ADFBFC 0000000010061f20     guideXOS.obj
 0005:00015f50       __Str_SK___Electronics_Co__Ltd_39D5D27C2F02DEBE29888983C01EC34E583E19B9A67CF0770F06A5F4BFD601C6 0000000010061f50     guideXOS.obj
 0005:00015f98       __Str_SMA_Technologie_AG_3724E7275B768F7431BA076825D3FE447AE882FB9A2D49BA8CB192181DB6E415 0000000010061f98     guideXOS.obj
 0005:00015fd8       __Str_SMBIOS_not_found__6DDA1F79F54C38C116C63A93DDECD475F598BCDB2E61A26AE933C7E4C1B960BA 0000000010061fd8     guideXOS.obj
 0005:00016010       __Str_SP3D_Chip_Design_GMBH_76E7CB5186BE284FBBCD6436E033993AF3CE07B715CA46984EAFE4AE5CE2C391 0000000010062010     guideXOS.obj
 0005:00016050       __Str_SPOT_Imaging_Solutions_a_divis_95791CB2CF574E5AB381955EADBA0836242D8BDB4FFA2C6E257CED04337F83CA 0000000010062050     guideXOS.obj
 0005:000160e8       __Str_SSE_Telecom_Inc_9AC5BFE88E8AE2B037D1A1D144C2769432EFE952687E149BFB98C71D47753B75 00000000100620e8     guideXOS.obj
 0005:00016120       __Str_STACK_EXCEPTION_615EE5904CA2473731689018F663A51FDD729DDE9002D1965884E3317293317A 0000000010062120     guideXOS.obj
 0005:00016158       __Str_STB_Systems_4E69250CDF3ECD1B44AAC3821D1C3BECD9BE574EC141992B4063AB339ED941FE 0000000010062158     guideXOS.obj
 0005:00016188       __Str_STMicroelectronics   0000000010062188     guideXOS.obj
 0005:000161c8       __Str_SUNIX_Co__Ltd_6143AECAED9727BDC85572E52DB67C9AB390495ABE53637D4CC520B8B1F5ACEE 00000000100621c8     guideXOS.obj
 0005:000161f8       __Str_SUYIN_Corporation_578EF6020B5E83D8465EC91A9AC78815CF71E8979E4780463B73EB7434C0D45D 00000000100621f8     guideXOS.obj
 0005:00016230       __Str_SafeNet_Inc_6E37493DA6AE8589759A58936E6A4972B54642EE0AF64CAF981375B3CD8A832A 0000000010062230     guideXOS.obj
 0005:00016260       __Str_Salient_Systems_Corp_CE2BA942B5B0248687FD050A06C815FF9A9BD7377CF602149702669D0D800844 0000000010062260     guideXOS.obj
 0005:000162a0       __Str_Samsung_Electronics_Co_Ltd_4D81BD5C2DED21537D38122C0EB0BEDB766B5F7B674C1DC518962ECF401B4844 00000000100622a0     guideXOS.obj
 0005:000162f0       __Str_Samsung_Information_Systems_Am_226CE0D52D0A55D8EE903B889DD9B5FEABC331E322720CD03FB859EA1A0E8191 00000000100622f0     guideXOS.obj
 0005:00016350       __Str_Samsung_Semiconductors_9DBB0413408822E65362B464F2F08CEDBBF49398A309D7403CD64D97538CDA6C 0000000010062350     guideXOS.obj
 0005:00016398       __Str_Samsung_T10_MP3_Player_CCDA021F72B5054E1C109DED0D35644BF6962FC8993EB0A5FE485FB0B2598F58 0000000010062398     guideXOS.obj
 0005:000163e0       __Str_Samsung_Windows_Portable_Devic_5F46D343B9E0B4909BF7CC2AEE15735A910B6D549B3BF908A179D339CB811DFF 00000000100623e0     guideXOS.obj
 0005:00016438       __Str_San_Valley_Systems__Inc_1A093E5737F7F12547310EB7B173AA1C50C0C3596EE4960DADE5FC5E9AAD2177 0000000010062438     guideXOS.obj
 0005:00016480       __Str_Sand_Microelectronics_A826023E328AE1BDE884251759346BA35AD9D42F0DC01F7237E27C453F84427F 0000000010062480     guideXOS.obj
 0005:000164c0       __Str_Sandisk_Corp_88F51FBD95424508E8A27B2291739BC3042A1E4E40CE9DCB44B946319C6928B3 00000000100624c0     guideXOS.obj
 0005:000164f0       __Str_Sanritz_Automation_Co_LTC_9B7B8F61DA1888A2FB8E9078519D8D243212AE0D43A001B8787F25A4C56A8E55 00000000100624f0     guideXOS.obj
 0005:00016538       __Str_Sanyo_Electric_Co_865858075437C51D016C77EC1E7DEBBF50189B90F176A2B4A6A76F88C24280A7 0000000010062538     guideXOS.obj
 0005:00016570       __Str_Satellite_communications_contr_757E2F6258689FC7535152DF4EA75F2B382EF0B89E036CE46BD44555E90EE02F 0000000010062570     guideXOS.obj
 0005:000165d0       __Str_SayHello             00000000100625d0     guideXOS.obj
 0005:000165f8       __Str_Scalable_Networks_Inc_B3FEF6C123047957FC491011A76A8FACFADD9F4AACDBAC0F750A6ED10AAD5A3D 00000000100625f8     guideXOS.obj
 0005:00016638       __Str_Schneider_Automation_Inc_84086D42FE9168A1881A119DB5FD42E7A68A9FB8733F4027EA90B229618838FF 0000000010062638     guideXOS.obj
 0005:00016680       __Str_Sci_Systems_Inc_8573295977F18DD2019BFD165975A406EF7750974EFAD0F40CCD0DD57157D7A4 0000000010062680     guideXOS.obj
 0005:000166b8       __Str_Sciemetric_Instruments_Inc_B425FBD35D71CB8778FB9A4D152555716891D8F053EF2E6C659A73C3AF25F428 00000000100626b8     guideXOS.obj
 0005:00016708       __Str_Scientific_Atlanta_AA37CDF1CA39B794DFCC0A2E164EBF8C547FCE74EB8E839F75BC052A6B1ED2E1 0000000010062708     guideXOS.obj
 0005:00016748       __Str_Scion_Corp_373B22D7EC22E6F64804A36B6A4FE4E77A5EA173DF26BF2D2B0CC4C426148994 0000000010062748     guideXOS.obj
 0005:00016778       __Str_Scitex_Corporation_Ltd_D67B609B9F8FA238FD6D0CEDB2BD55B499AC981FC0D4140D333EE1E0037FC075 0000000010062778     guideXOS.obj
 0005:000167c0       __Str_Seachange_International_707A7532BD721D3EFBA0266E9CE2EE29DEA95C0C40492BCE2C5C5276AE9B8CFB 00000000100627c0     guideXOS.obj
 0005:00016808       __Str_Sealevel_Systems_Inc_46BC15FC4FEE064DC27C4CA15D99D4684FA2C15751B7FFFBB251DC463C3927F1 0000000010062808     guideXOS.obj
 0005:00016848       __Str_Seanix_Technology_Inc_C4A9311F1E9F012A00ABEF95C9D57230190EEC66D21D083E49E3F7180B4E4C15 0000000010062848     guideXOS.obj
 0005:00016888       __Str_Seaway_Networks_DCC0D25F816F9A2C8D4F8AFBDA0774322B73B981DF9ECE57A08761A9506FDBF2 0000000010062888     guideXOS.obj
 0005:000168c0       __Str_Sebring_Systems_Inc_9AF4163CFC3CF7A2F6B7A0CD9B29C40F3D9877EDBC94F8F881A475BED2C62662 00000000100628c0     guideXOS.obj
 0005:00016900       __Str_Second_Wave_Inc_053FB626A879F9ADD73840296E26E3AE7DE6520719B7A84A3C53734D54554365 0000000010062900     guideXOS.obj
 0005:00016938       __Str_Seeq_Technology_Inc_49D1E41972ECFF24C8544E24998A7941CF72FD6CA9C82B20569E8A3BBB6FCDD6 0000000010062938     guideXOS.obj
 0005:00016978       __Str_Sega_Enterprises_Ltd_265940E4531F840F19D1E863A35AB3F194127BA333CCCE58C91D61A3B18FC890 0000000010062978     guideXOS.obj
 0005:000169b8       __Str_Seiko_Epson_Corporation_A456B23C413FF67C7A92B52AF5908C5C9FDF5F4E7A62953F0903F664A4CD9CD0 00000000100629b8     guideXOS.obj
 0005:00016a00       __Str_Seiko_Instruments_Inc_51CA32795FF3794DB6947C33ADE4AA613B755F2088AA3D7AAF27E6C259277EE6 0000000010062a00     guideXOS.obj
 0005:00016a40       __Str_Sejin_Computerland_Co_Ltd_C316B1E529DB363D04945EBFB8FC441E404CD76AEDC97BA28C89B1EC3B4098FD 0000000010062a40     guideXOS.obj
 0005:00016a88       __Str_Semtech_Corporation_645E08D18BEA9EA2172780F72ABECB39E38CC7DCCD497AFFEE4FCE3571A84DF8 0000000010062a88     guideXOS.obj
 0005:00016ac8       __Str_SensoMotoric_Instruments_GmbH_51F831222E1B68E1B203D30B8C919969F3AFF5AEB2E2DD86E7D59E1AF9FAB5ED 0000000010062ac8     guideXOS.obj
 0005:00016b18       __Str_September            0000000010062b18     guideXOS.obj
 0005:00016b40       __Str_Sequent_Computer_Systems_998857ABDE2CA6ADA9410E0807D6983CABCC045F17985E56E8C58A9AA141D8D2 0000000010062b40     guideXOS.obj
 0005:00016b88       __Str_Serial_bus_controller_D61FB11409B1A2257FC0C849B041BFA7EF85E380CBEB226A05940211455886FF 0000000010062b88     guideXOS.obj
 0005:00016bc8       __Str_Serome_Technology_Inc_E9F4424D16099D0785FC56F3C64038FD00C2B6722F661E5DB07A72DDDC066C87 0000000010062bc8     guideXOS.obj
 0005:00016c08       __Str_ServerEngines        0000000010062c08     guideXOS.obj
 0005:00016c38       __Str_Servotest_Ltd_401B97462FBC975FC9192C5C17B400564356A1F24276D72C69B5534D3397AB12 0000000010062c38     guideXOS.obj
 0005:00016c68       __Str_Shade_Ltd_2A4C11BCBD68AC12DF2E087F0E14E4B0AAF0E1B02DC78ADD60490CD9A476BF69 0000000010062c68     guideXOS.obj
 0005:00016c90       __Str_Shanghai_Bell_Company_Limited_B5D7DBEF8B818964387C808E4D189E1F3239C2F6160B379925B33207C4247CE3 0000000010062c90     guideXOS.obj
 0005:00016ce0       __Str_Shanghai_Communications_Techno_E1A1E39C3EAE000674C64C83A900F2A5C1CE96D9D758ED3E9A426BA6E24BC775 0000000010062ce0     guideXOS.obj
 0005:00016d48       __Str_Sharewave_Inc_B9BD9FF0A87E8B3315DC4A6213CA055B3B2133C2395D8DC4713DD43267CB4F16 0000000010062d48     guideXOS.obj
 0005:00016d78       __Str_Sharp_Corporation_AA0373E623970D2A68112D9873BDD36DFCD3B0531D100FBB8DF60F5C0B9149D0 0000000010062d78     guideXOS.obj
 0005:00016db0       __Str_Shiba_Denshi_Systems_Inc_CC100DFF03A3D6B2F7C33F870E4591F898B68AC67D4723F8668B10CE41ABAAD6 0000000010062db0     guideXOS.obj
 0005:00016df8       __Str_Shima_Seiki_Manufacturing_Ltd_9165569327B7FF2AA1C781C34415B9B1FC0911EDE64FEFFDB9A32C840F1D8032 0000000010062df8     guideXOS.obj
 0005:00016e48       __Str_Shiva_Corporatin_41763CE2B68E64DE4D4C4F228B6B25F92EEB0C6ECDA423A638AE04F1BFB835C9 0000000010062e48     guideXOS.obj
 0005:00016e80       __Str_Shiva_Europe_Ltd_58D34330498EFCCDE0D7F74E3C2AB0BC706913913E82404DA0DCDD4A8EFE1056 0000000010062e80     guideXOS.obj
 0005:00016eb8       __Str_Shuttle_Computer_B9B7297C7498D68EA2D33DAE4CCC3898385DB13FE96B1EA5723393C960956431 0000000010062eb8     guideXOS.obj
 0005:00016ef0       __Str_Sibyte_Inc_1B6839BFE76750CD99A0D0B0D7EBF4184E0AB0D39596FF28A3C2BF7C4124062A 0000000010062ef0     guideXOS.obj
 0005:00016f20       __Str_Siemens_AG_24075905CD7DF5B542C83469FE06EC8014B4BF1B2169D52CACA3D967C3E969EE 0000000010062f20     guideXOS.obj
 0005:00016f50       __Str_Siemens_Healthcare_15215AB44603E1373B7DA5217581D00C20D23962AF6C7E488F05A67BFDA079CB 0000000010062f50     guideXOS.obj
 0005:00016f90       __Str_Sierra_Research_and_Technology_74105D9547A457644C8987BE60EEA1E9D50631B54C9D51DE35380A0E342CE933 0000000010062f90     guideXOS.obj
 0005:00016fe8       __Str_Sierra_Semiconductor_ED7BF67407C14EC22A614AAC73E3B54CF57F7AE61076EFEE13F45D78326217E9 0000000010062fe8     guideXOS.obj
 0005:00017028       __Str_Sigma_Designs_Inc_23EA2C227B7655125A8BB85D081D47C39EFFF52E75015C0484EB03F530C9FBB4 0000000010063028     guideXOS.obj
 0005:00017060       __Str_Sigma_Designs__Inc_487FB17166650108D9D08E0FBE9B3BFFEE16CB38ACE609C508CDB726F326C10F 0000000010063060     guideXOS.obj
 0005:000170a0       __Str_Sigmacom_Co_Ltd_E7F5530C4905A8B6C1874A50FBCE0AC819F919F2E68FE2D2DFEDCDE595E116D7 00000000100630a0     guideXOS.obj
 0005:000170d8       __Str_Sigmatel_Inc_DCB270BB2B4E1273642F13A2592ABEC0D9C51DF34951AB5F4BCAA5DBD54EE393 00000000100630d8     guideXOS.obj
 0005:00017108       __Str_Signal_processing_controller_E93AB9F903563BE1967F83310C752D463D105EB3A14C735C4780CAAD9D49AA2C 0000000010063108     guideXOS.obj
 0005:00017158       __Str_Silex_Technology_Inc_330E21644866B0E3EF55C670F4EA39F0E00AE0F6867997FB7F31B15E116DA31A 0000000010063158     guideXOS.obj
 0005:00017198       __Str_Silicon_Engineering_B75124145F9C2D22C79A843F024871F0841A915B9A2450A8DB7B5D40341AE6F6 0000000010063198     guideXOS.obj
 0005:000171d8       __Str_Silicon_Graphics_2FC029A0E891C7DBFAF7194CFC13DE6E5944037EB55F9EFB084303ADDE3BFE85 00000000100631d8     guideXOS.obj
 0005:00017210       __Str_Silicon_Image__Inc_2448F54DFFB7D75FF12A746348DC045746AC79F5FACE7D6382EF732040A582FD 0000000010063210     guideXOS.obj
 0005:00017250       __Str_Silicon_Integrated_Systems_1A97BAC2EB73C991F0BD950029417049234197932366541A8CE3571B397260E7 0000000010063250     guideXOS.obj
 0005:000172a0       __Str_Silicon_Laboratories_E3353D0A920C5F4FCB40A2359A38497D412919E4EF938DFD487B9B25D91FBF81 00000000100632a0     guideXOS.obj
 0005:000172e0       __Str_Silicon_Magic_A40EB406953A0764E3CC66F5C404ED02D9C43416FF8C475DF88EDCEF63E84ADE 00000000100632e0     guideXOS.obj
 0005:00017310       __Str_Silicon_Motion_5DDA2B1917AF07A7B53900CD8EEAC49FE3DE7893E401B1E00A3E5B78DDFC4986 0000000010063310     guideXOS.obj
 0005:00017348       __Str_Silicon_Spice_Inc_B0B0ACC0C91D287961FEE8141D28949D057F7B3289EBD41C3C249F357583883D 0000000010063348     guideXOS.obj
 0005:00017380       __Str_Simpact_Inc_34BB3C590852A34A81B259FA922791613FAAB3B6AD6FA797C8DA1E7BBA9D72B2 0000000010063380     guideXOS.obj
 0005:000173b0       __Str_Sitecom              00000000100633b0     guideXOS.obj
 0005:000173d8       __Str_Size___549671492C0BFD5ED0D2EA280E3FB7C734D55FDA1E4EE5B2A47A1AEE6199E2A3 00000000100633d8     guideXOS.obj
 0005:00017400       __Str_Sky_Computers_Inc_5E4DD95FE005D21A610648655B2675A4F448381C207727BE8713984C5DB19645 0000000010063400     guideXOS.obj
 0005:00017438       __Str_Skyware_Corporation_EC5FC2FB9E0479396632C6E36CE07FD8D3C8496E05D66B35E42225F046A366D3 0000000010063438     guideXOS.obj
 0005:00017478       __Str_Sleep                0000000010063478     guideXOS.obj
 0005:00017498       __Str_Smart_Electronic_Development_G_76A9A5FF1C1550DE3222C1ADA11F4D0267E738FADC1B363C8285FED246064159 0000000010063498     guideXOS.obj
 0005:000174f0       __Str_SndWrite             00000000100634f0     guideXOS.obj
 0005:00017518       __Str_Softing_AG_DCE0447DCA5EEE0EF9A58E38F7E648A179C3B31CF9AC848A3FEF72AB5F2770E5 0000000010063518     guideXOS.obj
 0005:00017548       __Str_Sola_Electronics_6D5DFA41A19044D17671766C4BA0D89D2183F0443710FCD8C23E40391A10426D 0000000010063548     guideXOS.obj
 0005:00017580       __Str_Solectron            0000000010063580     guideXOS.obj
 0005:000175a8       __Str_Solidum_Systems_Corp_F9D0ADBD3A277A83B7A03E1086FFB99FE4AB7F1619C20DCF35E7D198D9D3143A 00000000100635a8     guideXOS.obj
 0005:000175e8       __Str_Soliton_Systems_KK_62ED8299DDE88073B145DAFE1CD1437A782E1D5173A4297A28EC67765F6F6B3C 00000000100635e8     guideXOS.obj
 0005:00017628       __Str_Solitron_Technologies_Inc_82D4D41B680D65AECFCAAC8A28C799D6D06A775E1DF674A451ED04B8C292D1D7 0000000010063628     guideXOS.obj
 0005:00017670       __Str_Solliday_Engineering_626C63D8646244B011255A7A48C5C822B34F8C9AFC889F1BA28F848287AF4AFD 0000000010063670     guideXOS.obj
 0005:000176b0       __Str_Song                 00000000100636b0     guideXOS.obj
 0005:000176d0       __Str_Sonic_Solutions_BBFD1FA8FBF53750E6161711CD45A12374E697E241B1B1A427D343C096CB4B48 00000000100636d0     guideXOS.obj
 0005:00017708       __Str_Sonicwall_Inc_B4F768B7069513C2E13E79E34019FBBBB7E01893036D234C19384571A6255863 0000000010063708     guideXOS.obj
 0005:00017738       __Str_Sonnet_Technologies__Inc_DE2993FB5B395C257A9EA0F110E91D3B365978325DBDD005AD9A55CB3F0EFA90 0000000010063738     guideXOS.obj
 0005:00017780       __Str_Sony                 0000000010063780     guideXOS.obj
 0005:000177a0       __Str_Sony_Corporation_2C79D0A142B0C6667D507D83379351C4653A966F02302F4B2B074DD9912C00A0 00000000100637a0     guideXOS.obj
 0005:000177d8       __Str_Sopac_Ltd_1788A52641C54C3B8D423474E97616CB6A9BACD874D6991EF8A96EECC9CD8EB5 00000000100637d8     guideXOS.obj
 0005:00017800       __Str_Sord_Computer_Corp_C8B84DE5135FDD0C3254CB51BE9F0B43DE58639F5A6FFEE737002CE0AA11CF58 0000000010063800     guideXOS.obj
 0005:00017840       __Str_Sorenson_Vision_Inc_A4104ED83A98902278F4F773366A4055E1C44CF566940FC5EFB93B4C3284B9B0 0000000010063840     guideXOS.obj
 0005:00017880       __Str_Source_Technology_Inc_9D3C5B8841A0CB38C9BC3A51F0CA14E8DC179E19BE89F9E5E2FC0A6617661588 0000000010063880     guideXOS.obj
 0005:000178c0       __Str_Soyo_Technology_Corp_Ltd_69A426A83A7ABC9D4F987B321D75D79E2B4E9257CBE1341F2CCD19CCA539D6EC 00000000100638c0     guideXOS.obj
 0005:00017908       __Str_Spea_Software_AG_1FD6B9A8E093C010C4641838ED34FA6C0FD9805B49A9D32E584437BF5548217B 0000000010063908     guideXOS.obj
 0005:00017940       __Str_Specialix_International_Ltd_A5419EB4E1DCA6EC437AC9DACE24141DAA63DD44EF26226787D8138BF2570EE6 0000000010063940     guideXOS.obj
 0005:00017990       __Str_Specialvideo_Engineering_SRL_49F98DD9E7B553F19E8600FFC40EF45FBDF8D57C23C8D730FB80FE7AD0512359 0000000010063990     guideXOS.obj
 0005:000179e0       __Str_Spectracom_Corporation_303D59ADD1FA1D8D78263CCCF203717D4C5FD8E8484D2250A58058323FB1783D 00000000100639e0     guideXOS.obj
 0005:00017a28       __Str_Spectrum_Digital_Inc_18AB95576C28A632A9D91057A25535BEAA3684649E28670F432F50BE69E28392 0000000010063a28     guideXOS.obj
 0005:00017a68       __Str_Spectrum_Signal_Processing_9E68B129941614A21A94F57F432031330C9F285E02E4760FE863CDCB1D2193FF 0000000010063a68     guideXOS.obj
 0005:00017ab8       __Str_Spectrum_Systementwicklung_Mic_7B98767484CCCD4FC652B8976F0A3F57998584919EED8C7531FC8D92385B765F 0000000010063ab8     guideXOS.obj
 0005:00017b30       __Str_Spellcaster_Telecommunications_A426A1F617D28BD21CB4C8B2FF028589BA4FB63D9FEDE4DA788B800F4B1CDA2A 0000000010063b30     guideXOS.obj
 0005:00017b90       __Str_Splash_Technology_Inc_FF381CC292B70AFEF9BF3BC0C615DCE3CDC5F1A67E9AFF5B1AAAA59C735E29F0 0000000010063b90     guideXOS.obj
 0005:00017bd0       __Str_Square_Wave_Technology_0DDF31699416C72F9C369E0CB7E46883EE3E1964A4453E9488B8966F61EBACA7 0000000010063bd0     guideXOS.obj
 0005:00017c18       __Str_Stack_Segment__0x_C64102261DBEC13CB315A6F9BC6514FDABDFFD1FA7695C9E2AFEAE00FEECD22A 0000000010063c18     guideXOS.obj
 0005:00017c50       __Str_Stallion_Technologies_7F8747DB1319B9CF9EE2725A003A5A6AF00C41E86532C0FEB5062DCBE62ABCF1 0000000010063c50     guideXOS.obj
 0005:00017c90       __Str_Standard_Microsystems_Corp_F284E9D529A7251A2E1B7A025DB51C737229858F618922048264F832743F4E69 0000000010063c90     guideXOS.obj
 0005:00017ce0       __Str_Standard_Microsystems_Corporat_52D0537877E47DB24AB65CC3CEA863980FDAFE6EDF526675FCC60FB1979F3108 0000000010063ce0     guideXOS.obj
 0005:00017d38       __Str_Star_Multimedia_Corp_CB2A97C20CC157E4FACBAB607E009088C9B38217BF7FA81EB17407D713E1AB04 0000000010063d38     guideXOS.obj
 0005:00017d78       __Str_StarGen__Inc_2DFF5A7063F3F765D8DCFA6023F18DCE723004B874AEDE1BEBEAA2FF242FC60E 0000000010063d78     guideXOS.obj
 0005:00017da8       __Str_Start                0000000010063da8     guideXOS.obj
 0005:00017dc8       __Str_Start_Network_Technology_Co__L_88E3A06C17337A2F2987E86F9D6D78C6EF6CA92D030D7F25D9630FE18135B506 0000000010063dc8     guideXOS.obj
 0005:00017e20       __Str_StartMenu            0000000010063e20     guideXOS.obj
 0005:00017e48       __Str_StartThread          0000000010063e48     guideXOS.obj
 0005:00017e78       __Str_Stelar               0000000010063e78     guideXOS.obj
 0005:00017ea0       __Str_Stellar_Semiconductor_Inc_EDD1CD321C1BEE4A1E90631531B92F76E931BB5647BE70AE8E2DBA7F1F0C892B 0000000010063ea0     guideXOS.obj
 0005:00017ee8       __Str_Stratabeam_Technology_C5075468F3C22ABF68F504FDE692512052C4391F0EA0E1DB2973BAE75C9D7C20 0000000010063ee8     guideXOS.obj
 0005:00017f28       __Str_Stratus_Computer_C6D87A65B637BED83478B5E88A093A3979A3017D879B629563AC980A4DDD85AB 0000000010063f28     guideXOS.obj
 0005:00017f60       __Str_Stratus_Computer_Systems_F065E37939B0442B64ACD1319090BC2EFBCCA73EE161BF8D213FA68F7C769872 0000000010063f60     guideXOS.obj
 0005:00017fa8       __Str_Studio_Audio___Video_Ltd_4B377267BA985CBD10BEAF587A69C5BAE0630082955EF9171822A5B9D067B91E 0000000010063fa8     guideXOS.obj
 0005:00017ff0       __Str_Subtract__15B3820C5D4669331C00916F587EF98768DB77DA736EAE905C4C6EC84726CE02 0000000010063ff0     guideXOS.obj
 0005:00018018       __Str_Sumitomo_Metal_Industries_Ltd_F013A80B32CD8CCD2BCAF406CD5F110F6AE308297A86EB64185874D5EECEDD07 0000000010064018     guideXOS.obj
 0005:00018068       __Str_Sun_Microsystems_C3A8EE42758C9B92A0CA522EAD787553ECF43CA339CA5A322ACB568B5D79E62A 0000000010064068     guideXOS.obj
 0005:000180a0       __Str_Sunlight_Ultrasound_Technologi_2628BB3D7A7D22D4805E9DA3EB9510F5035B6CADD6883BEA7A526E6F60438378 00000000100640a0     guideXOS.obj
 0005:00018100       __Str_Super_Micro_Computer_Inc_70F2D3BAE0FD6555659775A2DD5DC3AA0D3D88F83447CF1EA1CAD58C60925860 0000000010064100     guideXOS.obj
 0005:00018148       __Str_Supernet_Inc_5D5184291AD193B27A8289593BA698125973ED64C0AAC4081900EA6B584D6C42 0000000010064148     guideXOS.obj
 0005:00018178       __Str_Surecom_Technology_BB32FAC0EB94531ACA995072C223E8BD47FF21A79C02C65B7F03C78506C4A23E 0000000010064178     guideXOS.obj
 0005:000181b8       __Str_SwitchToConsoleMode  00000000100641b8     guideXOS.obj
 0005:000181f8       __Str_Switched_Network_Technologies__4D3802EDCB1802EFCCD13C18C8A7DFFE5AD6755F708CA477911E61ABE6137B1B 00000000100641f8     guideXOS.obj
 0005:00018250       __Str_Syba_Tech_Ltd_A7EAA9A64DBBC08E351E1DBF43CE98C7646F92329B62AD72C2CBB96D7AB6F692 0000000010064250     guideXOS.obj
 0005:00018280       __Str_Symbol_Technologies__Inc_AE40DD7CFD5988C036F7A8CA8A9AEF9C9FC1177863D2F5534BF4EC46E88138BD 0000000010064280     guideXOS.obj
 0005:000182c8       __Str_Symicron_Computer_Communicatio_FC3315C908A43905F68C28E0F6F5536F6A672C678760B7A2BEF5147968254792 00000000100642c8     guideXOS.obj
 0005:00018328       __Str_Synaptel             0000000010064328     guideXOS.obj
 0005:00018350       __Str_Systech_Corp_4F033A17D350784692CEFF4160239B10F518E5E59C347271EDC55F2F6618D435 0000000010064350     guideXOS.obj
 0005:00018380       __Str_System_Craft_Inc_D002221A19B2266A193855AC3ACCD3FF03B3239F3A0A5ABE8E313B04E373F78C 0000000010064380     guideXOS.obj
 0005:000183b8       __Str_System_Monitor_D2AFF69D938C837616BB3C3FEA9A8C1A57C3DD724979BC0BBF86AE52E45B490A 00000000100643b8     guideXOS.obj
 0005:000183f0       __Str_System_call___009125376AA49C1C5CF5E3CA8B94E69486ABC302702CAC060355A2A577A44A4C 00000000100643f0     guideXOS.obj
 0005:00018420       __Str_System_Object_A3D7A9E140E282A7AD0B2E72214B725A2CA1CD93944A74183E50C98A769333D8 0000000010064420     guideXOS.obj
 0005:00018450       __Str_Systemax             0000000010064450     guideXOS.obj
 0005:00018478       __Str_Systemsoft_Corporation_49B6FD4B7EA526B731270EBB66B076D138CB1E84F50B857F3AB056BF30A4BAC2 0000000010064478     guideXOS.obj
 0005:000184c0       __Str_T_Square_Design_Inc_524BCCD9E0765ABBADC4FF49963B74A34542B5EBD07490EE0800DE0A15AB0272 00000000100644c0     guideXOS.obj
 0005:00018500       __Str_T_R_Systems_87B75BA9A2753993944622D4F3047F86038C6EC564FEB02A146794529776D308 0000000010064500     guideXOS.obj
 0005:00018530       __Str_TBS_Voyetra_Technologies_5BA5B0A05F9667854B3AF244A7D408B5E84D22930C7FC0E91C8945228874951D 0000000010064530     guideXOS.obj
 0005:00018578       __Str_TC_Labs_Pty_Ltd_32B7DC1D059363ACC44BCCD550D27A74AA9867DAD53D53CB82FBD0D9B04B2C25 0000000010064578     guideXOS.obj
 0005:000185b0       __Str_TDK_Semiconductor_Corp_FAAAF46922A53E0F8EE527EBFE7D81855A57A6EAE957EF54F019B695161B2788 00000000100645b0     guideXOS.obj
 0005:000185f8       __Str_TDK_USA_Corp_3A3AB3DA7E369513AADAE6AC36309793F41D853E23493BFA7AC2E09D08FC6B98 00000000100645f8     guideXOS.obj
 0005:00018628       __Str_TEK_Microsystems_Inc_B0E6CCD482CCE6A65D8628A106756500D78C6168B9EE90744F12B35249566EFA 0000000010064628     guideXOS.obj
 0005:00018668       __Str_TFL_LAN_Inc_020482E3A96E8F39AFA1C9FEE5229FEB6344547834C012B3227DE8146D4A8915 0000000010064668     guideXOS.obj
 0005:00018698       __Str_TMC_Research_6B68CC0AA4FD6C3B938FB4D13917D188ED568FAF74E85FADB4498F93AF26E6AE 0000000010064698     guideXOS.obj
 0005:000186c8       __Str_TOPCON_Corp_ABE5D7BF6B412C5816435B4A8E04EFA9553A0DF4DD70FC440BF8DD011ED55A72 00000000100646c8     guideXOS.obj
 0005:000186f8       __Str_TP_Link_ADD5A07C4E86C07DAC451959107EDA09142EEF721E558987FDEB2F5ED91F861F 00000000100646f8     guideXOS.obj
 0005:00018720       __Str_TRENTON_Technology__Inc_D714BA13C60D0716F638EFC13C81999ED8E00D7F2CB7A4935F5156DDB0E93266 0000000010064720     guideXOS.obj
 0005:00018768       __Str_TRIDENT_MICRO_DA0A937E06807602DE58D79715CCE9D5B8E5320097B61A11DCFA646189FA26E4 0000000010064768     guideXOS.obj
 0005:00018798       __Str_TSI_Telsys_C2E698A404971F9149165A29B3B381F6D024E8D2A64A26D572D6757AF14C2E28 0000000010064798     guideXOS.obj
 0005:000187c8       __Str_TSqware              00000000100647c8     guideXOS.obj
 0005:000187f0       __Str_Tachyon_Inc_F80D38DF8728CEC4F2408D90C9396ADD67E5708D83A396BFE37D614ECBC21C56 00000000100647f0     guideXOS.obj
 0005:00018820       __Str_Tahoma_Technology_CB433DFFD4FCCB5BA58F2568294137F71B5EB09AE2B2E15DEB3676A6B93A1603 0000000010064820     guideXOS.obj
 0005:00018858       __Str_Taiwan_Mycomp_Co_Ltd_62BA467393FB0A0E36D35D0F7363BD7EE9F3DD38045C292CD8CF3A47CAAB6106 0000000010064858     guideXOS.obj
 0005:00018898       __Str_Tamura_Corporation_D3B3D8FE0A0EA55312C3A9820005E49653A3AD213A1ED6439A182C58F11F9E62 0000000010064898     guideXOS.obj
 0005:000188d8       __Str_Tandem_Computers_459D3864CFE00C3E6CA43286F8FBE85E32BE02A6127778B8DE81CCFB442D40F2 00000000100648d8     guideXOS.obj
 0005:00018910       __Str_Tascorp              0000000010064910     guideXOS.obj
 0005:00018938       __Str_Tateno_Dennou_Inc_5DCD62C8F08DD304FC03716FF433C1F7239251125B08CF837012F3A943421359 0000000010064938     guideXOS.obj
 0005:00018970       __Str_Tateyama_System_Laboratory_Co__6078F6AFBD7AB1E68823C022394B3AF57901A5CFD03367166983C3181E43E816 0000000010064970     guideXOS.obj
 0005:000189c8       __Str_Tatung_Co_5FD49C90782C5FE8352422DE15CAA6CED37C26B54792CCED82C0591FA076FD28 00000000100649c8     guideXOS.obj
 0005:000189f0       __Str_Tatung_Corp_Of_America_FA11859D54F9EC0514F1B300386E7B98DDBE668ED58853460DC8430A7B50FEAE 00000000100649f0     guideXOS.obj
 0005:00018a38       __Str_Tec_Corporation_0E2D1A9179BE013EB491938825958DBCCC499CABF9B7E6AAD4E5E9D913103A3A 0000000010064a38     guideXOS.obj
 0005:00018a70       __Str_Tech_Source_815D634B03525C6A6D4DE4477D75BD8AFFEB3A9DC7CD7336DA9D802C0F564625 0000000010064a70     guideXOS.obj
 0005:00018aa0       __Str_Technical_Corp_9ECA651BF0D46DA485FD42785D0E6D4794E3FB7703096D852E3E167F41F9EB73 0000000010064aa0     guideXOS.obj
 0005:00018ad8       __Str_Technical_University_Of_Budape_701AFCE0C5F3014804E8BAAACC345C61E725961F609E8FE7F9FF234CFB57AB61 0000000010064ad8     guideXOS.obj
 0005:00018b30       __Str_Technotrend_Systemtechnik_GMBH_BAEAB68211D146E91AF9F3C61A593337A7A9A551848B6A1701FA8D61753B9A1B 0000000010064b30     guideXOS.obj
 0005:00018b88       __Str_Techsan_Electronics_Co_Ltd_0DF7ABB63346FCBC246B0E4933B9893615D66DEEDED43A1A85A3C6CFE89FE314 0000000010064b88     guideXOS.obj
 0005:00018bd8       __Str_Techwell_Inc_F24254751897884EEEA1D3B3D25C41096CC0907941AA42B8D2B3E0D5BE506B87 0000000010064bd8     guideXOS.obj
 0005:00018c08       __Str_Teijin_Seiki_Co_Ltd_9A6CFD4AEF4D3AD94542D818C196B4A9D9D742F233F6A534230DA030FAC8B9F9 0000000010064c08     guideXOS.obj
 0005:00018c48       __Str_Tekelec_Technologies_F4B7D1924FF6E369508BF4CD750BA0A4851EE5705009AAD7A12061DBA6165807 0000000010064c48     guideXOS.obj
 0005:00018c88       __Str_Tekram               0000000010064c88     guideXOS.obj
 0005:00018cb0       __Str_Tekram_Technology_Corp_Ltd_71964C5F8D39C8CC2A09F4F23B1C5208A2B8532AD28935AEBF332E78E4EF1F07 0000000010064cb0     guideXOS.obj
 0005:00018d00       __Str_Tektronix            0000000010064d00     guideXOS.obj
 0005:00018d28       __Str_Telefon_Aktiebolaget_LM_Ericss_4A1458FAA2E42394836013345F36E777D8F36EE58FBC657E64DAC16FA964998A 0000000010064d28     guideXOS.obj
 0005:00018d80       __Str_Telesoft_Design_Ltd_5AAF288EEC08D8E36628BE9E7E9FC933063C05ED1A6C87C25A753E22057B68AC 0000000010064d80     guideXOS.obj
 0005:00018dc0       __Str_Telesynergy_Research_Inc_4B436857FC24282F8BDC2EA449E21AF046D3F463591D88115FC1BDB5A4912457 0000000010064dc0     guideXOS.obj
 0005:00018e08       __Str_Televox_Software_Inc_F125639CDF5AAC61C052F799DFDC22277E102CB4A3DFAC53363CEEB3372635BF 0000000010064e08     guideXOS.obj
 0005:00018e48       __Str_Telocity_Inc_F31756386D77AC581BB98F064CBC0573A9A400C7B7D89283FB9A8F3F17F4248F 0000000010064e48     guideXOS.obj
 0005:00018e78       __Str_Temporal_Research_Ltd_7AE62C7D26ADAE42CF381AB1473E574BB40B863FAEBBC9FA5F2E109B73B295C4 0000000010064e78     guideXOS.obj
 0005:00018eb8       __Str_Tenta_Technology_55CC6E3B23B437097E1CE371267AD5E676E57F8F97C24B0BA7DC741C451E7E74 0000000010064eb8     guideXOS.obj
 0005:00018ef0       __Str_TeraRecon__Inc_CFC43064F5867C459217A63D9EEA5DECC3A841ECB0C0B8BB9FD1559D556FA918 0000000010064ef0     guideXOS.obj
 0005:00018f28       __Str_Teradyne_Inc_38DF318C41FF52979E7CB3D298B49FFC9E4270ED03AA809EA9967088D62533B6 0000000010064f28     guideXOS.obj
 0005:00018f58       __Str_Teralogic_Inc_8BE94031B2963207773F6FB41C91856B0C4F923277E087A3DB582C1050B9DFB2 0000000010064f58     guideXOS.obj
 0005:00018f88       __Str_Terayon_Communications_Systems_E8E906B661B69F12169587A97796345E43CC945476258308876EFB9E5B8DE081 0000000010064f88     guideXOS.obj
 0005:00018fe0       __Str_Termination_Failed__8DD8233CAB8219CE9715FBEAB3A186544FAAE43A532CA95BF47A3C14FA31AE69 0000000010064fe0     guideXOS.obj
 0005:00019020       __Str_Terratec_Electronic_GMBH_FC52BAF8B3A1D6E05F821F658DCF8EE74B3221C7E17DF23F97DEE647916AA6A6 0000000010065020     guideXOS.obj
 0005:00019068       __Str_Testernec            0000000010065068     guideXOS.obj
 0005:00019090       __Str_Tews_Technologies_03C667ECEBE33E15182CA1FA07A16C9081670578E13FA085C527CC7B634478A5 0000000010065090     guideXOS.obj
 0005:000190c8       __Str_Texas_Instruments_A29F5878D8889668627D025D97097437478B3244D7B54DFF1480951B8D8931C8 00000000100650c8     guideXOS.obj
 0005:00019100       __Str_Texas_Memory_Systems_Inc_A780FC84207F83B9FB037070452DFE315D7BCA7B71283FA6076E3AD09AE8C4C9 0000000010065100     guideXOS.obj
 0005:00019148       __Str_Texas_Microsystems_AB5999988AAB70AA713E1B9E37F3874B7A0E4DC67849ECE81D2417A598654524 0000000010065148     guideXOS.obj
 0005:00019188       __Str_The_3DO_Company_2998C3AB0BFDA6D290949A4F8F549899BA4840B1EBE2750996F2A65093FD3165 0000000010065188     guideXOS.obj
 0005:000191c0       __Str_Thesys_Microelectronic_s_773636014808D26FFB367B26EDCE288D2528CA07C0A3F388E802E82AC377E40A 00000000100651c0     guideXOS.obj
 0005:00019208       __Str_Thine_Electronics_Inc_0E390011F9CC07DFE768958E6747A018B954F8626D87A05CA9769A7555712221 0000000010065208     guideXOS.obj
 0005:00019248       __Str_Thinking_Machines_Corporation_51BEA04739E6E869676910D652F3C7273FD095C468108A6C2F8CFCB55D815958 0000000010065248     guideXOS.obj
 0005:00019298       __Str_Third_Millenium_Test_Solutions_2F65DE7BDC802AF079FD04EA9E4884D3758C07440ABDF71760BD3FA4D3CC1B5D 0000000010065298     guideXOS.obj
 0005:000192f8       __Str_This_controller_is_not_support_673BC989F579D0A22B81C84FF9B2C85D4C5BD246047D958DE3FC36DEA04EDB0E 00000000100652f8     guideXOS.obj
 0005:00019350       __Str_This_is_not_a_bitmap_291909945F55072867FF3DBA2BADB69361F3CB4DFD4D93D8B7A6557A14E80670 0000000010065350     guideXOS.obj
 0005:00019390       __Str_Thomson_Video_Networks_968E42888B1335364D347BB33E62A41614B03C78426BEE75331F8CCB07DD57FE 0000000010065390     guideXOS.obj
 0005:000193d8       __Str_Thomson_CSF_TTM_D37E020DCBAD6F0FA08063B26933A26FDE7B9C2B38459BB04BE75C172C4619DB 00000000100653d8     guideXOS.obj
 0005:00019410       __Str_Tiger_Jet_Network_Inc_05D3C71EAB1F7262E61AE50F7EDC114554955322A0DD9BEF689F5EBC50416096 0000000010065410     guideXOS.obj
 0005:00019450       __Str_Tilera_Corporation_1405627375ED72316C4BD3BC48ACAF41FF4BCCEAF7D604164158323E3F76A526 0000000010065450     guideXOS.obj
 0005:00019490       __Str_Times_N_Systems_Inc_6A456980FDED477AE3650AD8A4B6D7F9C7E21CFE736292FC63890BB06263CF6C 0000000010065490     guideXOS.obj
 0005:000194d0       __Str_Timestep_Corp_58D4B924A191E57322E72AEBA1BE2EE47ECDCD5DF9EB536A20D05DC91605AAC4 00000000100654d0     guideXOS.obj
 0005:00019500       __Str_Tokai_Communications_Industry__603022281DBAF47A4BB707F34E35D6F55A2D4F8E0BDC6F13D850DCB5F0FDF109 0000000010065500     guideXOS.obj
 0005:00019560       __Str_Tokimec_Inc_7BFF846364E60BAFF1C2CB3678D8FA55259076D8509FFBC897E82625ABEE9706 0000000010065560     guideXOS.obj
 0005:00019590       __Str_Tokyo_Denshi_Sekei_KK_D7007367FD6806F1BE06F00E2E99943A45AD9FEB54976100DDB38665B79745FE 0000000010065590     guideXOS.obj
 0005:000195d0       __Str_Tokyo_Electron_Device_Ltd_0DF6BC3B5BE6780BEA4B50DB608917C804A8EBDA5FCC9DC8A377CDBAF14216E8 00000000100655d0     guideXOS.obj
 0005:00019618       __Str_Tokyo_Electronic_Industry_Co_L_893FC5AB3FBF9498450D2EAD4923C1DDC37BA9C9FA76A2DBD9FE496C88BCC966 0000000010065618     guideXOS.obj
 0005:00019670       __Str_Topic_Semiconductor_Corp_D350A2F02D1293FCD496F1BCE458D11850B94F10056B6AE1AE3D97DCFFF9D216 0000000010065670     guideXOS.obj
 0005:000196b8       __Str_Topstar_Digital_Technologies_C_5F073D32A6A86F0D90FA48709B454862E492DC98AB90D2538FC4668EE251E8D5 00000000100656b8     guideXOS.obj
 0005:00019718       __Str_Toshiba_America_3836F7189AD3487EAB65243979015B644188D5D15FC7AC0B4111F298455BA47C 0000000010065718     guideXOS.obj
 0005:00019750       __Str_Toshiba_Bluetooth_RFBUS__RFCOM_B9052C49DFC95FD597ECFD2055C2123C22B1268A3389C7B399A95CF54CD20784 0000000010065750     guideXOS.obj
 0005:000197b0       __Str_Toshiba_Engineering_Corporatio_882F870ECD5848C30B7602507FFD81F36C1DF6E0F2DCB5A3E13627ADE2939877 00000000100657b0     guideXOS.obj
 0005:00019808       __Str_Toshiba_corporation_4680BA2BC20EA730D7C24C48C94E5D2F0890080DAEF9BDECA5F5DDD8147FED99 0000000010065808     guideXOS.obj
 0005:00019848       __Str_Tottori_Sanyo_Electric_Co_Ltd_70E62B98B4DDFB9287F37F362C364718EE203A82ADD26BA6D0D26B51D5301943 0000000010065848     guideXOS.obj
 0005:00019898       __Str_Toucan_Technology_6E8B4A5CCCDCB29ED323E5F7DDEB0C45C7237702B3A9A5E380264B769BA64221 0000000010065898     guideXOS.obj
 0005:000198d0       __Str_Toyota_MACS_Inc_AB6E191CDB816585046FABCB724D74DD9459E60741FA7FB4EFACB27876F9AC8F 00000000100658d0     guideXOS.obj
 0005:00019908       __Str_Trancell_Systems_Inc_A272178F15BEA61EDE903B8DE634A4A7E35CADB93F701CD0B403CCCE781EA925 0000000010065908     guideXOS.obj
 0005:00019948       __Str_Transas_Marine__UK__Ltd_CBFADAEC5065EBA675D74CA952A818EAD6D23C2667D10DBF342E93215B54B029 0000000010065948     guideXOS.obj
 0005:00019990       __Str_Transition_Networks_7B26EB33F125B44AD891069ABE44C70755EDFBAE7D64354E579639EEAFCD64DD 0000000010065990     guideXOS.obj
 0005:000199d0       __Str_Transmeta_Corp_B83D1CC477C78DAA6905A711FC8E1258B62258CF04BA5392C8A4AC1A5C0D4E5F 00000000100659d0     guideXOS.obj
 0005:00019a08       __Str_Transtech_Parallel_Systems_21C29C278B6219AC40A4A785D9596852F2361C6A4A465FB4162A97F53319DE5F 0000000010065a08     guideXOS.obj
 0005:00019a58       __Str_Transwitch_Corp_E2250C3637E8B6A210ED6AE9CF023294E4D2898335474ADC23115563968AE83C 0000000010065a58     guideXOS.obj
 0005:00019a90       __Str_Tricord_Systems_Inc_88D2A2D7F1AF37D55A5C201D57C086CCA1909EF5129CBBE7C128CAFA5D7B3E41 0000000010065a90     guideXOS.obj
 0005:00019ad0       __Str_Trigem_Computer_Inc_AEC24001ABE21AAA943084875DC98EFE0669E59F474027A3CC70E422920D8B30 0000000010065ad0     guideXOS.obj
 0005:00019b10       __Str_Tripace              0000000010065b10     guideXOS.obj
 0005:00019b38       __Str_Tritech_Microelectronics_Intl__25CCB2798199246CDE32A20E7DEDDFBE063298E6AB14826E98643E891D0386A8 0000000010065b38     guideXOS.obj
 0005:00019b90       __Str_Triya                0000000010065b90     guideXOS.obj
 0005:00019bb0       __Str_Troika_Networks_Inc_ABEEFE155601C3DAC9794746D609BEB2A914AD388731AFF8CC99BF346E71E29A 0000000010065bb0     guideXOS.obj
 0005:00019bf0       __Str_TrueTime             0000000010065bf0     guideXOS.obj
 0005:00019c18       __Str_Truevision           0000000010065c18     guideXOS.obj
 0005:00019c48       __Str_Tseng_Labs_52BA334E4679A8FDBB757E20D09FC618FE42B7D794E2D0A2A86BAEEF2AEBFB3E 0000000010065c48     guideXOS.obj
 0005:00019c78       __Str_Tsenglabs_International_Corp_59D4EA7AF53D55BA0822057D071E8FBBD6CEB0B98ECAC0BC7E2B2FF4A13C1A3F 0000000010065c78     guideXOS.obj
 0005:00019cc8       __Str_Tulip_Computers_Int_l_BV_BAC3234A9CFDC00D4A9ECE5D7872AFE9F748445B14068B68D81EE1DEDEC0E4BD 0000000010065cc8     guideXOS.obj
 0005:00019d10       __Str_Tundra_Semiconductor_Corp_B414E8A4815E5FE7F6130A00B5CE41ADBE6006A0A5A1A0C257EC1C73FF59A0D8 0000000010065d10     guideXOS.obj
 0005:00019d58       __Str_Turbocomm_Tech_Inc_B6608771CFFF31139B0B06E101E9EF90EC01137EC25B3E8FDEB7C18A4D3BB614 0000000010065d58     guideXOS.obj
 0005:00019d98       __Str_Tvia__Inc_6DCCF6076D8FD17174CDC91971BBC337B675909403FE0A356A42DF939954C2C9 0000000010065d98     guideXOS.obj
 0005:00019dc0       __Str_Twinhead_International_Corp_4DB79330E88ACC5013F6913D2723EFB48A93B15D9D855AE46F3D783BDFC88F73 0000000010065dc0     guideXOS.obj
 0005:00019e10       __Str_Tyan_Computer_BC467D76E7B711D56CF31EDF7E2C2079E6F8CFB25D09978CB3F59D93E6639CBC 0000000010065e10     guideXOS.obj
 0005:00019e40       __Str_Type_help_to_get_information__C18FAE548B269EE6FA6FA61216C29C1F1053FE536B536036D1218650B54073B3 0000000010065e40     guideXOS.obj
 0005:00019e90       __Str_ULSI                 0000000010065e90     guideXOS.obj
 0005:00019eb0       __Str_UMAX_Computer_Corp_15ECE37FBB7F934A06D6818FCAC95FFCC8B65AD9CBFB572BE7CEE5194CE19ABD 0000000010065eb0     guideXOS.obj
 0005:00019ef0       __Str_UNKNOWN_EXCEPTION_676A8604164B3E9FD90125A640A4E6223AC874FBD617A5286EA65BC60EE4BC26 0000000010065ef0     guideXOS.obj
 0005:00019f28       __Str_UPEK                 0000000010065f28     guideXOS.obj
 0005:00019f48       __Str_US_Robotics_373FE96484B700AF05F2D3695CF27CA5A1F548B96193E3DDE80D3D28C06A8A1D 0000000010065f48     guideXOS.obj
 0005:00019f78       __Str_USB_Keyboard_not_present_B7EC92410E0121E22385EB2B5B61426D758CB52B533D3D245D4C442970A0CF28 0000000010065f78     guideXOS.obj
 0005:00019fc0       __Str_USB_Mouse_not_present_65AECF6EACE981FA5F853460F97A50F3400FC2DA5BE203DA465A6FAC45A206DD 0000000010065fc0     guideXOS.obj
 0005:0001a000       __Str_USB_Rockey_dongle_from_Feitain_62660E80E929600AD8752C87A5ED83D0A948E702B454DDB4ABBC71B3181828A4 0000000010066000     guideXOS.obj
 0005:0001a058       __Str_USBPDO_8_5A20CA66986AF0D81E16D536ABDADF5C9672A81D43DD007B0EC452A93E2A0508 0000000010066058     guideXOS.obj
 0005:0001a080       __Str_Ulticom__Inc_94F09F19FA08538A5EEC6FF361F0A40C838E32BF7AC537CA6F59BA39FD78C014 0000000010066080     guideXOS.obj
 0005:0001a0b0       __Str_Unassigned_class_3438A70C9C32CC0D9B52849C5BA0A02BD16E5C15D0EE23DCB0773C02F4358DC3 00000000100660b0     guideXOS.obj
 0005:0001a0e8       __Str_Unclassified_device_293A06007DB6E3FF8BDB75B7789813E2950A0DF57C78FC3F0C5FC55199E7E7CD 00000000100660e8     guideXOS.obj
 0005:0001a128       __Str_Unex_Technology_Corp_5F02BD1A40D214A329F58253B20F60C1E67742D4EF886EE77EBD52089D640F67 0000000010066128     guideXOS.obj
 0005:0001a168       __Str_Unibrain_SA_0CC7EAD05888E6BF7C8BB30FC5E6AC325070FE7C4CB877FFD1607939C32450BB 0000000010066168     guideXOS.obj
 0005:0001a198       __Str_Unisys_Corporation_BED9E38A994EB884E8B3BDE3DA0B520571B64F507B12E16C800E3D69984109FD 0000000010066198     guideXOS.obj
 0005:0001a1d8       __Str_Unisys_Systems_DC83079D9ADA7C1F495BD62D65516B295CBEC62CC9513B9D27E1DDB0CE741CD9 00000000100661d8     guideXOS.obj
 0005:0001a210       __Str_Unitec_Co_Ltd_34CC9E6BECFA86B1AD4E59239AC122AE5CFCA3C218556C1285347D42C2CA0976 0000000010066210     guideXOS.obj
 0005:0001a240       __Str_Unitech_Electronics_Co__Ltd_EC359E09FDC72B4CEE279A175BDD8D38F24BD1FE160FB902703D44675F414365 0000000010066240     guideXOS.obj
 0005:0001a290       __Str_United_Microelectronics_931F92C89BDDF9462B7A1EC78E2D656977645EA9962AFEB9F1312E99B1572096 0000000010066290     guideXOS.obj
 0005:0001a2d8       __Str_United_Video_Corp_5C35FC18CF5C5D53F357C98FA72F32D01401B9D9BD963F9C78822E31E5C69323 00000000100662d8     guideXOS.obj
 0005:0001a310       __Str_Universal_Scientific_Ind_48F27A200E832E3BB847BE3509DCCA0AFC9994E6BEC9E9CE28DA31D7906B69BE 0000000010066310     guideXOS.obj
 0005:0001a358       __Str_Unknown              0000000010066358     guideXOS.obj
 0005:0001a380       __Str_Unknown_class_4B7857763F894747003295A221415AD4AFD368AF8E5A40B845D37FACFC8BC912 0000000010066380     guideXOS.obj
 0005:0001a3b0       __Str_Unknown_seek_6915F0E145DDA6C273E76A37B7F0C9F7EAAC8EB75579601E750090FCF77B667D 00000000100663b0     guideXOS.obj
 0005:0001a3e0       __Str_Unlock               00000000100663e0     guideXOS.obj
 0005:0001a408       __Str_Update               0000000010066408     guideXOS.obj
 0005:0001a430       __Str_Utimaco_Safeware_AG_D39E08774C4D3986CA38540611AE14A6F17E31862FA53113116F4DA8BC8C35DD 0000000010066430     guideXOS.obj
 0005:0001a470       __Str_VIA_Technologies__Inc_12D6C1D93EE070169281A4BCA2A938E4D60AF38C0DDFEB620C6091EA35595D73 0000000010066470     guideXOS.obj
 0005:0001a4b0       __Str_VLSI_Solution_OY_11F978A43B9462F0EBEB6B4E702E052F00EEAA9189C711E11A38111B01B2C445 00000000100664b0     guideXOS.obj
 0005:0001a4e8       __Str_VLSI_Technology_229FBA1A4D28909FAA48277B689A1F447046291F0CC3CAF82B507B81846E72B2 00000000100664e8     guideXOS.obj
 0005:0001a520       __Str_VMIC                 0000000010066520     guideXOS.obj
 0005:0001a540       __Str_VMware_Inc_682E8211D46A60EF16AAB433A48843AFB6DB382CB1ADE7E9C9932C6A6C57F01C 0000000010066540     guideXOS.obj
 0005:0001a570       __Str_VSN_Systemen_BV_DFBCCCBE7640BBDBA6A9B4066080E8D67D259EE8E2D451637CCCE83454992150 0000000010066570     guideXOS.obj
 0005:0001a5a8       __Str_Vadem                00000000100665a8     guideXOS.obj
 0005:0001a5c8       __Str_Validity_Sensors__Inc_23D924256E2CF27DD36A506E85DC7D0A8CB6D05CA7ABEC734DF2209A664FE5F5 00000000100665c8     guideXOS.obj
 0005:0001a608       __Str_Valley_Technologies_Inc_A275B43E80F2C34E598A8FB2B60AE6727816BDC67F2AB679152471527F16028E 0000000010066608     guideXOS.obj
 0005:0001a650       __Str_Valuesoft            0000000010066650     guideXOS.obj
 0005:0001a678       __Str_Varian__Inc_4DA03A613D280F4CE71996E3BF7F72FD76AA9906E98B15E556CE86EE09B68BA7 0000000010066678     guideXOS.obj
 0005:0001a6a8       __Str_Varisys_Limited_E7CE56ADF1F7DA2217E4887A640D9EE66F54B35B301501B9DDD1107B88504836 00000000100666a8     guideXOS.obj
 0005:0001a6e0       __Str_Vector_Informatik_GmbH_8188D0B02B8CEA78560B945B02497EE4FC1D71D8F5EB067C1F0B20CAD7B969B0 00000000100666e0     guideXOS.obj
 0005:0001a728       __Str_Vela_Research_LP_2CD3983946D260BBCB65B56EBF2B1FCDFBC6DF59476DC92F76A5DF5C0B724617 0000000010066728     guideXOS.obj
 0005:0001a760       __Str_Verisys_Inc_025473EA3492D17A326B9CA4A9EBBBA60B06ECCE2E65DC8722C56F77DDBDA595 0000000010066760     guideXOS.obj
 0005:0001a790       __Str_Vertex_Networks_Inc_8A5B43AC5544493D8298692A7947C32835E023D1919534FE27A298CD2D796E12 0000000010066790     guideXOS.obj
 0005:0001a7d0       __Str_Vetronix_Corporation_Engenhari_D7CAD9CFBA0F2FD6D4F3492580C4FCCCFA964CD618244299919D73347FFD4E44 00000000100667d0     guideXOS.obj
 0005:0001a830       __Str_Victor_Co_of_Japan_Ltd_3EC386611D05BE36E45A29031A65AB491DA02B5C4AF4F379EFAD59F3A4B96B4E 0000000010066830     guideXOS.obj
 0005:0001a878       __Str_Vidac_Electronics_GMBH_EB89265CAB0BA9C89130FE460FD3ECBD4337A1D2306BA6F394569E45B94EEEDC 0000000010066878     guideXOS.obj
 0005:0001a8c0       __Str_Video_Logic_Ltd_9D863337758FFC8BE413D6E1FAB65CD06EC6EE0892BD5AD24D2C5192AF98433D 00000000100668c0     guideXOS.obj
 0005:0001a8f8       __Str_VideoTelecom_Inc_DBCCC095D3E8ADC2941B1C00048AFEB36B6794639A8447F20489ACA5032C2713 00000000100668f8     guideXOS.obj
 0005:0001a930       __Str_Videomail_Inc_81BC9699B5D6A976ADA4D42816DDF983169EF942C416514F842C7139204B527F 0000000010066930     guideXOS.obj
 0005:0001a960       __Str_Videotron_Corp_70EAA7EAABE322B80BF7797CF7A79ADABBD7B76F14281620E1482E9B689236F9 0000000010066960     guideXOS.obj
 0005:0001a998       __Str_Vienna_Systems_CECEBF1891A467DD9479240B41D4FAD6989093459B94442429D674904948E65D 0000000010066998     guideXOS.obj
 0005:0001a9d0       __Str_Viewcast_Com_21B4FD57F9B07FD8B890685E4DD2DAA9EB8023AE9A794E5DD6B452003C293DEE 00000000100669d0     guideXOS.obj
 0005:0001aa00       __Str_Viewgraphics_Inc_4B1C913CC0E23072ACB590DF3F2AE132E263F1B34E6D8AE2A701B6A1769ACFF5 0000000010066a00     guideXOS.obj
 0005:0001aa38       __Str_Vingmed_Sound_A_S_D975D27077141769EB83DE42060D6AB4ED89D4DE02C12DEDC5D894914A153808 0000000010066a38     guideXOS.obj
 0005:0001aa70       __Str_Visicom_Laboratories_Inc_401AFF2C906ACF2EDD4A5813DA17395B705F48EE4127935374239B565E289789 0000000010066a70     guideXOS.obj
 0005:0001aab8       __Str_Vision_Dynamics_Ltd_BA20311A1D6DC8BDC6001B927AB5A6164C82BA559FF73A6D131C32D206FBCC31 0000000010066ab8     guideXOS.obj
 0005:0001aaf8       __Str_VisionTek            0000000010066af8     guideXOS.obj
 0005:0001ab20       __Str_Visionglobal_Network_Corp_80DCDDE231447616665F7BC3AE55ACBCA8D739AE1D79D7F1E1D893BC80B435A6 0000000010066b20     guideXOS.obj
 0005:0001ab68       __Str_Visiontech_Ltd_06E0199C8262B322AD1789B900F9CA82EC8CABC0F9B67BEE871701CC05A219E4 0000000010066b68     guideXOS.obj
 0005:0001aba0       __Str_Vista_Controls_Corp_8E650BC1A00F7E37D6DB942E2FA9C5AE8475CB156DA68F354EA9CFA05742514C 0000000010066ba0     guideXOS.obj
 0005:0001abe0       __Str_Visual_Technology_Inc_9979A64DA00D9B47DF89AE1B68DB1FF8475610766C3EB7357B30C142001F1E87 0000000010066be0     guideXOS.obj
 0005:0001ac20       __Str_Vitesse_Semiconductor_04BF45DB60B1712216C22CE8A122F5698510830D452FA0B7B8B2F793E6A6E116 0000000010066c20     guideXOS.obj
 0005:0001ac60       __Str_Vivid_Technology_Inc_11A306BB37176FC4FA48173B5021F904C10F5E766AEFBDCC0D82C8A5ACBEA140 0000000010066c60     guideXOS.obj
 0005:0001aca0       __Str_Voarx_R_D_Inc_EEED53A944FC3413E59BD3FDD5B11532488F284683FF3716A5A2D6023E6E11C4 0000000010066ca0     guideXOS.obj
 0005:0001acd0       __Str_Voice_Technologies_Group_D6F9C4FE9D33FE1E2DCE322D3B41E94FA4CA40EA1AF8E036103BEFD2FE6E844B 0000000010066cd0     guideXOS.obj
 0005:0001ad18       __Str_Voltaire_Advanced_Data_Securit_5A28ACC81AF9201B2A1339D4BAAD1D4EA094B6426B4A12FD7295C5F3B153C0C6 0000000010066d18     guideXOS.obj
 0005:0001ad78       __Str_Vtech_Engineering_Canada_Ltd_655575E7C74C2E3549C012E30B31D01BB3638AD0DE956AC38B972E992C66C098 0000000010066d78     guideXOS.obj
 0005:0001adc8       __Str_WAV_Player_19ADD53D83596C4DF825B80BC7512596E23D0D402CD185E3EC37B9FD75B01A69 0000000010066dc8     guideXOS.obj
 0005:0001adf8       __Str_WIS_Technology__Inc_D0F65A35A437F23059D8A886FC71F5B93DD5371F54A0A5035D737A550D8340AC 0000000010066df8     guideXOS.obj
 0005:0001ae38       __Str_WMS_Gaming_FB2BBE7D44451708F0B33406A038ACDBABBC2FA5D2D5DCF26C83DAC6AB417C5E 0000000010066e38     guideXOS.obj
 0005:0001ae68       __Str_Waldo                0000000010066e68     guideXOS.obj
 0005:0001ae88       __Str_Warn__No_USB_keyboard_found_on_1B997A451DBEC7C6F89632F1A7B833048BF95981DA65609B26EB13A0FD66F644 0000000010066e88     guideXOS.obj
 0005:0001aef0       __Str_Warn__No_USB_mouse_found_on_th_3BC63C4A8330765DFA9BEF9D04B84EF044E788E22F514F01990795A9BA400A18 0000000010066ef0     guideXOS.obj
 0005:0001af50       __Str_Warp_Nine_Engineering_02A81D3E9C1B7386B6A4987EBFFFF709CC63F6AE8F38FE85EC27150D3E01157B 0000000010066f50     guideXOS.obj
 0005:0001af90       __Str_Warpspped_Inc_53E04FE1E21DFFFD64400679745BE540DE9D347E379F80EF88D092F86D52C27A 0000000010066f90     guideXOS.obj
 0005:0001afc0       __Str_Weitek               0000000010066fc0     guideXOS.obj
 0005:0001afe8       __Str_Welcome_to_guideX_os_6EBCC85F68601F8CA6A89E6F1EFDF335E19264FFCA879C72B5B0E9B1F77E935B 0000000010066fe8     guideXOS.obj
 0005:0001b028       __Str_Welcome_to_guideXOS__this_is_a_5794EDCC0BC43C4465307F6748A59CD80D2BD56A20E4F598352B7655A493F129 0000000010067028     guideXOS.obj
 0005:0001b100       __Str_Wellbean_Co_Inc_EF5CE58F388980A3F8C433B08912D4C9BA0566ABE3A14997E6BD7D9B744460B7 0000000010067100     guideXOS.obj
 0005:0001b138       __Str_Western_Avionics_Ltd_519C27B6FBA7F374AD7D771FBB9B3859D9D9E3C6D57A8BC7EE3B23234DFC5368 0000000010067138     guideXOS.obj
 0005:0001b178       __Str_Width                0000000010067178     guideXOS.obj
 0005:0001b198       __Str_Wilson_co_ltd_6BCE6EE3D4FF2D1C731E71A83F4D6AFA6610D0772D8C8D432B0C2565B929E6C1 0000000010067198     guideXOS.obj
 0005:0001b1c8       __Str_Win_System_Corporation_06A520E5C72C387CD54E9B05C8C843884127DCACFA406B26CA781ABD2765CA84 00000000100671c8     guideXOS.obj
 0005:0001b210       __Str_Winbond_Electronics_Corp_BC4D0F1AE9B0D96B8220B448FBB55775155A6FFCB9DEEE056C918258A3C847A7 0000000010067210     guideXOS.obj
 0005:0001b258       __Str_Winbond_Systems_Labs_A4D7299311F9319318CB6A5E6AAEE691AB454D7228F4C701B3906323022BEA53 0000000010067258     guideXOS.obj
 0005:0001b298       __Str_Window1              0000000010067298     guideXOS.obj
 0005:0001b2c0       __Str_Winnov_LP_39535126052355F52778CA010CE681BAE89D293212E397D2ACE2CDF95012C88E 00000000100672c0     guideXOS.obj
 0005:0001b2e8       __Str_Wipro_Infotech_Limited_97BEA5927C048DF589F8F0BC5C0BE52CD620E069958E8ECE267A475A0F1A197C 00000000100672e8     guideXOS.obj
 0005:0001b330       __Str_Wireless_controller_605A3306C38D6FA0F055AF63A70F50BDAFC00630C8D5EA4F23C1258CEC71CE02 0000000010067330     guideXOS.obj
 0005:0001b370       __Str_Wistron_Corp_5C7BF13D304084F7742209B88AD736CE2A6F7F748073933685963C35FC817E09 0000000010067370     guideXOS.obj
 0005:0001b3a0       __Str_Wolf_Technology_Inc_4A138CDB3E1AE8F7D45990F7965AE4C3CFF5B59E7D70D0F42AADCA65FE4C6A71 00000000100673a0     guideXOS.obj
 0005:0001b3e0       __Str_Woodward_McCoach_Inc_9821744325B77D6058D28B36AD5158EA8F3A3D39EAEF2597CE79B7A71C8F3202 00000000100673e0     guideXOS.obj
 0005:0001b420       __Str_Workbit_Corp_8ADFB57E0DEFB8C1370E4D32AC20F97E444CEA9EC43942A54E4CCCA97093BB2B 0000000010067420     guideXOS.obj
 0005:0001b450       __Str_Worldspace_Corp_955A70DA6297FAF5ABE6CBCDC8144CC923D6D06AFCE692D2F344F5BB9EA597EA 0000000010067450     guideXOS.obj
 0005:0001b488       __Str_Write                0000000010067488     guideXOS.obj
 0005:0001b4a8       __Str_WriteLine            00000000100674a8     guideXOS.obj
 0005:0001b4d0       __Str_WriteString          00000000100674d0     guideXOS.obj
 0005:0001b500       __Str_Wyse_Technology_AF24FF872A217A024741AA621FF4AD3F25DFA0051495D9213757BE5E134C327F 0000000010067500     guideXOS.obj
 0005:0001b538       __Str_X_Net_OY_0FD55764E45AFBC22DAE05C2B2C7ABC528A989A886A008F181A541E353CA0F45 0000000010067538     guideXOS.obj
 0005:0001b560       __Str_XGI_Technology_Inc_799069CFD27E0DC60714423E06C6CA57961F4D16A5313A46D5A3801515E14C74 0000000010067560     guideXOS.obj
 0005:0001b5a0       __Str_Xerox_Corporation_E1854CCAF3FE3BC991C8E97C804188FCFC04DADECCE01C853E752505722A0F0C 00000000100675a0     guideXOS.obj
 0005:0001b5d8       __Str_Xilinx_Corporation_CF750B7C8CB4FCE678390DFAAA1BDEA5A9A23095135B0F3200AE078DF9C18237 00000000100675d8     guideXOS.obj
 0005:0001b618       __Str_Xiotech_Corp_8D4F1D5BA607F09CA5795D2D5B789F8B92615747BDF2875351F56A2559C78E9F 0000000010067618     guideXOS.obj
 0005:0001b648       __Str_Xircom               0000000010067648     guideXOS.obj
 0005:0001b670       __Str_Xirlink__Inc_EDD5AF9ACE10C4B8FB61C208AA9F60714BE32EA3A17936FF7697F4294AE4A444 0000000010067670     guideXOS.obj
 0005:0001b6a0       __Str_Xpeed_Inc_6E0FEC51E04797E6F9121EA9810B7A9F95DC072CACA2B80FA24265093A88214D 00000000100676a0     guideXOS.obj
 0005:0001b6c8       __Str_Xpoint_Technologies_Inc_7F4DC1377B60128787823B1171B8349BA0AB4ABC1820C0EE95508F345A32169B 00000000100676c8     guideXOS.obj
 0005:0001b710       __Str_Xstreams_PLC__EPL_Limited_3EE416A9913B05C4568674A947A88A629AC4D22B4745E55A07FC6CD40D16C64A 0000000010067710     guideXOS.obj
 0005:0001b758       __Str_Xylon_Research_Inc_4D3F3510290F786DC09F8EF29BA1AFF6DFB35800FB2DE285DEE4E3DFB9A1BC7F 0000000010067758     guideXOS.obj
 0005:0001b798       __Str_Yamaha_Corporation_B429E5BE44DB4A5F4BEC1011A19C58AE56A508C716C5E459805F8A0BB0EB2C35 0000000010067798     guideXOS.obj
 0005:0001b7d8       __Str_Yamakatsu_Electronics_Industry_CBCB9E69C99FD69AF88DEA42E73E4FCC1476E34C7522594F11FCE4246F1EDC99 00000000100677d8     guideXOS.obj
 0005:0001b838       __Str_Yamashita_Systems_Corp_9B591A27C782D027DAC0C98A81FC1C590801464509CF1CC701FBD78ADCB8C347 0000000010067838     guideXOS.obj
 0005:0001b880       __Str_Yaskawa_Electric_Co_6177C00B38499E8CE497FE8DE5206B59F7B9EFF0427FE5086E80877605106F73 0000000010067880     guideXOS.obj
 0005:0001b8c0       __Str_Yokogawa_Electronic_Corp_DD47FAA4F28F1BC2CFE7EE90A6FC351B372DCAEB9038DDECB19FB45F3CB52B22 00000000100678c0     guideXOS.obj
 0005:0001b908       __Str_YottaYotta_Inc_79BB9992BEED2BAEB8A83982555876331004F3021FF18805240271EB51FB7FC4 0000000010067908     guideXOS.obj
 0005:0001b940       __Str_Young_Micro_Systems_302CA225AC013AD5AF94C39B66931D9ED62820E0D4D151E9C0FBC7E808D456DF 0000000010067940     guideXOS.obj
 0005:0001b980       __Str_Yuan_Yuan_Enterprise_Co_Ltd_3A53FC4AAEAA15F56F61A86325338725C8AD15041BFF2BBC0C51F655CA621EE9 0000000010067980     guideXOS.obj
 0005:0001b9d0       __Str_ZNYX_Corporation_06F29BAC7607E8DA8F713FBD46D35E906BB37D26E0114B88FB04C4BD82E11065 00000000100679d0     guideXOS.obj
 0005:0001ba08       __Str_Zapex_Technologies_Inc_A3BA9D1A4B93182BF6DFC613F3845AC3DF51DB74B90D66789A230E25F008017F 0000000010067a08     guideXOS.obj
 0005:0001ba50       __Str_Zarlink_Semiconductor_2AD31E1F86778F41F3F4343525941F81B9F879D644FEF6A3C3AAA791069A4AF5 0000000010067a50     guideXOS.obj
 0005:0001ba90       __Str_Zenic_Inc_B7C8EE8DB1DB282444B0863BEA9CB68E9022EF7D6B4DBEDE21CF35ADB6125900 0000000010067a90     guideXOS.obj
 0005:0001bab8       __Str_Zenith_Data_Systems_D89EDEF305FFC16D6B6BFA6FB883B00DD8DD4CD2012D26EC8E471B644A041B30 0000000010067ab8     guideXOS.obj
 0005:0001baf8       __Str_Zenith_Electronics_Co_E0233FE45297B8FE0BD8557A5A27470D6D900E4E8E3619C643BAD788E58EFC89 0000000010067af8     guideXOS.obj
 0005:0001bb38       __Str_Ziatech_Corporation_D2A38975E5493018FCDDE1D0C1505685DE7397AF1A1A8B6424EED876E8E05362 0000000010067b38     guideXOS.obj
 0005:0001bb78       __Str_Zida_Technologies_Ltd_0C3DA8DB8E3E975240DE07800DEBB0509A08F3712BB4BAA2F1B2A85348F2B31F 0000000010067b78     guideXOS.obj
 0005:0001bbb8       __Str_Zilog                0000000010067bb8     guideXOS.obj
 0005:0001bbd8       __Str_Zilog_Inc_DBB9E6447072985E3C23A363E695A52E078EFBD448D74F276269A5D0206F1B29 0000000010067bd8     guideXOS.obj
 0005:0001bc00       __Str_Zoltrix_International_Limited_0445BEFD7987D3F2F5A8E352AA337F92B7E838A65C688974B3F182ED0C2AAB16 0000000010067c00     guideXOS.obj
 0005:0001bc50       __Str_Zoom_Telephonics_Inc_C36E62C931BB9A14CBE611AA4B1B11038CEA87DCFC8BAB97B9FA6437ADA6B8BC 0000000010067c50     guideXOS.obj
 0005:0001bc90       __Str_Zoran_Corporation_E32B13F78DB1839C01D53602EA5383143DD48C0F4813454A9E766EFA37771131 0000000010067c90     guideXOS.obj
 0005:0001bcc8       __Str__AC97__Intel_82801AA_AC97_Audi_B643D57F6D093FFA36225205C9EA4C9214B4667D17E4521AFA6D78B17CDE0BF8 0000000010067cc8     guideXOS.obj
 0005:0001bd38       __Str__ACPI__ACPI_57AA5D4DC89872919E605A6E5F4D8698ED989C6C5E88A590F54DE8FA99CAA819 0000000010067d38     guideXOS.obj
 0005:0001bd68       __Str__I_O_APIC__Can_t_initialize_I__B8D4DCEEAC294FDD6C7595DB4ABFBA00E8DAFDF9B155D2ABCB91937FA48422F7 0000000010067d68     guideXOS.obj
 0005:0001bdc8       __Str__IDE___48CFDDBBE8C65D0A4BB3982086CA2F60CAE57BF1158F0064A9FA7EE85A587C05 0000000010067dc8     guideXOS.obj
 0005:0001bdf0       __Str__Initrd__Initrd__0x_3B9AECC2CFCD64EDEC3BE7813367F3177CA28BC9821A4E8AC38F120D2FB5265B 0000000010067df0     guideXOS.obj
 0005:0001be30       __Str__PCI_Express__0___1___2____3___AA5DFEC66395C77DE7BD8586327B5912ADC87A2F8A83FC22BFA1D01933C3E306 0000000010067e30     guideXOS.obj
 0005:0001be88       __Str__SATA__SATA_Port__41F5EFA0306410C2878C7DF19A62FB24D4AA77E2B1570BCB80E75D200B2653CD 0000000010067e88     guideXOS.obj
 0005:0001bec0       __Str__SATA__Too_many_sectors_to_rea_80D9BEEE1FCD03488246146182AF5D6209092226EF56A6560049050ACF276A75 0000000010067ec0     guideXOS.obj
 0005:0001bf18       __Str__SMP__Trampoline__0x_A726A464BF3F27EB23163DE296C69807A89471321FE4A1567EB444941634EB12 0000000010067f18     guideXOS.obj
 0005:0001bf58       __Str__                    0000000010067f58     guideXOS.obj
 0005:0001bf70       __Str_amc330               0000000010067f70     guideXOS.obj
 0005:0001bf98       __Str_austriamicrosystems  0000000010067f98     guideXOS.obj
 0005:0001bfd8       __Str_cpu                  0000000010067fd8     guideXOS.obj
 0005:0001bff8       __Str_devolo_AG_F653BD9E4CD977A095BE59281C4C0CE6E94CF2082116E8B73E1F3E5E310FF238 0000000010067ff8     guideXOS.obj
 0005:0001c020       __Str_esd_Electronic_System_Design_G_597D358764ED9E6F13024ECCF089379A863BD3CC0871A74AD7B5E792A3BA2111 0000000010068020     guideXOS.obj
 0005:0001c078       __Str_fopen__file_not_found__DA0255E30BCCD1694365B33FDCCC234DA542D287B150E533BD8334B121294625 0000000010068078     guideXOS.obj
 0005:0001c0c0       __Str_guideXOS             00000000100680c0     guideXOS.obj
 0005:0001c0e8       __Str_help                 00000000100680e8     guideXOS.obj
 0005:0001c108       __Str_help__to_get_this_information_8F1F7963EDAB2592294D38D10BD318D5873BF888381919B96630E30DEAD001DF 0000000010068108     guideXOS.obj
 0005:0001c158       __Str_http___team_nexgen_com_6F6D51B5385C26304F3A6FC65B5DA8F4B475937D9FDDB211C343C89CFFEFA743 0000000010068158     guideXOS.obj
 0005:0001c1a0       __Str_iba_AG_FFB020A5E41DE0BE97EDCAB8DC70BC8EC737497DD2054383C3AC76881E56B570 00000000100681a0     guideXOS.obj
 0005:0001c1c8       __Str_intel                00000000100681c8     guideXOS.obj
 0005:0001c1e8       __Str_lodepng_error_F434EC204B27DAA3C6AE5ED51E594117998A7FB646CAFAD71B681B265BBE2F77 00000000100681e8     guideXOS.obj
 0005:0001c218       __Str_master               0000000010068218     guideXOS.obj
 0005:0001c240       __Str_miro_Computer_Products_AG_46E32291AD5660D2BFADDA78A6AF2D42DA93522EA12A0D0A0BDFC6AB02444308 0000000010068240     guideXOS.obj
 0005:0001c288       __Str_mohamed_alsherif_C1425894EC26BFA0AD86EB7A63D1DA8F2CCA5FBF45ACF2AE8AD74B4346065330 0000000010068288     guideXOS.obj
 0005:0001c2c0       __Str_null                 00000000100682c0     guideXOS.obj
 0005:0001c2e0       __Str_pctel                00000000100682e0     guideXOS.obj
 0005:0001c300       __Str_reboot               0000000010068300     guideXOS.obj
 0005:0001c328       __Str_s                    0000000010068328     guideXOS.obj
 0005:0001c340       __Str_sanyo                0000000010068340     guideXOS.obj
 0005:0001c360       __Str_sci_worx_GmbH_4491D5729F1751922501309CA9E17E2F7E4725BC78559E080A329A27DBF2A0F5 0000000010068360     guideXOS.obj
 0005:0001c390       __Str_shutdown             0000000010068390     guideXOS.obj
 0005:0001c3b8       __Str_th                   00000000100683b8     guideXOS.obj
 0005:0001c3d8       __Str_themrtaish           00000000100683d8     guideXOS.obj
 0005:0001c408       __Str_wchcn                0000000010068408     guideXOS.obj
 0005:0001c428       __Str_x2                   0000000010068428     guideXOS.obj
 0005:0001c448       __Str__0__0_1__A37B61851EFE65D362118E5C922CFA5D0E942072439CB3EFA007A9DA0BE28CD8 0000000010068448     guideXOS.obj
 0005:0001c470       __Str__0___1__54D5E469507CAB22A4B03A9C09AB860E9B7E14418940C177A039FC4D842229A2 0000000010068470     guideXOS.obj
 0005:0001c498       __FrozenSegmentRegionEnd   0000000010068498     guideXOS.obj
 0005:0001c498       __GCStaticRegionStart      0000000010068498     guideXOS.obj
 0005:0001c570       __GCStaticRegionEnd        0000000010068570     guideXOS.obj
 0005:0001c570       __typemanager_indirection  0000000010068570     guideXOS.obj
 0005:0001c580       __pinvoke_guideXOS__Module__Error__Error__Ansi 0000000010068580     guideXOS.obj
 0005:0001c5a0       __pinvoke_guideXOS__Module__StartThread__StartThread__Ansi 00000000100685a0     guideXOS.obj
 0005:0001c5bc       ?__NONGCSTATICS@guideXOS_guideXOS_FPSMeter@@ 00000000100685bc     guideXOS.obj
 0005:0001c5c8       ?__NONGCSTATICS@guideXOS_guideXOS_Kernel_Drivers_SATA@@ 00000000100685c8     guideXOS.obj
 0005:0001c5d0       ?__NONGCSTATICS@guideXOS_guideXOS_GUI_StartMenu@@ 00000000100685d0     guideXOS.obj
 0005:0001c5e0       ?__GCSTATICS@guideXOS_Program@@ 00000000100685e0     guideXOS.obj
 0005:0001c5e8       ?__GCSTATICS@guideXOS_IDT@@ 00000000100685e8     guideXOS.obj
 0005:0001c5f0       ?__GCSTATICS@guideXOS_System_DateTime@@ 00000000100685f0     guideXOS.obj
 0005:0001c5f8       ?__GCSTATICS@guideXOS_guideXOS_Animator@@ 00000000100685f8     guideXOS.obj
 0005:0001c600       ?__GCSTATICS@guideXOS_guideXOS_ASC16@@ 0000000010068600     guideXOS.obj
 0005:0001c608       ?__GCSTATICS@guideXOS_guideXOS_Console@@ 0000000010068608     guideXOS.obj
 0005:0001c610       ?__GCSTATICS@guideXOS_guideXOS_Misc_BitFont@@ 0000000010068610     guideXOS.obj
 0005:0001c618       ?__GCSTATICS@guideXOS_guideXOS_Misc_Interrupts@@ 0000000010068618     guideXOS.obj
 0005:0001c620       ?__GCSTATICS@guideXOS_guideXOS_Misc_ThreadPool@@ 0000000010068620     guideXOS.obj
 0005:0001c628       ?__GCSTATICS@guideXOS_guideXOS_FS_Disk@@ 0000000010068628     guideXOS.obj
 0005:0001c630       ?__GCSTATICS@guideXOS_guideXOS_FS_File@@ 0000000010068630     guideXOS.obj
 0005:0001c638       ?__GCSTATICS@guideXOS_guideXOS_Kernel_Drivers_AC97@@ 0000000010068638     guideXOS.obj
 0005:0001c640       ?__GCSTATICS@guideXOS_guideXOS_Kernel_Drivers_ACPI@@ 0000000010068640     guideXOS.obj
 0005:0001c648       ?__GCSTATICS@guideXOS_guideXOS_Kernel_Drivers_Framebuffer@@ 0000000010068648     guideXOS.obj
 0005:0001c650       ?__GCSTATICS@guideXOS_guideXOS_Kernel_Drivers_HID@@ 0000000010068650     guideXOS.obj
 0005:0001c658       ?__GCSTATICS@guideXOS_guideXOS_Kernel_Drivers_IDE@@ 0000000010068658     guideXOS.obj
 0005:0001c660       ?__GCSTATICS@guideXOS_guideXOS_Kernel_Drivers_Keyboard@@ 0000000010068660     guideXOS.obj
 0005:0001c668       ?__GCSTATICS@guideXOS_guideXOS_Kernel_Drivers_PCI@@ 0000000010068668     guideXOS.obj
 0005:0001c670       ?__GCSTATICS@guideXOS_guideXOS_Kernel_Drivers_PS2Keyboard@@ 0000000010068670     guideXOS.obj
 0005:0001c678       ?__GCSTATICS@guideXOS_guideXOS_Kernel_Drivers_PS2Mouse@@ 0000000010068678     guideXOS.obj
 0005:0001c680       ?__GCSTATICS@guideXOS_guideXOS_Kernel_Drivers_SATA@@ 0000000010068680     guideXOS.obj
 0005:0001c690       ?__GCSTATICS@guideXOS_guideXOS_GUI_Desktop@@ 0000000010068690     guideXOS.obj
 0005:0001c698       ?__GCSTATICS@guideXOS_guideXOS_GUI_Lockscreen@@ 0000000010068698     guideXOS.obj
 0005:0001c6a0       ?__GCSTATICS@guideXOS_guideXOS_GUI_NotificationManager@@ 00000000100686a0     guideXOS.obj
 0005:0001c6a8       ?__GCSTATICS@guideXOS_guideXOS_GUI_WAVPlayer@@ 00000000100686a8     guideXOS.obj
 0005:0001c6b0       ?__GCSTATICS@guideXOS_guideXOS_GUI_WindowManager@@ 00000000100686b0     guideXOS.obj
 0005:0001c6b8       ?__GCSTATICS@guideXOS_guideXOS_DefaultApps_Clock@@ 00000000100686b8     guideXOS.obj
 0005:0001c6c0       __module_initializers      00000000100686c0     guideXOS.obj
 0005:0001c6c0       __module_initializers_End  00000000100686c0     guideXOS.obj
 0005:0001c6c0       __nativemodule_guideXOS__Module__Error 00000000100686c0     guideXOS.obj
 0005:0001c6e0       __nativemodule_guideXOS__Module__StartThread 00000000100686e0     guideXOS.obj
 0005:0001c700       LODEPNG_VERSION_STRING     0000000010068700     NativeLib:lodepng.obj
 0005:0001cb10       _fltused                   0000000010068b10     MSVCRTD:fltused.obj
 0005:0001cb20       ?__NONGCSTATICS@guideXOS_Program@@ 0000000010068b20     guideXOS.obj
 0005:0001cb28       ?__NONGCSTATICS@guideXOS_Allocator@@ 0000000010068b28     guideXOS.obj
 0005:0011cb38       ?__NONGCSTATICS@guideXOS_GDT@@ 0000000010168b38     guideXOS.obj
 0005:0011cbd2       ?__NONGCSTATICS@guideXOS_IDT@@ 0000000010168bd2     guideXOS.obj
 0005:0011cbe0       ?__NONGCSTATICS@guideXOS_System_Windows_Forms_Control@@ 0000000010168be0     guideXOS.obj
 0005:0011cbec       ?__NONGCSTATICS@guideXOS_guideXOS_Kbd2Mouse@@ 0000000010168bec     guideXOS.obj
 0005:0011cbf4       ?__NONGCSTATICS@guideXOS_guideXOS_Console@@ 0000000010168bf4     guideXOS.obj
 0005:0011cc00       ?__NONGCSTATICS@guideXOS_guideXOS_PageTable@@ 0000000010168c00     guideXOS.obj
 0005:0011cc08       ?__NONGCSTATICS@guideXOS_guideXOS_SMP@@ 0000000010168c08     guideXOS.obj
 0005:0011cc10       ?__NONGCSTATICS@guideXOS_guideXOS_Misc_Audio@@ 0000000010168c10     guideXOS.obj
 0005:0011cc28       ?__NONGCSTATICS@guideXOS_guideXOS_Misc_ThreadPool@@ 0000000010168c28     guideXOS.obj
 0005:0011cc44       ?__NONGCSTATICS@guideXOS_guideXOS_Misc_USB@@ 0000000010168c44     guideXOS.obj
 0005:0011cc48       ?__NONGCSTATICS@guideXOS_guideXOS_Kernel_Drivers_AC97@@ 0000000010168c48     guideXOS.obj
 0005:0011cc68       ?__NONGCSTATICS@guideXOS_guideXOS_Kernel_Drivers_ACPI@@ 0000000010168c68     guideXOS.obj
 0005:0011cc98       ?__NONGCSTATICS@guideXOS_guideXOS_Kernel_Drivers_EHCI@@ 0000000010168c98     guideXOS.obj
 0005:0011cce8       ?__NONGCSTATICS@guideXOS_guideXOS_Kernel_Drivers_ES1371@@ 0000000010168ce8     guideXOS.obj
 0005:0011ccf8       ?__NONGCSTATICS@guideXOS_guideXOS_Kernel_Drivers_Framebuffer@@ 0000000010168cf8     guideXOS.obj
 0005:0011cd20       ?__NONGCSTATICS@guideXOS_guideXOS_Kernel_Drivers_HID@@ 0000000010168d20     guideXOS.obj
 0005:0011cd28       ?__NONGCSTATICS@guideXOS_guideXOS_Kernel_Drivers_HPET@@ 0000000010168d28     guideXOS.obj
 0005:0011cd30       ?__NONGCSTATICS@guideXOS_guideXOS_Kernel_Drivers_Hub@@ 0000000010168d30     guideXOS.obj
 0005:0011cd38       ?__NONGCSTATICS@guideXOS_guideXOS_Kernel_Drivers_Keyboard@@ 0000000010168d38     guideXOS.obj
 0005:0011cd48       ?__NONGCSTATICS@guideXOS_guideXOS_Kernel_Drivers_PS2Mouse@@ 0000000010168d48     guideXOS.obj
 0005:0011cd5c       ?__NONGCSTATICS@guideXOS_guideXOS_Kernel_Drivers_RTC@@ 0000000010168d5c     guideXOS.obj
 0005:0011cd60       ?__NONGCSTATICS@guideXOS_guideXOS_Kernel_Drivers_Timer@@ 0000000010168d60     guideXOS.obj
 0005:0011cd78       ?__NONGCSTATICS@guideXOS_guideXOS_Kernel_Drivers_VMwareTools@@ 0000000010168d78     guideXOS.obj
 0005:0011cd7c       ?__NONGCSTATICS@guideXOS_guideXOS_GUI_Desktop@@ 0000000010168d7c     guideXOS.obj
 0005:0011cd8c       ?__NONGCSTATICS@guideXOS_guideXOS_GUI_WAVPlayer@@ 0000000010168d8c     guideXOS.obj
 0005:0011cdbd       ?__NONGCSTATICS@guideXOS_guideXOS_GUI_WindowManager@@ 0000000010168dbd     guideXOS.obj
 0005:0011cdc0       __writableDataChar         0000000010168dc0     guideXOS.obj
 0005:0011cdc8       __writableDataInt32        0000000010168dc8     guideXOS.obj
 0005:0011cdd0       __writableDataObject       0000000010168dd0     guideXOS.obj
 0005:0011cdd8       __writableDataString       0000000010168dd8     guideXOS.obj
 0005:0011cde0       __writableDataUInt16       0000000010168de0     guideXOS.obj
 0005:0011cde8       __writableDataUInt32       0000000010168de8     guideXOS.obj
 0005:0011cdf0       __writableDataUInt8        0000000010168df0     guideXOS.obj
 0005:0011cdf8       __writableData__Array<Char> 0000000010168df8     guideXOS.obj
 0005:0011ce00       __writableData__Array<Int32> 0000000010168e00     guideXOS.obj
 0005:0011ce08       __writableData__Array<Object> 0000000010168e08     guideXOS.obj
 0005:0011ce10       __writableData__Array<String> 0000000010168e10     guideXOS.obj
 0005:0011ce18       __writableData__Array<UInt32> 0000000010168e18     guideXOS.obj
 0005:0011ce20       __writableData__Array<UInt8> 0000000010168e20     guideXOS.obj
 0005:0011ce28       __writableData__Array<guideXOS_IDT_IDTEntry> 0000000010168e28     guideXOS.obj
 0005:0011ce30       __writableData__Array<guideXOS_System_ConsoleKey> 0000000010168e30     guideXOS.obj
 0005:0011ce38       __writableData__Array<guideXOS_System_Drawing_Image> 0000000010168e38     guideXOS.obj
 0005:0011ce40       __writableData__Array<guideXOS_guideXOS_Animation> 0000000010168e40     guideXOS.obj
 0005:0011ce48       __writableData__Array<guideXOS_guideXOS_FS_FileInfo> 0000000010168e48     guideXOS.obj
 0005:0011ce50       __writableData__Array<guideXOS_guideXOS_GUI_Nofity> 0000000010168e50     guideXOS.obj
 0005:0011ce58       __writableData__Array<guideXOS_guideXOS_GUI_Widgets_Button> 0000000010168e58     guideXOS.obj
 0005:0011ce60       __writableData__Array<guideXOS_guideXOS_GUI_Window> 0000000010168e60     guideXOS.obj
 0005:0011ce68       __writableData__Array<guideXOS_guideXOS_Kernel_Drivers_IDEDevice> 0000000010168e68     guideXOS.obj
 0005:0011ce70       __writableData__Array<guideXOS_guideXOS_Kernel_Drivers_PCIDevice> 0000000010168e70     guideXOS.obj
 0005:0011ce78       __writableData__Array<guideXOS_guideXOS_Kernel_Drivers_SATA_SATADevice> 0000000010168e78     guideXOS.obj
 0005:0011ce80       __writableData__Array<guideXOS_guideXOS_Misc_BitFontDescriptor> 0000000010168e80     guideXOS.obj
 0005:0011ce88       __writableData__Array<guideXOS_guideXOS_Misc_Interrupts_INT> 0000000010168e88     guideXOS.obj
 0005:0011ce90       __writableData__Array<guideXOS_guideXOS_Misc_Thread> 0000000010168e90     guideXOS.obj
 0005:0011ce98       __writableData__Array<guideXOS_guideXOS_OS_App> 0000000010168e98     guideXOS.obj
 0005:0011cea0       __writableDataguideXOS_IDT_IDTEntry 0000000010168ea0     guideXOS.obj
 0005:0011cea8       __writableDataguideXOS_System_Array 0000000010168ea8     guideXOS.obj
 0005:0011ceb0       __writableDataguideXOS_System_Collections_Generic_List_1 0000000010168eb0     guideXOS.obj
 0005:0011ceb8       __writableDataguideXOS_System_Collections_Generic_List_1<UInt8> 0000000010168eb8     guideXOS.obj
 0005:0011cec0       __writableDataguideXOS_System_Collections_Generic_List_1<guideXOS_guideXOS_Animation> 0000000010168ec0     guideXOS.obj
 0005:0011cec8       __writableDataguideXOS_System_Collections_Generic_List_1<guideXOS_guideXOS_FS_FileInfo> 0000000010168ec8     guideXOS.obj
 0005:0011ced0       __writableDataguideXOS_System_Collections_Generic_List_1<guideXOS_guideXOS_GUI_Nofity> 0000000010168ed0     guideXOS.obj
 0005:0011ced8       __writableDataguideXOS_System_Collections_Generic_List_1<guideXOS_guideXOS_GUI_Widgets_Button> 0000000010168ed8     guideXOS.obj
 0005:0011cee0       __writableDataguideXOS_System_Collections_Generic_List_1<guideXOS_guideXOS_GUI_Window> 0000000010168ee0     guideXOS.obj
 0005:0011cee8       __writableDataguideXOS_System_Collections_Generic_List_1<guideXOS_guideXOS_Kernel_Drivers_IDEDevice> 0000000010168ee8     guideXOS.obj
 0005:0011cef0       __writableDataguideXOS_System_Collections_Generic_List_1<guideXOS_guideXOS_Kernel_Drivers_PCIDevice> 0000000010168ef0     guideXOS.obj
 0005:0011cef8       __writableDataguideXOS_System_Collections_Generic_List_1<guideXOS_guideXOS_Kernel_Drivers_SATA_SATADevice> 0000000010168ef8     guideXOS.obj
 0005:0011cf00       __writableDataguideXOS_System_Collections_Generic_List_1<guideXOS_guideXOS_Misc_BitFontDescriptor> 0000000010168f00     guideXOS.obj
 0005:0011cf08       __writableDataguideXOS_System_Collections_Generic_List_1<guideXOS_guideXOS_Misc_Interrupts_INT> 0000000010168f08     guideXOS.obj
 0005:0011cf10       __writableDataguideXOS_System_Collections_Generic_List_1<guideXOS_guideXOS_Misc_Thread> 0000000010168f10     guideXOS.obj
 0005:0011cf18       __writableDataguideXOS_System_Collections_Generic_List_1<guideXOS_guideXOS_OS_App> 0000000010168f18     guideXOS.obj
 0005:0011cf20       __writableDataguideXOS_System_ConsoleKey 0000000010168f20     guideXOS.obj
 0005:0011cf28       __writableDataguideXOS_System_ConsoleKeyInfo 0000000010168f28     guideXOS.obj
 0005:0011cf30       __writableDataguideXOS_System_Delegate 0000000010168f30     guideXOS.obj
 0005:0011cf38       __writableDataguideXOS_System_Drawing_Image 0000000010168f38     guideXOS.obj
 0005:0011cf40       __writableDataguideXOS_System_Enum 0000000010168f40     guideXOS.obj
 0005:0011cf48       __writableDataguideXOS_System_EventHandler_1 0000000010168f48     guideXOS.obj
 0005:0011cf50       __writableDataguideXOS_System_EventHandler_1<guideXOS_System_ConsoleKeyInfo> 0000000010168f50     guideXOS.obj
 0005:0011cf58       __writableDataguideXOS_System_MulticastDelegate 0000000010168f58     guideXOS.obj
 0005:0011cf60       __writableDataguideXOS_System_ValueType 0000000010168f60     guideXOS.obj
 0005:0011cf68       __writableDataguideXOS__Module_ 0000000010168f68     guideXOS.obj
 0005:0011cf70       __writableDataguideXOS_guideXOS_Animation 0000000010168f70     guideXOS.obj
 0005:0011cf78       __writableDataguideXOS_guideXOS_Console 0000000010168f78     guideXOS.obj
 0005:0011cf80       __writableDataguideXOS_guideXOS_Console_OnWriteHandler 0000000010168f80     guideXOS.obj
 0005:0011cf88       __writableDataguideXOS_guideXOS_DefaultApps_Calculator 0000000010168f88     guideXOS.obj
 0005:0011cf90       __writableDataguideXOS_guideXOS_DefaultApps_Clock 0000000010168f90     guideXOS.obj
 0005:0011cf98       __writableDataguideXOS_guideXOS_DefaultApps_Notepad 0000000010168f98     guideXOS.obj
 0005:0011cfa0       __writableDataguideXOS_guideXOS_FS_Disk 0000000010168fa0     guideXOS.obj
 0005:0011cfa8       __writableDataguideXOS_guideXOS_FS_FileInfo 0000000010168fa8     guideXOS.obj
 0005:0011cfb0       __writableDataguideXOS_guideXOS_FS_FileSystem 0000000010168fb0     guideXOS.obj
 0005:0011cfb8       __writableDataguideXOS_guideXOS_FS_TarFS 0000000010168fb8     guideXOS.obj
 0005:0011cfc0       __writableDataguideXOS_guideXOS_GUI_FConsole 0000000010168fc0     guideXOS.obj
 0005:0011cfc8       __writableDataguideXOS_guideXOS_GUI_ImageViewer 0000000010168fc8     guideXOS.obj
 0005:0011cfd0       __writableDataguideXOS_guideXOS_GUI_MessageBox 0000000010168fd0     guideXOS.obj
 0005:0011cfd8       __writableDataguideXOS_guideXOS_GUI_Monitor 0000000010168fd8     guideXOS.obj
 0005:0011cfe0       __writableDataguideXOS_guideXOS_GUI_Monitor_Chart 0000000010168fe0     guideXOS.obj
 0005:0011cfe8       __writableDataguideXOS_guideXOS_GUI_Nofity 0000000010168fe8     guideXOS.obj
 0005:0011cff0       __writableDataguideXOS_guideXOS_GUI_Paint 0000000010168ff0     guideXOS.obj
 0005:0011cff8       __writableDataguideXOS_guideXOS_GUI_RightMenu 0000000010168ff8     guideXOS.obj
 0005:0011d000       __writableDataguideXOS_guideXOS_GUI_StartMenu 0000000010169000     guideXOS.obj
 0005:0011d008       __writableDataguideXOS_guideXOS_GUI_Taskbar 0000000010169008     guideXOS.obj
 0005:0011d010       __writableDataguideXOS_guideXOS_GUI_WAVPlayer 0000000010169010     guideXOS.obj
 0005:0011d018       __writableDataguideXOS_guideXOS_GUI_Welcome 0000000010169018     guideXOS.obj
 0005:0011d020       __writableDataguideXOS_guideXOS_GUI_Widgets_Base_Widget 0000000010169020     guideXOS.obj
 0005:0011d028       __writableDataguideXOS_guideXOS_GUI_Widgets_Button 0000000010169028     guideXOS.obj
 0005:0011d030       __writableDataguideXOS_guideXOS_GUI_Window 0000000010169030     guideXOS.obj
 0005:0011d038       __writableDataguideXOS_guideXOS_Graph_Graphics 0000000010169038     guideXOS.obj
 0005:0011d040       __writableDataguideXOS_guideXOS_Kernel_Drivers_IDEDevice 0000000010169040     guideXOS.obj
 0005:0011d048       __writableDataguideXOS_guideXOS_Kernel_Drivers_PCIDevice 0000000010169048     guideXOS.obj
 0005:0011d050       __writableDataguideXOS_guideXOS_Kernel_Drivers_Ramdisk 0000000010169050     guideXOS.obj
 0005:0011d058       __writableDataguideXOS_guideXOS_Kernel_Drivers_SATA_SATADevice 0000000010169058     guideXOS.obj
 0005:0011d060       __writableDataguideXOS_guideXOS_Misc_BitFontDescriptor 0000000010169060     guideXOS.obj
 0005:0011d068       __writableDataguideXOS_guideXOS_Misc_Bitmap 0000000010169068     guideXOS.obj
 0005:0011d070       __writableDataguideXOS_guideXOS_Misc_IFont 0000000010169070     guideXOS.obj
 0005:0011d078       __writableDataguideXOS_guideXOS_Misc_Interrupts_INT 0000000010169078     guideXOS.obj
 0005:0011d080       __writableDataguideXOS_guideXOS_Misc_PNG 0000000010169080     guideXOS.obj
 0005:0011d088       __writableDataguideXOS_guideXOS_Misc_Thread 0000000010169088     guideXOS.obj
 0005:0011d090       __writableDataguideXOS_guideXOS_Misc_USBDevice 0000000010169090     guideXOS.obj
 0005:0011d098       __writableDataguideXOS_guideXOS_OS_App 0000000010169098     guideXOS.obj
 0005:0011d0a0       __writableDataguideXOS_guideXOS_OS_AppCollection 00000000101690a0     guideXOS.obj
 0005:0011d0b0       cpuinfo                    00000000101690b0     <common>
 0007:00000000       __Module                   000000001016d000     guideXOS.obj

 entry point at        0003:00004ef8

 Static symbols

 0000:00000000       _volmd                     0000000010000000     NativeLib:interrupts.obj
 0001:00002720       $$000000                   0000000010003720     NativeLib:interrupts_asm.obj
 0001:00006980       $$000000                   0000000010007980     NativeLib:misc.obj
 0001:000069c0       Adam7_deinterlace          00000000100079c0 f   NativeLib:lodepng.obj
 0001:00006df0       Adam7_getpassvalues        0000000010007df0 f   NativeLib:lodepng.obj
 0001:000070b0       Adam7_interlace            00000000100080b0 f   NativeLib:lodepng.obj
 0001:000074d0       HuffmanTree_cleanup        00000000100084d0 f   NativeLib:lodepng.obj
 0001:00007530       HuffmanTree_init           0000000010008530 f   NativeLib:lodepng.obj
 0001:00007580       HuffmanTree_makeFromFrequencies 0000000010008580 f   NativeLib:lodepng.obj
 0001:00007660       HuffmanTree_makeFromLengths 0000000010008660 f   NativeLib:lodepng.obj
 0001:00007710       HuffmanTree_makeFromLengths2 0000000010008710 f   NativeLib:lodepng.obj
 0001:000079c0       HuffmanTree_makeTable      00000000100089c0 f   NativeLib:lodepng.obj
 0001:00007f80       LodePNGBitReader_init      0000000010008f80 f   NativeLib:lodepng.obj
 0001:00008020       LodePNGBitWriter_init      0000000010009020 f   NativeLib:lodepng.obj
 0001:00008060       LodePNGIText_cleanup       0000000010009060 f   NativeLib:lodepng.obj
 0001:00008140       LodePNGIText_copy          0000000010009140 f   NativeLib:lodepng.obj
 0001:00008250       LodePNGIText_init          0000000010009250 f   NativeLib:lodepng.obj
 0001:000082b0       LodePNGText_cleanup        00000000100092b0 f   NativeLib:lodepng.obj
 0001:00008340       LodePNGText_copy           0000000010009340 f   NativeLib:lodepng.obj
 0001:000083f0       LodePNGText_init           00000000100093f0 f   NativeLib:lodepng.obj
 0001:00008440       LodePNGUnknownChunks_cleanup 0000000010009440 f   NativeLib:lodepng.obj
 0001:00008490       LodePNGUnknownChunks_copy  0000000010009490 f   NativeLib:lodepng.obj
 0001:000085b0       LodePNGUnknownChunks_init  00000000100095b0 f   NativeLib:lodepng.obj
 0001:00008630       addChunk_IDAT              0000000010009630 f   NativeLib:lodepng.obj
 0001:000086d0       addChunk_IEND              00000000100096d0 f   NativeLib:lodepng.obj
 0001:00008710       addChunk_IHDR              0000000010009710 f   NativeLib:lodepng.obj
 0001:00008810       addChunk_PLTE              0000000010009810 f   NativeLib:lodepng.obj
 0001:00008930       addChunk_bKGD              0000000010009930 f   NativeLib:lodepng.obj
 0001:00008b30       addChunk_cHRM              0000000010009b30 f   NativeLib:lodepng.obj
 0001:00008c60       addChunk_gAMA              0000000010009c60 f   NativeLib:lodepng.obj
 0001:00008ce0       addChunk_iCCP              0000000010009ce0 f   NativeLib:lodepng.obj
 0001:00008e50       addChunk_iTXt              0000000010009e50 f   NativeLib:lodepng.obj
 0001:00009160       addChunk_pHYs              000000001000a160 f   NativeLib:lodepng.obj
 0001:00009210       addChunk_sRGB              000000001000a210 f   NativeLib:lodepng.obj
 0001:00009260       addChunk_tEXt              000000001000a260 f   NativeLib:lodepng.obj
 0001:00009360       addChunk_tIME              000000001000a360 f   NativeLib:lodepng.obj
 0001:00009470       addChunk_tRNS              000000001000a470 f   NativeLib:lodepng.obj
 0001:00009730       addChunk_zTXt              000000001000a730 f   NativeLib:lodepng.obj
 0001:00009890       addColorBits               000000001000a890 f   NativeLib:lodepng.obj
 0001:000099c0       addLengthDistance          000000001000a9c0 f   NativeLib:lodepng.obj
 0001:00009ae0       addPaddingBits             000000001000aae0 f   NativeLib:lodepng.obj
 0001:00009be0       addUnknownChunks           000000001000abe0 f   NativeLib:lodepng.obj
 0001:00009c80       adler32                    000000001000ac80 f   NativeLib:lodepng.obj
 0001:00009cc0       advanceBits                000000001000acc0 f   NativeLib:lodepng.obj
 0001:00009d20       alloc_string               000000001000ad20 f   NativeLib:lodepng.obj
 0001:00009d60       alloc_string_sized         000000001000ad60 f   NativeLib:lodepng.obj
 0001:00009dd0       auto_choose_color          000000001000add0 f   NativeLib:lodepng.obj
 0001:0000a1d0       boundaryPM                 000000001000b1d0 f   NativeLib:lodepng.obj
 0001:0000a3d0       bpmnode_create             000000001000b3d0 f   NativeLib:lodepng.obj
 0001:0000a5a0       bpmnode_sort               000000001000b5a0 f   NativeLib:lodepng.obj
 0001:0000a850       checkColorValidity         000000001000b850 f   NativeLib:lodepng.obj
 0001:0000a960       color_tree_add             000000001000b960 f   NativeLib:lodepng.obj
 0001:0000aa90       color_tree_cleanup         000000001000ba90 f   NativeLib:lodepng.obj
 0001:0000ab00       color_tree_get             000000001000bb00 f   NativeLib:lodepng.obj
 0001:0000ac10       color_tree_has             000000001000bc10 f   NativeLib:lodepng.obj
 0001:0000ac80       color_tree_init            000000001000bc80 f   NativeLib:lodepng.obj
 0001:0000acd0       countZeros                 000000001000bcd0 f   NativeLib:lodepng.obj
 0001:0000ad80       decodeGeneric              000000001000bd80 f   NativeLib:lodepng.obj
 0001:0000ba40       deflate                    000000001000ca40 f   NativeLib:lodepng.obj
 0001:0000baf0       deflateDynamic             000000001000caf0 f   NativeLib:lodepng.obj
 0001:0000c7c0       deflateFixed               000000001000d7c0 f   NativeLib:lodepng.obj
 0001:0000c9f0       deflateNoCompression       000000001000d9f0 f   NativeLib:lodepng.obj
 0001:0000cbf0       encodeLZ77                 000000001000dbf0 f   NativeLib:lodepng.obj
 0001:0000d330       ensureBits17               000000001000e330 f   NativeLib:lodepng.obj
 0001:0000d480       ensureBits25               000000001000e480 f   NativeLib:lodepng.obj
 0001:0000d620       ensureBits32               000000001000e620 f   NativeLib:lodepng.obj
 0001:0000d830       ensureBits9                000000001000e830 f   NativeLib:lodepng.obj
 0001:0000d930       filter                     000000001000e930 f   NativeLib:lodepng.obj
 0001:0000e410       filterScanline             000000001000f410 f   NativeLib:lodepng.obj
 0001:0000e960       generateFixedDistanceTree  000000001000f960 f   NativeLib:lodepng.obj
 0001:0000ea00       generateFixedLitLenTree    000000001000fa00 f   NativeLib:lodepng.obj
 0001:0000eb20       getHash                    000000001000fb20 f   NativeLib:lodepng.obj
 0001:0000ec50       getNumColorChannels        000000001000fc50 f   NativeLib:lodepng.obj
 0001:0000ecd0       getPixelColorRGBA16        000000001000fcd0 f   NativeLib:lodepng.obj
 0001:0000f030       getPixelColorRGBA8         0000000010010030 f   NativeLib:lodepng.obj
 0001:0000f790       getPixelColorsRGB8         0000000010010790 f   NativeLib:lodepng.obj
 0001:0000ff40       getPixelColorsRGBA8        0000000010010f40 f   NativeLib:lodepng.obj
 0001:00010ab0       getTreeInflateDynamic      0000000010011ab0 f   NativeLib:lodepng.obj
 0001:00011040       getTreeInflateFixed        0000000010012040 f   NativeLib:lodepng.obj
 0001:00011090       getValueRequiredBits       0000000010012090 f   NativeLib:lodepng.obj
 0001:00011110       hash_cleanup               0000000010012110 f   NativeLib:lodepng.obj
 0001:00011180       hash_init                  0000000010012180 f   NativeLib:lodepng.obj
 0001:00011370       huffmanDecodeSymbol        0000000010012370 f   NativeLib:lodepng.obj
 0001:00011450       ilog2                      0000000010012450 f   NativeLib:lodepng.obj
 0001:00011520       ilog2i                     0000000010012520 f   NativeLib:lodepng.obj
 0001:00011580       inflateHuffmanBlock        0000000010012580 f   NativeLib:lodepng.obj
 0001:00011a40       inflateNoCompression       0000000010012a40 f   NativeLib:lodepng.obj
 0001:00011c00       inflatev                   0000000010012c00 f   NativeLib:lodepng.obj
 0001:00011cd0       isGrayICCProfile           0000000010012cd0 f   NativeLib:lodepng.obj
 0001:00011d70       isRGBICCProfile            0000000010012d70 f   NativeLib:lodepng.obj
 0001:00011e70       lodepng_add_itext_sized    0000000010012e70 f   NativeLib:lodepng.obj
 0001:000120a0       lodepng_add_text_sized     00000000100130a0 f   NativeLib:lodepng.obj
 0001:000121f0       lodepng_addofl             00000000100131f0 f   NativeLib:lodepng.obj
 0001:00012250       lodepng_assign_icc         0000000010013250 f   NativeLib:lodepng.obj
 0001:00012620       lodepng_chunk_createv      0000000010013620 f   NativeLib:lodepng.obj
 0001:00012890       lodepng_chunk_init         0000000010013890 f   NativeLib:lodepng.obj
 0001:00012f40       lodepng_color_mode_alloc_palette 0000000010013f40 f   NativeLib:lodepng.obj
 0001:000130d0       lodepng_color_mode_equal   00000000100140d0 f   NativeLib:lodepng.obj
 0001:000132e0       lodepng_color_stats_add    00000000100142e0 f   NativeLib:lodepng.obj
 0001:00015280       lodepng_deflatev           0000000010016280 f   NativeLib:lodepng.obj
 0001:00016bb4       $LN105                     0000000010017bb4     NativeLib:lodepng.obj
 0001:00016d80       lodepng_free               0000000010017d80 f   NativeLib:lodepng.obj
 0001:00016df0       lodepng_get_bpp_lct        0000000010017df0 f   NativeLib:lodepng.obj
 0001:00016ea0       lodepng_get_raw_size_idat  0000000010017ea0 f   NativeLib:lodepng.obj
 0001:00016f20       lodepng_get_raw_size_lct   0000000010017f20 f   NativeLib:lodepng.obj
 0001:00016fc0       lodepng_gtofl              0000000010017fc0 f   NativeLib:lodepng.obj
 0001:000175a0       lodepng_inflatev           00000000100185a0 f   NativeLib:lodepng.obj
 0001:000182f0       lodepng_malloc             00000000100192f0 f   NativeLib:lodepng.obj
 0001:00018320       lodepng_memcpy             0000000010019320 f   NativeLib:lodepng.obj
 0001:00018390       lodepng_memset             0000000010019390 f   NativeLib:lodepng.obj
 0001:000183f0       lodepng_mulofl             00000000100193f0 f   NativeLib:lodepng.obj
 0001:000185b0       lodepng_pixel_overflow     00000000100195b0 f   NativeLib:lodepng.obj
 0001:00018720       lodepng_read32bitInt       0000000010019720 f   NativeLib:lodepng.obj
 0001:000187a0       lodepng_realloc            00000000100197a0 f   NativeLib:lodepng.obj
 0001:000187e0       lodepng_set32bitInt        00000000100197e0 f   NativeLib:lodepng.obj
 0001:00018a70       lodepng_strlen             0000000010019a70 f   NativeLib:lodepng.obj
 0001:00018d60       lodepng_zlib_decompressv   0000000010019d60 f   NativeLib:lodepng.obj
 0001:00018ef0       paethPredictor             0000000010019ef0 f   NativeLib:lodepng.obj
 0001:00019020       peekBits                   000000001001a020 f   NativeLib:lodepng.obj
 0001:00019070       postProcessScanlines       000000001001a070 f   NativeLib:lodepng.obj
 0001:000193b0       preProcessScanlines        000000001001a3b0 f   NativeLib:lodepng.obj
 0001:00019930       readBitFromReversedStream  000000001001a930 f   NativeLib:lodepng.obj
 0001:000199a0       readBits                   000000001001a9a0 f   NativeLib:lodepng.obj
 0001:000199f0       readBitsFromReversedStream 000000001001a9f0 f   NativeLib:lodepng.obj
 0001:00019a70       readChunk_PLTE             000000001001aa70 f   NativeLib:lodepng.obj
 0001:00019bd0       readChunk_bKGD             000000001001abd0 f   NativeLib:lodepng.obj
 0001:00019dd0       readChunk_cHRM             000000001001add0 f   NativeLib:lodepng.obj
 0001:0001a150       readChunk_gAMA             000000001001b150 f   NativeLib:lodepng.obj
 0001:0001a200       readChunk_iCCP             000000001001b200 f   NativeLib:lodepng.obj
 0001:0001a470       readChunk_iTXt             000000001001b470 f   NativeLib:lodepng.obj
 0001:0001a870       readChunk_pHYs             000000001001b870 f   NativeLib:lodepng.obj
 0001:0001a9b0       readChunk_sRGB             000000001001b9b0 f   NativeLib:lodepng.obj
 0001:0001aa20       readChunk_tEXt             000000001001ba20 f   NativeLib:lodepng.obj
 0001:0001abc0       readChunk_tIME             000000001001bbc0 f   NativeLib:lodepng.obj
 0001:0001acd0       readChunk_tRNS             000000001001bcd0 f   NativeLib:lodepng.obj
 0001:0001aea0       readChunk_zTXt             000000001001bea0 f   NativeLib:lodepng.obj
 0001:0001b0c0       removePaddingBits          000000001001c0c0 f   NativeLib:lodepng.obj
 0001:0001b1a0       reverseBits                000000001001c1a0 f   NativeLib:lodepng.obj
 0001:0001b210       rgba16ToPixel              000000001001c210 f   NativeLib:lodepng.obj
 0001:0001b480       rgba8ToPixel               000000001001c480 f   NativeLib:lodepng.obj
 0001:0001b850       searchCodeIndex            000000001001c850 f   NativeLib:lodepng.obj
 0001:0001b910       setBitOfReversedStream     000000001001c910 f   NativeLib:lodepng.obj
 0001:0001b9f0       string_cleanup             000000001001c9f0 f   NativeLib:lodepng.obj
 0001:0001ba30       ucvector_init              000000001001ca30 f   NativeLib:lodepng.obj
 0001:0001ba90       ucvector_reserve           000000001001ca90 f   NativeLib:lodepng.obj
 0001:0001bb20       ucvector_resize            000000001001cb20 f   NativeLib:lodepng.obj
 0001:0001bb60       uivector_cleanup           000000001001cb60 f   NativeLib:lodepng.obj
 0001:0001bbb0       uivector_init              000000001001cbb0 f   NativeLib:lodepng.obj
 0001:0001bc00       uivector_push_back         000000001001cc00 f   NativeLib:lodepng.obj
 0001:0001bc60       uivector_resize            000000001001cc60 f   NativeLib:lodepng.obj
 0001:0001bd10       unfilter                   000000001001cd10 f   NativeLib:lodepng.obj
 0001:0001be50       unfilterScanline           000000001001ce50 f   NativeLib:lodepng.obj
 0001:0001d010       updateHashChain            000000001001e010 f   NativeLib:lodepng.obj
 0001:0001d0f0       update_adler32             000000001001e0f0 f   NativeLib:lodepng.obj
 0001:0001d1f0       writeBits                  000000001001e1f0 f   NativeLib:lodepng.obj
 0001:0001d3e0       writeBitsReversed          000000001001e3e0 f   NativeLib:lodepng.obj
 0001:0001d510       writeLZ77data              000000001001e510 f   NativeLib:lodepng.obj
 0001:0001d6c0       writeSignature             000000001001e6c0 f   NativeLib:lodepng.obj
 0001:0001d750       zlib_compress              000000001001e750 f   NativeLib:lodepng.obj
 0001:0001d800       zlib_decompress            000000001001e800 f   NativeLib:lodepng.obj
 0001:0001dc00       $$000000                   000000001001ec00     NativeLib:vmware.obj
 0001:0001dff0       _atoi                      000000001001eff0 f   LibC:printf.obj
 0001:0001e050       _etoa                      000000001001f050 f   LibC:printf.obj
 0001:0001e630       _ftoa                      000000001001f630 f   LibC:printf.obj
 0001:0001ec00       _is_digit                  000000001001fc00 f   LibC:printf.obj
 0001:0001ec50       _ntoa_format               000000001001fc50 f   LibC:printf.obj
 0001:0001ef20       _ntoa_long                 000000001001ff20 f   LibC:printf.obj
 0001:0001f080       _ntoa_long_long            0000000010020080 f   LibC:printf.obj
 0001:0001f1f0       _out_buffer                00000000100201f0 f   LibC:printf.obj
 0001:0001f230       _out_char                  0000000010020230 f   LibC:printf.obj
 0001:0001f270       _out_fct                   0000000010020270 f   LibC:printf.obj
 0001:0001f2b0       _out_null                  00000000100202b0 f   LibC:printf.obj
 0001:0001f2e0       _out_rev                   00000000100202e0 f   LibC:printf.obj
 0001:0001f450       _strnlen_s                 0000000010020450 f   LibC:printf.obj
 0001:0001f4c0       _vsnprintf                 00000000100204c0 f   LibC:printf.obj
 0001:00020588       $LN138                     0000000010021588     LibC:printf.obj
 0001:000205d0       $LN137                     00000000100215d0     LibC:printf.obj
 0004:00006338       ?headsize@?1??HuffmanTree_makeTable@@9@9 0000000010045338     NativeLib:lodepng.obj
 0004:0000633c       ?mask@?1??HuffmanTree_makeTable@@9@9 000000001004533c     NativeLib:lodepng.obj
 0004:00006340       LENGTHBASE                 0000000010045340     NativeLib:lodepng.obj
 0004:000063b4       HASH_NUM_VALUES            00000000100453b4     NativeLib:lodepng.obj
 0004:000063b8       HASH_BIT_MASK              00000000100453b8     NativeLib:lodepng.obj
 0004:000063c0       LENGTHEXTRA                00000000100453c0     NativeLib:lodepng.obj
 0004:00006440       DISTANCEBASE               0000000010045440     NativeLib:lodepng.obj
 0004:000064c0       DISTANCEEXTRA              00000000100454c0     NativeLib:lodepng.obj
 0004:00006540       CLCL_ORDER                 0000000010045540     NativeLib:lodepng.obj
 0004:00006590       MAX_SUPPORTED_DEFLATE_LENGTH 0000000010045590     NativeLib:lodepng.obj
 0004:00006598       ADAM7_IX                   0000000010045598     NativeLib:lodepng.obj
 0004:000065b8       ADAM7_IY                   00000000100455b8     NativeLib:lodepng.obj
 0004:000065d8       ADAM7_DX                   00000000100455d8     NativeLib:lodepng.obj
 0004:000065f8       ADAM7_DY                   00000000100455f8     NativeLib:lodepng.obj
 0004:00007b00       ?pow10@?1??_ftoa@@9@9      0000000010046b00     LibC:printf.obj
 0004:0000b990       $unwind$avx_memcpy         000000001004a990     NativeLib:mem.obj
 0004:0000b9a0       $unwind$Movsb              000000001004a9a0     NativeLib:mem.obj
 0004:0000b9b0       $unwind$Movsd              000000001004a9b0     NativeLib:mem.obj
 0004:0000b9c0       $unwind$Stosb              000000001004a9c0     NativeLib:mem.obj
 0004:0000b9cc       $unwind$Stosd              000000001004a9cc     NativeLib:mem.obj
 0004:0000b9d8       $unwind$Load_GDT           000000001004a9d8     NativeLib:interrupts.obj
 0004:0000b9e4       $unwind$idt_set            000000001004a9e4     NativeLib:interrupts.obj
 0004:0000b9f0       $unwind$set_idt_entries    000000001004a9f0     NativeLib:interrupts.obj
 0004:0000b9fc       $unwind$Nop                000000001004a9fc     NativeLib:native.obj
 0004:0000ba08       $unwind$CPUID              000000001004aa08     NativeLib:native.obj
 0004:0000ba14       $unwind$Fxsave64           000000001004aa14     NativeLib:native.obj
 0004:0000ba20       $unwind$Rdmsr              000000001004aa20     NativeLib:native.obj
 0004:0000ba2c       $unwind$Wrmsr              000000001004aa2c     NativeLib:native.obj
 0004:0000ba38       $unwind$Rdtsc              000000001004aa38     NativeLib:native.obj
 0004:0000ba44       $unwind$Fxrstor64          000000001004aa44     NativeLib:native.obj
 0004:0000ba50       $unwind$Invlpg             000000001004aa50     NativeLib:native.obj
 0004:0000ba5c       $unwind$WriteCR3           000000001004aa5c     NativeLib:native.obj
 0004:0000ba68       $unwind$ReadCR2            000000001004aa68     NativeLib:native.obj
 0004:0000ba74       $unwind$Hlt                000000001004aa74     NativeLib:native.obj
 0004:0000ba80       $unwind$Cli                000000001004aa80     NativeLib:native.obj
 0004:0000ba8c       $unwind$Sti                000000001004aa8c     NativeLib:native.obj
 0004:0000ba98       $unwind$lodepng_decode_memory 000000001004aa98     NativeLib:lodepng.obj
 0004:0000baa4       $unwind$lodepng_decode32   000000001004aaa4     NativeLib:lodepng.obj
 0004:0000bab0       $unwind$lodepng_decode24   000000001004aab0     NativeLib:lodepng.obj
 0004:0000babc       $unwind$lodepng_encode_memory 000000001004aabc     NativeLib:lodepng.obj
 0004:0000bac8       $unwind$lodepng_encode32   000000001004aac8     NativeLib:lodepng.obj
 0004:0000bad4       $unwind$lodepng_encode24   000000001004aad4     NativeLib:lodepng.obj
 0004:0000bae0       $unwind$lodepng_error_text 000000001004aae0     NativeLib:lodepng.obj
 0004:0000baec       $unwind$lodepng_decompress_settings_init 000000001004aaec     NativeLib:lodepng.obj
 0004:0000baf8       $unwind$lodepng_compress_settings_init 000000001004aaf8     NativeLib:lodepng.obj
 0004:0000bb04       $unwind$lodepng_color_mode_init 000000001004ab04     NativeLib:lodepng.obj
 0004:0000bb10       $unwind$lodepng_color_mode_cleanup 000000001004ab10     NativeLib:lodepng.obj
 0004:0000bb1c       $unwind$lodepng_color_mode_copy 000000001004ab1c     NativeLib:lodepng.obj
 0004:0000bb28       $unwind$lodepng_color_mode_make 000000001004ab28     NativeLib:lodepng.obj
 0004:0000bb34       $unwind$lodepng_palette_clear 000000001004ab34     NativeLib:lodepng.obj
 0004:0000bb40       $unwind$lodepng_palette_add 000000001004ab40     NativeLib:lodepng.obj
 0004:0000bb4c       $unwind$lodepng_get_bpp    000000001004ab4c     NativeLib:lodepng.obj
 0004:0000bb58       $unwind$lodepng_get_channels 000000001004ab58     NativeLib:lodepng.obj
 0004:0000bb64       $unwind$lodepng_is_greyscale_type 000000001004ab64     NativeLib:lodepng.obj
 0004:0000bb70       $unwind$lodepng_is_alpha_type 000000001004ab70     NativeLib:lodepng.obj
 0004:0000bb7c       $unwind$lodepng_is_palette_type 000000001004ab7c     NativeLib:lodepng.obj
 0004:0000bb88       $unwind$lodepng_has_palette_alpha 000000001004ab88     NativeLib:lodepng.obj
 0004:0000bb94       $unwind$lodepng_can_have_alpha 000000001004ab94     NativeLib:lodepng.obj
 0004:0000bba0       $unwind$lodepng_get_raw_size 000000001004aba0     NativeLib:lodepng.obj
 0004:0000bbac       $unwind$lodepng_info_init  000000001004abac     NativeLib:lodepng.obj
 0004:0000bbb8       $unwind$lodepng_info_cleanup 000000001004abb8     NativeLib:lodepng.obj
 0004:0000bbc4       $unwind$lodepng_info_copy  000000001004abc4     NativeLib:lodepng.obj
 0004:0000bbd0       $unwind$lodepng_add_text   000000001004abd0     NativeLib:lodepng.obj
 0004:0000bbdc       $unwind$lodepng_clear_text 000000001004abdc     NativeLib:lodepng.obj
 0004:0000bbe8       $unwind$lodepng_add_itext  000000001004abe8     NativeLib:lodepng.obj
 0004:0000bbf4       $unwind$lodepng_clear_itext 000000001004abf4     NativeLib:lodepng.obj
 0004:0000bc00       $unwind$lodepng_set_icc    000000001004ac00     NativeLib:lodepng.obj
 0004:0000bc0c       $unwind$lodepng_clear_icc  000000001004ac0c     NativeLib:lodepng.obj
 0004:0000bc18       $unwind$lodepng_convert    000000001004ac18     NativeLib:lodepng.obj
 0004:0000bc24       $unwind$lodepng_decoder_settings_init 000000001004ac24     NativeLib:lodepng.obj
 0004:0000bc30       $unwind$lodepng_color_stats_init 000000001004ac30     NativeLib:lodepng.obj
 0004:0000bc3c       $unwind$lodepng_compute_color_stats 000000001004ac3c     NativeLib:lodepng.obj
 0004:0000bc48       $unwind$lodepng_encoder_settings_init 000000001004ac48     NativeLib:lodepng.obj
 0004:0000bc54       $unwind$lodepng_state_init 000000001004ac54     NativeLib:lodepng.obj
 0004:0000bc60       $unwind$lodepng_state_cleanup 000000001004ac60     NativeLib:lodepng.obj
 0004:0000bc6c       $unwind$lodepng_state_copy 000000001004ac6c     NativeLib:lodepng.obj
 0004:0000bc7c       $unwind$lodepng_decode     000000001004ac7c     NativeLib:lodepng.obj
 0004:0000bc88       $unwind$lodepng_inspect    000000001004ac88     NativeLib:lodepng.obj
 0004:0000bc94       $unwind$lodepng_inspect_chunk 000000001004ac94     NativeLib:lodepng.obj
 0004:0000bca0       $unwind$lodepng_encode     000000001004aca0     NativeLib:lodepng.obj
 0004:0000bcb0       $unwind$lodepng_chunk_length 000000001004acb0     NativeLib:lodepng.obj
 0004:0000bcbc       $unwind$lodepng_chunk_type 000000001004acbc     NativeLib:lodepng.obj
 0004:0000bcc8       $unwind$lodepng_chunk_type_equals 000000001004acc8     NativeLib:lodepng.obj
 0004:0000bcd4       $unwind$lodepng_chunk_ancillary 000000001004acd4     NativeLib:lodepng.obj
 0004:0000bce0       $unwind$lodepng_chunk_private 000000001004ace0     NativeLib:lodepng.obj
 0004:0000bcec       $unwind$lodepng_chunk_safetocopy 000000001004acec     NativeLib:lodepng.obj
 0004:0000bcf8       $unwind$lodepng_chunk_data 000000001004acf8     NativeLib:lodepng.obj
 0004:0000bd04       $unwind$lodepng_chunk_data_const 000000001004ad04     NativeLib:lodepng.obj
 0004:0000bd10       $unwind$lodepng_chunk_check_crc 000000001004ad10     NativeLib:lodepng.obj
 0004:0000bd1c       $unwind$lodepng_chunk_generate_crc 000000001004ad1c     NativeLib:lodepng.obj
 0004:0000bd28       $unwind$lodepng_chunk_next 000000001004ad28     NativeLib:lodepng.obj
 0004:0000bd34       $unwind$lodepng_chunk_next_const 000000001004ad34     NativeLib:lodepng.obj
 0004:0000bd40       $unwind$lodepng_chunk_find 000000001004ad40     NativeLib:lodepng.obj
 0004:0000bd4c       $unwind$lodepng_chunk_find_const 000000001004ad4c     NativeLib:lodepng.obj
 0004:0000bd58       $unwind$lodepng_chunk_append 000000001004ad58     NativeLib:lodepng.obj
 0004:0000bd64       $unwind$lodepng_chunk_create 000000001004ad64     NativeLib:lodepng.obj
 0004:0000bd74       $unwind$lodepng_crc32      000000001004ad74     NativeLib:lodepng.obj
 0004:0000bd80       $unwind$lodepng_inflate    000000001004ad80     NativeLib:lodepng.obj
 0004:0000bd90       $unwind$lodepng_zlib_decompress 000000001004ad90     NativeLib:lodepng.obj
 0004:0000bda0       $unwind$lodepng_zlib_compress 000000001004ada0     NativeLib:lodepng.obj
 0004:0000bdac       $unwind$lodepng_huffman_code_lengths 000000001004adac     NativeLib:lodepng.obj
 0004:0000bdb8       $unwind$lodepng_deflate    000000001004adb8     NativeLib:lodepng.obj
 0004:0000bdc8       $unwind$lodepng_malloc     000000001004adc8     NativeLib:lodepng.obj
 0004:0000bdd4       $unwind$lodepng_realloc    000000001004add4     NativeLib:lodepng.obj
 0004:0000bde0       $unwind$lodepng_free       000000001004ade0     NativeLib:lodepng.obj
 0004:0000bdec       $unwind$lodepng_memcpy     000000001004adec     NativeLib:lodepng.obj
 0004:0000bdf8       $unwind$lodepng_memset     000000001004adf8     NativeLib:lodepng.obj
 0004:0000be04       $unwind$lodepng_strlen     000000001004ae04     NativeLib:lodepng.obj
 0004:0000be10       $unwind$lodepng_addofl     000000001004ae10     NativeLib:lodepng.obj
 0004:0000be1c       $unwind$lodepng_mulofl     000000001004ae1c     NativeLib:lodepng.obj
 0004:0000be28       $unwind$lodepng_gtofl      000000001004ae28     NativeLib:lodepng.obj
 0004:0000be34       $unwind$uivector_cleanup   000000001004ae34     NativeLib:lodepng.obj
 0004:0000be40       $unwind$uivector_resize    000000001004ae40     NativeLib:lodepng.obj
 0004:0000be4c       $unwind$uivector_init      000000001004ae4c     NativeLib:lodepng.obj
 0004:0000be58       $unwind$uivector_push_back 000000001004ae58     NativeLib:lodepng.obj
 0004:0000be64       $unwind$ucvector_reserve   000000001004ae64     NativeLib:lodepng.obj
 0004:0000be70       $unwind$ucvector_resize    000000001004ae70     NativeLib:lodepng.obj
 0004:0000be7c       $unwind$ucvector_init      000000001004ae7c     NativeLib:lodepng.obj
 0004:0000be88       $unwind$string_cleanup     000000001004ae88     NativeLib:lodepng.obj
 0004:0000be94       $unwind$alloc_string_sized 000000001004ae94     NativeLib:lodepng.obj
 0004:0000bea0       $unwind$alloc_string       000000001004aea0     NativeLib:lodepng.obj
 0004:0000beac       $unwind$lodepng_read32bitInt 000000001004aeac     NativeLib:lodepng.obj
 0004:0000beb8       $unwind$lodepng_set32bitInt 000000001004aeb8     NativeLib:lodepng.obj
 0004:0000bec4       $unwind$LodePNGBitWriter_init 000000001004aec4     NativeLib:lodepng.obj
 0004:0000bed0       $unwind$writeBits          000000001004aed0     NativeLib:lodepng.obj
 0004:0000bedc       $unwind$writeBitsReversed  000000001004aedc     NativeLib:lodepng.obj
 0004:0000bee8       $unwind$LodePNGBitReader_init 000000001004aee8     NativeLib:lodepng.obj
 0004:0000bef4       $unwind$ensureBits9        000000001004aef4     NativeLib:lodepng.obj
 0004:0000bf00       $unwind$ensureBits17       000000001004af00     NativeLib:lodepng.obj
 0004:0000bf0c       $unwind$ensureBits25       000000001004af0c     NativeLib:lodepng.obj
 0004:0000bf18       $unwind$ensureBits32       000000001004af18     NativeLib:lodepng.obj
 0004:0000bf24       $unwind$peekBits           000000001004af24     NativeLib:lodepng.obj
 0004:0000bf30       $unwind$advanceBits        000000001004af30     NativeLib:lodepng.obj
 0004:0000bf3c       $unwind$readBits           000000001004af3c     NativeLib:lodepng.obj
 0004:0000bf48       $unwind$reverseBits        000000001004af48     NativeLib:lodepng.obj
 0004:0000bf54       $unwind$HuffmanTree_init   000000001004af54     NativeLib:lodepng.obj
 0004:0000bf60       $unwind$HuffmanTree_cleanup 000000001004af60     NativeLib:lodepng.obj
 0004:0000bf6c       $unwind$HuffmanTree_makeTable 000000001004af6c     NativeLib:lodepng.obj
 0004:0000bf78       $unwind$HuffmanTree_makeFromLengths2 000000001004af78     NativeLib:lodepng.obj
 0004:0000bf84       $unwind$HuffmanTree_makeFromLengths 000000001004af84     NativeLib:lodepng.obj
 0004:0000bf90       $unwind$bpmnode_create     000000001004af90     NativeLib:lodepng.obj
 0004:0000bf9c       $unwind$bpmnode_sort       000000001004af9c     NativeLib:lodepng.obj
 0004:0000bfac       $unwind$boundaryPM         000000001004afac     NativeLib:lodepng.obj
 0004:0000bfb8       $unwind$HuffmanTree_makeFromFrequencies 000000001004afb8     NativeLib:lodepng.obj
 0004:0000bfc4       $unwind$generateFixedLitLenTree 000000001004afc4     NativeLib:lodepng.obj
 0004:0000bfd0       $unwind$generateFixedDistanceTree 000000001004afd0     NativeLib:lodepng.obj
 0004:0000bfdc       $unwind$huffmanDecodeSymbol 000000001004afdc     NativeLib:lodepng.obj
 0004:0000bfe8       $unwind$getTreeInflateFixed 000000001004afe8     NativeLib:lodepng.obj
 0004:0000bff4       $unwind$getTreeInflateDynamic 000000001004aff4     NativeLib:lodepng.obj
 0004:0000c000       $unwind$inflateHuffmanBlock 000000001004b000     NativeLib:lodepng.obj
 0004:0000c00c       $unwind$inflateNoCompression 000000001004b00c     NativeLib:lodepng.obj
 0004:0000c018       $unwind$lodepng_inflatev   000000001004b018     NativeLib:lodepng.obj
 0004:0000c024       $unwind$inflatev           000000001004b024     NativeLib:lodepng.obj
 0004:0000c030       $unwind$searchCodeIndex    000000001004b030     NativeLib:lodepng.obj
 0004:0000c03c       $unwind$addLengthDistance  000000001004b03c     NativeLib:lodepng.obj
 0004:0000c048       $unwind$hash_init          000000001004b048     NativeLib:lodepng.obj
 0004:0000c054       $unwind$hash_cleanup       000000001004b054     NativeLib:lodepng.obj
 0004:0000c060       $unwind$getHash            000000001004b060     NativeLib:lodepng.obj
 0004:0000c06c       $unwind$countZeros         000000001004b06c     NativeLib:lodepng.obj
 0004:0000c078       $unwind$updateHashChain    000000001004b078     NativeLib:lodepng.obj
 0004:0000c084       $unwind$encodeLZ77         000000001004b084     NativeLib:lodepng.obj
 0004:0000c090       $unwind$deflateNoCompression 000000001004b090     NativeLib:lodepng.obj
 0004:0000c09c       $unwind$writeLZ77data      000000001004b09c     NativeLib:lodepng.obj
 0004:0000c0a8       $unwind$deflateDynamic     000000001004b0a8     NativeLib:lodepng.obj
 0004:0000c0b4       $unwind$deflateFixed       000000001004b0b4     NativeLib:lodepng.obj
 0004:0000c0c0       $unwind$lodepng_deflatev   000000001004b0c0     NativeLib:lodepng.obj
 0004:0000c0cc       $unwind$deflate            000000001004b0cc     NativeLib:lodepng.obj
 0004:0000c0d8       $unwind$update_adler32     000000001004b0d8     NativeLib:lodepng.obj
 0004:0000c0e4       $unwind$adler32            000000001004b0e4     NativeLib:lodepng.obj
 0004:0000c0f0       $unwind$lodepng_zlib_decompressv 000000001004b0f0     NativeLib:lodepng.obj
 0004:0000c0fc       $unwind$zlib_decompress    000000001004b0fc     NativeLib:lodepng.obj
 0004:0000c10c       $unwind$zlib_compress      000000001004b10c     NativeLib:lodepng.obj
 0004:0000c118       $unwind$readBitFromReversedStream 000000001004b118     NativeLib:lodepng.obj
 0004:0000c124       $unwind$readBitsFromReversedStream 000000001004b124     NativeLib:lodepng.obj
 0004:0000c130       $unwind$setBitOfReversedStream 000000001004b130     NativeLib:lodepng.obj
 0004:0000c13c       $unwind$lodepng_chunk_init 000000001004b13c     NativeLib:lodepng.obj
 0004:0000c148       $unwind$lodepng_chunk_createv 000000001004b148     NativeLib:lodepng.obj
 0004:0000c154       $unwind$checkColorValidity 000000001004b154     NativeLib:lodepng.obj
 0004:0000c160       $unwind$getNumColorChannels 000000001004b160     NativeLib:lodepng.obj
 0004:0000c16c       $unwind$lodepng_get_bpp_lct 000000001004b16c     NativeLib:lodepng.obj
 0004:0000c178       $unwind$lodepng_color_mode_alloc_palette 000000001004b178     NativeLib:lodepng.obj
 0004:0000c184       $unwind$lodepng_color_mode_equal 000000001004b184     NativeLib:lodepng.obj
 0004:0000c190       $unwind$lodepng_get_raw_size_lct 000000001004b190     NativeLib:lodepng.obj
 0004:0000c19c       $unwind$lodepng_get_raw_size_idat 000000001004b19c     NativeLib:lodepng.obj
 0004:0000c1a8       $unwind$lodepng_pixel_overflow 000000001004b1a8     NativeLib:lodepng.obj
 0004:0000c1b4       $unwind$LodePNGUnknownChunks_init 000000001004b1b4     NativeLib:lodepng.obj
 0004:0000c1c0       $unwind$LodePNGUnknownChunks_cleanup 000000001004b1c0     NativeLib:lodepng.obj
 0004:0000c1cc       $unwind$LodePNGUnknownChunks_copy 000000001004b1cc     NativeLib:lodepng.obj
 0004:0000c1d8       $unwind$LodePNGText_init   000000001004b1d8     NativeLib:lodepng.obj
 0004:0000c1e4       $unwind$LodePNGText_cleanup 000000001004b1e4     NativeLib:lodepng.obj
 0004:0000c1f0       $unwind$LodePNGText_copy   000000001004b1f0     NativeLib:lodepng.obj
 0004:0000c1fc       $unwind$lodepng_add_text_sized 000000001004b1fc     NativeLib:lodepng.obj
 0004:0000c208       $unwind$LodePNGIText_init  000000001004b208     NativeLib:lodepng.obj
 0004:0000c214       $unwind$LodePNGIText_cleanup 000000001004b214     NativeLib:lodepng.obj
 0004:0000c220       $unwind$LodePNGIText_copy  000000001004b220     NativeLib:lodepng.obj
 0004:0000c22c       $unwind$lodepng_add_itext_sized 000000001004b22c     NativeLib:lodepng.obj
 0004:0000c238       $unwind$lodepng_assign_icc 000000001004b238     NativeLib:lodepng.obj
 0004:0000c244       $unwind$addColorBits       000000001004b244     NativeLib:lodepng.obj
 0004:0000c250       $unwind$color_tree_init    000000001004b250     NativeLib:lodepng.obj
 0004:0000c25c       $unwind$color_tree_cleanup 000000001004b25c     NativeLib:lodepng.obj
 0004:0000c268       $unwind$color_tree_get     000000001004b268     NativeLib:lodepng.obj
 0004:0000c274       $unwind$color_tree_has     000000001004b274     NativeLib:lodepng.obj
 0004:0000c280       $unwind$color_tree_add     000000001004b280     NativeLib:lodepng.obj
 0004:0000c28c       $unwind$rgba8ToPixel       000000001004b28c     NativeLib:lodepng.obj
 0004:0000c298       $unwind$rgba16ToPixel      000000001004b298     NativeLib:lodepng.obj
 0004:0000c2a4       $unwind$getPixelColorRGBA8 000000001004b2a4     NativeLib:lodepng.obj
 0004:0000c2b0       $unwind$getPixelColorsRGBA8 000000001004b2b0     NativeLib:lodepng.obj
 0004:0000c2bc       $unwind$getPixelColorsRGB8 000000001004b2bc     NativeLib:lodepng.obj
 0004:0000c2c8       $unwind$getPixelColorRGBA16 000000001004b2c8     NativeLib:lodepng.obj
 0004:0000c2d4       $unwind$lodepng_convert_rgb 000000001004b2d4     NativeLib:lodepng.obj
 0004:0000c2e0       $unwind$getValueRequiredBits 000000001004b2e0     NativeLib:lodepng.obj
 0004:0000c2ec       $unwind$lodepng_color_stats_add 000000001004b2ec     NativeLib:lodepng.obj
 0004:0000c2f8       $unwind$auto_choose_color  000000001004b2f8     NativeLib:lodepng.obj
 0004:0000c304       $unwind$paethPredictor     000000001004b304     NativeLib:lodepng.obj
 0004:0000c310       $unwind$Adam7_getpassvalues 000000001004b310     NativeLib:lodepng.obj
 0004:0000c31c       $unwind$unfilterScanline   000000001004b31c     NativeLib:lodepng.obj
 0004:0000c328       $unwind$unfilter           000000001004b328     NativeLib:lodepng.obj
 0004:0000c334       $unwind$Adam7_deinterlace  000000001004b334     NativeLib:lodepng.obj
 0004:0000c340       $unwind$removePaddingBits  000000001004b340     NativeLib:lodepng.obj
 0004:0000c34c       $unwind$postProcessScanlines 000000001004b34c     NativeLib:lodepng.obj
 0004:0000c358       $unwind$readChunk_PLTE     000000001004b358     NativeLib:lodepng.obj
 0004:0000c364       $unwind$readChunk_tRNS     000000001004b364     NativeLib:lodepng.obj
 0004:0000c370       $unwind$readChunk_bKGD     000000001004b370     NativeLib:lodepng.obj
 0004:0000c37c       $unwind$readChunk_tEXt     000000001004b37c     NativeLib:lodepng.obj
 0004:0000c388       $unwind$readChunk_zTXt     000000001004b388     NativeLib:lodepng.obj
 0004:0000c398       $unwind$readChunk_iTXt     000000001004b398     NativeLib:lodepng.obj
 0004:0000c3a8       $unwind$readChunk_tIME     000000001004b3a8     NativeLib:lodepng.obj
 0004:0000c3b4       $unwind$readChunk_pHYs     000000001004b3b4     NativeLib:lodepng.obj
 0004:0000c3c0       $unwind$readChunk_gAMA     000000001004b3c0     NativeLib:lodepng.obj
 0004:0000c3cc       $unwind$readChunk_cHRM     000000001004b3cc     NativeLib:lodepng.obj
 0004:0000c3d8       $unwind$readChunk_sRGB     000000001004b3d8     NativeLib:lodepng.obj
 0004:0000c3e4       $unwind$readChunk_iCCP     000000001004b3e4     NativeLib:lodepng.obj
 0004:0000c3f4       $unwind$decodeGeneric      000000001004b3f4     NativeLib:lodepng.obj
 0004:0000c400       $unwind$writeSignature     000000001004b400     NativeLib:lodepng.obj
 0004:0000c40c       $unwind$addChunk_IHDR      000000001004b40c     NativeLib:lodepng.obj
 0004:0000c418       $unwind$addChunk_PLTE      000000001004b418     NativeLib:lodepng.obj
 0004:0000c424       $unwind$addChunk_tRNS      000000001004b424     NativeLib:lodepng.obj
 0004:0000c430       $unwind$addChunk_IDAT      000000001004b430     NativeLib:lodepng.obj
 0004:0000c43c       $unwind$addChunk_IEND      000000001004b43c     NativeLib:lodepng.obj
 0004:0000c448       $unwind$addChunk_tEXt      000000001004b448     NativeLib:lodepng.obj
 0004:0000c454       $unwind$addChunk_zTXt      000000001004b454     NativeLib:lodepng.obj
 0004:0000c460       $unwind$addChunk_iTXt      000000001004b460     NativeLib:lodepng.obj
 0004:0000c46c       $unwind$addChunk_bKGD      000000001004b46c     NativeLib:lodepng.obj
 0004:0000c478       $unwind$addChunk_tIME      000000001004b478     NativeLib:lodepng.obj
 0004:0000c484       $unwind$addChunk_pHYs      000000001004b484     NativeLib:lodepng.obj
 0004:0000c490       $unwind$addChunk_gAMA      000000001004b490     NativeLib:lodepng.obj
 0004:0000c49c       $unwind$addChunk_cHRM      000000001004b49c     NativeLib:lodepng.obj
 0004:0000c4a8       $unwind$addChunk_sRGB      000000001004b4a8     NativeLib:lodepng.obj
 0004:0000c4b4       $unwind$addChunk_iCCP      000000001004b4b4     NativeLib:lodepng.obj
 0004:0000c4c0       $unwind$filterScanline     000000001004b4c0     NativeLib:lodepng.obj
 0004:0000c4cc       $unwind$ilog2              000000001004b4cc     NativeLib:lodepng.obj
 0004:0000c4d8       $unwind$ilog2i             000000001004b4d8     NativeLib:lodepng.obj
 0004:0000c4e4       $unwind$filter             000000001004b4e4     NativeLib:lodepng.obj
 0004:0000c4f0       $unwind$addPaddingBits     000000001004b4f0     NativeLib:lodepng.obj
 0004:0000c4fc       $unwind$Adam7_interlace    000000001004b4fc     NativeLib:lodepng.obj
 0004:0000c508       $unwind$preProcessScanlines 000000001004b508     NativeLib:lodepng.obj
 0004:0000c514       $unwind$addUnknownChunks   000000001004b514     NativeLib:lodepng.obj
 0004:0000c520       $unwind$isGrayICCProfile   000000001004b520     NativeLib:lodepng.obj
 0004:0000c52c       $unwind$isRGBICCProfile    000000001004b52c     NativeLib:lodepng.obj
 0004:0000c538       $unwind$Out8               000000001004b538     NativeLib:io.obj
 0004:0000c544       $unwind$Out16              000000001004b544     NativeLib:io.obj
 0004:0000c550       $unwind$Out32              000000001004b550     NativeLib:io.obj
 0004:0000c55c       $unwind$In8                000000001004b55c     NativeLib:io.obj
 0004:0000c568       $unwind$In16               000000001004b568     NativeLib:io.obj
 0004:0000c574       $unwind$In32               000000001004b574     NativeLib:io.obj
 0004:0000c580       $unwind$Insd               000000001004b580     NativeLib:io.obj
 0004:0000c58c       $unwind$Insw               000000001004b58c     NativeLib:io.obj
 0004:0000c598       $unwind$Insb               000000001004b598     NativeLib:io.obj
 0004:0000c5a4       $unwind$Outsd              000000001004b5a4     NativeLib:io.obj
 0004:0000c5b0       $unwind$Outsw              000000001004b5b0     NativeLib:io.obj
 0004:0000c5bc       $unwind$Outsb              000000001004b5bc     NativeLib:io.obj
 0004:0000c5c8       $unwind$mystrtoul          000000001004b5c8     LibC:strtoul.obj
 0004:0000c5d4       $unwind$printf_            000000001004b5d4     LibC:printf.obj
 0004:0000c5e0       $unwind$sprintf_           000000001004b5e0     LibC:printf.obj
 0004:0000c5ec       $unwind$snprintf_          000000001004b5ec     LibC:printf.obj
 0004:0000c5f8       $unwind$vsnprintf_         000000001004b5f8     LibC:printf.obj
 0004:0000c604       $unwind$vprintf_           000000001004b604     LibC:printf.obj
 0004:0000c610       $unwind$fctprintf          000000001004b610     LibC:printf.obj
 0004:0000c61c       $unwind$_out_buffer        000000001004b61c     LibC:printf.obj
 0004:0000c628       $unwind$_out_null          000000001004b628     LibC:printf.obj
 0004:0000c634       $unwind$_out_char          000000001004b634     LibC:printf.obj
 0004:0000c640       $unwind$_out_fct           000000001004b640     LibC:printf.obj
 0004:0000c64c       $unwind$_strnlen_s         000000001004b64c     LibC:printf.obj
 0004:0000c658       $unwind$_is_digit          000000001004b658     LibC:printf.obj
 0004:0000c664       $unwind$_atoi              000000001004b664     LibC:printf.obj
 0004:0000c670       $unwind$_out_rev           000000001004b670     LibC:printf.obj
 0004:0000c67c       $unwind$_ntoa_format       000000001004b67c     LibC:printf.obj
 0004:0000c688       $unwind$_ntoa_long         000000001004b688     LibC:printf.obj
 0004:0000c694       $unwind$_ntoa_long_long    000000001004b694     LibC:printf.obj
 0004:0000c6a0       $unwind$_etoa              000000001004b6a0     LibC:printf.obj
 0004:0000c6ac       $unwind$_ftoa              000000001004b6ac     LibC:printf.obj
 0004:0000c6b8       $unwind$_vsnprintf         000000001004b6b8     LibC:printf.obj
 0004:0000c6c4       $unwind$myisspace          000000001004b6c4     LibC:isspace.obj
 0004:0000c6d0       $unwind$myisdigit          000000001004b6d0     LibC:isdigit.obj
 0004:0000c6dc       $unwind$myisalpha          000000001004b6dc     LibC:isalpha.obj
 0004:0000c6e8       $unwind$myisupper          000000001004b6e8     LibC:isupper.obj
 0005:0001c710       lodepng_crc32_table        0000000010068710     NativeLib:lodepng.obj
 0008:00000000       __FE09AF47_concurrencysal@h 000000001016e000     NativeLib:mem.obj
 0008:00000001       __C073CA79_sal@h           000000001016e001     NativeLib:mem.obj
 0008:00000002       __D6AFE870_vadefs@h        000000001016e002     NativeLib:mem.obj
 0008:00000003       __D63E96CF_vcruntime@h     000000001016e003     NativeLib:mem.obj
 0008:00000004       __F5A7E1DF_intrin0@inl@h   000000001016e004     NativeLib:mem.obj
 0008:00000005       __3EC16E15_setjmp@h        000000001016e005     NativeLib:mem.obj
 0008:00000006       __18C87B63_mmintrin@h      000000001016e006     NativeLib:mem.obj
 0008:00000007       __1B0272D9_corecrt@h       000000001016e007     NativeLib:mem.obj
 0008:00000008       __45DED006_corecrt_malloc@h 000000001016e008     NativeLib:mem.obj
 0008:00000009       __FA77ED4C_malloc@h        000000001016e009     NativeLib:mem.obj
 0008:0000000a       __56EBFA9B_xmmintrin@h     000000001016e00a     NativeLib:mem.obj
 0008:0000000b       __33897357_emmintrin@h     000000001016e00b     NativeLib:mem.obj
 0008:0000000c       __EC281BDE_pmmintrin@h     000000001016e00c     NativeLib:mem.obj
 0008:0000000d       __5CF1685C_tmmintrin@h     000000001016e00d     NativeLib:mem.obj
 0008:0000000e       __75CA7DDF_smmintrin@h     000000001016e00e     NativeLib:mem.obj
 0008:0000000f       __10A8F413_nmmintrin@h     000000001016e00f     NativeLib:mem.obj
 0008:00000010       __C5130E5D_wmmintrin@h     000000001016e010     NativeLib:mem.obj
 0008:00000011       __0E87435A_zmmintrin@h     000000001016e011     NativeLib:mem.obj
 0008:00000012       __3993E190_immintrin@h     000000001016e012     NativeLib:mem.obj
 0008:00000013       __835000D5_ammintrin@h     000000001016e013     NativeLib:mem.obj
 0008:00000014       __18F7D262_intrin@h        000000001016e014     NativeLib:mem.obj
 0008:00000015       __121DF3F2_mem@cpp         000000001016e015     NativeLib:mem.obj
 0008:00000016       __FE09AF47_concurrencysal@h 000000001016e016     NativeLib:interrupts.obj
 0008:00000017       __C073CA79_sal@h           000000001016e017     NativeLib:interrupts.obj
 0008:00000018       __D6AFE870_vadefs@h        000000001016e018     NativeLib:interrupts.obj
 0008:00000019       __D63E96CF_vcruntime@h     000000001016e019     NativeLib:interrupts.obj
 0008:0000001a       __AEA28616_stdint@h        000000001016e01a     NativeLib:interrupts.obj
 0008:0000001b       __F5A7E1DF_intrin0@inl@h   000000001016e01b     NativeLib:interrupts.obj
 0008:0000001c       __3EC16E15_setjmp@h        000000001016e01c     NativeLib:interrupts.obj
 0008:0000001d       __18C87B63_mmintrin@h      000000001016e01d     NativeLib:interrupts.obj
 0008:0000001e       __1B0272D9_corecrt@h       000000001016e01e     NativeLib:interrupts.obj
 0008:0000001f       __45DED006_corecrt_malloc@h 000000001016e01f     NativeLib:interrupts.obj
 0008:00000020       __FA77ED4C_malloc@h        000000001016e020     NativeLib:interrupts.obj
 0008:00000021       __56EBFA9B_xmmintrin@h     000000001016e021     NativeLib:interrupts.obj
 0008:00000022       __33897357_emmintrin@h     000000001016e022     NativeLib:interrupts.obj
 0008:00000023       __EC281BDE_pmmintrin@h     000000001016e023     NativeLib:interrupts.obj
 0008:00000024       __5CF1685C_tmmintrin@h     000000001016e024     NativeLib:interrupts.obj
 0008:00000025       __75CA7DDF_smmintrin@h     000000001016e025     NativeLib:interrupts.obj
 0008:00000026       __10A8F413_nmmintrin@h     000000001016e026     NativeLib:interrupts.obj
 0008:00000027       __C5130E5D_wmmintrin@h     000000001016e027     NativeLib:interrupts.obj
 0008:00000028       __0E87435A_zmmintrin@h     000000001016e028     NativeLib:interrupts.obj
 0008:00000029       __3993E190_immintrin@h     000000001016e029     NativeLib:interrupts.obj
 0008:0000002a       __835000D5_ammintrin@h     000000001016e02a     NativeLib:interrupts.obj
 0008:0000002b       __18F7D262_intrin@h        000000001016e02b     NativeLib:interrupts.obj
 0008:0000002c       __81AF9977_interrupts@cpp  000000001016e02c     NativeLib:interrupts.obj
 0008:0000002d       __FE09AF47_concurrencysal@h 000000001016e02d     NativeLib:native.obj
 0008:0000002e       __C073CA79_sal@h           000000001016e02e     NativeLib:native.obj
 0008:0000002f       __D6AFE870_vadefs@h        000000001016e02f     NativeLib:native.obj
 0008:00000030       __D63E96CF_vcruntime@h     000000001016e030     NativeLib:native.obj
 0008:00000031       __F5A7E1DF_intrin0@inl@h   000000001016e031     NativeLib:native.obj
 0008:00000032       __3EC16E15_setjmp@h        000000001016e032     NativeLib:native.obj
 0008:00000033       __18C87B63_mmintrin@h      000000001016e033     NativeLib:native.obj
 0008:00000034       __1B0272D9_corecrt@h       000000001016e034     NativeLib:native.obj
 0008:00000035       __45DED006_corecrt_malloc@h 000000001016e035     NativeLib:native.obj
 0008:00000036       __FA77ED4C_malloc@h        000000001016e036     NativeLib:native.obj
 0008:00000037       __56EBFA9B_xmmintrin@h     000000001016e037     NativeLib:native.obj
 0008:00000038       __33897357_emmintrin@h     000000001016e038     NativeLib:native.obj
 0008:00000039       __EC281BDE_pmmintrin@h     000000001016e039     NativeLib:native.obj
 0008:0000003a       __5CF1685C_tmmintrin@h     000000001016e03a     NativeLib:native.obj
 0008:0000003b       __75CA7DDF_smmintrin@h     000000001016e03b     NativeLib:native.obj
 0008:0000003c       __10A8F413_nmmintrin@h     000000001016e03c     NativeLib:native.obj
 0008:0000003d       __C5130E5D_wmmintrin@h     000000001016e03d     NativeLib:native.obj
 0008:0000003e       __0E87435A_zmmintrin@h     000000001016e03e     NativeLib:native.obj
 0008:0000003f       __3993E190_immintrin@h     000000001016e03f     NativeLib:native.obj
 0008:00000040       __835000D5_ammintrin@h     000000001016e040     NativeLib:native.obj
 0008:00000041       __18F7D262_intrin@h        000000001016e041     NativeLib:native.obj
 0008:00000042       __5B367C0B_native@cpp      000000001016e042     NativeLib:native.obj
 0008:00000043       __FE09AF47_concurrencysal@h 000000001016e043     NativeLib:lodepng.obj
 0008:00000044       __C073CA79_sal@h           000000001016e044     NativeLib:lodepng.obj
 0008:00000045       __D6AFE870_vadefs@h        000000001016e045     NativeLib:lodepng.obj
 0008:00000046       __D63E96CF_vcruntime@h     000000001016e046     NativeLib:lodepng.obj
 0008:00000047       __9A7D38D9_stdarg@h        000000001016e047     NativeLib:lodepng.obj
 0008:00000048       __1B0272D9_corecrt@h       000000001016e048     NativeLib:lodepng.obj
 0008:00000049       __13F5961F_stddef@h        000000001016e049     NativeLib:lodepng.obj
 0008:0000004a       __0EED556E_printf@h        000000001016e04a     NativeLib:lodepng.obj
 0008:0000004b       __61CC25A1_errno@h         000000001016e04b     NativeLib:lodepng.obj
 0008:0000004c       __3EADF068_vcruntime_string@h 000000001016e04c     NativeLib:lodepng.obj
 0008:0000004d       __E4C945B4_corecrt_memcpy_s@h 000000001016e04d     NativeLib:lodepng.obj
 0008:0000004e       __8EAFF484_corecrt_memory@h 000000001016e04e     NativeLib:lodepng.obj
 0008:0000004f       __6490AEC5_corecrt_wstring@h 000000001016e04f     NativeLib:lodepng.obj
 0008:00000050       __E8295E1E_string@h        000000001016e050     NativeLib:lodepng.obj
 0008:00000051       __B2031D3E_lodepng@h       000000001016e051     NativeLib:lodepng.obj
 0008:00000052       __45DED006_corecrt_malloc@h 000000001016e052     NativeLib:lodepng.obj
 0008:00000053       __FD6DBD68_corecrt_search@h 000000001016e053     NativeLib:lodepng.obj
 0008:00000054       __E2E33A61_corecrt_wstdlib@h 000000001016e054     NativeLib:lodepng.obj
 0008:00000055       __10D4A829_limits@h        000000001016e055     NativeLib:lodepng.obj
 0008:00000056       __6E5ACABA_stdlib@h        000000001016e056     NativeLib:lodepng.obj
 0008:00000057       __25D1C4B6_lodepng@c       000000001016e057     NativeLib:lodepng.obj
 0008:00000058       __FE09AF47_concurrencysal@h 000000001016e058     NativeLib:io.obj
 0008:00000059       __C073CA79_sal@h           000000001016e059     NativeLib:io.obj
 0008:0000005a       __D6AFE870_vadefs@h        000000001016e05a     NativeLib:io.obj
 0008:0000005b       __D63E96CF_vcruntime@h     000000001016e05b     NativeLib:io.obj
 0008:0000005c       __F5A7E1DF_intrin0@inl@h   000000001016e05c     NativeLib:io.obj
 0008:0000005d       __3EC16E15_setjmp@h        000000001016e05d     NativeLib:io.obj
 0008:0000005e       __18C87B63_mmintrin@h      000000001016e05e     NativeLib:io.obj
 0008:0000005f       __1B0272D9_corecrt@h       000000001016e05f     NativeLib:io.obj
 0008:00000060       __45DED006_corecrt_malloc@h 000000001016e060     NativeLib:io.obj
 0008:00000061       __FA77ED4C_malloc@h        000000001016e061     NativeLib:io.obj
 0008:00000062       __56EBFA9B_xmmintrin@h     000000001016e062     NativeLib:io.obj
 0008:00000063       __33897357_emmintrin@h     000000001016e063     NativeLib:io.obj
 0008:00000064       __EC281BDE_pmmintrin@h     000000001016e064     NativeLib:io.obj
 0008:00000065       __5CF1685C_tmmintrin@h     000000001016e065     NativeLib:io.obj
 0008:00000066       __75CA7DDF_smmintrin@h     000000001016e066     NativeLib:io.obj
 0008:00000067       __10A8F413_nmmintrin@h     000000001016e067     NativeLib:io.obj
 0008:00000068       __C5130E5D_wmmintrin@h     000000001016e068     NativeLib:io.obj
 0008:00000069       __0E87435A_zmmintrin@h     000000001016e069     NativeLib:io.obj
 0008:0000006a       __3993E190_immintrin@h     000000001016e06a     NativeLib:io.obj
 0008:0000006b       __835000D5_ammintrin@h     000000001016e06b     NativeLib:io.obj
 0008:0000006c       __18F7D262_intrin@h        000000001016e06c     NativeLib:io.obj
 0008:0000006d       __EB37504C_io@cpp          000000001016e06d     NativeLib:io.obj
 0009:000000a0       $R000000                   000000001016f0a0     guideXOS.res
 0009:000002f0       $R000250                   000000001016f2f0     guideXOS.res
