 guideXOS

 Timestamp is 69318d28 (Thu Dec  4 05:31:20 2025)

 Preferred load address is 0000000010000000

 Start         Length     Name                   Class
 0001:00000000 00000640H .text                   CODE
 0001:00000640 0002ae31H .text$mn                CODE
 0002:00000000 00000045H .unbox$M                CODE
 0003:00000000 0006dfc0H .managedcode$I          CODE
 0004:00000000 0003f770H .rdata                  DATA
 0004:0003f770 00000018H .rdata$voltmd           DATA
 0004:0003f788 0000019cH .rdata$zzzdbg           DATA
 0004:0003f924 0001433cH .xdata                  DATA
 0004:00053c60 00000000H .edata                  DATA
 0005:00000000 0036bd40H .data                   DATA
 0005:0036bd40 000019e0H .bss                    DATA
 0006:00000000 000050b8H .pdata                  DATA
 0007:00000000 00000008H .modules$I              DATA
 0008:00000000 0000033bH .msvcjmc                DATA
 0009:00000000 000000a0H .rsrc$01                DATA
 0009:000000a0 00000440H .rsrc$02                DATA

  Address         Publics by Value              Rva+Base               Lib:Object

 0000:00000000       __AbsoluteZero             0000000000000000     <absolute>
 0000:00000000       ___safe_se_handler_count   0000000000000000     <absolute>
 0000:00000000       ___safe_se_handler_table   0000000000000000     <absolute>
 0000:00000000       __arm64x_extra_rfe_table   0000000000000000     <absolute>
 0000:00000000       __arm64x_extra_rfe_table_size 0000000000000000     <absolute>
 0000:00000000       __arm64x_native_entrypoint 0000000000000000     <absolute>
 0000:00000000       __arm64x_redirection_metadata 0000000000000000     <absolute>
 0000:00000000       __arm64x_redirection_metadata_count 0000000000000000     <absolute>
 0000:00000000       __dynamic_value_reloc_table 0000000000000000     <absolute>
 0000:00000000       __enclave_config           0000000000000000     <absolute>
 0000:00000000       __guard_check_icall_a64n_fptr 0000000000000000     <absolute>
 0000:00000000       __guard_eh_cont_count      0000000000000000     <absolute>
 0000:00000000       __guard_eh_cont_table      0000000000000000     <absolute>
 0000:00000000       __guard_fids_count         0000000000000000     <absolute>
 0000:00000000       __guard_fids_table         0000000000000000     <absolute>
 0000:00000000       __guard_iat_count          0000000000000000     <absolute>
 0000:00000000       __guard_iat_table          0000000000000000     <absolute>
 0000:00000000       __guard_longjmp_count      0000000000000000     <absolute>
 0000:00000000       __guard_longjmp_table      0000000000000000     <absolute>
 0000:00000000       __hybrid_auxiliary_delayload_iat 0000000000000000     <absolute>
 0000:00000000       __hybrid_auxiliary_delayload_iat_copy 0000000000000000     <absolute>
 0000:00000000       __hybrid_auxiliary_iat     0000000000000000     <absolute>
 0000:00000000       __hybrid_auxiliary_iat_copy 0000000000000000     <absolute>
 0000:00000000       __hybrid_code_map          0000000000000000     <absolute>
 0000:00000000       __hybrid_code_map_count    0000000000000000     <absolute>
 0000:00000000       __hybrid_image_info_bitfield 0000000000000000     <absolute>
 0000:00000000       __x64_code_ranges_to_entry_points 0000000000000000     <absolute>
 0000:00000000       __x64_code_ranges_to_entry_points_count 0000000000000000     <absolute>
 0000:00000100       __guard_flags              0000000000000100     <absolute>
 0000:00000000       __ImageBase                0000000010000000     <linker-defined>
 0001:00000000       __GetNonGCStaticBase_guideXOS_Program 0000000010001000     guideXOS.obj
 0001:00000008       __GetNonGCStaticBase_guideXOS_Allocator 0000000010001008     guideXOS.obj
 0001:00000010       __GetNonGCStaticBase_guideXOS_GDT 0000000010001010     guideXOS.obj
 0001:00000018       __GetNonGCStaticBase_guideXOS_IDT 0000000010001018     guideXOS.obj
 0001:00000020       __GetNonGCStaticBase_guideXOS_System_StringPool 0000000010001020     guideXOS.obj
 0001:0000003d       __GetNonGCStaticBase_guideXOS_System_Windows_Forms_Control 000000001000103d     guideXOS.obj
 0001:00000045       __GetNonGCStaticBase_guideXOS_guideXOS_Kbd2Mouse 0000000010001045     guideXOS.obj
 0001:0000004d       __GetNonGCStaticBase_guideXOS_guideXOS_Console 000000001000104d     guideXOS.obj
 0001:00000055       __GetNonGCStaticBase_guideXOS_guideXOS_PageTable 0000000010001055     guideXOS.obj
 0001:0000005d       __GetNonGCStaticBase_guideXOS_guideXOS_Intel825xx 000000001000105d     guideXOS.obj
 0001:00000065       __GetNonGCStaticBase_guideXOS_guideXOS_NETv4 0000000010001065     guideXOS.obj
 0001:0000006d       __GetNonGCStaticBase_guideXOS_guideXOS_RTL8111 000000001000106d     guideXOS.obj
 0001:00000075       __GetNonGCStaticBase_guideXOS_guideXOS_SMP 0000000010001075     guideXOS.obj
 0001:0000007d       __GetNonGCStaticBase_guideXOS_guideXOS_Network_Http 000000001000107d     guideXOS.obj
 0001:00000085       __GetNonGCStaticBase_guideXOS_guideXOS_Misc_Audio 0000000010001085     guideXOS.obj
 0001:0000008d       __GetNonGCStaticBase_guideXOS_guideXOS_Misc_BootSplash 000000001000108d     guideXOS.obj
 0001:00000095       __GetNonGCStaticBase_guideXOS_guideXOS_Misc_Panic 0000000010001095     guideXOS.obj
 0001:0000009d       __GetNonGCStaticBase_guideXOS_guideXOS_Misc_ThreadPool 000000001000109d     guideXOS.obj
 0001:000000a5       __GetNonGCStaticBase_guideXOS_guideXOS_Misc_USB 00000000100010a5     guideXOS.obj
 0001:000000ad       __GetNonGCStaticBase_guideXOS_guideXOS_Kernel_Drivers_AC97 00000000100010ad     guideXOS.obj
 0001:000000b5       __GetNonGCStaticBase_guideXOS_guideXOS_Kernel_Drivers_ACPI 00000000100010b5     guideXOS.obj
 0001:000000bd       __GetNonGCStaticBase_guideXOS_guideXOS_Kernel_Drivers_DisplayManager 00000000100010bd     guideXOS.obj
 0001:000000c5       __GetNonGCStaticBase_guideXOS_guideXOS_Kernel_Drivers_EHCI 00000000100010c5     guideXOS.obj
 0001:000000cd       __GetNonGCStaticBase_guideXOS_guideXOS_Kernel_Drivers_ES1371 00000000100010cd     guideXOS.obj
 0001:000000d5       __GetNonGCStaticBase_guideXOS_guideXOS_Kernel_Drivers_Framebuffer 00000000100010d5     guideXOS.obj
 0001:000000dd       __GetNonGCStaticBase_guideXOS_guideXOS_Kernel_Drivers_HID 00000000100010dd     guideXOS.obj
 0001:000000e5       __GetNonGCStaticBase_guideXOS_guideXOS_Kernel_Drivers_HPET 00000000100010e5     guideXOS.obj
 0001:000000ed       __GetNonGCStaticBase_guideXOS_guideXOS_Kernel_Drivers_Hub 00000000100010ed     guideXOS.obj
 0001:000000f5       __GetNonGCStaticBase_guideXOS_guideXOS_Kernel_Drivers_Keyboard 00000000100010f5     guideXOS.obj
 0001:000000fd       __GetNonGCStaticBase_guideXOS_guideXOS_Kernel_Drivers_PS2Keyboard 00000000100010fd     guideXOS.obj
 0001:00000105       __GetNonGCStaticBase_guideXOS_guideXOS_Kernel_Drivers_PS2Mouse 0000000010001105     guideXOS.obj
 0001:0000010d       __GetNonGCStaticBase_guideXOS_guideXOS_Kernel_Drivers_RTC 000000001000110d     guideXOS.obj
 0001:00000115       __GetNonGCStaticBase_guideXOS_guideXOS_Kernel_Drivers_SATA 0000000010001115     guideXOS.obj
 0001:0000011d       __GetNonGCStaticBase_guideXOS_guideXOS_Kernel_Drivers_Timer 000000001000111d     guideXOS.obj
 0001:00000125       __GetNonGCStaticBase_guideXOS_guideXOS_Kernel_Drivers_VMwareTools 0000000010001125     guideXOS.obj
 0001:0000012d       __GetNonGCStaticBase_guideXOS_guideXOS_Kernel_Drivers_USBStorage 000000001000112d     guideXOS.obj
 0001:0000014a       __GetNonGCStaticBase_guideXOS_guideXOS_OS_Firewall 000000001000114a     guideXOS.obj
 0001:00000167       __GetNonGCStaticBase_guideXOS_guideXOS_GUI_BackgroundRotationManager 0000000010001167     guideXOS.obj
 0001:0000016f       __GetNonGCStaticBase_guideXOS_guideXOS_GUI_Busy 000000001000116f     guideXOS.obj
 0001:00000177       __GetNonGCStaticBase_guideXOS_guideXOS_GUI_Desktop 0000000010001177     guideXOS.obj
 0001:0000017f       __GetNonGCStaticBase_guideXOS_guideXOS_GUI_Icons 000000001000117f     guideXOS.obj
 0001:0000019c       __GetNonGCStaticBase_guideXOS_guideXOS_GUI_StartMenu 000000001000119c     guideXOS.obj
 0001:000001a4       __GetNonGCStaticBase_guideXOS_guideXOS_GUI_UISettings 00000000100011a4     guideXOS.obj
 0001:000001ac       __GetNonGCStaticBase_guideXOS_guideXOS_GUI_WindowManager 00000000100011ac     guideXOS.obj
 0001:000001b4       __GetNonGCStaticBase_guideXOS_guideXOS_GUI_WorkspaceManager 00000000100011b4     guideXOS.obj
 0001:000001d1       __GetNonGCStaticBase_guideXOS_guideXOS_DockableWidgets_Clock 00000000100011d1     guideXOS.obj
 0001:000001d9       __GetNonGCStaticBase_guideXOS_guideXOS_DefaultApps_nexIRC 00000000100011d9     guideXOS.obj
 0001:000001e1       __GetNonGCStaticBase_guideXOS_guideXOS_DefaultApps_WAVPlayer 00000000100011e1     guideXOS.obj
 0001:000001e9       __GetNonGCStaticBase_guideXOS_guideXOS_DefaultApps_WebBrowser 00000000100011e9     guideXOS.obj
 0001:000001f1       __GetGCStaticBase_guideXOS_Program 00000000100011f1     guideXOS.obj
 0001:000001fc       __GetGCStaticBase_guideXOS_Allocator 00000000100011fc     guideXOS.obj
 0001:00000207       __GetGCStaticBase_guideXOS_IDT 0000000010001207     guideXOS.obj
 0001:00000212       __GetGCStaticBase_guideXOS_System_DateTime 0000000010001212     guideXOS.obj
 0001:0000021d       __GetGCStaticBase_guideXOS_System_StringPool 000000001000121d     guideXOS.obj
 0001:0000023d       __GetGCStaticBase_guideXOS_guideXOS_Animator 000000001000123d     guideXOS.obj
 0001:00000248       __GetGCStaticBase_guideXOS_guideXOS_ASC16 0000000010001248     guideXOS.obj
 0001:00000253       __GetGCStaticBase_guideXOS_guideXOS_Console 0000000010001253     guideXOS.obj
 0001:0000025e       __GetGCStaticBase_guideXOS_guideXOS_NETv4 000000001000125e     guideXOS.obj
 0001:00000269       __GetGCStaticBase_guideXOS_guideXOS_Misc_BitFont 0000000010001269     guideXOS.obj
 0001:00000274       __GetGCStaticBase_guideXOS_guideXOS_Misc_BootSplash 0000000010001274     guideXOS.obj
 0001:0000027f       __GetGCStaticBase_guideXOS_guideXOS_Misc_Interrupts 000000001000127f     guideXOS.obj
 0001:0000028a       __GetGCStaticBase_guideXOS_guideXOS_Misc_ThreadPool 000000001000128a     guideXOS.obj
 0001:00000295       __GetGCStaticBase_guideXOS_guideXOS_FS_Disk 0000000010001295     guideXOS.obj
 0001:000002a0       __GetGCStaticBase_guideXOS_guideXOS_FS_File 00000000100012a0     guideXOS.obj
 0001:000002ab       __GetGCStaticBase_guideXOS_guideXOS_Kernel_Drivers_AC97 00000000100012ab     guideXOS.obj
 0001:000002b6       __GetGCStaticBase_guideXOS_guideXOS_Kernel_Drivers_ACPI 00000000100012b6     guideXOS.obj
 0001:000002c1       __GetGCStaticBase_guideXOS_guideXOS_Kernel_Drivers_DisplayManager 00000000100012c1     guideXOS.obj
 0001:000002cc       __GetGCStaticBase_guideXOS_guideXOS_Kernel_Drivers_Framebuffer 00000000100012cc     guideXOS.obj
 0001:000002d7       __GetGCStaticBase_guideXOS_guideXOS_Kernel_Drivers_HID 00000000100012d7     guideXOS.obj
 0001:000002e2       __GetGCStaticBase_guideXOS_guideXOS_Kernel_Drivers_IDE 00000000100012e2     guideXOS.obj
 0001:000002ed       __GetGCStaticBase_guideXOS_guideXOS_Kernel_Drivers_Keyboard 00000000100012ed     guideXOS.obj
 0001:000002f8       __GetGCStaticBase_guideXOS_guideXOS_Kernel_Drivers_PCI 00000000100012f8     guideXOS.obj
 0001:00000303       __GetGCStaticBase_guideXOS_guideXOS_Kernel_Drivers_PS2Mouse 0000000010001303     guideXOS.obj
 0001:0000030e       __GetGCStaticBase_guideXOS_guideXOS_Kernel_Drivers_SATA 000000001000130e     guideXOS.obj
 0001:00000319       __GetGCStaticBase_guideXOS_guideXOS_Kernel_Drivers_USBStorage 0000000010001319     guideXOS.obj
 0001:00000339       __GetGCStaticBase_guideXOS_guideXOS_OS_Firewall 0000000010001339     guideXOS.obj
 0001:00000359       __GetGCStaticBase_guideXOS_guideXOS_OS_Session 0000000010001359     guideXOS.obj
 0001:00000364       __GetGCStaticBase_guideXOS_guideXOS_Modules_ModuleManager 0000000010001364     guideXOS.obj
 0001:00000384       __GetGCStaticBase_guideXOS_guideXOS_GUI_BackgroundRotationManager 0000000010001384     guideXOS.obj
 0001:0000038f       __GetGCStaticBase_guideXOS_guideXOS_GUI_Desktop 000000001000138f     guideXOS.obj
 0001:0000039a       __GetGCStaticBase_guideXOS_guideXOS_GUI_Icons 000000001000139a     guideXOS.obj
 0001:000003ba       __GetGCStaticBase_guideXOS_guideXOS_GUI_Lockscreen 00000000100013ba     guideXOS.obj
 0001:000003c5       __GetGCStaticBase_guideXOS_guideXOS_GUI_NotificationManager 00000000100013c5     guideXOS.obj
 0001:000003d0       __GetGCStaticBase_guideXOS_guideXOS_GUI_OnScreenKeyboard 00000000100013d0     guideXOS.obj
 0001:000003f0       __GetGCStaticBase_guideXOS_guideXOS_GUI_PinnedManager 00000000100013f0     guideXOS.obj
 0001:00000410       __GetGCStaticBase_guideXOS_guideXOS_GUI_RecentManager 0000000010001410     guideXOS.obj
 0001:00000430       __GetGCStaticBase_guideXOS_guideXOS_GUI_WindowManager 0000000010001430     guideXOS.obj
 0001:0000043b       __GetGCStaticBase_guideXOS_guideXOS_GUI_WorkspaceManager 000000001000143b     guideXOS.obj
 0001:0000045b       __GetGCStaticBase_guideXOS_guideXOS_DockableWidgets_Clock 000000001000145b     guideXOS.obj
 0001:00000466       __GetGCStaticBase_guideXOS_guideXOS_DefaultApps_WAVPlayer 0000000010001466     guideXOS.obj
 0001:00000471       __GetGCStaticBase_guideXOS_guideXOS_Modules_ModuleManager___c 0000000010001471     guideXOS.obj
 0001:0000047c       __GetGCStaticBase_guideXOS_guideXOS_GUI_DisplayOptions___c 000000001000147c     guideXOS.obj
 0001:00000487       __GetGCStaticBase_guideXOS_guideXOS_GUI_SaveDialog___O 0000000010001487     guideXOS.obj
 0001:00000492       __GetGCStaticBase_guideXOS_System_Array_EmptyArray_1<String> 0000000010001492     guideXOS.obj
 0001:000004b2       __DelegateCtor_guideXOS_System_Delegate__InitializeClosedInstance__guideXOS_guideXOS_GUI_GXMScriptWindow__Keyboard_OnKeyChanged 00000000100014b2     guideXOS.obj
 0001:000004be       __DelegateCtor_guideXOS_System_Delegate__InitializeClosedInstance__guideXOS_guideXOS_GUI_GXMScriptWindow___OpenSaveDialogForTextBox_b__39_0 00000000100014be     guideXOS.obj
 0001:000004ca       __DelegateCtor_guideXOS_System_Delegate__InitializeClosedInstance__guideXOS_guideXOS_GUI_GXMScriptWindow___OpenOpenDialogForTextBox_b__40_0 00000000100014ca     guideXOS.obj
 0001:000004d6       __DelegateCtor_guideXOS_System_Delegate__InitializeClosedInstance__guideXOS_guideXOS_GUI_NetworkConfigurationDialog__Keyboard_OnKeyChanged 00000000100014d6     guideXOS.obj
 0001:000004e2       __DelegateCtor_guideXOS_System_Delegate__InitializeClosedInstance__guideXOS_guideXOS_GUI_OpenDialog__Keyboard_OnKeyChanged 00000000100014e2     guideXOS.obj
 0001:000004ee       __DelegateCtor_guideXOS_System_Delegate__InitializeClosedInstance__guideXOS_guideXOS_GUI_SaveDialog__Keyboard_OnKeyChanged 00000000100014ee     guideXOS.obj
 0001:000004fa       __DelegateCtor_guideXOS_System_Delegate__InitializeClosedInstance__guideXOS_guideXOS_DefaultApps_ComputerFiles__Keyboard_OnKeyChanged 00000000100014fa     guideXOS.obj
 0001:00000506       __DelegateCtor_guideXOS_System_Delegate__InitializeClosedInstance__guideXOS_guideXOS_DefaultApps_FConsole__Keyboard_OnKeyChanged 0000000010001506     guideXOS.obj
 0001:00000512       __DelegateCtor_guideXOS_System_Delegate__InitializeClosedInstance__guideXOS_guideXOS_DefaultApps_FConsole__Console_OnWrite 0000000010001512     guideXOS.obj
 0001:0000051e       __DelegateCtor_guideXOS_System_Delegate__InitializeClosedInstance__guideXOS_guideXOS_DefaultApps_nexIRC__Keyboard_OnKeyChanged 000000001000151e     guideXOS.obj
 0001:0000052a       __DelegateCtor_guideXOS_System_Delegate__InitializeClosedInstance__guideXOS_guideXOS_DefaultApps_Notepad__Keyboard_OnKeyChanged 000000001000152a     guideXOS.obj
 0001:00000536       __DelegateCtor_guideXOS_System_Delegate__InitializeClosedInstance__guideXOS_guideXOS_DefaultApps_Notepad___OnSetVisible_b__19_0 0000000010001536     guideXOS.obj
 0001:00000542       __DelegateCtor_guideXOS_System_Delegate__InitializeClosedInstance__guideXOS_guideXOS_DefaultApps_Notepad___OnSetVisible_b__19_3 0000000010001542     guideXOS.obj
 0001:0000054e       __DelegateCtor_guideXOS_System_Delegate__InitializeClosedInstance__guideXOS_guideXOS_DefaultApps_Notepad___OnSetVisible_b__19_1 000000001000154e     guideXOS.obj
 0001:0000055a       __DelegateCtor_guideXOS_System_Delegate__InitializeClosedInstance__guideXOS_guideXOS_DefaultApps_Notepad___OnSetVisible_b__19_2 000000001000155a     guideXOS.obj
 0001:00000566       __DelegateCtor_guideXOS_System_Delegate__InitializeClosedInstance__guideXOS_guideXOS_DefaultApps_WebBrowser__OnKey 0000000010001566     guideXOS.obj
 0001:00000572       __DelegateCtor_guideXOS_System_Delegate__InitializeClosedInstance__guideXOS_guideXOS_FS_FAT___c__DisplayClass50_0___FindPath_b__0 0000000010001572     guideXOS.obj
 0001:0000057e       __DelegateCtor_guideXOS_System_Delegate__InitializeClosedInstance__guideXOS_guideXOS_FS_FAT___c__DisplayClass50_1___FindPath_b__1 000000001000157e     guideXOS.obj
 0001:0000058a       __DelegateCtor_guideXOS_System_Delegate__InitializeClosedInstance__guideXOS_guideXOS_FS_FAT___c__DisplayClass60_0___GetFiles_b__0 000000001000158a     guideXOS.obj
 0001:00000596       __DelegateCtor_guideXOS_System_Delegate__InitializeClosedInstance__guideXOS_guideXOS_Modules_ModuleManager___c___InitializeBuiltins_b__7_0 0000000010001596     guideXOS.obj
 0001:000005a2       __DelegateCtor_guideXOS_System_Delegate__InitializeClosedInstance__guideXOS_guideXOS_GUI_DisplayOptions___c___OnInput_b__40_0 00000000100015a2     guideXOS.obj
 0001:000005ae       __DelegateCtor_guideXOS_System_Delegate__InitializeClosedInstance__guideXOS_guideXOS_GUI_DisplayOptions___c___OnInput_b__40_1 00000000100015ae     guideXOS.obj
 0001:000005ba       __DelegateCtor_guideXOS_System_Delegate__InitializeClosedInstance__guideXOS_guideXOS_DefaultApps_DiskManager___c__DisplayClass38_0___ReadMBRForEntry_b__0 00000000100015ba     guideXOS.obj
 0001:000005c6       __DelegateCtor_guideXOS_System_Delegate__InitializeClosedInstance__guideXOS_guideXOS_DefaultApps_DiskManager___c__DisplayClass54_0___TryCreatePartitionLargestFree_b__0 00000000100015c6     guideXOS.obj
 0001:000005d2       __DelegateCtor_guideXOS_System_Delegate__InitializeClosedInstance__guideXOS_guideXOS_DefaultApps_DiskManager___c__DisplayClass54_0___TryCreatePartitionLargestFree_b__1 00000000100015d2     guideXOS.obj
 0001:000005de       __DelegateCtor_guideXOS_System_Delegate__InitializeClosedInstance__guideXOS_guideXOS_DefaultApps_Notepad___c__DisplayClass24_0___OpenSaveAs_b__0 00000000100015de     guideXOS.obj
 0001:000005ea       __DelegateCtor_guideXOS_System_Delegate__InitializeOpenStaticThunk__guideXOS_guideXOS_GUI_Icons__DocumentIcon__guideXOS_System_Func_2<Int32__System___Canon>__InvokeOpenStaticThunk 00000000100015ea     guideXOS.obj
 0001:000005fd       __GenericLookupFromType_guideXOS_System_Array_EmptyArray_1<System___Canon>_GCStaticBase_guideXOS_System_Array_EmptyArray_1<T_System___Canon> 00000000100015fd     guideXOS.obj
 0001:00000620       cpuid_supported            0000000010001620     cpuid_safe.obj
 0001:00000626       cpuid_safe                 0000000010001626     cpuid_safe.obj
 0001:00000640       CPUID                      0000000010001640 f   NativeLib:native.obj
 0001:00000690       Cli                        0000000010001690 f   NativeLib:native.obj
 0001:000006c0       Fxrstor64                  00000000100016c0 f   NativeLib:native.obj
 0001:000006f0       Fxsave64                   00000000100016f0 f   NativeLib:native.obj
 0001:00000720       Hlt                        0000000010001720 f   NativeLib:native.obj
 0001:00000750       Invlpg                     0000000010001750 f   NativeLib:native.obj
 0001:00000780       Nop                        0000000010001780 f   NativeLib:native.obj
 0001:000007a0       Rdmsr                      00000000100017a0 f   NativeLib:native.obj
 0001:000007d0       Rdtsc                      00000000100017d0 f   NativeLib:native.obj
 0001:00000800       ReadCR2                    0000000010001800 f   NativeLib:native.obj
 0001:00000820       Sti                        0000000010001820 f   NativeLib:native.obj
 0001:00000850       WriteCR3                   0000000010001850 f   NativeLib:native.obj
 0001:00000880       Wrmsr                      0000000010001880 f   NativeLib:native.obj
 0001:000008c0       __JustMyCode_Default       00000000100018c0 f i NativeLib:native.obj
 0001:000008d0       Movsb                      00000000100018d0 f   NativeLib:mem.obj
 0001:00000910       Movsd                      0000000010001910 f   NativeLib:mem.obj
 0001:00000950       Stosb                      0000000010001950 f   NativeLib:mem.obj
 0001:000009a0       Stosd                      00000000100019a0 f   NativeLib:mem.obj
 0001:000009f0       avx_memcpy                 00000000100019f0 f   NativeLib:mem.obj
 0001:00000af0       Load_GDT                   0000000010001af0 f   NativeLib:interrupts.obj
 0001:00000b20       idt_set                    0000000010001b20 f   NativeLib:interrupts.obj
 0001:00000c00       set_idt_entries            0000000010001c00 f   NativeLib:interrupts.obj
 0001:00002b20       intr0                      0000000010003b20 f   NativeLib:interrupts_asm.obj
 0001:00002b62       intr1                      0000000010003b62 f   NativeLib:interrupts_asm.obj
 0001:00002ba4       intr2                      0000000010003ba4 f   NativeLib:interrupts_asm.obj
 0001:00002be6       intr3                      0000000010003be6 f   NativeLib:interrupts_asm.obj
 0001:00002c28       intr4                      0000000010003c28 f   NativeLib:interrupts_asm.obj
 0001:00002c6a       intr5                      0000000010003c6a f   NativeLib:interrupts_asm.obj
 0001:00002cac       intr6                      0000000010003cac f   NativeLib:interrupts_asm.obj
 0001:00002cee       intr7                      0000000010003cee f   NativeLib:interrupts_asm.obj
 0001:00002d30       intr8                      0000000010003d30 f   NativeLib:interrupts_asm.obj
 0001:00002d72       intr9                      0000000010003d72 f   NativeLib:interrupts_asm.obj
 0001:00002db4       intr10                     0000000010003db4 f   NativeLib:interrupts_asm.obj
 0001:00002df6       intr11                     0000000010003df6 f   NativeLib:interrupts_asm.obj
 0001:00002e38       intr12                     0000000010003e38 f   NativeLib:interrupts_asm.obj
 0001:00002e7a       intr13                     0000000010003e7a f   NativeLib:interrupts_asm.obj
 0001:00002ebc       intr14                     0000000010003ebc f   NativeLib:interrupts_asm.obj
 0001:00002efe       intr15                     0000000010003efe f   NativeLib:interrupts_asm.obj
 0001:00002f40       intr16                     0000000010003f40 f   NativeLib:interrupts_asm.obj
 0001:00002f82       intr17                     0000000010003f82 f   NativeLib:interrupts_asm.obj
 0001:00002fc4       intr18                     0000000010003fc4 f   NativeLib:interrupts_asm.obj
 0001:00003006       intr19                     0000000010004006 f   NativeLib:interrupts_asm.obj
 0001:00003048       intr20                     0000000010004048 f   NativeLib:interrupts_asm.obj
 0001:0000308a       intr21                     000000001000408a f   NativeLib:interrupts_asm.obj
 0001:000030cc       intr22                     00000000100040cc f   NativeLib:interrupts_asm.obj
 0001:0000310e       intr23                     000000001000410e f   NativeLib:interrupts_asm.obj
 0001:00003150       intr24                     0000000010004150 f   NativeLib:interrupts_asm.obj
 0001:00003192       intr25                     0000000010004192 f   NativeLib:interrupts_asm.obj
 0001:000031d4       intr26                     00000000100041d4 f   NativeLib:interrupts_asm.obj
 0001:00003216       intr27                     0000000010004216 f   NativeLib:interrupts_asm.obj
 0001:00003258       intr28                     0000000010004258 f   NativeLib:interrupts_asm.obj
 0001:0000329a       intr29                     000000001000429a f   NativeLib:interrupts_asm.obj
 0001:000032dc       intr30                     00000000100042dc f   NativeLib:interrupts_asm.obj
 0001:0000331e       intr31                     000000001000431e f   NativeLib:interrupts_asm.obj
 0001:00003360       intr32                     0000000010004360 f   NativeLib:interrupts_asm.obj
 0001:000033a2       intr33                     00000000100043a2 f   NativeLib:interrupts_asm.obj
 0001:000033e4       intr34                     00000000100043e4 f   NativeLib:interrupts_asm.obj
 0001:00003426       intr35                     0000000010004426 f   NativeLib:interrupts_asm.obj
 0001:00003468       intr36                     0000000010004468 f   NativeLib:interrupts_asm.obj
 0001:000034aa       intr37                     00000000100044aa f   NativeLib:interrupts_asm.obj
 0001:000034ec       intr38                     00000000100044ec f   NativeLib:interrupts_asm.obj
 0001:0000352e       intr39                     000000001000452e f   NativeLib:interrupts_asm.obj
 0001:00003570       intr40                     0000000010004570 f   NativeLib:interrupts_asm.obj
 0001:000035b2       intr41                     00000000100045b2 f   NativeLib:interrupts_asm.obj
 0001:000035f4       intr42                     00000000100045f4 f   NativeLib:interrupts_asm.obj
 0001:00003636       intr43                     0000000010004636 f   NativeLib:interrupts_asm.obj
 0001:00003678       intr44                     0000000010004678 f   NativeLib:interrupts_asm.obj
 0001:000036ba       intr45                     00000000100046ba f   NativeLib:interrupts_asm.obj
 0001:000036fc       intr46                     00000000100046fc f   NativeLib:interrupts_asm.obj
 0001:0000373e       intr47                     000000001000473e f   NativeLib:interrupts_asm.obj
 0001:00003780       intr48                     0000000010004780 f   NativeLib:interrupts_asm.obj
 0001:000037c2       intr49                     00000000100047c2 f   NativeLib:interrupts_asm.obj
 0001:00003804       intr50                     0000000010004804 f   NativeLib:interrupts_asm.obj
 0001:00003846       intr51                     0000000010004846 f   NativeLib:interrupts_asm.obj
 0001:00003888       intr52                     0000000010004888 f   NativeLib:interrupts_asm.obj
 0001:000038ca       intr53                     00000000100048ca f   NativeLib:interrupts_asm.obj
 0001:0000390c       intr54                     000000001000490c f   NativeLib:interrupts_asm.obj
 0001:0000394e       intr55                     000000001000494e f   NativeLib:interrupts_asm.obj
 0001:00003990       intr56                     0000000010004990 f   NativeLib:interrupts_asm.obj
 0001:000039d2       intr57                     00000000100049d2 f   NativeLib:interrupts_asm.obj
 0001:00003a14       intr58                     0000000010004a14 f   NativeLib:interrupts_asm.obj
 0001:00003a56       intr59                     0000000010004a56 f   NativeLib:interrupts_asm.obj
 0001:00003a98       intr60                     0000000010004a98 f   NativeLib:interrupts_asm.obj
 0001:00003ada       intr61                     0000000010004ada f   NativeLib:interrupts_asm.obj
 0001:00003b1c       intr62                     0000000010004b1c f   NativeLib:interrupts_asm.obj
 0001:00003b5e       intr63                     0000000010004b5e f   NativeLib:interrupts_asm.obj
 0001:00003ba0       intr64                     0000000010004ba0 f   NativeLib:interrupts_asm.obj
 0001:00003be2       intr65                     0000000010004be2 f   NativeLib:interrupts_asm.obj
 0001:00003c24       intr66                     0000000010004c24 f   NativeLib:interrupts_asm.obj
 0001:00003c66       intr67                     0000000010004c66 f   NativeLib:interrupts_asm.obj
 0001:00003ca8       intr68                     0000000010004ca8 f   NativeLib:interrupts_asm.obj
 0001:00003cea       intr69                     0000000010004cea f   NativeLib:interrupts_asm.obj
 0001:00003d2c       intr70                     0000000010004d2c f   NativeLib:interrupts_asm.obj
 0001:00003d6e       intr71                     0000000010004d6e f   NativeLib:interrupts_asm.obj
 0001:00003db0       intr72                     0000000010004db0 f   NativeLib:interrupts_asm.obj
 0001:00003df2       intr73                     0000000010004df2 f   NativeLib:interrupts_asm.obj
 0001:00003e34       intr74                     0000000010004e34 f   NativeLib:interrupts_asm.obj
 0001:00003e76       intr75                     0000000010004e76 f   NativeLib:interrupts_asm.obj
 0001:00003eb8       intr76                     0000000010004eb8 f   NativeLib:interrupts_asm.obj
 0001:00003efa       intr77                     0000000010004efa f   NativeLib:interrupts_asm.obj
 0001:00003f3c       intr78                     0000000010004f3c f   NativeLib:interrupts_asm.obj
 0001:00003f7e       intr79                     0000000010004f7e f   NativeLib:interrupts_asm.obj
 0001:00003fc0       intr80                     0000000010004fc0 f   NativeLib:interrupts_asm.obj
 0001:00004002       intr81                     0000000010005002 f   NativeLib:interrupts_asm.obj
 0001:00004044       intr82                     0000000010005044 f   NativeLib:interrupts_asm.obj
 0001:00004086       intr83                     0000000010005086 f   NativeLib:interrupts_asm.obj
 0001:000040c8       intr84                     00000000100050c8 f   NativeLib:interrupts_asm.obj
 0001:0000410a       intr85                     000000001000510a f   NativeLib:interrupts_asm.obj
 0001:0000414c       intr86                     000000001000514c f   NativeLib:interrupts_asm.obj
 0001:0000418e       intr87                     000000001000518e f   NativeLib:interrupts_asm.obj
 0001:000041d0       intr88                     00000000100051d0 f   NativeLib:interrupts_asm.obj
 0001:00004212       intr89                     0000000010005212 f   NativeLib:interrupts_asm.obj
 0001:00004254       intr90                     0000000010005254 f   NativeLib:interrupts_asm.obj
 0001:00004296       intr91                     0000000010005296 f   NativeLib:interrupts_asm.obj
 0001:000042d8       intr92                     00000000100052d8 f   NativeLib:interrupts_asm.obj
 0001:0000431a       intr93                     000000001000531a f   NativeLib:interrupts_asm.obj
 0001:0000435c       intr94                     000000001000535c f   NativeLib:interrupts_asm.obj
 0001:0000439e       intr95                     000000001000539e f   NativeLib:interrupts_asm.obj
 0001:000043e0       intr96                     00000000100053e0 f   NativeLib:interrupts_asm.obj
 0001:00004422       intr97                     0000000010005422 f   NativeLib:interrupts_asm.obj
 0001:00004464       intr98                     0000000010005464 f   NativeLib:interrupts_asm.obj
 0001:000044a6       intr99                     00000000100054a6 f   NativeLib:interrupts_asm.obj
 0001:000044e8       intr100                    00000000100054e8 f   NativeLib:interrupts_asm.obj
 0001:0000452a       intr101                    000000001000552a f   NativeLib:interrupts_asm.obj
 0001:0000456c       intr102                    000000001000556c f   NativeLib:interrupts_asm.obj
 0001:000045ae       intr103                    00000000100055ae f   NativeLib:interrupts_asm.obj
 0001:000045f0       intr104                    00000000100055f0 f   NativeLib:interrupts_asm.obj
 0001:00004632       intr105                    0000000010005632 f   NativeLib:interrupts_asm.obj
 0001:00004674       intr106                    0000000010005674 f   NativeLib:interrupts_asm.obj
 0001:000046b6       intr107                    00000000100056b6 f   NativeLib:interrupts_asm.obj
 0001:000046f8       intr108                    00000000100056f8 f   NativeLib:interrupts_asm.obj
 0001:0000473a       intr109                    000000001000573a f   NativeLib:interrupts_asm.obj
 0001:0000477c       intr110                    000000001000577c f   NativeLib:interrupts_asm.obj
 0001:000047be       intr111                    00000000100057be f   NativeLib:interrupts_asm.obj
 0001:00004800       intr112                    0000000010005800 f   NativeLib:interrupts_asm.obj
 0001:00004842       intr113                    0000000010005842 f   NativeLib:interrupts_asm.obj
 0001:00004884       intr114                    0000000010005884 f   NativeLib:interrupts_asm.obj
 0001:000048c6       intr115                    00000000100058c6 f   NativeLib:interrupts_asm.obj
 0001:00004908       intr116                    0000000010005908 f   NativeLib:interrupts_asm.obj
 0001:0000494a       intr117                    000000001000594a f   NativeLib:interrupts_asm.obj
 0001:0000498c       intr118                    000000001000598c f   NativeLib:interrupts_asm.obj
 0001:000049ce       intr119                    00000000100059ce f   NativeLib:interrupts_asm.obj
 0001:00004a10       intr120                    0000000010005a10 f   NativeLib:interrupts_asm.obj
 0001:00004a52       intr121                    0000000010005a52 f   NativeLib:interrupts_asm.obj
 0001:00004a94       intr122                    0000000010005a94 f   NativeLib:interrupts_asm.obj
 0001:00004ad6       intr123                    0000000010005ad6 f   NativeLib:interrupts_asm.obj
 0001:00004b18       intr124                    0000000010005b18 f   NativeLib:interrupts_asm.obj
 0001:00004b5a       intr125                    0000000010005b5a f   NativeLib:interrupts_asm.obj
 0001:00004b9c       intr126                    0000000010005b9c f   NativeLib:interrupts_asm.obj
 0001:00004bde       intr127                    0000000010005bde f   NativeLib:interrupts_asm.obj
 0001:00004c20       intr128                    0000000010005c20 f   NativeLib:interrupts_asm.obj
 0001:00004c62       intr129                    0000000010005c62 f   NativeLib:interrupts_asm.obj
 0001:00004ca4       intr130                    0000000010005ca4 f   NativeLib:interrupts_asm.obj
 0001:00004ce6       intr131                    0000000010005ce6 f   NativeLib:interrupts_asm.obj
 0001:00004d28       intr132                    0000000010005d28 f   NativeLib:interrupts_asm.obj
 0001:00004d6a       intr133                    0000000010005d6a f   NativeLib:interrupts_asm.obj
 0001:00004dac       intr134                    0000000010005dac f   NativeLib:interrupts_asm.obj
 0001:00004dee       intr135                    0000000010005dee f   NativeLib:interrupts_asm.obj
 0001:00004e30       intr136                    0000000010005e30 f   NativeLib:interrupts_asm.obj
 0001:00004e72       intr137                    0000000010005e72 f   NativeLib:interrupts_asm.obj
 0001:00004eb4       intr138                    0000000010005eb4 f   NativeLib:interrupts_asm.obj
 0001:00004ef6       intr139                    0000000010005ef6 f   NativeLib:interrupts_asm.obj
 0001:00004f38       intr140                    0000000010005f38 f   NativeLib:interrupts_asm.obj
 0001:00004f7a       intr141                    0000000010005f7a f   NativeLib:interrupts_asm.obj
 0001:00004fbc       intr142                    0000000010005fbc f   NativeLib:interrupts_asm.obj
 0001:00004ffe       intr143                    0000000010005ffe f   NativeLib:interrupts_asm.obj
 0001:00005040       intr144                    0000000010006040 f   NativeLib:interrupts_asm.obj
 0001:00005082       intr145                    0000000010006082 f   NativeLib:interrupts_asm.obj
 0001:000050c4       intr146                    00000000100060c4 f   NativeLib:interrupts_asm.obj
 0001:00005106       intr147                    0000000010006106 f   NativeLib:interrupts_asm.obj
 0001:00005148       intr148                    0000000010006148 f   NativeLib:interrupts_asm.obj
 0001:0000518a       intr149                    000000001000618a f   NativeLib:interrupts_asm.obj
 0001:000051cc       intr150                    00000000100061cc f   NativeLib:interrupts_asm.obj
 0001:0000520e       intr151                    000000001000620e f   NativeLib:interrupts_asm.obj
 0001:00005250       intr152                    0000000010006250 f   NativeLib:interrupts_asm.obj
 0001:00005292       intr153                    0000000010006292 f   NativeLib:interrupts_asm.obj
 0001:000052d4       intr154                    00000000100062d4 f   NativeLib:interrupts_asm.obj
 0001:00005316       intr155                    0000000010006316 f   NativeLib:interrupts_asm.obj
 0001:00005358       intr156                    0000000010006358 f   NativeLib:interrupts_asm.obj
 0001:0000539a       intr157                    000000001000639a f   NativeLib:interrupts_asm.obj
 0001:000053dc       intr158                    00000000100063dc f   NativeLib:interrupts_asm.obj
 0001:0000541e       intr159                    000000001000641e f   NativeLib:interrupts_asm.obj
 0001:00005460       intr160                    0000000010006460 f   NativeLib:interrupts_asm.obj
 0001:000054a2       intr161                    00000000100064a2 f   NativeLib:interrupts_asm.obj
 0001:000054e4       intr162                    00000000100064e4 f   NativeLib:interrupts_asm.obj
 0001:00005526       intr163                    0000000010006526 f   NativeLib:interrupts_asm.obj
 0001:00005568       intr164                    0000000010006568 f   NativeLib:interrupts_asm.obj
 0001:000055aa       intr165                    00000000100065aa f   NativeLib:interrupts_asm.obj
 0001:000055ec       intr166                    00000000100065ec f   NativeLib:interrupts_asm.obj
 0001:0000562e       intr167                    000000001000662e f   NativeLib:interrupts_asm.obj
 0001:00005670       intr168                    0000000010006670 f   NativeLib:interrupts_asm.obj
 0001:000056b2       intr169                    00000000100066b2 f   NativeLib:interrupts_asm.obj
 0001:000056f4       intr170                    00000000100066f4 f   NativeLib:interrupts_asm.obj
 0001:00005736       intr171                    0000000010006736 f   NativeLib:interrupts_asm.obj
 0001:00005778       intr172                    0000000010006778 f   NativeLib:interrupts_asm.obj
 0001:000057ba       intr173                    00000000100067ba f   NativeLib:interrupts_asm.obj
 0001:000057fc       intr174                    00000000100067fc f   NativeLib:interrupts_asm.obj
 0001:0000583e       intr175                    000000001000683e f   NativeLib:interrupts_asm.obj
 0001:00005880       intr176                    0000000010006880 f   NativeLib:interrupts_asm.obj
 0001:000058c2       intr177                    00000000100068c2 f   NativeLib:interrupts_asm.obj
 0001:00005904       intr178                    0000000010006904 f   NativeLib:interrupts_asm.obj
 0001:00005946       intr179                    0000000010006946 f   NativeLib:interrupts_asm.obj
 0001:00005988       intr180                    0000000010006988 f   NativeLib:interrupts_asm.obj
 0001:000059ca       intr181                    00000000100069ca f   NativeLib:interrupts_asm.obj
 0001:00005a0c       intr182                    0000000010006a0c f   NativeLib:interrupts_asm.obj
 0001:00005a4e       intr183                    0000000010006a4e f   NativeLib:interrupts_asm.obj
 0001:00005a90       intr184                    0000000010006a90 f   NativeLib:interrupts_asm.obj
 0001:00005ad2       intr185                    0000000010006ad2 f   NativeLib:interrupts_asm.obj
 0001:00005b14       intr186                    0000000010006b14 f   NativeLib:interrupts_asm.obj
 0001:00005b56       intr187                    0000000010006b56 f   NativeLib:interrupts_asm.obj
 0001:00005b98       intr188                    0000000010006b98 f   NativeLib:interrupts_asm.obj
 0001:00005bda       intr189                    0000000010006bda f   NativeLib:interrupts_asm.obj
 0001:00005c1c       intr190                    0000000010006c1c f   NativeLib:interrupts_asm.obj
 0001:00005c5e       intr191                    0000000010006c5e f   NativeLib:interrupts_asm.obj
 0001:00005ca0       intr192                    0000000010006ca0 f   NativeLib:interrupts_asm.obj
 0001:00005ce2       intr193                    0000000010006ce2 f   NativeLib:interrupts_asm.obj
 0001:00005d24       intr194                    0000000010006d24 f   NativeLib:interrupts_asm.obj
 0001:00005d66       intr195                    0000000010006d66 f   NativeLib:interrupts_asm.obj
 0001:00005da8       intr196                    0000000010006da8 f   NativeLib:interrupts_asm.obj
 0001:00005dea       intr197                    0000000010006dea f   NativeLib:interrupts_asm.obj
 0001:00005e2c       intr198                    0000000010006e2c f   NativeLib:interrupts_asm.obj
 0001:00005e6e       intr199                    0000000010006e6e f   NativeLib:interrupts_asm.obj
 0001:00005eb0       intr200                    0000000010006eb0 f   NativeLib:interrupts_asm.obj
 0001:00005ef2       intr201                    0000000010006ef2 f   NativeLib:interrupts_asm.obj
 0001:00005f34       intr202                    0000000010006f34 f   NativeLib:interrupts_asm.obj
 0001:00005f76       intr203                    0000000010006f76 f   NativeLib:interrupts_asm.obj
 0001:00005fb8       intr204                    0000000010006fb8 f   NativeLib:interrupts_asm.obj
 0001:00005ffa       intr205                    0000000010006ffa f   NativeLib:interrupts_asm.obj
 0001:0000603c       intr206                    000000001000703c f   NativeLib:interrupts_asm.obj
 0001:0000607e       intr207                    000000001000707e f   NativeLib:interrupts_asm.obj
 0001:000060c0       intr208                    00000000100070c0 f   NativeLib:interrupts_asm.obj
 0001:00006102       intr209                    0000000010007102 f   NativeLib:interrupts_asm.obj
 0001:00006144       intr210                    0000000010007144 f   NativeLib:interrupts_asm.obj
 0001:00006186       intr211                    0000000010007186 f   NativeLib:interrupts_asm.obj
 0001:000061c8       intr212                    00000000100071c8 f   NativeLib:interrupts_asm.obj
 0001:0000620a       intr213                    000000001000720a f   NativeLib:interrupts_asm.obj
 0001:0000624c       intr214                    000000001000724c f   NativeLib:interrupts_asm.obj
 0001:0000628e       intr215                    000000001000728e f   NativeLib:interrupts_asm.obj
 0001:000062d0       intr216                    00000000100072d0 f   NativeLib:interrupts_asm.obj
 0001:00006312       intr217                    0000000010007312 f   NativeLib:interrupts_asm.obj
 0001:00006354       intr218                    0000000010007354 f   NativeLib:interrupts_asm.obj
 0001:00006396       intr219                    0000000010007396 f   NativeLib:interrupts_asm.obj
 0001:000063d8       intr220                    00000000100073d8 f   NativeLib:interrupts_asm.obj
 0001:0000641a       intr221                    000000001000741a f   NativeLib:interrupts_asm.obj
 0001:0000645c       intr222                    000000001000745c f   NativeLib:interrupts_asm.obj
 0001:0000649e       intr223                    000000001000749e f   NativeLib:interrupts_asm.obj
 0001:000064e0       intr224                    00000000100074e0 f   NativeLib:interrupts_asm.obj
 0001:00006522       intr225                    0000000010007522 f   NativeLib:interrupts_asm.obj
 0001:00006564       intr226                    0000000010007564 f   NativeLib:interrupts_asm.obj
 0001:000065a6       intr227                    00000000100075a6 f   NativeLib:interrupts_asm.obj
 0001:000065e8       intr228                    00000000100075e8 f   NativeLib:interrupts_asm.obj
 0001:0000662a       intr229                    000000001000762a f   NativeLib:interrupts_asm.obj
 0001:0000666c       intr230                    000000001000766c f   NativeLib:interrupts_asm.obj
 0001:000066ae       intr231                    00000000100076ae f   NativeLib:interrupts_asm.obj
 0001:000066f0       intr232                    00000000100076f0 f   NativeLib:interrupts_asm.obj
 0001:00006732       intr233                    0000000010007732 f   NativeLib:interrupts_asm.obj
 0001:00006774       intr234                    0000000010007774 f   NativeLib:interrupts_asm.obj
 0001:000067b6       intr235                    00000000100077b6 f   NativeLib:interrupts_asm.obj
 0001:000067f8       intr236                    00000000100077f8 f   NativeLib:interrupts_asm.obj
 0001:0000683a       intr237                    000000001000783a f   NativeLib:interrupts_asm.obj
 0001:0000687c       intr238                    000000001000787c f   NativeLib:interrupts_asm.obj
 0001:000068be       intr239                    00000000100078be f   NativeLib:interrupts_asm.obj
 0001:00006900       intr240                    0000000010007900 f   NativeLib:interrupts_asm.obj
 0001:00006942       intr241                    0000000010007942 f   NativeLib:interrupts_asm.obj
 0001:00006984       intr242                    0000000010007984 f   NativeLib:interrupts_asm.obj
 0001:000069c6       intr243                    00000000100079c6 f   NativeLib:interrupts_asm.obj
 0001:00006a08       intr244                    0000000010007a08 f   NativeLib:interrupts_asm.obj
 0001:00006a4a       intr245                    0000000010007a4a f   NativeLib:interrupts_asm.obj
 0001:00006a8c       intr246                    0000000010007a8c f   NativeLib:interrupts_asm.obj
 0001:00006ace       intr247                    0000000010007ace f   NativeLib:interrupts_asm.obj
 0001:00006b10       intr248                    0000000010007b10 f   NativeLib:interrupts_asm.obj
 0001:00006b52       intr249                    0000000010007b52 f   NativeLib:interrupts_asm.obj
 0001:00006b94       intr250                    0000000010007b94 f   NativeLib:interrupts_asm.obj
 0001:00006bd6       intr251                    0000000010007bd6 f   NativeLib:interrupts_asm.obj
 0001:00006c18       intr252                    0000000010007c18 f   NativeLib:interrupts_asm.obj
 0001:00006c5a       intr253                    0000000010007c5a f   NativeLib:interrupts_asm.obj
 0001:00006c9c       intr254                    0000000010007c9c f   NativeLib:interrupts_asm.obj
 0001:00006cde       intr255                    0000000010007cde f   NativeLib:interrupts_asm.obj
 0001:00006d20       _reload_segreg             0000000010007d20 f   NativeLib:interrupts_asm.obj
 0001:00006d47       Load_IDT                   0000000010007d47 f   NativeLib:interrupts_asm.obj
 0001:00006d4b       _cli                       0000000010007d4b f   NativeLib:interrupts_asm.obj
 0001:00006d4d       _sti                       0000000010007d4d f   NativeLib:interrupts_asm.obj
 0001:00006d4f       _hlt                       0000000010007d4f f   NativeLib:interrupts_asm.obj
 0001:00006d51       _inttest                   0000000010007d51 f   NativeLib:interrupts_asm.obj
 0001:00006d5b       _iretq                     0000000010007d5b f   NativeLib:interrupts_asm.obj
 0001:00006d76       _int20h                    0000000010007d76 f   NativeLib:interrupts_asm.obj
 0001:00006d80       In16                       0000000010007d80 f   NativeLib:io.obj
 0001:00006db0       In32                       0000000010007db0 f   NativeLib:io.obj
 0001:00006de0       In8                        0000000010007de0 f   NativeLib:io.obj
 0001:00006e10       Insb                       0000000010007e10 f   NativeLib:io.obj
 0001:00006e50       Insd                       0000000010007e50 f   NativeLib:io.obj
 0001:00006e90       Insw                       0000000010007e90 f   NativeLib:io.obj
 0001:00006ed0       Out16                      0000000010007ed0 f   NativeLib:io.obj
 0001:00006f00       Out32                      0000000010007f00 f   NativeLib:io.obj
 0001:00006f30       Out8                       0000000010007f30 f   NativeLib:io.obj
 0001:00006f60       Outsb                      0000000010007f60 f   NativeLib:io.obj
 0001:00006fa0       Outsd                      0000000010007fa0 f   NativeLib:io.obj
 0001:00006fe0       Outsw                      0000000010007fe0 f   NativeLib:io.obj
 0001:00007020       enable_avx                 0000000010008020 f   NativeLib:misc.obj
 0001:00007033       enable_sse                 0000000010008033 f   NativeLib:misc.obj
 0001:00007046       Schedule_Next              0000000010008046 f   NativeLib:misc.obj
 0001:000124b0       lodepng_add_itext          00000000100134b0 f   NativeLib:lodepng.obj
 0001:000126f0       lodepng_add_text           00000000100136f0 f   NativeLib:lodepng.obj
 0001:000129b0       lodepng_can_have_alpha     00000000100139b0 f   NativeLib:lodepng.obj
 0001:00012a10       lodepng_chunk_ancillary    0000000010013a10 f   NativeLib:lodepng.obj
 0001:00012a60       lodepng_chunk_append       0000000010013a60 f   NativeLib:lodepng.obj
 0001:00012b80       lodepng_chunk_check_crc    0000000010013b80 f   NativeLib:lodepng.obj
 0001:00012c10       lodepng_chunk_create       0000000010013c10 f   NativeLib:lodepng.obj
 0001:00012d40       lodepng_chunk_data         0000000010013d40 f   NativeLib:lodepng.obj
 0001:00012d80       lodepng_chunk_data_const   0000000010013d80 f   NativeLib:lodepng.obj
 0001:00012dc0       lodepng_chunk_find         0000000010013dc0 f   NativeLib:lodepng.obj
 0001:00012e40       lodepng_chunk_find_const   0000000010013e40 f   NativeLib:lodepng.obj
 0001:00012ec0       lodepng_chunk_generate_crc 0000000010013ec0 f   NativeLib:lodepng.obj
 0001:00013010       lodepng_chunk_length       0000000010014010 f   NativeLib:lodepng.obj
 0001:00013050       lodepng_chunk_next         0000000010014050 f   NativeLib:lodepng.obj
 0001:000131b0       lodepng_chunk_next_const   00000000100141b0 f   NativeLib:lodepng.obj
 0001:00013310       lodepng_chunk_private      0000000010014310 f   NativeLib:lodepng.obj
 0001:00013360       lodepng_chunk_safetocopy   0000000010014360 f   NativeLib:lodepng.obj
 0001:000133b0       lodepng_chunk_type         00000000100143b0 f   NativeLib:lodepng.obj
 0001:00013420       lodepng_chunk_type_equals  0000000010014420 f   NativeLib:lodepng.obj
 0001:00013510       lodepng_clear_icc          0000000010014510 f   NativeLib:lodepng.obj
 0001:00013580       lodepng_clear_itext        0000000010014580 f   NativeLib:lodepng.obj
 0001:000135b0       lodepng_clear_text         00000000100145b0 f   NativeLib:lodepng.obj
 0001:00013690       lodepng_color_mode_cleanup 0000000010014690 f   NativeLib:lodepng.obj
 0001:000136c0       lodepng_color_mode_copy    00000000100146c0 f   NativeLib:lodepng.obj
 0001:000138a0       lodepng_color_mode_init    00000000100148a0 f   NativeLib:lodepng.obj
 0001:00013920       lodepng_color_mode_make    0000000010014920 f   NativeLib:lodepng.obj
 0001:00013ab0       lodepng_color_stats_init   0000000010014ab0 f   NativeLib:lodepng.obj
 0001:00013b60       lodepng_compress_settings_init 0000000010014b60 f   NativeLib:lodepng.obj
 0001:00013bf0       lodepng_compute_color_stats 0000000010014bf0 f   NativeLib:lodepng.obj
 0001:00014ac0       lodepng_convert            0000000010015ac0 f   NativeLib:lodepng.obj
 0001:00015000       lodepng_convert_rgb        0000000010016000 f   NativeLib:lodepng.obj
 0001:00015340       lodepng_crc32              0000000010016340 f   NativeLib:lodepng.obj
 0001:000153d0       lodepng_decode             00000000100163d0 f   NativeLib:lodepng.obj
 0001:000155c0       lodepng_decode24           00000000100165c0 f   NativeLib:lodepng.obj
 0001:00015630       lodepng_decode32           0000000010016630 f   NativeLib:lodepng.obj
 0001:000156a0       lodepng_decode_memory      00000000100166a0 f   NativeLib:lodepng.obj
 0001:00015770       lodepng_decoder_settings_init 0000000010016770 f   NativeLib:lodepng.obj
 0001:00015800       lodepng_decompress_settings_init 0000000010016800 f   NativeLib:lodepng.obj
 0001:00015870       lodepng_deflate            0000000010016870 f   NativeLib:lodepng.obj
 0001:00015b80       lodepng_encode             0000000010016b80 f   NativeLib:lodepng.obj
 0001:00016b80       lodepng_encode24           0000000010017b80 f   NativeLib:lodepng.obj
 0001:00016be0       lodepng_encode32           0000000010017be0 f   NativeLib:lodepng.obj
 0001:00016c40       lodepng_encode_memory      0000000010017c40 f   NativeLib:lodepng.obj
 0001:00016d00       lodepng_encoder_settings_init 0000000010017d00 f   NativeLib:lodepng.obj
 0001:00016d80       lodepng_error_text         0000000010017d80 f   NativeLib:lodepng.obj
 0001:00017450       lodepng_get_bpp            0000000010018450 f   NativeLib:lodepng.obj
 0001:000174c0       lodepng_get_channels       00000000100184c0 f   NativeLib:lodepng.obj
 0001:000174f0       lodepng_get_raw_size       00000000100184f0 f   NativeLib:lodepng.obj
 0001:000176d0       lodepng_has_palette_alpha  00000000100186d0 f   NativeLib:lodepng.obj
 0001:00017740       lodepng_huffman_code_lengths 0000000010018740 f   NativeLib:lodepng.obj
 0001:00017b90       lodepng_inflate            0000000010018b90 f   NativeLib:lodepng.obj
 0001:00017da0       lodepng_info_cleanup       0000000010018da0 f   NativeLib:lodepng.obj
 0001:00017e00       lodepng_info_copy          0000000010018e00 f   NativeLib:lodepng.obj
 0001:00017f30       lodepng_info_init          0000000010018f30 f   NativeLib:lodepng.obj
 0001:00018040       lodepng_inspect            0000000010019040 f   NativeLib:lodepng.obj
 0001:00018490       lodepng_inspect_chunk      0000000010019490 f   NativeLib:lodepng.obj
 0001:000188b0       lodepng_is_alpha_type      00000000100198b0 f   NativeLib:lodepng.obj
 0001:00018900       lodepng_is_greyscale_type  0000000010019900 f   NativeLib:lodepng.obj
 0001:00018950       lodepng_is_palette_type    0000000010019950 f   NativeLib:lodepng.obj
 0001:00018b00       lodepng_palette_add        0000000010019b00 f   NativeLib:lodepng.obj
 0001:00018bf0       lodepng_palette_clear      0000000010019bf0 f   NativeLib:lodepng.obj
 0001:00018f10       lodepng_set_icc            0000000010019f10 f   NativeLib:lodepng.obj
 0001:00018f80       lodepng_state_cleanup      0000000010019f80 f   NativeLib:lodepng.obj
 0001:00018fd0       lodepng_state_copy         0000000010019fd0 f   NativeLib:lodepng.obj
 0001:000190a0       lodepng_state_init         000000001001a0a0 f   NativeLib:lodepng.obj
 0001:00019160       lodepng_zlib_compress      000000001001a160 f   NativeLib:lodepng.obj
 0001:00019350       lodepng_zlib_decompress    000000001001a350 f   NativeLib:lodepng.obj
 0001:0001e000       fatfs_init                 000000001001f000 f   NativeLib:fatfs.obj
 0001:0001e080       format_exfat               000000001001f080 f   NativeLib:fatfs.obj
 0001:0001e100       get_files                  000000001001f100 f   NativeLib:fatfs.obj
 0001:0001e240       read_all_bytes             000000001001f240 f   NativeLib:fatfs.obj
 0001:0001e300       write_all_bytes            000000001001f300 f   NativeLib:fatfs.obj
 0001:0001e3a0       vmware_send                000000001001f3a0 f   NativeLib:vmware.obj
 0001:0001e424       vmware_send_hb             000000001001f424 f   NativeLib:vmware.obj
 0001:0001e4aa       vmware_get_hb              000000001001f4aa f   NativeLib:vmware.obj
 0001:00020840       f_close                    0000000010021840 f   NativeLib:ff.obj
 0001:000208a0       f_closedir                 00000000100218a0 f   NativeLib:ff.obj
 0001:000208f0       f_getfree                  00000000100218f0 f   NativeLib:ff.obj
 0001:00020bd0       f_lseek                    0000000010021bd0 f   NativeLib:ff.obj
 0001:00021110       f_mkdir                    0000000010022110 f   NativeLib:ff.obj
 0001:00021450       f_mkfs                     0000000010022450 f   NativeLib:ff.obj
 0001:00023000       f_mount                    0000000010024000 f   NativeLib:ff.obj
 0001:000230c0       f_open                     00000000100240c0 f   NativeLib:ff.obj
 0001:00023780       f_opendir                  0000000010024780 f   NativeLib:ff.obj
 0001:00023940       f_read                     0000000010024940 f   NativeLib:ff.obj
 0001:00023da0       f_readdir                  0000000010024da0 f   NativeLib:ff.obj
 0001:00023e50       f_rename                   0000000010024e50 f   NativeLib:ff.obj
 0001:00024310       f_stat                     0000000010025310 f   NativeLib:ff.obj
 0001:000243b0       f_sync                     00000000100253b0 f   NativeLib:ff.obj
 0001:00024700       f_truncate                 0000000010025700 f   NativeLib:ff.obj
 0001:000248b0       f_unlink                   00000000100258b0 f   NativeLib:ff.obj
 0001:00024af0       f_write                    0000000010025af0 f   NativeLib:ff.obj
 0001:00028320       ff_oem2uni                 0000000010029320 f   NativeLib:ffunicode.obj
 0001:00028430       ff_uni2oem                 0000000010029430 f   NativeLib:ffunicode.obj
 0001:00028540       ff_wtoupper                0000000010029540 f   NativeLib:ffunicode.obj
 0001:00028710       disk_initialize            0000000010029710 f   NativeLib:diskio.obj
 0001:00028740       disk_ioctl                 0000000010029740 f   NativeLib:diskio.obj
 0001:000287c0       disk_read                  00000000100297c0 f   NativeLib:diskio.obj
 0001:00028800       disk_status                0000000010029800 f   NativeLib:diskio.obj
 0001:00028830       disk_write                 0000000010029830 f   NativeLib:diskio.obj
 0001:00028870       mystrtoul                  0000000010029870 f   LibC:strtoul.obj
 0001:0002b110       fctprintf                  000000001002c110 f   LibC:printf.obj
 0001:0002b190       printf_                    000000001002c190 f   LibC:printf.obj
 0001:0002b200       snprintf_                  000000001002c200 f   LibC:printf.obj
 0001:0002b260       sprintf_                   000000001002c260 f   LibC:printf.obj
 0001:0002b2d0       vprintf_                   000000001002c2d0 f   LibC:printf.obj
 0001:0002b320       vsnprintf_                 000000001002c320 f   LibC:printf.obj
 0001:0002b370       myisspace                  000000001002c370 f   LibC:isspace.obj
 0001:0002b3c0       myisdigit                  000000001002c3c0 f   LibC:isdigit.obj
 0001:0002b400       myisalpha                  000000001002c400 f   LibC:isalpha.obj
 0001:0002b440       myisupper                  000000001002c440 f   LibC:isupper.obj
 0002:00000000       unbox_Bool__ToString       000000001002d000     guideXOS.obj
 0002:0000000c       unbox_UInt8__ToString      000000001002d00c     guideXOS.obj
 0002:00000018       unbox_Int32__ToString      000000001002d018     guideXOS.obj
 0002:00000024       unbox_UInt16__ToString     000000001002d024     guideXOS.obj
 0002:00000030       unbox_UInt32__ToString     000000001002d030     guideXOS.obj
 0002:0000003c       unbox_UInt64__ToString     000000001002d03c     guideXOS.obj
 0003:00000000       KMain                      000000001002e000     guideXOS.obj
 0003:00000000       guideXOS_Program__KMain    000000001002e000     guideXOS.obj
 0003:00000418       guideXOS_Program__SMain    000000001002e418     guideXOS.obj
 0003:00000f18       guideXOS_Program__RefreshCachedIcons 000000001002ef18     guideXOS.obj
 0003:00000ff4       guideXOS_Allocator__FindOrAddOwner 000000001002eff4     guideXOS.obj
 0003:00001104       guideXOS_Allocator__Initialize 000000001002f104     guideXOS.obj
 0003:000011f8       guideXOS_Allocator__get_MemoryInUse 000000001002f1f8     guideXOS.obj
 0003:00001210       guideXOS_Allocator__GetPageIndexStart 000000001002f210     guideXOS.obj
 0003:00001264       guideXOS_Allocator__Free   000000001002f264     guideXOS.obj
 0003:000014b8       guideXOS_Allocator__SuspiciousSize 000000001002f4b8     guideXOS.obj
 0003:000014d8       guideXOS_Allocator__Allocate_0 000000001002f4d8     guideXOS.obj
 0003:00001848       guideXOS_Allocator__Reallocate 000000001002f848     guideXOS.obj
 0003:00001970       guideXOS_Allocator__ClearAllocate_0 000000001002f970     guideXOS.obj
 0003:00001a18       guideXOS_Allocator__GetTagBytes 000000001002fa18     guideXOS.obj
 0003:00001a40       guideXOS_Allocator__GetOwnerBytes 000000001002fa40     guideXOS.obj
 0003:00001b78       guideXOS_Allocator__GetOwnerListSnapshot 000000001002fb78     guideXOS.obj
 0003:00001cc0       guideXOS_GDT__FillEntry    000000001002fcc0     guideXOS.obj
 0003:00001d00       guideXOS_GDT__Initialise   000000001002fd00     guideXOS.obj
 0003:00001e50       guideXOS_GDT__SetKernelStack 000000001002fe50     guideXOS.obj
 0003:00001e74       guideXOS_IDT__Initialize   000000001002fe74     guideXOS.obj
 0003:00001f68       guideXOS_IDT__AllowUserSoftwareInterrupt 000000001002ff68     guideXOS.obj
 0003:00002000       guideXOS_IDT__intr_handler 0000000010030000     guideXOS.obj
 0003:00002000       intr_handler               0000000010030000     guideXOS.obj
 0003:000021b4       guideXOS_Native__Load_GDT  00000000100301b4     guideXOS.obj
 0003:00002208       guideXOS_Native__Load_IDT  0000000010030208     guideXOS.obj
 0003:0000225c       guideXOS_Internal_Runtime_EEType__get_IsArray 000000001003025c     guideXOS.obj
 0003:00002280       guideXOS_Internal_Runtime_EEType__get_ArrayRank 0000000010030280     guideXOS.obj
 0003:000022a0       __imp_GetCurrentThreadId   00000000100302a0     guideXOS.obj
 0003:000022a0       guideXOS_Internal_Runtime_CompilerHelpers_StartupCodeHelpers____imp_GetCurrentThreadId 00000000100302a0     guideXOS.obj
 0003:000022a4       __CheckForDebuggerJustMyCode 00000000100302a4     guideXOS.obj
 0003:000022a4       guideXOS_Internal_Runtime_CompilerHelpers_StartupCodeHelpers____CheckForDebuggerJustMyCode 00000000100302a4     guideXOS.obj
 0003:000022a8       __fail_fast                00000000100302a8     guideXOS.obj
 0003:000022a8       guideXOS_Internal_Runtime_CompilerHelpers_StartupCodeHelpers__FailFast 00000000100302a8     guideXOS.obj
 0003:000022ac       guideXOS_Internal_Runtime_CompilerHelpers_StartupCodeHelpers__MemSet 00000000100302ac     guideXOS.obj
 0003:000022ac       memset                     00000000100302ac     guideXOS.obj
 0003:000022c8       guideXOS_Internal_Runtime_CompilerHelpers_StartupCodeHelpers__MemCpy 00000000100302c8     guideXOS.obj
 0003:000022c8       memcpy                     00000000100302c8     guideXOS.obj
 0003:000022e4       RhpFallbackFailFast        00000000100302e4     guideXOS.obj
 0003:000022e4       guideXOS_Internal_Runtime_CompilerHelpers_StartupCodeHelpers__RhpFallbackFailFast 00000000100302e4     guideXOS.obj
 0003:000022e8       RhpReversePInvoke2         00000000100302e8     guideXOS.obj
 0003:000022e8       guideXOS_Internal_Runtime_CompilerHelpers_StartupCodeHelpers__RhpReversePInvoke2 00000000100302e8     guideXOS.obj
 0003:000022ec       RhpReversePInvokeReturn2   00000000100302ec     guideXOS.obj
 0003:000022ec       guideXOS_Internal_Runtime_CompilerHelpers_StartupCodeHelpers__RhpReversePInvokeReturn2 00000000100302ec     guideXOS.obj
 0003:000022f0       RhpReversePInvoke          00000000100302f0     guideXOS.obj
 0003:000022f0       guideXOS_Internal_Runtime_CompilerHelpers_StartupCodeHelpers__RhpReversePInvoke 00000000100302f0     guideXOS.obj
 0003:000022f4       RhpReversePInvokeReturn    00000000100302f4     guideXOS.obj
 0003:000022f4       guideXOS_Internal_Runtime_CompilerHelpers_StartupCodeHelpers__RhpReversePInvokeReturn 00000000100302f4     guideXOS.obj
 0003:000022f8       RhpPInvoke                 00000000100302f8     guideXOS.obj
 0003:000022f8       guideXOS_Internal_Runtime_CompilerHelpers_StartupCodeHelpers__RhpPinvoke 00000000100302f8     guideXOS.obj
 0003:000022fc       RhpPInvokeReturn           00000000100302fc     guideXOS.obj
 0003:000022fc       guideXOS_Internal_Runtime_CompilerHelpers_StartupCodeHelpers__RhpPinvokeReturn 00000000100302fc     guideXOS.obj
 0003:00002300       RhpNewFast                 0000000010030300     guideXOS.obj
 0003:00002300       guideXOS_Internal_Runtime_CompilerHelpers_StartupCodeHelpers__RhpNewFast 0000000010030300     guideXOS.obj
 0003:0000238c       RhpNewArray                000000001003038c     guideXOS.obj
 0003:0000238c       guideXOS_Internal_Runtime_CompilerHelpers_StartupCodeHelpers__RhpNewArray 000000001003038c     guideXOS.obj
 0003:00002450       RhpAssignRef               0000000010030450     guideXOS.obj
 0003:00002450       guideXOS_Internal_Runtime_CompilerHelpers_StartupCodeHelpers__RhpAssignRef 0000000010030450     guideXOS.obj
 0003:00002454       RhpByRefAssignRef          0000000010030454     guideXOS.obj
 0003:00002454       guideXOS_Internal_Runtime_CompilerHelpers_StartupCodeHelpers__RhpByRefAssignRef 0000000010030454     guideXOS.obj
 0003:00002458       RhpCheckedAssignRef        0000000010030458     guideXOS.obj
 0003:00002458       guideXOS_Internal_Runtime_CompilerHelpers_StartupCodeHelpers__RhpCheckedAssignRef 0000000010030458     guideXOS.obj
 0003:0000245c       RhpStelemRef               000000001003045c     guideXOS.obj
 0003:0000245c       guideXOS_Internal_Runtime_CompilerHelpers_StartupCodeHelpers__RhpStelemRef 000000001003045c     guideXOS.obj
 0003:00002494       RhTypeCast_IsInstanceOfClass 0000000010030494     guideXOS.obj
 0003:00002494       guideXOS_Internal_Runtime_CompilerHelpers_StartupCodeHelpers__RhTypeCast_IsInstanceOfClass 0000000010030494     guideXOS.obj
 0003:000024c0       guideXOS_Internal_Runtime_CompilerHelpers_StartupCodeHelpers__InitializeModules 00000000100304c0     guideXOS.obj
 0003:00002678       guideXOS_Internal_Runtime_CompilerHelpers_StartupCodeHelpers__InitializeStatics 0000000010030678     guideXOS.obj
 0003:00002764       guideXOS_Internal_Runtime_CompilerHelpers_SynchronizedMethodHelpers__MonitorEnterStatic 0000000010030764     guideXOS.obj
 0003:00002768       guideXOS_Internal_Runtime_CompilerHelpers_SynchronizedMethodHelpers__MonitorExitStatic 0000000010030768     guideXOS.obj
 0003:0000276c       guideXOS_Internal_Runtime_CompilerHelpers_ThrowHelpers__Error 000000001003076c     guideXOS.obj
 0003:0000281c       guideXOS_Internal_Runtime_CompilerHelpers_ThrowHelpers__ThrowOverflowException 000000001003081c     guideXOS.obj
 0003:00002834       guideXOS_Internal_Runtime_CompilerHelpers_ThrowHelpers__ThrowIndexOutOfRangeException 0000000010030834     guideXOS.obj
 0003:0000284c       Bool__ToString             000000001003084c     guideXOS.obj
 0003:00002864       UInt8__ToString            0000000010030864     guideXOS.obj
 0003:00002880       guideXOS_System_Delegate__InitializeOpenStaticThunk 0000000010030880     guideXOS.obj
 0003:000028a4       guideXOS_System_Delegate__InitializeClosedInstance 00000000100308a4     guideXOS.obj
 0003:000028d0       Int32__ToString            00000000100308d0     guideXOS.obj
 0003:000028f0       Int32__op_Implicit         00000000100308f0     guideXOS.obj
 0003:000028f4       Int64__ToString            00000000100308f4     guideXOS.obj
 0003:000029e4       guideXOS_System_Math__Sqrt 00000000100309e4     guideXOS.obj
 0003:00002a48       guideXOS_System_MathF__Floor 0000000010030a48     guideXOS.obj
 0003:00002aa8       Object___ctor              0000000010030aa8     guideXOS.obj
 0003:00002aac       Object__ToString           0000000010030aac     guideXOS.obj
 0003:00002ab4       Object__Dispose            0000000010030ab4     guideXOS.obj
 0003:00002b04       String__FromASCII          0000000010030b04     guideXOS.obj
 0003:00002b9c       String__Ctor               0000000010030b9c     guideXOS.obj
 0003:00002bbc       String__Ctor_1             0000000010030bbc     guideXOS.obj
 0003:00002c08       String__Ctor_2             0000000010030c08     guideXOS.obj
 0003:00002cc4       String__LastIndexOf        0000000010030cc4     guideXOS.obj
 0003:00002cf0       String__Ctor_3             0000000010030cf0     guideXOS.obj
 0003:00002d34       String__ToString           0000000010030d34     guideXOS.obj
 0003:00002d38       String__Equals_0           0000000010030d38     guideXOS.obj
 0003:00002d80       String__Concat             0000000010030d80     guideXOS.obj
 0003:00002e6c       String__IndexOf            0000000010030e6c     guideXOS.obj
 0003:00002e9c       String__Concat_0           0000000010030e9c     guideXOS.obj
 0003:00002f10       String__Concat_1           0000000010030f10     guideXOS.obj
 0003:00002fd4       String__Concat_2           0000000010030fd4     guideXOS.obj
 0003:000030bc       String__Format             00000000100310bc     guideXOS.obj
 0003:000032c8       String__Split              00000000100312c8     guideXOS.obj
 0003:000033dc       String__Substring          00000000100313dc     guideXOS.obj
 0003:0000341c       String__Substring_0        000000001003141c     guideXOS.obj
 0003:00003458       String__EndsWith_0         0000000010031458     guideXOS.obj
 0003:000034e4       String__ToUpper            00000000100314e4     guideXOS.obj
 0003:00003578       guideXOS_System_StringPool___cctor 0000000010031578     guideXOS.obj
 0003:000036f8       guideXOS_System_StringPool__GetPercentage 00000000100316f8     guideXOS.obj
 0003:000037cc       guideXOS_System_StringPool__GetNumber 00000000100317cc     guideXOS.obj
 0003:00003894       guideXOS_System_StringPool__GetNumber_0 0000000010031894     guideXOS.obj
 0003:0000393c       guideXOS_System_StringPool__GetMemorySize 000000001003193c     guideXOS.obj
 0003:00003bc4       guideXOS_System_StringPool__GetTransferRate 0000000010031bc4     guideXOS.obj
 0003:00003cb0       guideXOS_System_StringPool__FormatUptime 0000000010031cb0     guideXOS.obj
 0003:00003f54       UInt16__ToString           0000000010031f54     guideXOS.obj
 0003:00003f70       UInt32__ToString           0000000010031f70     guideXOS.obj
 0003:00003f8c       UInt64__ToString           0000000010031f8c     guideXOS.obj
 0003:00004054       UInt64__ToStringHex        0000000010032054     guideXOS.obj
 0003:000040fc       guideXOS_System_Threading_Monitor__Unlock 00000000100320fc     guideXOS.obj
 0003:00004140       RhTypeCast_CheckCastClass  0000000010032140     guideXOS.obj
 0003:00004140       guideXOS_System_Runtime_TypeCast__CheckCastClass 0000000010032140     guideXOS.obj
 0003:00004168       RhTypeCast_CheckCastArray  0000000010032168     guideXOS.obj
 0003:00004168       guideXOS_System_Runtime_TypeCast__CheckCastArray 0000000010032168     guideXOS.obj
 0003:00004190       RhTypeCast_IsInstanceOfArray 0000000010032190     guideXOS.obj
 0003:00004190       guideXOS_System_Runtime_TypeCast__IsInstanceOfArray 0000000010032190     guideXOS.obj
 0003:000041ec       guideXOS_System_Runtime_CompilerServices_ClassConstructorRunner__CheckStaticClassConstructionReturnNonGCStaticBase 00000000100321ec     guideXOS.obj
 0003:00004204       guideXOS_System_Runtime_CompilerServices_ClassConstructorRunner__CheckStaticClassConstructionReturnGCStaticBase 0000000010032204     guideXOS.obj
 0003:0000421c       guideXOS_System_Runtime_CompilerServices_ClassConstructorRunner__CheckStaticClassConstruction 000000001003221c     guideXOS.obj
 0003:00004250       guideXOS_System_Drawing_Image___ctor 0000000010032250     guideXOS.obj
 0003:0000428c       guideXOS_System_Drawing_Image___ctor_0 000000001003228c     guideXOS.obj
 0003:00004290       guideXOS_System_Drawing_Image__Resample 0000000010032290     guideXOS.obj
 0003:00004634       guideXOS_System_Drawing_Image__ResizeImage 0000000010032634     guideXOS.obj
 0003:000047a8       guideXOS_System_Drawing_Image__Dispose 00000000100327a8     guideXOS.obj
 0003:00004830       guideXOS_guideXOS_Animation___ctor 0000000010032830     guideXOS.obj
 0003:00004840       guideXOS_guideXOS_Animator__Initialize 0000000010032840     guideXOS.obj
 0003:00004898       guideXOS_guideXOS_Animator__OnInterrupt 0000000010032898     guideXOS.obj
 0003:00004924       guideXOS_guideXOS_API__HandleSystemCall 0000000010032924     guideXOS.obj
 0003:00004cc0       guideXOS_guideXOS_API__API_SndWrite 0000000010032cc0     guideXOS.obj
 0003:00004cc8       guideXOS_guideXOS_API__API_Calloc 0000000010032cc8     guideXOS.obj
 0003:00004cd0       guideXOS_guideXOS_API__API_StartThread 0000000010032cd0     guideXOS.obj
 0003:00004d0c       guideXOS_guideXOS_API__API_Error 0000000010032d0c     guideXOS.obj
 0003:00004d14       guideXOS_guideXOS_API__API_GetTime 0000000010032d14     guideXOS.obj
 0003:00004d94       guideXOS_guideXOS_API__API_DrawImage 0000000010032d94     guideXOS.obj
 0003:00004dc8       guideXOS_guideXOS_API__API_WriteString 0000000010032dc8     guideXOS.obj
 0003:00004e28       guideXOS_guideXOS_API__API_Width 0000000010032e28     guideXOS.obj
 0003:00004e3c       guideXOS_guideXOS_API__API_Height 0000000010032e3c     guideXOS.obj
 0003:00004e50       guideXOS_guideXOS_API__API_Update 0000000010032e50     guideXOS.obj
 0003:00004e58       guideXOS_guideXOS_API__API_Clear 0000000010032e58     guideXOS.obj
 0003:00004e78       DebugWrite                 0000000010032e78     guideXOS.obj
 0003:00004e78       guideXOS_guideXOS_API__API_DebugWrite 0000000010032e78     guideXOS.obj
 0003:00004e80       DebugWriteLine             0000000010032e80     guideXOS.obj
 0003:00004e80       guideXOS_guideXOS_API__API_DebugWriteLine 0000000010032e80     guideXOS.obj
 0003:00004e9c       Lock                       0000000010032e9c     guideXOS.obj
 0003:00004e9c       guideXOS_guideXOS_API__API_Lock 0000000010032e9c     guideXOS.obj
 0003:00004ec4       Unlock                     0000000010032ec4     guideXOS.obj
 0003:00004ec4       guideXOS_guideXOS_API__API_Unlock 0000000010032ec4     guideXOS.obj
 0003:00004f04       guideXOS_guideXOS_API__API_DrawPoint 0000000010032f04     guideXOS.obj
 0003:00004f38       guideXOS_guideXOS_API__API_SwitchToConsoleMode 0000000010032f38     guideXOS.obj
 0003:00004f40       guideXOS_guideXOS_API__API_ReadAllBytes 0000000010032f40     guideXOS.obj
 0003:00005048       guideXOS_guideXOS_API__API_Sleep 0000000010033048     guideXOS.obj
 0003:00005050       guideXOS_guideXOS_API__API_GetTick 0000000010033050     guideXOS.obj
 0003:00005064       guideXOS_guideXOS_API__API_Write 0000000010033064     guideXOS.obj
 0003:00005070       guideXOS_guideXOS_API__API_WriteLine 0000000010033070     guideXOS.obj
 0003:00005078       guideXOS_guideXOS_API__API_Allocate 0000000010033078     guideXOS.obj
 0003:00005080       guideXOS_guideXOS_API__API_Free 0000000010033080     guideXOS.obj
 0003:00005088       guideXOS_guideXOS_API__API_Reallocate 0000000010033088     guideXOS.obj
 0003:00005090       guideXOS_guideXOS_API__SayHello 0000000010033090     guideXOS.obj
 0003:0000509c       guideXOS_guideXOS_Kbd2Mouse__OnKeyChanged 000000001003309c     guideXOS.obj
 0003:000052c0       guideXOS_guideXOS_ASC16__DrawChar 00000000100332c0     guideXOS.obj
 0003:00005354       guideXOS_guideXOS_Console__add_OnWrite 0000000010033354     guideXOS.obj
 0003:000053dc       guideXOS_guideXOS_Console__Setup 00000000100333dc     guideXOS.obj
 0003:00005494       guideXOS_guideXOS_Console__Write 0000000010033494     guideXOS.obj
 0003:00005544       guideXOS_guideXOS_Console__Write_0 0000000010033544     guideXOS.obj
 0003:000055c8       guideXOS_guideXOS_Console__WriteFramebuffer 00000000100335c8     guideXOS.obj
 0003:000056d4       guideXOS_guideXOS_Console__MoveUp 00000000100336d4     guideXOS.obj
 0003:00005708       guideXOS_guideXOS_Console__MoveUpFramebuffer 0000000010033708     guideXOS.obj
 0003:000057b4       guideXOS_guideXOS_Console__UpdateCursorFramebuffer 00000000100337b4     guideXOS.obj
 0003:00005864       guideXOS_guideXOS_Console__WriteLine 0000000010033864     guideXOS.obj
 0003:000058fc       guideXOS_guideXOS_Console__WriteLine_0 00000000100338fc     guideXOS.obj
 0003:00005940       guideXOS_guideXOS_Console__Clear 0000000010033940     guideXOS.obj
 0003:0000595c       guideXOS_guideXOS_Console__ClearFramebuffer 000000001003395c     guideXOS.obj
 0003:00005a18       guideXOS_guideXOS_PageTable__Initialise 0000000010033a18     guideXOS.obj
 0003:00005aec       guideXOS_guideXOS_PageTable__GetPageInternal 0000000010033aec     guideXOS.obj
 0003:00005ba8       guideXOS_guideXOS_PageTable__MapOnRoot 0000000010033ba8     guideXOS.obj
 0003:00005c38       guideXOS_guideXOS_PageTable__Next_0 0000000010033c38     guideXOS.obj
 0003:00005d08       guideXOS_guideXOS_Intel825xx__Initialize 0000000010033d08     guideXOS.obj
 0003:00006714       guideXOS_guideXOS_Intel825xx__Reset 0000000010034714     guideXOS.obj
 0003:00006748       guideXOS_guideXOS_Intel825xx__TXsetup 0000000010034748     guideXOS.obj
 0003:000067b8       guideXOS_guideXOS_Intel825xx__RXsetup 00000000100347b8     guideXOS.obj
 0003:00006850       guideXOS_guideXOS_Intel825xx__ReadROM 0000000010034850     guideXOS.obj
 0003:00006884       guideXOS_guideXOS_Intel825xx__OnInterrupt 0000000010034884     guideXOS.obj
 0003:00006908       guideXOS_guideXOS_Intel825xx__Linkup 0000000010034908     guideXOS.obj
 0003:00006944       guideXOS_guideXOS_Intel825xx__Send 0000000010034944     guideXOS.obj
 0003:000069a4       guideXOS_guideXOS_NETv4__Initialize 00000000100349a4     guideXOS.obj
 0003:00006a8c       guideXOS_guideXOS_NETv4__SwapLeftRight 0000000010034a8c     guideXOS.obj
 0003:00006aa8       guideXOS_guideXOS_NETv4__SwapLeftRight_0 0000000010034aa8     guideXOS.obj
 0003:00006ad8       guideXOS_guideXOS_NETv4__SwapLeftRight_1 0000000010034ad8     guideXOS.obj
 0003:00006af4       guideXOS_guideXOS_NETv4__SwapLeftRight_2 0000000010034af4     guideXOS.obj
 0003:00006b30       guideXOS_guideXOS_NETv4__OnData_0 0000000010034b30     guideXOS.obj
 0003:00006ba4       guideXOS_guideXOS_NETv4__DNSQuery 0000000010034ba4     guideXOS.obj
 0003:00007098       guideXOS_guideXOS_NETv4__DHCPDiscover 0000000010035098     guideXOS.obj
 0003:000075b8       guideXOS_guideXOS_NETv4__MakeDHCPRequestPacket 00000000100355b8     guideXOS.obj
 0003:00007688       guideXOS_guideXOS_NETv4__UDPBind 0000000010035688     guideXOS.obj
 0003:000076e4       guideXOS_guideXOS_NETv4__UDPSend 00000000100356e4     guideXOS.obj
 0003:00007848       guideXOS_guideXOS_NETv4__MakeUDPPacket 0000000010035848     guideXOS.obj
 0003:00007954       guideXOS_guideXOS_NETv4__UDPOnData_0 0000000010035954     guideXOS.obj
 0003:00007ab4       guideXOS_guideXOS_NETv4__TCPOnData 0000000010035ab4     guideXOS.obj
 0003:000080d0       guideXOS_guideXOS_NETv4__TCPConnect 00000000100360d0     guideXOS.obj
 0003:00008170       guideXOS_guideXOS_NETv4__TCPClose 0000000010036170     guideXOS.obj
 0003:000081a8       guideXOS_guideXOS_NETv4__TCPSendData 00000000100361a8     guideXOS.obj
 0003:00008238       guideXOS_guideXOS_NETv4__TCPSend 0000000010036238     guideXOS.obj
 0003:00008390       guideXOS_guideXOS_NETv4__MakeTCPPacket 0000000010036390     guideXOS.obj
 0003:00008554       guideXOS_guideXOS_NETv4__IPOnData 0000000010036554     guideXOS.obj
 0003:00008680       guideXOS_guideXOS_NETv4__MakeIPPacket 0000000010036680     guideXOS.obj
 0003:000086e8       guideXOS_guideXOS_NETv4__IPChecksum 00000000100366e8     guideXOS.obj
 0003:00008738       guideXOS_guideXOS_NETv4__ICMPOnData 0000000010036738     guideXOS.obj
 0003:000088ac       guideXOS_guideXOS_NETv4__ICMPPing 00000000100368ac     guideXOS.obj
 0003:00008a18       guideXOS_guideXOS_NETv4__ARPLookup 0000000010036a18     guideXOS.obj
 0003:00008ba4       guideXOS_guideXOS_NETv4__ARPOnData 0000000010036ba4     guideXOS.obj
 0003:00008dc0       guideXOS_guideXOS_NETv4__MakeARPPacket 0000000010036dc0     guideXOS.obj
 0003:00008e38       guideXOS_guideXOS_NETv4__ARPRequire 0000000010036e38     guideXOS.obj
 0003:00008f3c       guideXOS_guideXOS_NETv4__MakeEthernetPacket 0000000010036f3c     guideXOS.obj
 0003:00008f78       guideXOS_guideXOS_RTL8111__Initialize 0000000010036f78     guideXOS.obj
 0003:00009a2c       guideXOS_guideXOS_RTL8111__ResetRXDesc 0000000010037a2c     guideXOS.obj
 0003:00009a64       guideXOS_guideXOS_RTL8111__Send 0000000010037a64     guideXOS.obj
 0003:00009b24       guideXOS_guideXOS_RTL8111__OnInterrupt 0000000010037b24     guideXOS.obj
 0003:00009c10       guideXOS_guideXOS_SMP__ApplicationProcessorMain 0000000010037c10     guideXOS.obj
 0003:00009c98       guideXOS_guideXOS_SMP__Initialize 0000000010037c98     guideXOS.obj
 0003:00009e88       guideXOS_guideXOS_Network_Http__NextEphemeralPort 0000000010037e88     guideXOS.obj
 0003:00009ebc       guideXOS_guideXOS_Network_Http__PostJson 0000000010037ebc     guideXOS.obj
 0003:00009f4c       guideXOS_guideXOS_Network_Http__BuildPost 0000000010037f4c     guideXOS.obj
 0003:0000a134       guideXOS_guideXOS_Network_Http__Send 0000000010038134     guideXOS.obj
 0003:0000a6b8       guideXOS_guideXOS_Network_Http__Resolve 00000000100386b8     guideXOS.obj
 0003:0000a7ec       guideXOS_guideXOS_Network_Http__IsZero 00000000100387ec     guideXOS.obj
 0003:0000a80c       guideXOS_guideXOS_Network_Http__EqualsIp 000000001003880c     guideXOS.obj
 0003:0000a84c       guideXOS_guideXOS_Network_Http__ReceiveAll 000000001003884c     guideXOS.obj
 0003:0000a98c       guideXOS_guideXOS_Network_Http__IsHttpComplete 000000001003898c     guideXOS.obj
 0003:0000ab00       guideXOS_guideXOS_Network_Http__HeaderContentLengthBytes 0000000010038b00     guideXOS.obj
 0003:0000abac       guideXOS_guideXOS_Network_Http__HeaderChunkedBytes 0000000010038bac     guideXOS.obj
 0003:0000abf4       guideXOS_guideXOS_Network_Http__ParseHttp 0000000010038bf4     guideXOS.obj
 0003:0000b01c       guideXOS_guideXOS_Network_Http__DecodeChunked 000000001003901c     guideXOS.obj
 0003:0000b178       guideXOS_guideXOS_Network_Http__IndexOf 0000000010039178     guideXOS.obj
 0003:0000b1e0       guideXOS_guideXOS_Network_Http__Match 00000000100391e0     guideXOS.obj
 0003:0000b294       guideXOS_guideXOS_Network_Http__ToAsciiBytes 0000000010039294     guideXOS.obj
 0003:0000b328       guideXOS_guideXOS_Network_Http__BytesToAscii_0 0000000010039328     guideXOS.obj
 0003:0000b3dc       guideXOS_guideXOS_Network_Http__SetHeader 00000000100393dc     guideXOS.obj
 0003:0000b4a0       guideXOS_guideXOS_Network_Http__GetHeader 00000000100394a0     guideXOS.obj
 0003:0000b508       guideXOS_guideXOS_Network_Http__EqualsIgnoreCase 0000000010039508     guideXOS.obj
 0003:0000b57c       guideXOS_guideXOS_Network_Http__IndexOfIgnoreCase 000000001003957c     guideXOS.obj
 0003:0000b610       guideXOS_guideXOS_Network_Http__IndexOf_0 0000000010039610     guideXOS.obj
 0003:0000b640       guideXOS_guideXOS_Network_Http__HasPrefix 0000000010039640     guideXOS.obj
 0003:0000b688       guideXOS_guideXOS_Network_Http__TrimSpaces 0000000010039688     guideXOS.obj
 0003:0000b6ec       guideXOS_guideXOS_Network_Http__ParseInt 00000000100396ec     guideXOS.obj
 0003:0000b724       guideXOS_guideXOS_Network_Http__ParseIntToString 0000000010039724     guideXOS.obj
 0003:0000b854       guideXOS_guideXOS_Network_Http__ParseHex 0000000010039854     guideXOS.obj
 0003:0000b8b4       guideXOS_guideXOS_Misc_Audio__Initialize 00000000100398b4     guideXOS.obj
 0003:0000b8e4       guideXOS_guideXOS_Misc_Audio__snd_write 00000000100398e4     guideXOS.obj
 0003:0000b8e4       snd_write                  00000000100398e4     guideXOS.obj
 0003:0000b9cc       guideXOS_guideXOS_Misc_Audio__snd_clear 00000000100399cc     guideXOS.obj
 0003:0000b9cc       snd_clear                  00000000100399cc     guideXOS.obj
 0003:0000b9e0       guideXOS_guideXOS_Misc_Audio__require 00000000100399e0     guideXOS.obj
 0003:0000badc       guideXOS_guideXOS_Misc_Bitmap___ctor 0000000010039adc     guideXOS.obj
 0003:0000bd24       guideXOS_guideXOS_Misc_BootSplash__Initialize 0000000010039d24     guideXOS.obj
 0003:0000bda0       guideXOS_guideXOS_Misc_BootSplash__Cleanup 0000000010039da0     guideXOS.obj
 0003:0000bdd8       guideXOS_guideXOS_Misc_BootSplash__Tick 0000000010039dd8     guideXOS.obj
 0003:0000c104       guideXOS_guideXOS_Misc_ClassID__GetName 000000001003a104     guideXOS.obj
 0003:0000c26c       Entry                      000000001003a26c     guideXOS.obj
 0003:0000c26c       guideXOS_guideXOS_Misc_EntryPoint__Entry 000000001003a26c     guideXOS.obj
 0003:0000c684       guideXOS_guideXOS_Misc_EntryPoint__DetectArchitecture 000000001003a684     guideXOS.obj
 0003:0000c71c       guideXOS_guideXOS_Misc_EntryPoint__TestPointerIntegrity 000000001003a71c     guideXOS.obj
 0003:0000c728       guideXOS_guideXOS_Misc_GXMLoader__TryExecute 000000001003a728     guideXOS.obj
 0003:0000caec       guideXOS_guideXOS_Misc_GXMLoader__ApplyGuiLine 000000001003aaec     guideXOS.obj
 0003:0000d508       guideXOS_guideXOS_Misc_GXMLoader__NextField 000000001003b508     guideXOS.obj
 0003:0000d57c       guideXOS_guideXOS_Misc_GXMLoader__IndexOf 000000001003b57c     guideXOS.obj
 0003:0000d5b0       guideXOS_guideXOS_Misc_GXMLoader__StringEquals 000000001003b5b0     guideXOS.obj
 0003:0000d624       guideXOS_guideXOS_Misc_GXMLoader__ToInt 000000001003b624     guideXOS.obj
 0003:0000d688       guideXOS_guideXOS_Misc_GXMLoader__ToBool 000000001003b688     guideXOS.obj
 0003:0000d7dc       guideXOS_guideXOS_Misc_GXMLoader__ExtractUtf8 000000001003b7dc     guideXOS.obj
 0003:0000d878       guideXOS_guideXOS_Misc_GXMLoader__ReadU32 000000001003b878     guideXOS.obj
 0003:0000d8e0       guideXOS_guideXOS_Misc_IFont___ctor 000000001003b8e0     guideXOS.obj
 0003:0000d928       guideXOS_guideXOS_Misc_IFont__DrawChar 000000001003b928     guideXOS.obj
 0003:0000dbbc       guideXOS_guideXOS_Misc_IFont__DrawString 000000001003bbbc     guideXOS.obj
 0003:0000dc34       guideXOS_guideXOS_Misc_IFont__DrawString_0 000000001003bc34     guideXOS.obj
 0003:0000dcac       guideXOS_guideXOS_Misc_IFont__MeasureString 000000001003bcac     guideXOS.obj
 0003:0000dd1c       guideXOS_guideXOS_Misc_IFont__DrawString_1 000000001003bd1c     guideXOS.obj
 0003:0000de4c       guideXOS_guideXOS_Misc_Interrupts__EnableInterrupt_0 000000001003be4c     guideXOS.obj
 0003:0000deb4       guideXOS_guideXOS_Misc_Interrupts__HandleInterrupt 000000001003beb4     guideXOS.obj
 0003:0000df1c       guideXOS_guideXOS_Misc_Panic__Error 000000001003bf1c     guideXOS.obj
 0003:0000dfc4       guideXOS_guideXOS_Misc_Panic__ShowEnhancedCrashScreen 000000001003bfc4     guideXOS.obj
 0003:0000e184       guideXOS_guideXOS_Misc_Panic__DrawPanicHeader 000000001003c184     guideXOS.obj
 0003:0000e330       guideXOS_guideXOS_Misc_Panic__DrawExceptionInfo 000000001003c330     guideXOS.obj
 0003:0000eabc       guideXOS_guideXOS_Misc_Panic__DrawRegisters 000000001003cabc     guideXOS.obj
 0003:0000f088       guideXOS_guideXOS_Misc_Panic__DrawStackTrace 000000001003d088     guideXOS.obj
 0003:0000f284       guideXOS_guideXOS_Misc_Panic__DrawSystemInfo 000000001003d284     guideXOS.obj
 0003:0000f578       guideXOS_guideXOS_Misc_Panic__DrawControlRegisters 000000001003d578     guideXOS.obj
 0003:0000f7b0       guideXOS_guideXOS_Misc_Panic__DrawRFlagsBreakdown 000000001003d7b0     guideXOS.obj
 0003:0000fb18       guideXOS_guideXOS_Misc_Panic__DrawSectionHeader 000000001003db18     guideXOS.obj
 0003:0000fb90       guideXOS_guideXOS_Misc_Panic__DrawFooter 000000001003db90     guideXOS.obj
 0003:0000fc20       guideXOS_guideXOS_Misc_Panic__DrawText 000000001003dc20     guideXOS.obj
 0003:0000fc74       guideXOS_guideXOS_Misc_Panic__DrawTextLarge 000000001003dc74     guideXOS.obj
 0003:0000fd0c       guideXOS_guideXOS_Misc_Panic__GetExceptionName 000000001003dd0c     guideXOS.obj
 0003:0000fe64       guideXOS_guideXOS_Misc_PNG__BuildFallback 000000001003de64     guideXOS.obj
 0003:0000fefc       guideXOS_guideXOS_Misc_PNG__HasPngHeader 000000001003defc     guideXOS.obj
 0003:0000ff80       guideXOS_guideXOS_Misc_PNG__TryGetIHDRDims 000000001003df80     guideXOS.obj
 0003:00010044       guideXOS_guideXOS_Misc_PNG___ctor 000000001003e044     guideXOS.obj
 0003:00010318       guideXOS_guideXOS_Misc_PNG__lodepng_decode_memory 000000001003e318     guideXOS.obj
 0003:000103b4       guideXOS_guideXOS_Misc_SchedulerExtensions__EnterUserMode 000000001003e3b4     guideXOS.obj
 0003:0001042c       guideXOS_guideXOS_Misc_SVG__BuildFallback 000000001003e42c     guideXOS.obj
 0003:000104c4       guideXOS_guideXOS_Misc_SVG___ctor 000000001003e4c4     guideXOS.obj
 0003:000106b0       guideXOS_guideXOS_Misc_SVG__RenderSVG 000000001003e6b0     guideXOS.obj
 0003:00010b04       guideXOS_guideXOS_Misc_SVG__GetMinIndex 000000001003eb04     guideXOS.obj
 0003:00010b38       guideXOS_guideXOS_Misc_SVG__FindString 000000001003eb38     guideXOS.obj
 0003:00010bac       guideXOS_guideXOS_Misc_SVG__FindChar 000000001003ebac     guideXOS.obj
 0003:00010be0       guideXOS_guideXOS_Misc_SVG__RenderRectElement 000000001003ebe0     guideXOS.obj
 0003:00010e08       guideXOS_guideXOS_Misc_SVG__RenderCircleElement 000000001003ee08     guideXOS.obj
 0003:00011000       guideXOS_guideXOS_Misc_SVG__RenderEllipseElement 000000001003f000     guideXOS.obj
 0003:00011200       guideXOS_guideXOS_Misc_SVG__RenderPathElement 000000001003f200     guideXOS.obj
 0003:0001165c       guideXOS_guideXOS_Misc_SVG__RenderPolygonElement 000000001003f65c     guideXOS.obj
 0003:00011990       guideXOS_guideXOS_Misc_SVG__RenderPolylineElement 000000001003f990     guideXOS.obj
 0003:00011c44       guideXOS_guideXOS_Misc_SVG__ParseNextNumber 000000001003fc44     guideXOS.obj
 0003:00011d28       guideXOS_guideXOS_Misc_SVG__SplitString 000000001003fd28     guideXOS.obj
 0003:00011ec4       guideXOS_guideXOS_Misc_SVG__DrawLine 000000001003fec4     guideXOS.obj
 0003:00011fcc       guideXOS_guideXOS_Misc_SVG__DrawRectStroke 000000001003ffcc     guideXOS.obj
 0003:000120e8       guideXOS_guideXOS_Misc_SVG__ParseFloatAttr 00000000100400e8     guideXOS.obj
 0003:000121e4       guideXOS_guideXOS_Misc_SVG__ParseSimpleFloat 00000000100401e4     guideXOS.obj
 0003:00012288       guideXOS_guideXOS_Misc_SVG__ParseColorAttr 0000000010040288     guideXOS.obj
 0003:000124e4       guideXOS_guideXOS_Misc_SVG__SetPixel 00000000100404e4     guideXOS.obj
 0003:00012624       guideXOS_guideXOS_Misc_Thread__NewThread 0000000010040624     guideXOS.obj
 0003:000126c8       guideXOS_guideXOS_Misc_Thread__Start 00000000100406c8     guideXOS.obj
 0003:00012778       guideXOS_guideXOS_Misc_Thread__Start_0 0000000010040778     guideXOS.obj
 0003:00012868       guideXOS_guideXOS_Misc_Thread__Sleep 0000000010040868     guideXOS.obj
 0003:00012870       guideXOS_guideXOS_Misc_ThreadPool__Initialize 0000000010040870     guideXOS.obj
 0003:00012a24       guideXOS_guideXOS_Misc_ThreadPool__Terminate 0000000010040a24     guideXOS.obj
 0003:00012ac0       guideXOS_guideXOS_Misc_ThreadPool__IdleThread 0000000010040ac0     guideXOS.obj
 0003:00012b04       guideXOS_guideXOS_Misc_ThreadPool__get_CanLock 0000000010040b04     guideXOS.obj
 0003:00012b20       guideXOS_guideXOS_Misc_ThreadPool__Lock 0000000010040b20     guideXOS.obj
 0003:00012b58       guideXOS_guideXOS_Misc_ThreadPool__UnLock 0000000010040b58     guideXOS.obj
 0003:00012b6c       guideXOS_guideXOS_Misc_ThreadPool__Schedule 0000000010040b6c     guideXOS.obj
 0003:00012edc       guideXOS_guideXOS_Misc_USBDevice___ctor 0000000010040edc     guideXOS.obj
 0003:00012ee0       guideXOS_guideXOS_Misc_USBRequest__Clean 0000000010040ee0     guideXOS.obj
 0003:00012f50       guideXOS_guideXOS_Misc_USB__OnInterrupt 0000000010040f50     guideXOS.obj
 0003:00013068       guideXOS_guideXOS_Misc_USB__DriveDevice 0000000010041068     guideXOS.obj
 0003:00013124       guideXOS_guideXOS_Misc_USB__StartPolling 0000000010041124     guideXOS.obj
 0003:0001315c       guideXOS_guideXOS_Misc_USB__LoopPoll 000000001004115c     guideXOS.obj
 0003:000131b4       guideXOS_guideXOS_Misc_UserModeStub__iret_to_user 00000000100411b4     guideXOS.obj
 0003:000131b4       iret_to_user               00000000100411b4     guideXOS.obj
 0003:000131c0       guideXOS_guideXOS_Misc_VendorID__GetName 00000000100411c0     guideXOS.obj
 0003:0001a610       guideXOS_guideXOS_Misc_WAV__Decode 0000000010048610     guideXOS.obj
 0003:0001a764       guideXOS_guideXOS_Graph_Graphics__FromImage 0000000010048764     guideXOS.obj
 0003:0001a7c8       guideXOS_guideXOS_Graph_Graphics__Update 00000000100487c8     guideXOS.obj
 0003:0001a7cc       guideXOS_guideXOS_Graph_Graphics__Clear 00000000100487cc     guideXOS.obj
 0003:0001a834       guideXOS_guideXOS_Graph_Graphics__Copy 0000000010048834     guideXOS.obj
 0003:0001a8d0       guideXOS_guideXOS_Graph_Graphics__FillRectangle 00000000100488d0     guideXOS.obj
 0003:0001a948       guideXOS_guideXOS_Graph_Graphics__AFillRectangle 0000000010048948     guideXOS.obj
 0003:0001aab4       guideXOS_guideXOS_Graph_Graphics__GetPoint 0000000010048ab4     guideXOS.obj
 0003:0001aae0       guideXOS_guideXOS_Graph_Graphics__DrawPoint 0000000010048ae0     guideXOS.obj
 0003:0001abd0       guideXOS_guideXOS_Graph_Graphics__DrawRectangle 0000000010048bd0     guideXOS.obj
 0003:0001ac8c       guideXOS_guideXOS_Graph_Graphics__Save 0000000010048c8c     guideXOS.obj
 0003:0001ad68       guideXOS_guideXOS_Graph_Graphics__ADrawImage 0000000010048d68     guideXOS.obj
 0003:0001ae18       guideXOS_guideXOS_Graph_Graphics__DrawImage 0000000010048e18     guideXOS.obj
 0003:0001b070       guideXOS_guideXOS_Graph_Graphics__FPartOfNumber 0000000010049070     guideXOS.obj
 0003:0001b0a0       guideXOS_guideXOS_Graph_Graphics__DrawPoint_0 00000000100490a0     guideXOS.obj
 0003:0001b108       guideXOS_guideXOS_Graph_Graphics__DrawLine 0000000010049108     guideXOS.obj
 0003:0001b2e0       guideXOS_guideXOS_Graph_Graphics__BlurRectangle 00000000100492e0     guideXOS.obj
 0003:0001b860       guideXOS_guideXOS_Graph_Graphics__ResetBlurBuffers 0000000010049860     guideXOS.obj
 0003:0001b958       guideXOS_guideXOS_FS_AutoFS___ctor 0000000010049958     guideXOS.obj
 0003:0001bae0       guideXOS_guideXOS_FS_AutoFS___ctor_0 0000000010049ae0     guideXOS.obj
 0003:0001bc68       guideXOS_guideXOS_FS_AutoFS__LooksLikeTar 0000000010049c68     guideXOS.obj
 0003:0001bcac       guideXOS_guideXOS_FS_AutoFS__LooksLikeFat 0000000010049cac     guideXOS.obj
 0003:0001bd3c       guideXOS_guideXOS_FS_AutoFS__LooksLikeExt 0000000010049d3c     guideXOS.obj
 0003:0001bdb8       guideXOS_guideXOS_FS_AutoFS__LooksLikeExt_0 0000000010049db8     guideXOS.obj
 0003:0001bde0       guideXOS_guideXOS_FS_AutoFS__GetFiles 0000000010049de0     guideXOS.obj
 0003:0001bdec       guideXOS_guideXOS_FS_AutoFS__ReadAllBytes 0000000010049dec     guideXOS.obj
 0003:0001bdf8       guideXOS_guideXOS_FS_AutoFS__WriteAllBytes 0000000010049df8     guideXOS.obj
 0003:0001be04       guideXOS_guideXOS_FS_AutoFS__Format 0000000010049e04     guideXOS.obj
 0003:0001be10       guideXOS_guideXOS_FS_EXT2___ctor 0000000010049e10     guideXOS.obj
 0003:0001bfd0       guideXOS_guideXOS_FS_EXT2___ctor_0 0000000010049fd0     guideXOS.obj
 0003:0001c184       guideXOS_guideXOS_FS_EXT2__ReadBytes 000000001004a184     guideXOS.obj
 0003:0001c2b0       guideXOS_guideXOS_FS_EXT2__WriteBytes 000000001004a2b0     guideXOS.obj
 0003:0001c3f0       guideXOS_guideXOS_FS_EXT2__ReadBlock 000000001004a3f0     guideXOS.obj
 0003:0001c490       guideXOS_guideXOS_FS_EXT2__WriteBlock 000000001004a490     guideXOS.obj
 0003:0001c5c8       guideXOS_guideXOS_FS_EXT2__ReadBlockRange 000000001004a5c8     guideXOS.obj
 0003:0001c674       guideXOS_guideXOS_FS_EXT2__ReadU32 000000001004a674     guideXOS.obj
 0003:0001c6dc       guideXOS_guideXOS_FS_EXT2__WriteU16 000000001004a6dc     guideXOS.obj
 0003:0001c710       guideXOS_guideXOS_FS_EXT2__WriteU32 000000001004a710     guideXOS.obj
 0003:0001c770       guideXOS_guideXOS_FS_EXT2__ReadInode 000000001004a770     guideXOS.obj
 0003:0001c884       guideXOS_guideXOS_FS_EXT2__WriteInode 000000001004a884     guideXOS.obj
 0003:0001c95c       guideXOS_guideXOS_FS_EXT2__EnumDirectory 000000001004a95c     guideXOS.obj
 0003:0001cda8       guideXOS_guideXOS_FS_EXT2__ResolvePathToInode 000000001004ada8     guideXOS.obj
 0003:0001cf20       guideXOS_guideXOS_FS_EXT2__StrEq 000000001004af20     guideXOS.obj
 0003:0001cf68       guideXOS_guideXOS_FS_EXT2__GetFiles 000000001004af68     guideXOS.obj
 0003:0001d100       guideXOS_guideXOS_FS_EXT2__ReadAllBytes 000000001004b100     guideXOS.obj
 0003:0001d398       guideXOS_guideXOS_FS_EXT2__WriteAllBytes 000000001004b398     guideXOS.obj
 0003:0001d6fc       guideXOS_guideXOS_FS_EXT2__Format 000000001004b6fc     guideXOS.obj
 0003:0001d70c       guideXOS_guideXOS_FS_FAT___ctor 000000001004b70c     guideXOS.obj
 0003:0001d8a0       guideXOS_guideXOS_FS_FAT___ctor_0 000000001004b8a0     guideXOS.obj
 0003:0001da24       guideXOS_guideXOS_FS_FAT__InvalidateSector 000000001004ba24     guideXOS.obj
 0003:0001da74       guideXOS_guideXOS_FS_FAT__ReadSectorsCached 000000001004ba74     guideXOS.obj
 0003:0001dc58       guideXOS_guideXOS_FS_FAT__WriteSector 000000001004bc58     guideXOS.obj
 0003:0001dcd8       guideXOS_guideXOS_FS_FAT__ReadFatEntry 000000001004bcd8     guideXOS.obj
 0003:0001deb8       guideXOS_guideXOS_FS_FAT__WriteFatEntry 000000001004beb8     guideXOS.obj
 0003:0001e368       guideXOS_guideXOS_FS_FAT__IsEOC 000000001004c368     guideXOS.obj
 0003:0001e3a0       guideXOS_guideXOS_FS_FAT__EOC 000000001004c3a0     guideXOS.obj
 0003:0001e3c0       guideXOS_guideXOS_FS_FAT__GetClusterChain 000000001004c3c0     guideXOS.obj
 0003:0001e46c       guideXOS_guideXOS_FS_FAT__ReadCluster 000000001004c46c     guideXOS.obj
 0003:0001e5b0       guideXOS_guideXOS_FS_FAT__ZeroCluster 000000001004c5b0     guideXOS.obj
 0003:0001e688       guideXOS_guideXOS_FS_FAT__ReadAllClusterChain 000000001004c688     guideXOS.obj
 0003:0001e838       guideXOS_guideXOS_FS_FAT__ComposeShortName 000000001004c838     guideXOS.obj
 0003:0001e8e8       guideXOS_guideXOS_FS_FAT__AssembleLfn 000000001004c8e8     guideXOS.obj
 0003:0001e9d4       guideXOS_guideXOS_FS_FAT__IterateDirectory 000000001004c9d4     guideXOS.obj
 0003:0001eae4       guideXOS_guideXOS_FS_FAT__IterateDirSectorRangeCluster 000000001004cae4     guideXOS.obj
 0003:0001eb94       guideXOS_guideXOS_FS_FAT__IterateDirEntries 000000001004cb94     guideXOS.obj
 0003:0001ed28       guideXOS_guideXOS_FS_FAT__EqualsIgnoreCase 000000001004cd28     guideXOS.obj
 0003:0001ed94       guideXOS_guideXOS_FS_FAT__FindPath 000000001004cd94     guideXOS.obj
 0003:0001f1b0       guideXOS_guideXOS_FS_FAT__FindEntryLoc 000000001004d1b0     guideXOS.obj
 0003:0001f92c       guideXOS_guideXOS_FS_FAT__NextFreeCluster 000000001004d92c     guideXOS.obj
 0003:0001f98c       guideXOS_guideXOS_FS_FAT__AllocateClustersForSize 000000001004d98c     guideXOS.obj
 0003:0001fa9c       guideXOS_guideXOS_FS_FAT__FreeClusterChain 000000001004da9c     guideXOS.obj
 0003:0001fb04       guideXOS_guideXOS_FS_FAT__WriteDataToChain 000000001004db04     guideXOS.obj
 0003:0001fe1c       guideXOS_guideXOS_FS_FAT__WriteDirEntry 000000001004de1c     guideXOS.obj
 0003:0001ffb0       guideXOS_guideXOS_FS_FAT__GenerateShortName 000000001004dfb0     guideXOS.obj
 0003:000201f8       guideXOS_guideXOS_FS_FAT__EnsureDirHasFreeSlot 000000001004e1f8     guideXOS.obj
 0003:000202f4       guideXOS_guideXOS_FS_FAT__GetFiles 000000001004e2f4     guideXOS.obj
 0003:00020428       guideXOS_guideXOS_FS_FAT__ReadAllBytes 000000001004e428     guideXOS.obj
 0003:000204cc       guideXOS_guideXOS_FS_FAT__WriteAllBytes 000000001004e4cc     guideXOS.obj
 0003:00020788       guideXOS_guideXOS_FS_FAT__Format 000000001004e788     guideXOS.obj
 0003:00020798       guideXOS_guideXOS_FS_FATFS___ctor 000000001004e798     guideXOS.obj
 0003:000207f0       guideXOS_guideXOS_FS_FATFS__GetFiles 000000001004e7f0     guideXOS.obj
 0003:0002093c       get_fattime                000000001004e93c     guideXOS.obj
 0003:0002093c       guideXOS_guideXOS_FS_FATFS__get_fattime 000000001004e93c     guideXOS.obj
 0003:000209a8       RAM_disk_write             000000001004e9a8     guideXOS.obj
 0003:000209a8       guideXOS_guideXOS_FS_FATFS__RAM_disk_write 000000001004e9a8     guideXOS.obj
 0003:000209dc       RAM_disk_read              000000001004e9dc     guideXOS.obj
 0003:000209dc       guideXOS_guideXOS_FS_FATFS__RAM_disk_read 000000001004e9dc     guideXOS.obj
 0003:00020a10       guideXOS_guideXOS_FS_FATFS__read_all_bytes 000000001004ea10     guideXOS.obj
 0003:00020a70       guideXOS_guideXOS_FS_FATFS__Format 000000001004ea70     guideXOS.obj
 0003:00020ab4       guideXOS_guideXOS_FS_FATFS__ReadAllBytes 000000001004eab4     guideXOS.obj
 0003:00020ba0       guideXOS_guideXOS_FS_FATFS__WriteAllBytes 000000001004eba0     guideXOS.obj
 0003:00020c58       guideXOS_guideXOS_FS_FileInfo__Dispose 000000001004ec58     guideXOS.obj
 0003:00020ce0       guideXOS_guideXOS_FS_FileInfo___ctor 000000001004ece0     guideXOS.obj
 0003:00020ce4       guideXOS_guideXOS_FS_File__Exists 000000001004ece4     guideXOS.obj
 0003:00020d94       guideXOS_guideXOS_FS_FileSystem__SizeToSec 000000001004ed94     guideXOS.obj
 0003:00020db4       guideXOS_guideXOS_FS_FileSystem__IsInDirectory 000000001004edb4     guideXOS.obj
 0003:00020e18       guideXOS_guideXOS_FS_TarFS___ctor_0 000000001004ee18     guideXOS.obj
 0003:00020e4c       guideXOS_guideXOS_FS_TarFS__GetFiles 000000001004ee4c     guideXOS.obj
 0003:000210d8       guideXOS_guideXOS_FS_TarFS__ReadAllBytes 000000001004f0d8     guideXOS.obj
 0003:000213f8       guideXOS_guideXOS_FS_TarFS__WriteAllBytes 000000001004f3f8     guideXOS.obj
 0003:000213fc       guideXOS_guideXOS_FS_TarFS__Format 000000001004f3fc     guideXOS.obj
 0003:00021400       _putchar                   000000001004f400     guideXOS.obj
 0003:00021400       guideXOS_guideXOS_Kernel_Libraries_stdio___putchar 000000001004f400     guideXOS.obj
 0003:00021414       fopen                      000000001004f414     guideXOS.obj
 0003:00021414       guideXOS_guideXOS_Kernel_Libraries_stdio__fopen 000000001004f414     guideXOS.obj
 0003:000215b4       fseek                      000000001004f5b4     guideXOS.obj
 0003:000215b4       guideXOS_guideXOS_Kernel_Libraries_stdio__fseek 000000001004f5b4     guideXOS.obj
 0003:000215cc       fread                      000000001004f5cc     guideXOS.obj
 0003:000215cc       guideXOS_guideXOS_Kernel_Libraries_stdio__fread 000000001004f5cc     guideXOS.obj
 0003:00021630       guideXOS_guideXOS_Kernel_Libraries_stdlib__malloc 000000001004f630     guideXOS.obj
 0003:00021630       malloc                     000000001004f630     guideXOS.obj
 0003:00021644       free                       000000001004f644     guideXOS.obj
 0003:00021644       guideXOS_guideXOS_Kernel_Libraries_stdlib__free 000000001004f644     guideXOS.obj
 0003:00021654       guideXOS_guideXOS_Kernel_Libraries_stdlib__realloc 000000001004f654     guideXOS.obj
 0003:00021654       realloc                    000000001004f654     guideXOS.obj
 0003:00021664       calloc                     000000001004f664     guideXOS.obj
 0003:00021664       guideXOS_guideXOS_Kernel_Libraries_stdlib__calloc 000000001004f664     guideXOS.obj
 0003:000216dc       guideXOS_guideXOS_Kernel_Libraries_stdlib__kmalloc 000000001004f6dc     guideXOS.obj
 0003:000216dc       kmalloc                    000000001004f6dc     guideXOS.obj
 0003:000216f0       guideXOS_guideXOS_Kernel_Libraries_stdlib__kfree 000000001004f6f0     guideXOS.obj
 0003:000216f0       kfree                      000000001004f6f0     guideXOS.obj
 0003:00021700       guideXOS_guideXOS_Kernel_Libraries_stdlib__krealloc 000000001004f700     guideXOS.obj
 0003:00021700       krealloc                   000000001004f700     guideXOS.obj
 0003:00021710       guideXOS_guideXOS_Kernel_Libraries_stdlib__kcalloc 000000001004f710     guideXOS.obj
 0003:00021710       kcalloc                    000000001004f710     guideXOS.obj
 0003:00021788       guideXOS_guideXOS_Kernel_Drivers_AC97__Initialize 000000001004f788     guideXOS.obj
 0003:00021abc       guideXOS_guideXOS_Kernel_Drivers_AC97__OnInterrupt 000000001004fabc     guideXOS.obj
 0003:00021bf8       guideXOS_guideXOS_Kernel_Drivers_ACPI__GetRSDP 000000001004fbf8     guideXOS.obj
 0003:00021c20       guideXOS_guideXOS_Kernel_Drivers_ACPI__Shutdown 000000001004fc20     guideXOS.obj
 0003:00021cdc       guideXOS_guideXOS_Kernel_Drivers_ACPI__Initialize 000000001004fcdc     guideXOS.obj
 0003:00021dac       guideXOS_guideXOS_Kernel_Drivers_ACPI__ParseDT 000000001004fdac     guideXOS.obj
 0003:00021f7c       guideXOS_guideXOS_Kernel_Drivers_ACPI__RemapIRQ 000000001004ff7c     guideXOS.obj
 0003:00021fd4       guideXOS_guideXOS_Kernel_Drivers_ACPITimer__Sleep 000000001004ffd4     guideXOS.obj
 0003:000220b8       guideXOS_guideXOS_Kernel_Drivers_ACPITimer__SleepMicroseconds 00000000100500b8     guideXOS.obj
 0003:000221dc       guideXOS_guideXOS_Kernel_Drivers_Resolution__ToString 00000000100501dc     guideXOS.obj
 0003:00022250       guideXOS_guideXOS_Kernel_Drivers_DisplayManager__EnsureSvga 0000000010050250     guideXOS.obj
 0003:0002232c       guideXOS_guideXOS_Kernel_Drivers_DisplayManager__TrySetResolution 000000001005032c     guideXOS.obj
 0003:0002241c       guideXOS_guideXOS_Kernel_Drivers_DisplayManager__ToASCII 000000001005041c     guideXOS.obj
 0003:00022460       guideXOS_guideXOS_Kernel_Drivers_DisplayManager__SaveResolution 0000000010050460     guideXOS.obj
 0003:00022510       guideXOS_guideXOS_Kernel_Drivers_DisplayManager__TryLoadSaved 0000000010050510     guideXOS.obj
 0003:0002262c       guideXOS_guideXOS_Kernel_Drivers_DisplayManager__ApplySavedResolution 000000001005062c     guideXOS.obj
 0003:00022678       guideXOS_guideXOS_Kernel_Drivers_EHCI__Initialize 0000000010050678     guideXOS.obj
 0003:00022a8c       guideXOS_guideXOS_Kernel_Drivers_EHCI__SendAndReceive 0000000010050a8c     guideXOS.obj
 0003:00022d7c       guideXOS_guideXOS_Kernel_Drivers_EHCI__SetDeviceAddr 0000000010050d7c     guideXOS.obj
 0003:00023000       guideXOS_guideXOS_Kernel_Drivers_EHCI__WaitForComplete 0000000010051000     guideXOS.obj
 0003:000230a8       guideXOS_guideXOS_Kernel_Drivers_EHCI__GetDesc 00000000100510a8     guideXOS.obj
 0003:000233c4       guideXOS_guideXOS_Kernel_Drivers_EHCI__GetConfig 00000000100513c4     guideXOS.obj
 0003:00023750       guideXOS_guideXOS_Kernel_Drivers_EHCI__SetConfig 0000000010051750     guideXOS.obj
 0003:000239e8       guideXOS_guideXOS_Kernel_Drivers_EHCI__BulkTransfer 00000000100519e8     guideXOS.obj
 0003:00023c78       guideXOS_guideXOS_Kernel_Drivers_EHCI__InitPort 0000000010051c78     guideXOS.obj
 0003:00024268       guideXOS_guideXOS_Kernel_Drivers_EHCI__ScanPorts 0000000010052268     guideXOS.obj
 0003:00024340       guideXOS_guideXOS_Kernel_Drivers_ES1371__Initialize 0000000010052340     guideXOS.obj
 0003:000245cc       guideXOS_guideXOS_Kernel_Drivers_ES1371__OnInterrupt 00000000100525cc     guideXOS.obj
 0003:000246d4       guideXOS_guideXOS_Kernel_Drivers_Framebuffer__set_TripleBuffered 00000000100526d4     guideXOS.obj
 0003:00024758       guideXOS_guideXOS_Kernel_Drivers_Framebuffer__Update 0000000010052758     guideXOS.obj
 0003:00024828       guideXOS_guideXOS_Kernel_Drivers_Framebuffer__Initialize 0000000010052828     guideXOS.obj
 0003:00024964       guideXOS_guideXOS_Kernel_Drivers_HID__Initialize 0000000010052964     guideXOS.obj
 0003:00024998       guideXOS_guideXOS_Kernel_Drivers_HID__GetHIDPacket 0000000010052998     guideXOS.obj
 0003:00024a18       guideXOS_guideXOS_Kernel_Drivers_HID__GetKeyboard 0000000010052a18     guideXOS.obj
 0003:00024ab0       guideXOS_guideXOS_Kernel_Drivers_HID__GetMouse 0000000010052ab0     guideXOS.obj
 0003:00024b4c       guideXOS_guideXOS_Kernel_Drivers_HID__Initialize_0 0000000010052b4c     guideXOS.obj
 0003:00024b98       guideXOS_guideXOS_Kernel_Drivers_HID__InitializeMouse 0000000010052b98     guideXOS.obj
 0003:00024c14       guideXOS_guideXOS_Kernel_Drivers_HID__InitializeKeyboard 0000000010052c14     guideXOS.obj
 0003:00024fd0       guideXOS_guideXOS_Kernel_Drivers_HPET__Initialize 0000000010052fd0     guideXOS.obj
 0003:00025040       guideXOS_guideXOS_Kernel_Drivers_HPET__WriteRegister 0000000010053040     guideXOS.obj
 0003:00025064       guideXOS_guideXOS_Kernel_Drivers_HPET__ReadRegister 0000000010053064     guideXOS.obj
 0003:00025084       guideXOS_guideXOS_Kernel_Drivers_Hub__Initialize 0000000010053084     guideXOS.obj
 0003:000250a8       guideXOS_guideXOS_Kernel_Drivers_Hub__Initialize_0 00000000100530a8     guideXOS.obj
 0003:000256e0       guideXOS_guideXOS_Kernel_Drivers_IDE__Initialize 00000000100536e0     guideXOS.obj
 0003:00025744       guideXOS_guideXOS_Kernel_Drivers_IDE__ScanPorts 0000000010053744     guideXOS.obj
 0003:00025d70       guideXOS_guideXOS_Kernel_Drivers_IDE___ScanPorts_g__WaitForIdentifyData_3_2 0000000010053d70     guideXOS.obj
 0003:00025ddc       guideXOS_guideXOS_Kernel_Drivers_IDEDevice__ReadOrWrite 0000000010053ddc     guideXOS.obj
 0003:000260a0       guideXOS_guideXOS_Kernel_Drivers_IDEDevice__WaitForReadyStatus 00000000100540a0     guideXOS.obj
 0003:00026104       guideXOS_guideXOS_Kernel_Drivers_IDEDevice__Read 0000000010054104     guideXOS.obj
 0003:00026164       guideXOS_guideXOS_Kernel_Drivers_IDEDevice__Write 0000000010054164     guideXOS.obj
 0003:000261c8       guideXOS_guideXOS_Kernel_Drivers_IDEDevice___ctor 00000000100541c8     guideXOS.obj
 0003:000261e8       guideXOS_guideXOS_Kernel_Drivers_IOAPIC__Initialize 00000000100541e8     guideXOS.obj
 0003:00026250       guideXOS_guideXOS_Kernel_Drivers_IOAPIC__In 0000000010054250     guideXOS.obj
 0003:0002627c       guideXOS_guideXOS_Kernel_Drivers_IOAPIC__Out 000000001005427c     guideXOS.obj
 0003:000262ac       guideXOS_guideXOS_Kernel_Drivers_IOAPIC__SetEntry 00000000100542ac     guideXOS.obj
 0003:000262e0       guideXOS_guideXOS_Kernel_Drivers_IOAPIC__SetEntry_0 00000000100542e0     guideXOS.obj
 0003:00026300       guideXOS_guideXOS_Kernel_Drivers_Keyboard__InvokeOnKeyChanged 0000000010054300     guideXOS.obj
 0003:00026330       guideXOS_guideXOS_Kernel_Drivers_Keyboard__SimulateKey 0000000010054330     guideXOS.obj
 0003:000263d8       guideXOS_guideXOS_Kernel_Drivers_Keyboard__CleanKeyInfo 00000000100543d8     guideXOS.obj
 0003:00026404       guideXOS_guideXOS_Kernel_Drivers_LocalAPIC__ReadRegister 0000000010054404     guideXOS.obj
 0003:00026424       guideXOS_guideXOS_Kernel_Drivers_LocalAPIC__Initialize 0000000010054424     guideXOS.obj
 0003:00026450       guideXOS_guideXOS_Kernel_Drivers_LocalAPIC__SendIPI 0000000010054450     guideXOS.obj
 0003:000264a0       guideXOS_guideXOS_Kernel_Drivers_LocalAPICTimer__StartTimer 00000000100544a0     guideXOS.obj
 0003:0002650c       guideXOS_guideXOS_Kernel_Drivers_LocalAPICTimer__EstimateBusSpeed 000000001005450c     guideXOS.obj
 0003:000265c0       guideXOS_guideXOS_Kernel_Drivers_PCIDevice__WriteRegister 00000000100545c0     guideXOS.obj
 0003:0002662c       guideXOS_guideXOS_Kernel_Drivers_PCIDevice___ctor 000000001005462c     guideXOS.obj
 0003:00026630       guideXOS_guideXOS_Kernel_Drivers_PCI__GetDevice 0000000010054630     guideXOS.obj
 0003:000266a0       guideXOS_guideXOS_Kernel_Drivers_PCI__GetDevice_0 00000000100546a0     guideXOS.obj
 0003:00026724       guideXOS_guideXOS_Kernel_Drivers_PCI__Initialise 0000000010054724     guideXOS.obj
 0003:000267bc       guideXOS_guideXOS_Kernel_Drivers_PCI__CheckBus 00000000100547bc     guideXOS.obj
 0003:00026cf8       guideXOS_guideXOS_Kernel_Drivers_PCI__WriteRegister32 0000000010054cf8     guideXOS.obj
 0003:00026d94       guideXOS_guideXOS_Kernel_Drivers_PCI__ReadRegister32 0000000010054d94     guideXOS.obj
 0003:00026e2c       guideXOS_guideXOS_Kernel_Drivers_PCI__ReadRegister16 0000000010054e2c     guideXOS.obj
 0003:00026ed4       guideXOS_guideXOS_Kernel_Drivers_PCI__ReadRegister8 0000000010054ed4     guideXOS.obj
 0003:00026f7c       guideXOS_guideXOS_Kernel_Drivers_PCI__WriteRegister16 0000000010054f7c     guideXOS.obj
 0003:0002701c       guideXOS_guideXOS_Kernel_Drivers_PCI__GetVendorID 000000001005501c     guideXOS.obj
 0003:000270a8       guideXOS_guideXOS_Kernel_Drivers_PCI__GetHeaderType 00000000100550a8     guideXOS.obj
 0003:0002713c       guideXOS_guideXOS_Kernel_Drivers_PCI__GetAddressBase 000000001005513c     guideXOS.obj
 0003:0002715c       guideXOS_guideXOS_Kernel_Drivers_PCIExpress__Initialize 000000001005515c     guideXOS.obj
 0003:000271f4       guideXOS_guideXOS_Kernel_Drivers_PCIExpress__CheckBus 00000000100551f4     guideXOS.obj
 0003:000274c8       guideXOS_guideXOS_Kernel_Drivers_PIC__Disable 00000000100554c8     guideXOS.obj
 0003:000276b4       guideXOS_guideXOS_Kernel_Drivers_Power__Reboot 00000000100556b4     guideXOS.obj
 0003:00027750       guideXOS_guideXOS_Kernel_Drivers_PS2Keyboard__Initialize 0000000010055750     guideXOS.obj
 0003:00027838       guideXOS_guideXOS_Kernel_Drivers_PS2Keyboard__OnInterrupt 0000000010055838     guideXOS.obj
 0003:00027a10       guideXOS_guideXOS_Kernel_Drivers_PS2Keyboard__TranslateSet2ToSet1 0000000010055a10     guideXOS.obj
 0003:00027de8       guideXOS_guideXOS_Kernel_Drivers_PS2Keyboard__UpdateModifiers 0000000010055de8     guideXOS.obj
 0003:00027ed4       guideXOS_guideXOS_Kernel_Drivers_PS2Keyboard__ScancodeToKey 0000000010055ed4     guideXOS.obj
 0003:000282d0       guideXOS_guideXOS_Kernel_Drivers_PS2Keyboard__GetChar 00000000100562d0     guideXOS.obj
 0003:00028830       guideXOS_guideXOS_Kernel_Drivers_PS2Mouse__Initialise 0000000010056830     guideXOS.obj
 0003:00028ad0       guideXOS_guideXOS_Kernel_Drivers_PS2Mouse__WriteRegister 0000000010056ad0     guideXOS.obj
 0003:00028bbc       guideXOS_guideXOS_Kernel_Drivers_PS2Mouse__OnInterrupt 0000000010056bbc     guideXOS.obj
 0003:00028de0       guideXOS_guideXOS_Kernel_Drivers_Ramdisk__Read 0000000010056de0     guideXOS.obj
 0003:00028e4c       guideXOS_guideXOS_Kernel_Drivers_Ramdisk__Write 0000000010056e4c     guideXOS.obj
 0003:00028ebc       guideXOS_guideXOS_Kernel_Drivers_RTC__get_Second 0000000010056ebc     guideXOS.obj
 0003:00028f54       guideXOS_guideXOS_Kernel_Drivers_RTC__get_Minute 0000000010056f54     guideXOS.obj
 0003:00028ff0       guideXOS_guideXOS_Kernel_Drivers_RTC__get_Hour 0000000010056ff0     guideXOS.obj
 0003:000290a4       guideXOS_guideXOS_Kernel_Drivers_RTC__get_Century 00000000100570a4     guideXOS.obj
 0003:00029140       guideXOS_guideXOS_Kernel_Drivers_RTC__get_Year 0000000010057140     guideXOS.obj
 0003:000291dc       guideXOS_guideXOS_Kernel_Drivers_RTC__get_Month 00000000100571dc     guideXOS.obj
 0003:00029278       guideXOS_guideXOS_Kernel_Drivers_RTC__get_Day 0000000010057278     guideXOS.obj
 0003:00029314       guideXOS_guideXOS_Kernel_Drivers_SATA__Initialize 0000000010057314     guideXOS.obj
 0003:000296f4       guideXOS_guideXOS_Kernel_Drivers_SATA__CheckPortType 00000000100576f4     guideXOS.obj
 0003:00029750       guideXOS_guideXOS_Kernel_Drivers_Serial__Initialise 0000000010057750     guideXOS.obj
 0003:000298b0       guideXOS_guideXOS_Kernel_Drivers_Serial__Write_0 00000000100578b0     guideXOS.obj
 0003:00029938       guideXOS_guideXOS_Kernel_Drivers_SMBIOS__Initialise 0000000010057938     guideXOS.obj
 0003:00029a24       guideXOS_guideXOS_Kernel_Drivers_SMBIOS__PrintIndex 0000000010057a24     guideXOS.obj
 0003:00029a84       guideXOS_guideXOS_Kernel_Drivers_Timer__Initialize 0000000010057a84     guideXOS.obj
 0003:00029b5c       guideXOS_guideXOS_Kernel_Drivers_Timer__EstimateCPUSpeed 0000000010057b5c     guideXOS.obj
 0003:00029be0       guideXOS_guideXOS_Kernel_Drivers_Timer__OnInterrupt 0000000010057be0     guideXOS.obj
 0003:00029c24       guideXOS_guideXOS_Kernel_Drivers_Timer__Sleep 0000000010057c24     guideXOS.obj
 0003:00029c8c       guideXOS_guideXOS_Kernel_Drivers_USBMSCBot__TryCreateDisk 0000000010057c8c     guideXOS.obj
 0003:00029d74       guideXOS_guideXOS_Kernel_Drivers_VMWareSVGAII___ctor 0000000010057d74     guideXOS.obj
 0003:00029f10       guideXOS_guideXOS_Kernel_Drivers_VMWareSVGAII__InitializeFIFO 0000000010057f10     guideXOS.obj
 0003:0002a080       guideXOS_guideXOS_Kernel_Drivers_VMWareSVGAII__SetMode 0000000010058080     guideXOS.obj
 0003:0002a2a8       guideXOS_guideXOS_Kernel_Drivers_VMwareTools__Initialize 00000000100582a8     guideXOS.obj
 0003:0002a2f0       guideXOS_guideXOS_Kernel_Drivers_VMwareTools__vmware_handle_mouse 00000000100582f0     guideXOS.obj
 0003:0002a44c       guideXOS_guideXOS_Kernel_Drivers_VMwareTools__mouse_absolute 000000001005844c     guideXOS.obj
 0003:0002a544       guideXOS_guideXOS_Kernel_Drivers_VMwareTools__is_vmware_backdoor 0000000010058544     guideXOS.obj
 0003:0002a5c8       guideXOS_guideXOS_Kernel_Drivers_USBStorage__Register 00000000100585c8     guideXOS.obj
 0003:0002a628       guideXOS_guideXOS_Kernel_Drivers_USBStorage__GetFirst 0000000010058628     guideXOS.obj
 0003:0002a65c       guideXOS_guideXOS_Kernel_Drivers_USBStorage___cctor 000000001005865c     guideXOS.obj
 0003:0002a6a8       guideXOS_guideXOS_OS_AppCollection___ctor 00000000100586a8     guideXOS.obj
 0003:0002a6f8       guideXOS_guideXOS_OS_AppCollection__LoadDefaultApps 00000000100586f8     guideXOS.obj
 0003:0002aba4       guideXOS_guideXOS_OS_AppCollection__Load 0000000010058ba4     guideXOS.obj
 0003:0002b6d8       guideXOS_guideXOS_OS_AppCollection__LaunchGXMFromFile 00000000100596d8     guideXOS.obj
 0003:0002b7e8       guideXOS_guideXOS_OS_AuthClient__JsonEscape 00000000100597e8     guideXOS.obj
 0003:0002b9cc       guideXOS_guideXOS_OS_AuthClient__ParseGuidFromJson 00000000100599cc     guideXOS.obj
 0003:0002ba80       guideXOS_guideXOS_OS_AuthClient__IndexOfIgnoreCase 0000000010059a80     guideXOS.obj
 0003:0002bb0c       guideXOS_guideXOS_OS_AuthClient__IndexOfFrom 0000000010059b0c     guideXOS.obj
 0003:0002bb40       guideXOS_guideXOS_OS_AuthClient__TryLogin 0000000010059b40     guideXOS.obj
 0003:0002bc80       guideXOS_guideXOS_OS_AuthClient__TryRegister 0000000010059c80     guideXOS.obj
 0003:0002bdd0       guideXOS_guideXOS_OS_Firewall__ListHas 0000000010059dd0     guideXOS.obj
 0003:0002be28       guideXOS_guideXOS_OS_Firewall__Initialize 0000000010059e28     guideXOS.obj
 0003:0002be88       guideXOS_guideXOS_OS_Firewall__get_Exceptions 0000000010059e88     guideXOS.obj
 0003:0002bef0       guideXOS_guideXOS_OS_Firewall__AddException 0000000010059ef0     guideXOS.obj
 0003:0002bf48       guideXOS_guideXOS_OS_Firewall__Check 0000000010059f48     guideXOS.obj
 0003:0002bfbc       guideXOS_guideXOS_OS_Firewall__QueueAlert 0000000010059fbc     guideXOS.obj
 0003:0002c04c       guideXOS_guideXOS_OS_Firewall__ShowAlert 000000001005a04c     guideXOS.obj
 0003:0002c094       guideXOS_guideXOS_OS_Firewall__RemoveAlert 000000001005a094     guideXOS.obj
 0003:0002c110       guideXOS_guideXOS_OS_Firewall___cctor 000000001005a110     guideXOS.obj
 0003:0002c1a0       guideXOS_guideXOS_Modules_ModuleManager__Register 000000001005a1a0     guideXOS.obj
 0003:0002c250       guideXOS_guideXOS_Modules_ModuleManager__InitializeBuiltins 000000001005a250     guideXOS.obj
 0003:0002c2a8       guideXOS_guideXOS_Modules_ModuleManager___cctor 000000001005a2a8     guideXOS.obj
 0003:0002c2f4       guideXOS_guideXOS_GUI_BackgroundRotationManager__Initialize 000000001005a2f4     guideXOS.obj
 0003:0002c4d8       guideXOS_guideXOS_GUI_BackgroundRotationManager__LoadBackgroundPaths 000000001005a4d8     guideXOS.obj
 0003:0002c780       guideXOS_guideXOS_GUI_BackgroundRotationManager__Update 000000001005a780     guideXOS.obj
 0003:0002c824       guideXOS_guideXOS_GUI_BackgroundRotationManager__RotateToNext 000000001005a824     guideXOS.obj
 0003:0002c9cc       guideXOS_guideXOS_GUI_BackgroundRotationManager__StartFadeTransition 000000001005a9cc     guideXOS.obj
 0003:0002ca08       guideXOS_guideXOS_GUI_BackgroundRotationManager__DrawBackground 000000001005aa08     guideXOS.obj
 0003:0002ca74       guideXOS_guideXOS_GUI_Busy__Pop 000000001005aa74     guideXOS.obj
 0003:0002ca8c       guideXOS_guideXOS_GUI_Desktop__Initialize 000000001005aa8c     guideXOS.obj
 0003:0002cc3c       guideXOS_guideXOS_GUI_Desktop__ClearDirCache 000000001005ac3c     guideXOS.obj
 0003:0002cd38       guideXOS_guideXOS_GUI_Desktop__GetDirectoryEntries 000000001005ad38     guideXOS.obj
 0003:0002cdcc       guideXOS_guideXOS_GUI_Desktop__IsMouseOverAnyVisibleWindow 000000001005adcc     guideXOS.obj
 0003:0002ce34       guideXOS_guideXOS_GUI_Desktop__SetIconSize 000000001005ae34     guideXOS.obj
 0003:0002ce6c       guideXOS_guideXOS_GUI_Desktop__Update 000000001005ae6c     guideXOS.obj
 0003:0002dd38       guideXOS_guideXOS_GUI_Desktop__ClickEvent 000000001005bd38     guideXOS.obj
 0003:0002dec8       guideXOS_guideXOS_GUI_Desktop__OnClick 000000001005bec8     guideXOS.obj
 0003:0002e830       guideXOS_guideXOS_GUI_DisplayOptions___ctor 000000001005c830     guideXOS.obj
 0003:0002ebec       guideXOS_guideXOS_GUI_DisplayOptions__LoadBackgrounds 000000001005cbec     guideXOS.obj
 0003:0002f2a0       guideXOS_guideXOS_GUI_DisplayOptions__LoadFonts 000000001005d2a0     guideXOS.obj
 0003:0002f4ac       guideXOS_guideXOS_GUI_DisplayOptions__OnInput 000000001005d4ac     guideXOS.obj
 0003:0003059c       guideXOS_guideXOS_GUI_DisplayOptions__RevertResolution 000000001005e59c     guideXOS.obj
 0003:0003064c       guideXOS_guideXOS_GUI_DisplayOptions__ApplyGradient 000000001005e64c     guideXOS.obj
 0003:00030868       guideXOS_guideXOS_GUI_DisplayOptions__CreateGradient 000000001005e868     guideXOS.obj
 0003:00030b50       guideXOS_guideXOS_GUI_DisplayOptions__DrawGradientPreview 000000001005eb50     guideXOS.obj
 0003:00030fc0       guideXOS_guideXOS_GUI_DisplayOptions__ApplyFont 000000001005efc0     guideXOS.obj
 0003:00031188       guideXOS_guideXOS_GUI_DisplayOptions__OnDraw 000000001005f188     guideXOS.obj
 0003:00032e28       guideXOS_guideXOS_GUI_DisplayOptions__Dispose 0000000010060e28     guideXOS.obj
 0003:00032fb0       guideXOS_guideXOS_GUI_ColorPicker__OnInput 0000000010060fb0     guideXOS.obj
 0003:00033098       guideXOS_guideXOS_GUI_ColorPicker__OnDraw 0000000010061098     guideXOS.obj
 0003:00033168       guideXOS_guideXOS_GUI_ColorPicker__SampleColor 0000000010061168     guideXOS.obj
 0003:000331b8       guideXOS_guideXOS_GUI_DockableWidget__HandleDragging 00000000100611b8     guideXOS.obj
 0003:00033384       guideXOS_guideXOS_GUI_DockableWidget__CheckForDocking 0000000010061384     guideXOS.obj
 0003:00033484       guideXOS_guideXOS_GUI_DockableWidget__IsNearWidget 0000000010061484     guideXOS.obj
 0003:000334e8       guideXOS_guideXOS_GUI_DockableWidget__CreateContainerWith 00000000100614e8     guideXOS.obj
 0003:0003357c       guideXOS_guideXOS_GUI_DockableWidget__UndockFromContainer 000000001006157c     guideXOS.obj
 0003:000335d8       guideXOS_guideXOS_GUI_DockableWidget__DrawCloseButton 00000000100615d8     guideXOS.obj
 0003:000336e8       guideXOS_guideXOS_GUI_GXMScriptWindow___ctor 00000000100616e8     guideXOS.obj
 0003:00033904       guideXOS_guideXOS_GUI_GXMScriptWindow__AddTextBox 0000000010061904     guideXOS.obj
 0003:000339c0       guideXOS_guideXOS_GUI_GXMScriptWindow__AddList 00000000100619c0     guideXOS.obj
 0003:00033afc       guideXOS_guideXOS_GUI_GXMScriptWindow__AddDropdown 0000000010061afc     guideXOS.obj
 0003:00033c38       guideXOS_guideXOS_GUI_GXMScriptWindow__AddOnClick 0000000010061c38     guideXOS.obj
 0003:00033cbc       guideXOS_guideXOS_GUI_GXMScriptWindow__AddOnChange 0000000010061cbc     guideXOS.obj
 0003:00033d40       guideXOS_guideXOS_GUI_GXMScriptWindow__AddOnTextChange 0000000010061d40     guideXOS.obj
 0003:00033dc4       guideXOS_guideXOS_GUI_GXMScriptWindow__Keyboard_OnKeyChanged 0000000010061dc4     guideXOS.obj
 0003:00033fb4       guideXOS_guideXOS_GUI_GXMScriptWindow__MapFromKey 0000000010061fb4     guideXOS.obj
 0003:00034214       guideXOS_guideXOS_GUI_GXMScriptWindow__OnInput 0000000010062214     guideXOS.obj
 0003:00034610       guideXOS_guideXOS_GUI_GXMScriptWindow__RunActions 0000000010062610     guideXOS.obj
 0003:000346ec       guideXOS_guideXOS_GUI_GXMScriptWindow__ExecuteAction 00000000100626ec     guideXOS.obj
 0003:000349c4       guideXOS_guideXOS_GUI_GXMScriptWindow__ExecuteTextAction 00000000100629c4     guideXOS.obj
 0003:00034a70       guideXOS_guideXOS_GUI_GXMScriptWindow__ReplaceToken 0000000010062a70     guideXOS.obj
 0003:00034b80       guideXOS_guideXOS_GUI_GXMScriptWindow__IndexOf 0000000010062b80     guideXOS.obj
 0003:00034bf0       guideXOS_guideXOS_GUI_GXMScriptWindow__SaveFileAction 0000000010062bf0     guideXOS.obj
 0003:00034f8c       guideXOS_guideXOS_GUI_GXMScriptWindow__LoadFileAction 0000000010062f8c     guideXOS.obj
 0003:000355e4       guideXOS_guideXOS_GUI_GXMScriptWindow__SaveTextFromTextBox 00000000100635e4     guideXOS.obj
 0003:00035820       guideXOS_guideXOS_GUI_GXMScriptWindow__LoadTextIntoTextBox 0000000010063820     guideXOS.obj
 0003:00035ae0       guideXOS_guideXOS_GUI_GXMScriptWindow__OpenSaveDialogForTextBox 0000000010063ae0     guideXOS.obj
 0003:00035bd8       guideXOS_guideXOS_GUI_GXMScriptWindow__OpenOpenDialogForTextBox 0000000010063bd8     guideXOS.obj
 0003:00035ca4       guideXOS_guideXOS_GUI_GXMScriptWindow__LoadAndExecuteScript 0000000010063ca4     guideXOS.obj
 0003:0003616c       guideXOS_guideXOS_GUI_GXMScriptWindow__Notify 000000001006416c     guideXOS.obj
 0003:00036240       guideXOS_guideXOS_GUI_GXMScriptWindow__OnDraw 0000000010064240     guideXOS.obj
 0003:000369a8       guideXOS_guideXOS_GUI_GXMScriptWindow__Dispose 00000000100649a8     guideXOS.obj
 0003:000373a8       guideXOS_guideXOS_GUI_GXMScriptWindow___OpenSaveDialogForTextBox_b__39_0 00000000100653a8     guideXOS.obj
 0003:000375cc       guideXOS_guideXOS_GUI_GXMScriptWindow___OpenOpenDialogForTextBox_b__40_0 00000000100655cc     guideXOS.obj
 0003:00037820       guideXOS_guideXOS_GUI_IconsPrivate___ctor 0000000010065820     guideXOS.obj
 0003:000384e0       guideXOS_guideXOS_GUI_IconsPrivate__LoadIcon 00000000100664e0     guideXOS.obj
 0003:00038604       guideXOS_guideXOS_GUI_Icons__ConfigureIcon 0000000010066604     guideXOS.obj
 0003:00038698       guideXOS_guideXOS_GUI_Icons__NotepadIcon 0000000010066698     guideXOS.obj
 0003:0003871c       guideXOS_guideXOS_GUI_Icons__ApplicationsIcon 000000001006671c     guideXOS.obj
 0003:000387b0       guideXOS_guideXOS_GUI_Icons__EditIcon 00000000100667b0     guideXOS.obj
 0003:00038834       guideXOS_guideXOS_GUI_Icons__AudioPauseIcon 0000000010066834     guideXOS.obj
 0003:000388b8       guideXOS_guideXOS_GUI_Icons__CalculatorIcon 00000000100668b8     guideXOS.obj
 0003:0003893c       guideXOS_guideXOS_GUI_Icons__AudioPlayIcon 000000001006693c     guideXOS.obj
 0003:000389c0       guideXOS_guideXOS_GUI_Icons__DocumentIcon 00000000100669c0     guideXOS.obj
 0003:00038a44       guideXOS_guideXOS_GUI_Icons__ImageIcon 0000000010066a44     guideXOS.obj
 0003:00038ac8       guideXOS_guideXOS_GUI_Icons__AudioIcon 0000000010066ac8     guideXOS.obj
 0003:00038b4c       guideXOS_guideXOS_GUI_Icons__FolderIcon 0000000010066b4c     guideXOS.obj
 0003:00038bd0       guideXOS_guideXOS_GUI_Icons__TaskbarIcon 0000000010066bd0     guideXOS.obj
 0003:00038c54       guideXOS_guideXOS_GUI_Icons__TaskbarIconOver 0000000010066c54     guideXOS.obj
 0003:00038cd8       guideXOS_guideXOS_GUI_Icons__TaskbarIconDown 0000000010066cd8     guideXOS.obj
 0003:00038d5c       guideXOS_guideXOS_GUI_Icons___cctor 0000000010066d5c     guideXOS.obj
 0003:00038e54       guideXOS_guideXOS_GUI_Lockscreen__Run 0000000010066e54     guideXOS.obj
 0003:000391b4       guideXOS_guideXOS_GUI_Lockscreen__DrawLockscreenUI 00000000100671b4     guideXOS.obj
 0003:00039644       guideXOS_guideXOS_GUI_MessageBox___ctor 0000000010067644     guideXOS.obj
 0003:0003969c       guideXOS_guideXOS_GUI_MessageBox__OnDraw 000000001006769c     guideXOS.obj
 0003:00039704       guideXOS_guideXOS_GUI_NetworkConfigurationDialog___ctor 0000000010067704     guideXOS.obj
 0003:000399c8       guideXOS_guideXOS_GUI_NetworkConfigurationDialog__LoadCurrentConfig 00000000100679c8     guideXOS.obj
 0003:00039cd0       guideXOS_guideXOS_GUI_NetworkConfigurationDialog__Keyboard_OnKeyChanged 0000000010067cd0     guideXOS.obj
 0003:00039f98       guideXOS_guideXOS_GUI_NetworkConfigurationDialog__OnInput 0000000010067f98     guideXOS.obj
 0003:0003a3a8       guideXOS_guideXOS_GUI_NetworkConfigurationDialog__GetOctetArray 00000000100683a8     guideXOS.obj
 0003:0003a42c       guideXOS_guideXOS_GUI_NetworkConfigurationDialog__ApplyConfiguration 000000001006842c     guideXOS.obj
 0003:0003a824       guideXOS_guideXOS_GUI_NetworkConfigurationDialog__ParseOctet 0000000010068824     guideXOS.obj
 0003:0003a880       guideXOS_guideXOS_GUI_NetworkConfigurationDialog__OnDraw 0000000010068880     guideXOS.obj
 0003:0003af24       guideXOS_guideXOS_GUI_NetworkConfigurationDialog__DrawRadioButton 0000000010068f24     guideXOS.obj
 0003:0003b048       guideXOS_guideXOS_GUI_NetworkConfigurationDialog__DrawIPFields 0000000010069048     guideXOS.obj
 0003:0003b5f4       guideXOS_guideXOS_GUI_NetworkConfigurationDialog__DrawButton 00000000100695f4     guideXOS.obj
 0003:0003b74c       guideXOS_guideXOS_GUI_NetworkConfigurationDialog__Dispose 000000001006974c     guideXOS.obj
 0003:0003b790       guideXOS_guideXOS_GUI_Notify___ctor 0000000010069790     guideXOS.obj
 0003:0003b854       guideXOS_guideXOS_GUI_Notify__Dispose 0000000010069854     guideXOS.obj
 0003:0003b920       guideXOS_guideXOS_GUI_NotificationManager__Add 0000000010069920     guideXOS.obj
 0003:0003b968       guideXOS_guideXOS_GUI_OnScreenKeyboard__OnInput 0000000010069968     guideXOS.obj
 0003:0003bbdc       guideXOS_guideXOS_GUI_OnScreenKeyboard__SendKey 0000000010069bdc     guideXOS.obj
 0003:0003bc70       guideXOS_guideXOS_GUI_OnScreenKeyboard__CharToConsoleKey 0000000010069c70     guideXOS.obj
 0003:0003bdc4       guideXOS_guideXOS_GUI_OnScreenKeyboard__OnDraw 0000000010069dc4     guideXOS.obj
 0003:0003c018       guideXOS_guideXOS_GUI_OnScreenKeyboard__DrawKey 000000001006a018     guideXOS.obj
 0003:0003c11c       guideXOS_guideXOS_GUI_OnScreenKeyboard__DrawSpecialKey 000000001006a11c     guideXOS.obj
 0003:0003c220       guideXOS_guideXOS_GUI_OnScreenKeyboard___cctor 000000001006a220     guideXOS.obj
 0003:0003c2f8       guideXOS_guideXOS_GUI_OpenDialog___ctor 000000001006a2f8     guideXOS.obj
 0003:0003c430       guideXOS_guideXOS_GUI_OpenDialog__Keyboard_OnKeyChanged 000000001006a430     guideXOS.obj
 0003:0003c644       guideXOS_guideXOS_GUI_OpenDialog__VisibleRows 000000001006a644     guideXOS.obj
 0003:0003c65c       guideXOS_guideXOS_GUI_OpenDialog__RefreshEntries 000000001006a65c     guideXOS.obj
 0003:0003c794       guideXOS_guideXOS_GUI_OpenDialog__GoUp 000000001006a794     guideXOS.obj
 0003:0003c834       guideXOS_guideXOS_GUI_OpenDialog__OpenSelected 000000001006a834     guideXOS.obj
 0003:0003c930       guideXOS_guideXOS_GUI_OpenDialog__OnInput 000000001006a930     guideXOS.obj
 0003:0003cb98       guideXOS_guideXOS_GUI_OpenDialog__OnDraw 000000001006ab98     guideXOS.obj
 0003:0003d438       guideXOS_guideXOS_GUI_PinnedManager__IsPinned 000000001006b438     guideXOS.obj
 0003:0003d4c4       guideXOS_guideXOS_GUI_PinnedManager__PinApp 000000001006b4c4     guideXOS.obj
 0003:0003d5c0       guideXOS_guideXOS_GUI_PinnedManager__PinFile 000000001006b5c0     guideXOS.obj
 0003:0003d6d4       guideXOS_guideXOS_GUI_PinnedManager__PinComputerFiles 000000001006b6d4     guideXOS.obj
 0003:0003d76c       guideXOS_guideXOS_GUI_PinnedManager___cctor 000000001006b76c     guideXOS.obj
 0003:0003d7b8       guideXOS_guideXOS_GUI_RecentManager__AddProgram 000000001006b7b8     guideXOS.obj
 0003:0003d948       guideXOS_guideXOS_GUI_RecentManager__AddDocument 000000001006b948     guideXOS.obj
 0003:0003dad8       guideXOS_guideXOS_GUI_RecentManager___cctor 000000001006bad8     guideXOS.obj
 0003:0003db60       guideXOS_guideXOS_GUI_RightMenu___ctor 000000001006bb60     guideXOS.obj
 0003:0003db9c       guideXOS_guideXOS_GUI_RightMenu__OnSetVisible 000000001006bb9c     guideXOS.obj
 0003:0003dbd4       guideXOS_guideXOS_GUI_RightMenu__OnInput 000000001006bbd4     guideXOS.obj
 0003:0003de68       guideXOS_guideXOS_GUI_RightMenu__Hit 000000001006be68     guideXOS.obj
 0003:0003de98       guideXOS_guideXOS_GUI_RightMenu__OnDraw 000000001006be98     guideXOS.obj
 0003:0003e290       guideXOS_guideXOS_GUI_SaveChangesDialog___ctor 000000001006c290     guideXOS.obj
 0003:0003e344       guideXOS_guideXOS_GUI_SaveChangesDialog__OnInput 000000001006c344     guideXOS.obj
 0003:0003e4c4       guideXOS_guideXOS_GUI_SaveChangesDialog__OnDraw 000000001006c4c4     guideXOS.obj
 0003:0003e740       guideXOS_guideXOS_GUI_SaveDialog___ctor 000000001006c740     guideXOS.obj
 0003:0003e8ec       guideXOS_guideXOS_GUI_SaveDialog__RefreshEntries 000000001006c8ec     guideXOS.obj
 0003:0003ea34       guideXOS_guideXOS_GUI_SaveDialog__GoUp 000000001006ca34     guideXOS.obj
 0003:0003ead4       guideXOS_guideXOS_GUI_SaveDialog__Keyboard_OnKeyChanged 000000001006cad4     guideXOS.obj
 0003:0003ef94       guideXOS_guideXOS_GUI_SaveDialog__VisibleRows 000000001006cf94     guideXOS.obj
 0003:0003efc0       guideXOS_guideXOS_GUI_SaveDialog__StartsWithFast 000000001006cfc0     guideXOS.obj
 0003:0003f010       guideXOS_guideXOS_GUI_SaveDialog__FuzzyResolveIfUnique 000000001006d010     guideXOS.obj
 0003:0003f244       guideXOS_guideXOS_GUI_SaveDialog__SaveAction 000000001006d244     guideXOS.obj
 0003:0003f2f0       guideXOS_guideXOS_GUI_SaveDialog__OnInput 000000001006d2f0     guideXOS.obj
 0003:0003f5c0       guideXOS_guideXOS_GUI_SaveDialog__OnDraw 000000001006d5c0     guideXOS.obj
 0003:0003fbd4       guideXOS_guideXOS_GUI_ShutdownDialog___ctor 000000001006dbd4     guideXOS.obj
 0003:0003fc68       guideXOS_guideXOS_GUI_ShutdownDialog__OnInput 000000001006dc68     guideXOS.obj
 0003:0003fd2c       guideXOS_guideXOS_GUI_ShutdownDialog__OnDraw 000000001006dd2c     guideXOS.obj
 0003:0003fff0       guideXOS_guideXOS_GUI_StartMenu___ctor 000000001006dff0     guideXOS.obj
 0003:0004004c       guideXOS_guideXOS_GUI_StartMenu__OnSetVisible 000000001006e04c     guideXOS.obj
 0003:00040108       guideXOS_guideXOS_GUI_StartMenu__BuildBackgroundBlurCache 000000001006e108     guideXOS.obj
 0003:000404c8       guideXOS_guideXOS_GUI_StartMenu__RefreshRecentCacheIfNeeded 000000001006e4c8     guideXOS.obj
 0003:000405c8       guideXOS_guideXOS_GUI_StartMenu__OnInput 000000001006e5c8     guideXOS.obj
 0003:000413dc       guideXOS_guideXOS_GUI_StartMenu__OnDraw 000000001006f3dc     guideXOS.obj
 0003:00043108       guideXOS_guideXOS_GUI_StartMenu__ToggleAllPrograms 0000000010071108     guideXOS.obj
 0003:00043130       guideXOS_guideXOS_GUI_StartMenu__BuildAllProgramsOrder 0000000010071130     guideXOS.obj
 0003:00043414       guideXOS_guideXOS_GUI_StartMenu__CompareIgnoreCase 0000000010071414     guideXOS.obj
 0003:0004349c       guideXOS_guideXOS_GUI_StartMenu__TruncateToWidth 000000001007149c     guideXOS.obj
 0003:000435a0       guideXOS_guideXOS_GUI_Taskbar___ctor 00000000100715a0     guideXOS.obj
 0003:0004364c       guideXOS_guideXOS_GUI_Taskbar__DrawWorkspaceSwitcher 000000001007164c     guideXOS.obj
 0003:00043684       guideXOS_guideXOS_GUI_Taskbar__Draw 0000000010071684     guideXOS.obj
 0003:00044fd0       guideXOS_guideXOS_GUI_Taskbar__ToggleShowDesktop 0000000010072fd0     guideXOS.obj
 0003:000450f4       guideXOS_guideXOS_GUI_Taskbar__OpenOnScreenKeyboard 00000000100730f4     guideXOS.obj
 0003:0004521c       guideXOS_guideXOS_GUI_TaskbarMenu__OnSetVisible 000000001007321c     guideXOS.obj
 0003:00045288       guideXOS_guideXOS_GUI_TaskbarMenu__OnInput 0000000010073288     guideXOS.obj
 0003:0004538c       guideXOS_guideXOS_GUI_TaskbarMenu__OnDraw 000000001007338c     guideXOS.obj
 0003:000454d4       guideXOS_guideXOS_GUI_UI__IsMouseOver 00000000100734d4     guideXOS.obj
 0003:00045520       guideXOS_guideXOS_GUI_UI__ButtonFillColor 0000000010073520     guideXOS.obj
 0003:00045578       guideXOS_guideXOS_GUI_UIPrimitives__AFillRoundedRect 0000000010073578     guideXOS.obj
 0003:00045728       guideXOS_guideXOS_GUI_UIPrimitives__AFillRoundedRectTop 0000000010073728     guideXOS.obj
 0003:00045878       guideXOS_guideXOS_GUI_UIPrimitives__DrawRoundedRect 0000000010073878     guideXOS.obj
 0003:00045b3c       guideXOS_guideXOS_GUI_UIPrimitives__CornerInset 0000000010073b3c     guideXOS.obj
 0003:00045bc0       guideXOS_guideXOS_GUI_USBDrives__RefreshList 0000000010073bc0     guideXOS.obj
 0003:00045d88       guideXOS_guideXOS_GUI_USBDrives__FormatSize 0000000010073d88     guideXOS.obj
 0003:00045e94       guideXOS_guideXOS_GUI_USBDrives__OnInput 0000000010073e94     guideXOS.obj
 0003:00045fdc       guideXOS_guideXOS_GUI_USBDrives__OnDraw 0000000010073fdc     guideXOS.obj
 0003:00046220       guideXOS_guideXOS_GUI_USBFiles___ctor 0000000010074220     guideXOS.obj
 0003:000462ec       guideXOS_guideXOS_GUI_USBFiles__LoadIcons 00000000100742ec     guideXOS.obj
 0003:00046364       guideXOS_guideXOS_GUI_USBFiles__InitLocalFS 0000000010074364     guideXOS.obj
 0003:0004645c       guideXOS_guideXOS_GUI_USBFiles__RefreshEntries 000000001007445c     guideXOS.obj
 0003:000465c4       guideXOS_guideXOS_GUI_USBFiles__OnInput 00000000100745c4     guideXOS.obj
 0003:00046760       guideXOS_guideXOS_GUI_USBFiles__OnDraw 0000000010074760     guideXOS.obj
 0003:000469f4       guideXOS_guideXOS_GUI_VisualEffectsSettings___ctor 00000000100749f4     guideXOS.obj
 0003:00046a94       guideXOS_guideXOS_GUI_VisualEffectsSettings__LoadSettings 0000000010074a94     guideXOS.obj
 0003:00046c94       guideXOS_guideXOS_GUI_VisualEffectsSettings__OnInput 0000000010074c94     guideXOS.obj
 0003:00046f90       guideXOS_guideXOS_GUI_VisualEffectsSettings__ProcessTabInput 0000000010074f90     guideXOS.obj
 0003:00047044       guideXOS_guideXOS_GUI_VisualEffectsSettings__ProcessAnimationsInput 0000000010075044     guideXOS.obj
 0003:000472fc       guideXOS_guideXOS_GUI_VisualEffectsSettings__ProcessVisualEffectsInput 00000000100752fc     guideXOS.obj
 0003:00047730       guideXOS_guideXOS_GUI_VisualEffectsSettings__ProcessWindowRenderingInput 0000000010075730     guideXOS.obj
 0003:00047ad8       guideXOS_guideXOS_GUI_VisualEffectsSettings__ProcessPerformanceInput 0000000010075ad8     guideXOS.obj
 0003:00047d30       guideXOS_guideXOS_GUI_VisualEffectsSettings__ProcessWidgetsInput 0000000010075d30     guideXOS.obj
 0003:00048074       guideXOS_guideXOS_GUI_VisualEffectsSettings__CheckCheckbox 0000000010076074     guideXOS.obj
 0003:000480c0       guideXOS_guideXOS_GUI_VisualEffectsSettings__CheckSlider 00000000100760c0     guideXOS.obj
 0003:00048110       guideXOS_guideXOS_GUI_VisualEffectsSettings__OnDraw 0000000010076110     guideXOS.obj
 0003:00048654       guideXOS_guideXOS_GUI_VisualEffectsSettings__DrawAnimationsTab 0000000010076654     guideXOS.obj
 0003:00048858       guideXOS_guideXOS_GUI_VisualEffectsSettings__DrawVisualEffectsTab 0000000010076858     guideXOS.obj
 0003:00048ba8       guideXOS_guideXOS_GUI_VisualEffectsSettings__DrawWindowRenderingTab 0000000010076ba8     guideXOS.obj
 0003:00048e60       guideXOS_guideXOS_GUI_VisualEffectsSettings__DrawPerformanceTab 0000000010076e60     guideXOS.obj
 0003:00049030       guideXOS_guideXOS_GUI_VisualEffectsSettings__DrawWidgetsTab 0000000010077030     guideXOS.obj
 0003:000492b4       guideXOS_guideXOS_GUI_VisualEffectsSettings__DrawAboutTab 00000000100772b4     guideXOS.obj
 0003:0004970c       guideXOS_guideXOS_GUI_VisualEffectsSettings__DrawTitle 000000001007770c     guideXOS.obj
 0003:00049778       guideXOS_guideXOS_GUI_VisualEffectsSettings__DrawSubtitle 0000000010077778     guideXOS.obj
 0003:000497e4       guideXOS_guideXOS_GUI_VisualEffectsSettings__DrawCheckboxWithLabel 00000000100777e4     guideXOS.obj
 0003:00049868       guideXOS_guideXOS_GUI_VisualEffectsSettings__DrawSliderWithLabel 0000000010077868     guideXOS.obj
 0003:00049990       guideXOS_guideXOS_GUI_VisualEffectsSettings__DrawCheckbox 0000000010077990     guideXOS.obj
 0003:00049aa8       guideXOS_guideXOS_GUI_VisualEffectsSettings__DrawSlider 0000000010077aa8     guideXOS.obj
 0003:00049bd8       guideXOS_guideXOS_GUI_VisualEffectsSettings__DrawScrollbar 0000000010077bd8     guideXOS.obj
 0003:00049cc4       guideXOS_guideXOS_GUI_VisualEffectsSettings__DrawButtons 0000000010077cc4     guideXOS.obj
 0003:00049e9c       guideXOS_guideXOS_GUI_VisualEffectsSettings__GetCurrentTabHeight 0000000010077e9c     guideXOS.obj
 0003:00049f0c       guideXOS_guideXOS_GUI_VisualEffectsSettings__ApplySettings 0000000010077f0c     guideXOS.obj
 0003:0004a140       guideXOS_guideXOS_GUI_VisualEffectsSettings__ResetToDefaults 0000000010078140     guideXOS.obj
 0003:0004a2e4       guideXOS_guideXOS_GUI_WidgetContainer___ctor 00000000100782e4     guideXOS.obj
 0003:0004a37c       guideXOS_guideXOS_GUI_WidgetContainer__AddWidget 000000001007837c     guideXOS.obj
 0003:0004a400       guideXOS_guideXOS_GUI_WidgetContainer__RemoveWidget 0000000010078400     guideXOS.obj
 0003:0004a4b0       guideXOS_guideXOS_GUI_WidgetContainer__UndockWidgetToPosition 00000000100784b0     guideXOS.obj
 0003:0004a540       guideXOS_guideXOS_GUI_WidgetContainer__UpdateLayout 0000000010078540     guideXOS.obj
 0003:0004a5dc       guideXOS_guideXOS_GUI_WidgetContainer__OnInput 00000000100785dc     guideXOS.obj
 0003:0004a994       guideXOS_guideXOS_GUI_WidgetContainer__UndockWidget 0000000010078994     guideXOS.obj
 0003:0004aa24       guideXOS_guideXOS_GUI_WidgetContainer__OnDraw 0000000010078a24     guideXOS.obj
 0003:0004ac00       guideXOS_guideXOS_GUI_WidgetContainer__DrawCloseButton 0000000010078c00     guideXOS.obj
 0003:0004ad18       guideXOS_guideXOS_GUI_WidgetContainer__Dispose 0000000010078d18     guideXOS.obj
 0003:0004adcc       guideXOS_guideXOS_GUI_WidgetContextMenu___ctor 0000000010078dcc     guideXOS.obj
 0003:0004ae18       guideXOS_guideXOS_GUI_WidgetContextMenu__OnInput 0000000010078e18     guideXOS.obj
 0003:0004aecc       guideXOS_guideXOS_GUI_WidgetContextMenu__OnDraw 0000000010078ecc     guideXOS.obj
 0003:0004affc       guideXOS_guideXOS_GUI_Window__set_Visible 0000000010078ffc     guideXOS.obj
 0003:0004b064       guideXOS_guideXOS_GUI_Window___ctor 0000000010079064     guideXOS.obj
 0003:0004b140       guideXOS_guideXOS_GUI_Window__BeginFadeIn 0000000010079140     guideXOS.obj
 0003:0004b18c       guideXOS_guideXOS_GUI_Window__BeginFadeOutClose 000000001007918c     guideXOS.obj
 0003:0004b1e4       guideXOS_guideXOS_GUI_Window__BeginMinimize 00000000100791e4     guideXOS.obj
 0003:0004b248       guideXOS_guideXOS_GUI_Window__BeginRestore 0000000010079248     guideXOS.obj
 0003:0004b2b8       guideXOS_guideXOS_GUI_Window__UpdateAnimation 00000000100792b8     guideXOS.obj
 0003:0004b46c       guideXOS_guideXOS_GUI_Window__IsUnderMouse 000000001007946c     guideXOS.obj
 0003:0004b4b8       guideXOS_guideXOS_GUI_Window__OnSetVisible 00000000100794b8     guideXOS.obj
 0003:0004b4c4       guideXOS_guideXOS_GUI_Window__DisposeBlurCache 00000000100794c4     guideXOS.obj
 0003:0004b54c       guideXOS_guideXOS_GUI_Window__ComputeButtonRects 000000001007954c     guideXOS.obj
 0003:0004b5f8       guideXOS_guideXOS_GUI_Window__HitTestButtons 00000000100795f8     guideXOS.obj
 0003:0004b6f4       guideXOS_guideXOS_GUI_Window__PerformButton 00000000100796f4     guideXOS.obj
 0003:0004b7a4       guideXOS_guideXOS_GUI_Window__DrawTitleButton 00000000100797a4     guideXOS.obj
 0003:0004bba0       guideXOS_guideXOS_GUI_Window__OnInput 0000000010079ba0     guideXOS.obj
 0003:0004be0c       guideXOS_guideXOS_GUI_Window__OnDraw 0000000010079e0c     guideXOS.obj
 0003:0004c6e4       guideXOS_guideXOS_GUI_Window__DrawBorder 000000001007a6e4     guideXOS.obj
 0003:0004c77c       guideXOS_guideXOS_GUI_Window__ClampToScreen 000000001007a77c     guideXOS.obj
 0003:0004c7c4       guideXOS_guideXOS_GUI_Window__Minimize 000000001007a7c4     guideXOS.obj
 0003:0004c7dc       guideXOS_guideXOS_GUI_Window__Restore 000000001007a7dc     guideXOS.obj
 0003:0004c808       guideXOS_guideXOS_GUI_Window__Maximize 000000001007a808     guideXOS.obj
 0003:0004c884       guideXOS_guideXOS_GUI_Window__Dispose 000000001007a884     guideXOS.obj
 0003:0004c8b0       guideXOS_guideXOS_GUI_Window__FreeOwnerMemory 000000001007a8b0     guideXOS.obj
 0003:0004c980       guideXOS_guideXOS_GUI_WindowManager__Initialize 000000001007a980     guideXOS.obj
 0003:0004cc88       guideXOS_guideXOS_GUI_WindowManager__FlushPendingCreates 000000001007ac88     guideXOS.obj
 0003:0004cd28       guideXOS_guideXOS_GUI_WindowManager__MoveToEnd 000000001007ad28     guideXOS.obj
 0003:0004cdec       guideXOS_guideXOS_GUI_WindowManager__DrawAllExceptTaskManager 000000001007adec     guideXOS.obj
 0003:0004cea0       guideXOS_guideXOS_GUI_WindowManager__DrawTaskManager 000000001007aea0     guideXOS.obj
 0003:0004cf04       guideXOS_guideXOS_GUI_WindowManager__UpdateCpuPercents 000000001007af04     guideXOS.obj
 0003:0004cf40       guideXOS_guideXOS_GUI_WindowManager__InputAll 000000001007af40     guideXOS.obj
 0003:0004d0a8       guideXOS_guideXOS_GUI_WindowManager__GetStartMenuWindows 000000001007b0a8     guideXOS.obj
 0003:0004d138       guideXOS_guideXOS_GUI_WindowManager__CleanupClosedWindows 000000001007b138     guideXOS.obj
 0003:0004d1a4       guideXOS_guideXOS_GUI_WorkspaceManager__IndexOf 000000001007b1a4     guideXOS.obj
 0003:0004d1f8       guideXOS_guideXOS_GUI_WorkspaceManager__ListContains 000000001007b1f8     guideXOS.obj
 0003:0004d240       guideXOS_guideXOS_GUI_WorkspaceManager__ListRemove 000000001007b240     guideXOS.obj
 0003:0004d284       guideXOS_guideXOS_GUI_WorkspaceManager__EnsureAllWindowsTracked 000000001007b284     guideXOS.obj
 0003:0004d338       guideXOS_guideXOS_GUI_WorkspaceManager__GetWorkspace 000000001007b338     guideXOS.obj
 0003:0004d390       guideXOS_guideXOS_GUI_WorkspaceManager__AddWorkspace 000000001007b390     guideXOS.obj
 0003:0004d3b8       guideXOS_guideXOS_GUI_WorkspaceManager__SwitchTo 000000001007b3b8     guideXOS.obj
 0003:0004d5a8       guideXOS_guideXOS_GUI_WorkspaceManager__WorkspaceWindowCounts 000000001007b5a8     guideXOS.obj
 0003:0004d644       guideXOS_guideXOS_GUI_WorkspaceManager___cctor 000000001007b644     guideXOS.obj
 0003:0004d718       guideXOS_guideXOS_GUI_WorkspaceSwitcher___ctor 000000001007b718     guideXOS.obj
 0003:0004d778       guideXOS_guideXOS_GUI_WorkspaceSwitcher__RefreshWindowCache 000000001007b778     guideXOS.obj
 0003:0004d918       guideXOS_guideXOS_GUI_WorkspaceSwitcher__OnInput 000000001007b918     guideXOS.obj
 0003:0004dc3c       guideXOS_guideXOS_GUI_WorkspaceSwitcher__OnDraw 000000001007bc3c     guideXOS.obj
 0003:0004df94       guideXOS_guideXOS_GUI_WorkspaceSwitcher__DrawWorkspaceThumbnail 000000001007bf94     guideXOS.obj
 0003:0004e630       guideXOS_guideXOS_GUI_Widgets_Button___ctor 000000001007c630     guideXOS.obj
 0003:0004e638       guideXOS_guideXOS_GUI_Widgets_Base_Widget___ctor 000000001007c638     guideXOS.obj
 0003:0004e63c       guideXOS_guideXOS_GUI_Base_WindowBase___ctor 000000001007c63c     guideXOS.obj
 0003:0004e65c       guideXOS_guideXOS_DockableWidgets_Clock__get_PreferredHeight 000000001007c65c     guideXOS.obj
 0003:0004e664       guideXOS_guideXOS_DockableWidgets_Clock___ctor 000000001007c664     guideXOS.obj
 0003:0004e748       guideXOS_guideXOS_DockableWidgets_Clock__OnInput 000000001007c748     guideXOS.obj
 0003:0004e7e4       guideXOS_guideXOS_DockableWidgets_Clock__OnDraw 000000001007c7e4     guideXOS.obj
 0003:0004e8b4       guideXOS_guideXOS_DockableWidgets_Clock__DrawContent 000000001007c8b4     guideXOS.obj
 0003:0004ebbc       guideXOS_guideXOS_DockableWidgets_Clock__DrawHand 000000001007cbbc     guideXOS.obj
 0003:0004ed70       guideXOS_guideXOS_DockableWidgets_Monitor__get_PreferredHeight 000000001007cd70     guideXOS.obj
 0003:0004ed78       guideXOS_guideXOS_DockableWidgets_Monitor___ctor 000000001007cd78     guideXOS.obj
 0003:0004ee54       guideXOS_guideXOS_DockableWidgets_Monitor__OnInput 000000001007ce54     guideXOS.obj
 0003:0004eee8       guideXOS_guideXOS_DockableWidgets_Monitor__OnDraw 000000001007cee8     guideXOS.obj
 0003:0004f058       guideXOS_guideXOS_DockableWidgets_Monitor__DrawContent 000000001007d058     guideXOS.obj
 0003:0004f15c       guideXOS_guideXOS_DockableWidgets_Monitor__Render 000000001007d15c     guideXOS.obj
 0003:0004f31c       guideXOS_guideXOS_DockableWidgets_Monitor__DrawLineChart 000000001007d31c     guideXOS.obj
 0003:0004f428       guideXOS_guideXOS_DockableWidgets_PerformanceWidget__get_PreferredHeight 000000001007d428     guideXOS.obj
 0003:0004f430       guideXOS_guideXOS_DockableWidgets_PerformanceWidget___ctor 000000001007d430     guideXOS.obj
 0003:0004f4c0       guideXOS_guideXOS_DockableWidgets_PerformanceWidget__OnInput 000000001007d4c0     guideXOS.obj
 0003:0004f554       guideXOS_guideXOS_DockableWidgets_PerformanceWidget__OnDraw 000000001007d554     guideXOS.obj
 0003:0004f624       guideXOS_guideXOS_DockableWidgets_PerformanceWidget__DrawContent 000000001007d624     guideXOS.obj
 0003:0004f6f4       guideXOS_guideXOS_DockableWidgets_PerformanceWidget__DrawMetric 000000001007d6f4     guideXOS.obj
 0003:0004f83c       guideXOS_guideXOS_DockableWidgets_PerformanceWidget__UpdateMetrics 000000001007d83c     guideXOS.obj
 0003:0004f900       guideXOS_guideXOS_DefaultApps_Calculator___ctor 000000001007d900     guideXOS.obj
 0003:0004fc68       guideXOS_guideXOS_DefaultApps_Calculator__OnDraw 000000001007dc68     guideXOS.obj
 0003:0004fdbc       guideXOS_guideXOS_DefaultApps_Calculator__OnInput 000000001007ddbc     guideXOS.obj
 0003:0004fecc       guideXOS_guideXOS_DefaultApps_Calculator__ProcessButton 000000001007decc     guideXOS.obj
 0003:00050214       guideXOS_guideXOS_DefaultApps_Calculator__AddButton 000000001007e214     guideXOS.obj
 0003:0005030c       guideXOS_guideXOS_DefaultApps_ComputerFiles___ctor 000000001007e30c     guideXOS.obj
 0003:000504a0       guideXOS_guideXOS_DefaultApps_ComputerFiles___ctor_0 000000001007e4a0     guideXOS.obj
 0003:00050608       guideXOS_guideXOS_DefaultApps_ComputerFiles__Keyboard_OnKeyChanged 000000001007e608     guideXOS.obj
 0003:00050704       guideXOS_guideXOS_DefaultApps_ComputerFiles__LoadIcons 000000001007e704     guideXOS.obj
 0003:000507d0       guideXOS_guideXOS_DefaultApps_ComputerFiles__RefreshDrives 000000001007e7d0     guideXOS.obj
 0003:000509dc       guideXOS_guideXOS_DefaultApps_ComputerFiles__ClearEntriesCache 000000001007e9dc     guideXOS.obj
 0003:00050b50       guideXOS_guideXOS_DefaultApps_ComputerFiles__EnsureEntries 000000001007eb50     guideXOS.obj
 0003:00050c30       guideXOS_guideXOS_DefaultApps_ComputerFiles__PushHistory 000000001007ec30     guideXOS.obj
 0003:00050d04       guideXOS_guideXOS_DefaultApps_ComputerFiles__get_CanGoForward 000000001007ed04     guideXOS.obj
 0003:00050d20       guideXOS_guideXOS_DefaultApps_ComputerFiles__GoBack 000000001007ed20     guideXOS.obj
 0003:00050d8c       guideXOS_guideXOS_DefaultApps_ComputerFiles__GoForward 000000001007ed8c     guideXOS.obj
 0003:00050e00       guideXOS_guideXOS_DefaultApps_ComputerFiles__GoUpLevel 000000001007ee00     guideXOS.obj
 0003:00050ef0       guideXOS_guideXOS_DefaultApps_ComputerFiles__CurrentPad 000000001007eef0     guideXOS.obj
 0003:00050f18       guideXOS_guideXOS_DefaultApps_ComputerFiles__OnInput 000000001007ef18     guideXOS.obj
 0003:0005197c       guideXOS_guideXOS_DefaultApps_ComputerFiles__ContainsIgnoreCase 000000001007f97c     guideXOS.obj
 0003:00051a1c       guideXOS_guideXOS_DefaultApps_ComputerFiles__GetTotalContentHeight 000000001007fa1c     guideXOS.obj
 0003:00051b38       guideXOS_guideXOS_DefaultApps_ComputerFiles__OnDraw 000000001007fb38     guideXOS.obj
 0003:000529fc       guideXOS_guideXOS_DefaultApps_ComputerFiles__Dispose 00000000100809fc     guideXOS.obj
 0003:00052b20       guideXOS_guideXOS_DefaultApps_Devices__EnsureRowsCapacity 0000000010080b20     guideXOS.obj
 0003:00052c18       guideXOS_guideXOS_DefaultApps_Devices__AddRow 0000000010080c18     guideXOS.obj
 0003:00052cdc       guideXOS_guideXOS_DefaultApps_Devices__BuildRows 0000000010080cdc     guideXOS.obj
 0003:00053328       guideXOS_guideXOS_DefaultApps_Devices__OnInput 0000000010081328     guideXOS.obj
 0003:0005361c       guideXOS_guideXOS_DefaultApps_Devices__OnDraw 000000001008161c     guideXOS.obj
 0003:00053ca8       guideXOS_guideXOS_DefaultApps_DiskManager___ctor 0000000010081ca8     guideXOS.obj
 0003:00053d84       guideXOS_guideXOS_DefaultApps_DiskManager__BuildStatus 0000000010081d84     guideXOS.obj
 0003:00053e5c       guideXOS_guideXOS_DefaultApps_DiskManager__RefreshDisks 0000000010081e5c     guideXOS.obj
 0003:000541a8       guideXOS_guideXOS_DefaultApps_DiskManager__GetSelected 00000000100821a8     guideXOS.obj
 0003:000541ec       guideXOS_guideXOS_DefaultApps_DiskManager__ProbeOnce 00000000100821ec     guideXOS.obj
 0003:00054350       guideXOS_guideXOS_DefaultApps_DiskManager__FmtSize 0000000010082350     guideXOS.obj
 0003:0005443c       guideXOS_guideXOS_DefaultApps_DiskManager__DetectFsAtLBA 000000001008243c     guideXOS.obj
 0003:00054640       guideXOS_guideXOS_DefaultApps_DiskManager__WithDisk 0000000010082640     guideXOS.obj
 0003:000546d8       guideXOS_guideXOS_DefaultApps_DiskManager__ReadMBRForEntry 00000000100826d8     guideXOS.obj
 0003:000547b0       guideXOS_guideXOS_DefaultApps_DiskManager__OnInput 00000000100827b0     guideXOS.obj
 0003:00054a28       guideXOS_guideXOS_DefaultApps_DiskManager__OnDraw 0000000010082a28     guideXOS.obj
 0003:00054b24       guideXOS_guideXOS_DefaultApps_DiskManager__DrawLeftPane 0000000010082b24     guideXOS.obj
 0003:00054cc4       guideXOS_guideXOS_DefaultApps_DiskManager__DrawVolumesGrid 0000000010082cc4     guideXOS.obj
 0003:0005515c       guideXOS_guideXOS_DefaultApps_DiskManager__DrawPartitionMap 000000001008315c     guideXOS.obj
 0003:000554d8       guideXOS_guideXOS_DefaultApps_DiskManager__DrawActions 00000000100834d8     guideXOS.obj
 0003:00055768       guideXOS_guideXOS_DefaultApps_DiskManager__DrawHeaderCell 0000000010083768     guideXOS.obj
 0003:00055814       guideXOS_guideXOS_DefaultApps_DiskManager__DrawCell 0000000010083814     guideXOS.obj
 0003:000558ac       guideXOS_guideXOS_DefaultApps_DiskManager__DrawButton 00000000100838ac     guideXOS.obj
 0003:00055984       guideXOS_guideXOS_DefaultApps_DiskManager__TrySetFS_Auto 0000000010083984     guideXOS.obj
 0003:00055a08       guideXOS_guideXOS_DefaultApps_DiskManager__TrySetFS_FAT 0000000010083a08     guideXOS.obj
 0003:00055a98       guideXOS_guideXOS_DefaultApps_DiskManager__TrySetFS_TAR 0000000010083a98     guideXOS.obj
 0003:00055b44       guideXOS_guideXOS_DefaultApps_DiskManager__TrySetFS_EXT2 0000000010083b44     guideXOS.obj
 0003:00055bd4       guideXOS_guideXOS_DefaultApps_DiskManager__TryFormatFATFS 0000000010083bd4     guideXOS.obj
 0003:00055ce8       guideXOS_guideXOS_DefaultApps_DiskManager__TryCreatePartitionLargestFree 0000000010083ce8     guideXOS.obj
 0003:000562b0       guideXOS_guideXOS_DefaultApps_DriveInfo__Dispose 00000000100842b0     guideXOS.obj
 0003:000562f4       guideXOS_guideXOS_DefaultApps_DriveInfo___ctor 00000000100842f4     guideXOS.obj
 0003:000562f8       guideXOS_guideXOS_DefaultApps_FConsole___ctor 00000000100842f8     guideXOS.obj
 0003:000564b8       guideXOS_guideXOS_DefaultApps_FConsole__UpdateTitle 00000000100844b8     guideXOS.obj
 0003:0005650c       guideXOS_guideXOS_DefaultApps_FConsole__GetPromptString 000000001008450c     guideXOS.obj
 0003:000565dc       guideXOS_guideXOS_DefaultApps_FConsole__Rebind 00000000100845dc     guideXOS.obj
 0003:00056620       guideXOS_guideXOS_DefaultApps_FConsole__MapFromKey 0000000010084620     guideXOS.obj
 0003:00056864       guideXOS_guideXOS_DefaultApps_FConsole__Keyboard_OnKeyChanged 0000000010084864     guideXOS.obj
 0003:00056a90       guideXOS_guideXOS_DefaultApps_FConsole__TrimSpaces 0000000010084a90     guideXOS.obj
 0003:00056aec       guideXOS_guideXOS_DefaultApps_FConsole__StartsWithFast 0000000010084aec     guideXOS.obj
 0003:00056b38       guideXOS_guideXOS_DefaultApps_FConsole__JoinParts 0000000010084b38     guideXOS.obj
 0003:00056bb0       guideXOS_guideXOS_DefaultApps_FConsole__TryParseIp 0000000010084bb0     guideXOS.obj
 0003:00056c98       guideXOS_guideXOS_DefaultApps_FConsole__HandleViKey 0000000010084c98     guideXOS.obj
 0003:00056e4c       guideXOS_guideXOS_DefaultApps_FConsole__InsertVi 0000000010084e4c     guideXOS.obj
 0003:00056ec8       guideXOS_guideXOS_DefaultApps_FConsole__RedrawVi 0000000010084ec8     guideXOS.obj
 0003:00056fcc       guideXOS_guideXOS_DefaultApps_FConsole__SaveVi 0000000010084fcc     guideXOS.obj
 0003:00057090       guideXOS_guideXOS_DefaultApps_FConsole__ExitVi 0000000010085090     guideXOS.obj
 0003:000570f8       guideXOS_guideXOS_DefaultApps_FConsole__EnterVi 00000000100850f8     guideXOS.obj
 0003:00057244       guideXOS_guideXOS_DefaultApps_FConsole__ToAbs 0000000010085244     guideXOS.obj
 0003:00057288       guideXOS_guideXOS_DefaultApps_FConsole__ResolveFileToken 0000000010085288     guideXOS.obj
 0003:00057398       guideXOS_guideXOS_DefaultApps_FConsole__SplitArgs 0000000010085398     guideXOS.obj
 0003:00057554       guideXOS_guideXOS_DefaultApps_FConsole__HandleCommand 0000000010085554     guideXOS.obj
 0003:0005ad6c       guideXOS_guideXOS_DefaultApps_FConsole__EqualsIgnoreCase 0000000010088d6c     guideXOS.obj
 0003:0005ade4       guideXOS_guideXOS_DefaultApps_FConsole__StartsWithIgnoreCase 0000000010088de4     guideXOS.obj
 0003:0005ae5c       guideXOS_guideXOS_DefaultApps_FConsole__PadRight 0000000010088e5c     guideXOS.obj
 0003:0005af50       guideXOS_guideXOS_DefaultApps_FConsole__OnInput 0000000010088f50     guideXOS.obj
 0003:0005b138       guideXOS_guideXOS_DefaultApps_FConsole__OnDraw 0000000010089138     guideXOS.obj
 0003:0005b270       guideXOS_guideXOS_DefaultApps_FConsole__DrawString 0000000010089270     guideXOS.obj
 0003:0005b388       guideXOS_guideXOS_DefaultApps_FConsole__Console_OnWrite 0000000010089388     guideXOS.obj
 0003:0005b3c0       guideXOS_guideXOS_DefaultApps_FConsole__WriteLine 00000000100893c0     guideXOS.obj
 0003:0005b3fc       guideXOS_guideXOS_DefaultApps_FirewallAlert___ctor 00000000100893fc     guideXOS.obj
 0003:0005b4a4       guideXOS_guideXOS_DefaultApps_FirewallAlert__OnInput 00000000100894a4     guideXOS.obj
 0003:0005b5f8       guideXOS_guideXOS_DefaultApps_FirewallAlert__OnDraw 00000000100895f8     guideXOS.obj
 0003:0005b8a0       guideXOS_guideXOS_DefaultApps_FirewallWindow___ctor 00000000100898a0     guideXOS.obj
 0003:0005b900       guideXOS_guideXOS_DefaultApps_FirewallWindow__OnInput 0000000010089900     guideXOS.obj
 0003:0005ba08       guideXOS_guideXOS_DefaultApps_FirewallWindow__OnDraw 0000000010089a08     guideXOS.obj
 0003:0005bd64       guideXOS_guideXOS_DefaultApps_GUISamples__BuildSamples 0000000010089d64     guideXOS.obj
 0003:0005bfe0       guideXOS_guideXOS_DefaultApps_GUISamples__OnInput 0000000010089fe0     guideXOS.obj
 0003:0005c13c       guideXOS_guideXOS_DefaultApps_GUISamples__OnDraw 000000001008a13c     guideXOS.obj
 0003:0005c894       guideXOS_guideXOS_DefaultApps_GUISamples__CreateNewDemo 000000001008a894     guideXOS.obj
 0003:0005cae4       guideXOS_guideXOS_DefaultApps_GUISamples__ReloadDemos 000000001008aae4     guideXOS.obj
 0003:0005cb78       guideXOS_guideXOS_DefaultApps_GUISamples__HideAllDemos 000000001008ab78     guideXOS.obj
 0003:0005cbe0       guideXOS_guideXOS_DefaultApps_GUISamples__ShowAllDemos 000000001008abe0     guideXOS.obj
 0003:0005cc84       guideXOS_guideXOS_DefaultApps_ImageViewer__OnDraw 000000001008ac84     guideXOS.obj
 0003:0005cdd0       guideXOS_guideXOS_DefaultApps_ImageViewer__OnInput 000000001008add0     guideXOS.obj
 0003:0005cf44       guideXOS_guideXOS_DefaultApps_ImageViewer__ZoomIn 000000001008af44     guideXOS.obj
 0003:0005cf78       guideXOS_guideXOS_DefaultApps_ImageViewer__ZoomOut 000000001008af78     guideXOS.obj
 0003:0005cfac       guideXOS_guideXOS_DefaultApps_ImageViewer__UpdateDisplayImage 000000001008afac     guideXOS.obj
 0003:0005d0bc       guideXOS_guideXOS_DefaultApps_ImageViewer__SetImage 000000001008b0bc     guideXOS.obj
 0003:0005d12c       guideXOS_guideXOS_DefaultApps_ImageViewer__Dispose 000000001008b12c     guideXOS.obj
 0003:0005d170       guideXOS_guideXOS_DefaultApps_IRCNetworks___ctor 000000001008b170     guideXOS.obj
 0003:0005d22c       guideXOS_guideXOS_DefaultApps_IRCNetworks__LoadDefaults 000000001008b22c     guideXOS.obj
 0003:0005d368       guideXOS_guideXOS_DefaultApps_IRCNetworks__OnInput 000000001008b368     guideXOS.obj
 0003:0005d4f0       guideXOS_guideXOS_DefaultApps_IRCNetworks__AddEntry 000000001008b4f0     guideXOS.obj
 0003:0005d5ac       guideXOS_guideXOS_DefaultApps_IRCNetworks__AttemptConnect 000000001008b5ac     guideXOS.obj
 0003:0005d638       guideXOS_guideXOS_DefaultApps_IRCNetworks__OnDraw 000000001008b638     guideXOS.obj
 0003:0005daec       guideXOS_guideXOS_DefaultApps_IRCNetworks__DrawField 000000001008baec     guideXOS.obj
 0003:0005db54       guideXOS_guideXOS_DefaultApps_IRCNetworks__DrawButton 000000001008bb54     guideXOS.obj
 0003:0005dbd4       guideXOS_guideXOS_DefaultApps_nexIRC___ctor 000000001008bbd4     guideXOS.obj
 0003:0005dda0       guideXOS_guideXOS_DefaultApps_nexIRC__NextEphemeralPort 000000001008bda0     guideXOS.obj
 0003:0005ddd4       guideXOS_guideXOS_DefaultApps_nexIRC__TryAutoConnect 000000001008bdd4     guideXOS.obj
 0003:0005df80       guideXOS_guideXOS_DefaultApps_nexIRC__Keyboard_OnKeyChanged 000000001008bf80     guideXOS.obj
 0003:0005e084       guideXOS_guideXOS_DefaultApps_nexIRC__MapChar 000000001008c084     guideXOS.obj
 0003:0005e2cc       guideXOS_guideXOS_DefaultApps_nexIRC__TrimTrailing 000000001008c2cc     guideXOS.obj
 0003:0005e320       guideXOS_guideXOS_DefaultApps_nexIRC__ToLowerFast 000000001008c320     guideXOS.obj
 0003:0005e3cc       guideXOS_guideXOS_DefaultApps_nexIRC__StartsWithFast 000000001008c3cc     guideXOS.obj
 0003:0005e410       guideXOS_guideXOS_DefaultApps_nexIRC__SubmitInput 000000001008c410     guideXOS.obj
 0003:0005e534       guideXOS_guideXOS_DefaultApps_nexIRC__HandleCommand 000000001008c534     guideXOS.obj
 0003:0005e860       guideXOS_guideXOS_DefaultApps_nexIRC__Split 000000001008c860     guideXOS.obj
 0003:0005e968       guideXOS_guideXOS_DefaultApps_nexIRC__Join 000000001008c968     guideXOS.obj
 0003:0005e9e0       guideXOS_guideXOS_DefaultApps_nexIRC__SendIrc 000000001008c9e0     guideXOS.obj
 0003:0005ea5c       guideXOS_guideXOS_DefaultApps_nexIRC__ToAscii 000000001008ca5c     guideXOS.obj
 0003:0005eac4       guideXOS_guideXOS_DefaultApps_nexIRC__AddLog 000000001008cac4     guideXOS.obj
 0003:0005eb2c       guideXOS_guideXOS_DefaultApps_nexIRC__PollNetwork 000000001008cb2c     guideXOS.obj
 0003:0005ecb0       guideXOS_guideXOS_DefaultApps_nexIRC__SendHandshake 000000001008ccb0     guideXOS.obj
 0003:0005eda8       guideXOS_guideXOS_DefaultApps_nexIRC__ProcessIncoming 000000001008cda8     guideXOS.obj
 0003:0005ee50       guideXOS_guideXOS_DefaultApps_nexIRC__HandleLine 000000001008ce50     guideXOS.obj
 0003:0005eef4       guideXOS_guideXOS_DefaultApps_nexIRC__OnInput 000000001008cef4     guideXOS.obj
 0003:0005ef64       guideXOS_guideXOS_DefaultApps_nexIRC__OnDraw 000000001008cf64     guideXOS.obj
 0003:0005f128       guideXOS_guideXOS_DefaultApps_nexIRC__BuildChannelsText 000000001008d128     guideXOS.obj
 0003:0005f1bc       guideXOS_guideXOS_DefaultApps_nexIRC__DrawChatLines 000000001008d1bc     guideXOS.obj
 0003:0005f2cc       guideXOS_guideXOS_DefaultApps_Notepad___ctor 000000001008d2cc     guideXOS.obj
 0003:0005f3f4       guideXOS_guideXOS_DefaultApps_Notepad__OnSetVisible 000000001008d3f4     guideXOS.obj
 0003:0005f4f0       guideXOS_guideXOS_DefaultApps_Notepad__MapFromKey 000000001008d4f0     guideXOS.obj
 0003:0005f750       guideXOS_guideXOS_DefaultApps_Notepad__UpdateStatusKeys 000000001008d750     guideXOS.obj
 0003:0005f7f0       guideXOS_guideXOS_DefaultApps_Notepad__Keyboard_OnKeyChanged 000000001008d7f0     guideXOS.obj
 0003:0005f990       guideXOS_guideXOS_DefaultApps_Notepad__SaveTo 000000001008d990     guideXOS.obj
 0003:0005fb74       guideXOS_guideXOS_DefaultApps_Notepad__OpenSaveAs 000000001008db74     guideXOS.obj
 0003:0005fc6c       guideXOS_guideXOS_DefaultApps_Notepad__StartsWithFast 000000001008dc6c     guideXOS.obj
 0003:0005fcb8       guideXOS_guideXOS_DefaultApps_Notepad__OpenFile 000000001008dcb8     guideXOS.obj
 0003:0005fef0       guideXOS_guideXOS_DefaultApps_Notepad__OnInput 000000001008def0     guideXOS.obj
 0003:00060068       guideXOS_guideXOS_DefaultApps_Notepad__OnDraw 000000001008e068     guideXOS.obj
 0003:000604d4       guideXOS_guideXOS_DefaultApps_Notepad__DrawStatusBar 000000001008e4d4     guideXOS.obj
 0003:00060988       guideXOS_guideXOS_DefaultApps_Notepad__DrawBadge 000000001008e988     guideXOS.obj
 0003:00060a4c       guideXOS_guideXOS_DefaultApps_Notepad__Dispose 000000001008ea4c     guideXOS.obj
 0003:00060a90       guideXOS_guideXOS_DefaultApps_Notepad___OnSetVisible_b__19_0 000000001008ea90     guideXOS.obj
 0003:00060af4       guideXOS_guideXOS_DefaultApps_Notepad___OnSetVisible_b__19_3 000000001008eaf4     guideXOS.obj
 0003:00060afc       guideXOS_guideXOS_DefaultApps_Notepad___OnSetVisible_b__19_1 000000001008eafc     guideXOS.obj
 0003:00060b0c       guideXOS_guideXOS_DefaultApps_Notepad___OnSetVisible_b__19_2 000000001008eb0c     guideXOS.obj
 0003:00060b18       guideXOS_guideXOS_DefaultApps_Paint___ctor 000000001008eb18     guideXOS.obj
 0003:000611b8       guideXOS_guideXOS_DefaultApps_Paint__OnDraw 000000001008f1b8     guideXOS.obj
 0003:000618b8       guideXOS_guideXOS_DefaultApps_Paint__OnInput 000000001008f8b8     guideXOS.obj
 0003:00061aa0       guideXOS_guideXOS_DefaultApps_Paint__HandleToolbarClick 000000001008faa0     guideXOS.obj
 0003:00061e78       guideXOS_guideXOS_DefaultApps_Paint__HandleDrawing 000000001008fe78     guideXOS.obj
 0003:00062028       guideXOS_guideXOS_DefaultApps_Paint__FinishDrawing 0000000010090028     guideXOS.obj
 0003:0006218c       guideXOS_guideXOS_DefaultApps_Paint__DrawPixel 000000001009018c     guideXOS.obj
 0003:000621e4       guideXOS_guideXOS_DefaultApps_Paint__DrawBrush 00000000100901e4     guideXOS.obj
 0003:000622cc       guideXOS_guideXOS_DefaultApps_Paint__DrawBrushLine 00000000100902cc     guideXOS.obj
 0003:00062400       guideXOS_guideXOS_DefaultApps_Paint__DrawThickLine 0000000010090400     guideXOS.obj
 0003:00062440       guideXOS_guideXOS_DefaultApps_Paint__DrawThickRectangle 0000000010090440     guideXOS.obj
 0003:00062558       guideXOS_guideXOS_DefaultApps_Paint__DrawThickCircle 0000000010090558     guideXOS.obj
 0003:000627dc       guideXOS_guideXOS_DefaultApps_Paint__FloodFill 00000000100907dc     guideXOS.obj
 0003:00062abc       guideXOS_guideXOS_DefaultApps_Paint__AddColorButton 0000000010090abc     guideXOS.obj
 0003:00062b7c       guideXOS_guideXOS_DefaultApps_Paint__AddToolButton 0000000010090b7c     guideXOS.obj
 0003:00062c78       guideXOS_guideXOS_DefaultApps_Paint__AddSizeButton 0000000010090c78     guideXOS.obj
 0003:00062d74       guideXOS_guideXOS_DefaultApps_TaskManager___ctor 0000000010090d74     guideXOS.obj
 0003:00063004       guideXOS_guideXOS_DefaultApps_TaskManager__OnSetVisible 0000000010091004     guideXOS.obj
 0003:00063024       guideXOS_guideXOS_DefaultApps_TaskManager__OnInput 0000000010091024     guideXOS.obj
 0003:00063540       guideXOS_guideXOS_DefaultApps_TaskManager__OnDraw 0000000010091540     guideXOS.obj
 0003:000637c0       guideXOS_guideXOS_DefaultApps_TaskManager__DrawTombstoned 00000000100917c0     guideXOS.obj
 0003:00063a1c       guideXOS_guideXOS_DefaultApps_TaskManager__CountTombstoned 0000000010091a1c     guideXOS.obj
 0003:00063a6c       guideXOS_guideXOS_DefaultApps_TaskManager__GetTombstonedAt 0000000010091a6c     guideXOS.obj
 0003:00063acc       guideXOS_guideXOS_DefaultApps_TaskManager__RestoreTombstoned 0000000010091acc     guideXOS.obj
 0003:00063b18       guideXOS_guideXOS_DefaultApps_TaskManager__EndTombstoned 0000000010091b18     guideXOS.obj
 0003:00063b70       guideXOS_guideXOS_DefaultApps_TaskManager__DrawTab 0000000010091b70     guideXOS.obj
 0003:00063c68       guideXOS_guideXOS_DefaultApps_TaskManager__DrawProcesses 0000000010091c68     guideXOS.obj
 0003:000641f8       guideXOS_guideXOS_DefaultApps_TaskManager__DrawHeaderCell 00000000100921f8     guideXOS.obj
 0003:000642a4       guideXOS_guideXOS_DefaultApps_TaskManager__DrawPerformance 00000000100922a4     guideXOS.obj
 0003:00064c30       guideXOS_guideXOS_DefaultApps_TaskManager__GetChartForCategory 0000000010092c30     guideXOS.obj
 0003:00064c7c       guideXOS_guideXOS_DefaultApps_TaskManager__DrawMiniGraph 0000000010092c7c     guideXOS.obj
 0003:00064e54       guideXOS_guideXOS_DefaultApps_TaskManager__DrawCpuDetail 0000000010092e54     guideXOS.obj
 0003:0006523c       guideXOS_guideXOS_DefaultApps_TaskManager__DrawMemDetail 000000001009323c     guideXOS.obj
 0003:00065a54       guideXOS_guideXOS_DefaultApps_TaskManager__DrawDiskDetail 0000000010093a54     guideXOS.obj
 0003:00065e0c       guideXOS_guideXOS_DefaultApps_TaskManager__DrawNetDetail 0000000010093e0c     guideXOS.obj
 0003:00066134       guideXOS_guideXOS_DefaultApps_TaskManager__UpdateChart 0000000010094134     guideXOS.obj
 0003:00066288       guideXOS_guideXOS_DefaultApps_TaskManager__OnEndTask 0000000010094288     guideXOS.obj
 0003:00066324       guideXOS_guideXOS_DefaultApps_TaskManager__SampleOwnerBytes 0000000010094324     guideXOS.obj
 0003:00066584       guideXOS_guideXOS_DefaultApps_TaskManager__Dispose 0000000010094584     guideXOS.obj
 0003:00066698       guideXOS_guideXOS_DefaultApps_TaskManager__DrawMemoryDetails 0000000010094698     guideXOS.obj
 0003:000674b8       guideXOS_guideXOS_DefaultApps_TaskManager__UpdateMemoryDetailStats 00000000100954b8     guideXOS.obj
 0003:000675c4       guideXOS_guideXOS_DefaultApps_TaskManager___SampleOwnerBytes_g__FindOrAddOwner_95_0 00000000100955c4     guideXOS.obj
 0003:00067664       guideXOS_guideXOS_DefaultApps_USBDrives___ctor 0000000010095664     guideXOS.obj
 0003:000676e0       guideXOS_guideXOS_DefaultApps_USBDrives__RefreshDrives 00000000100956e0     guideXOS.obj
 0003:00067844       guideXOS_guideXOS_DefaultApps_USBDrives__OnDraw 0000000010095844     guideXOS.obj
 0003:00067900       guideXOS_guideXOS_DefaultApps_USBDrives__OnInput 0000000010095900     guideXOS.obj
 0003:000679dc       guideXOS_guideXOS_DefaultApps_WAVPlayer___ctor 00000000100959dc     guideXOS.obj
 0003:00067aa8       guideXOS_guideXOS_DefaultApps_WAVPlayer__OnInput 0000000010095aa8     guideXOS.obj
 0003:00067b08       guideXOS_guideXOS_DefaultApps_WAVPlayer__OnDraw 0000000010095b08     guideXOS.obj
 0003:00067c70       guideXOS_guideXOS_DefaultApps_WAVPlayer__Play 0000000010095c70     guideXOS.obj
 0003:00067d6c       guideXOS_guideXOS_DefaultApps_WAVPlayer__DoPlay 0000000010095d6c     guideXOS.obj
 0003:00067e28       guideXOS_guideXOS_DefaultApps_WebBrowser___ctor 0000000010095e28     guideXOS.obj
 0003:00067f54       guideXOS_guideXOS_DefaultApps_WebBrowser__OnKey 0000000010095f54     guideXOS.obj
 0003:00068178       guideXOS_guideXOS_DefaultApps_WebBrowser__MapChar 0000000010096178     guideXOS.obj
 0003:000682d4       guideXOS_guideXOS_DefaultApps_WebBrowser__OnInput 00000000100962d4     guideXOS.obj
 0003:00068554       guideXOS_guideXOS_DefaultApps_WebBrowser__OnDraw 0000000010096554     guideXOS.obj
 0003:000687d0       guideXOS_guideXOS_DefaultApps_WebBrowser__DrawTabBar 00000000100967d0     guideXOS.obj
 0003:00068a8c       guideXOS_guideXOS_DefaultApps_WebBrowser__DrawRenderedContent 0000000010096a8c     guideXOS.obj
 0003:00068bf8       guideXOS_guideXOS_DefaultApps_WebBrowser__DrawScrollbar 0000000010096bf8     guideXOS.obj
 0003:00068d14       guideXOS_guideXOS_DefaultApps_WebBrowser__AddNewTab 0000000010096d14     guideXOS.obj
 0003:00068d98       guideXOS_guideXOS_DefaultApps_WebBrowser__CloseTab 0000000010096d98     guideXOS.obj
 0003:00068e38       guideXOS_guideXOS_DefaultApps_WebBrowser__PollReceive 0000000010096e38     guideXOS.obj
 0003:00068e90       guideXOS_guideXOS_DefaultApps_WebBrowser__StartRequest 0000000010096e90     guideXOS.obj
 0003:00069158       guideXOS_guideXOS_DefaultApps_WebBrowser__AppendData 0000000010097158     guideXOS.obj
 0003:000693c0       guideXOS_guideXOS_DefaultApps_WebBrowser__ParseAndRenderHtml 00000000100973c0     guideXOS.obj
 0003:000696b8       guideXOS_guideXOS_DefaultApps_WebBrowser__AddTextElement 00000000100976b8     guideXOS.obj
 0003:00069970       guideXOS_guideXOS_DefaultApps_WebBrowser__AddLine 0000000010097970     guideXOS.obj
 0003:00069aa8       guideXOS_guideXOS_DefaultApps_WebBrowser__SplitWords 0000000010097aa8     guideXOS.obj
 0003:00069bb8       guideXOS_guideXOS_DefaultApps_WebBrowser__ExtractTitle 0000000010097bb8     guideXOS.obj
 0003:00069cec       guideXOS_guideXOS_DefaultApps_WebBrowser__ToLowerCase 0000000010097cec     guideXOS.obj
 0003:00069dac       guideXOS_guideXOS_DefaultApps_WebBrowser__FindString 0000000010097dac     guideXOS.obj
 0003:00069e24       guideXOS_guideXOS_DefaultApps_WebBrowser__NextEphemeral 0000000010097e24     guideXOS.obj
 0003:00069e58       guideXOS_guideXOS_DefaultApps_WebBrowser__ToAscii 0000000010097e58     guideXOS.obj
 0003:00069ec0       guideXOS_guideXOS_DefaultApps_WebBrowser__OnSetVisible 0000000010097ec0     guideXOS.obj
 0003:00069f18       guideXOS_guideXOS_DefaultApps_WebBrowser__IndexOf 0000000010097f18     guideXOS.obj
 0003:00069f48       guideXOS_guideXOS_DefaultApps_WebBrowser__StartsWithFast 0000000010097f48     guideXOS.obj
 0003:00069f90       guideXOS_guideXOS_DefaultApps_WebBrowser__Dispose 0000000010097f90     guideXOS.obj
 0003:0006a03c       guideXOS_guideXOS_DefaultApps_Welcome___ctor 000000001009803c     guideXOS.obj
 0003:0006a120       guideXOS_guideXOS_DefaultApps_Welcome__OnDraw 0000000010098120     guideXOS.obj
 0003:0006a1d4       guideXOS_guideXOS_Compat_Posix__EndsWithSlash 00000000100981d4     guideXOS.obj
 0003:0006a1f8       guideXOS_guideXOS_Compat_Posix__LastSlashBefore 00000000100981f8     guideXOS.obj
 0003:0006a23c       guideXOS_guideXOS_Compat_Posix__StartsWithString 000000001009823c     guideXOS.obj
 0003:0006a288       guideXOS_guideXOS_Compat_Posix__NormalizePath 0000000010098288     guideXOS.obj
 0003:0006a3e0       guideXOS_guideXOS_Compat_Posix__EnsureDir 00000000100983e0     guideXOS.obj
 0003:0006a430       guideXOS_guideXOS_Compat_Posix__CombineRelative 0000000010098430     guideXOS.obj
 0003:0006a48c       guideXOS_guideXOS_Compat_Posix__Split 000000001009848c     guideXOS.obj
 0003:0006a540       guideXOS_guideXOS_Compat_Posix__List 0000000010098540     guideXOS.obj
 0003:0006a6d4       guideXOS_guideXOS_Compat_Posix__DirectoryExists 00000000100986d4     guideXOS.obj
 0003:0006a86c       guideXOS_guideXOS_Compat_Posix__DisposeAll 000000001009886c     guideXOS.obj
 0003:0006a928       guideXOS_guideXOS_Compat_Posix__TryFuzzyResolve 0000000010098928     guideXOS.obj
 0003:0006acd0       guideXOS_guideXOS_NETv4_MACAddress__op_Equality 0000000010098cd0     guideXOS.obj
 0003:0006ad0c       guideXOS_guideXOS_NETv4_TCPClient___ctor 0000000010098d0c     guideXOS.obj
 0003:0006ad9c       guideXOS_guideXOS_NETv4_TCPClient__CacheConcat 0000000010098d9c     guideXOS.obj
 0003:0006ae9c       guideXOS_guideXOS_NETv4_TCPClient__CacheFlush 0000000010098e9c     guideXOS.obj
 0003:0006aee4       guideXOS_guideXOS_NETv4_IPAddress__IsInSameSubnet 0000000010098ee4     guideXOS.obj
 0003:0006af54       guideXOS_guideXOS_Network_Http_Header___ctor 0000000010098f54     guideXOS.obj
 0003:0006af58       guideXOS_guideXOS_Network_Http_Request___ctor 0000000010098f58     guideXOS.obj
 0003:0006afdc       guideXOS_guideXOS_Network_Http_Response___ctor 0000000010098fdc     guideXOS.obj
 0003:0006b040       guideXOS_guideXOS_Misc_Interrupts_INT___ctor 0000000010099040     guideXOS.obj
 0003:0006b044       guideXOS_guideXOS_FS_FAT___c__DisplayClass50_0___ctor 0000000010099044     guideXOS.obj
 0003:0006b048       guideXOS_guideXOS_FS_FAT___c__DisplayClass50_0___FindPath_b__0 0000000010099048     guideXOS.obj
 0003:0006b084       guideXOS_guideXOS_FS_FAT___c__DisplayClass50_1___ctor 0000000010099084     guideXOS.obj
 0003:0006b088       guideXOS_guideXOS_FS_FAT___c__DisplayClass50_1___FindPath_b__1 0000000010099088     guideXOS.obj
 0003:0006b0e4       guideXOS_guideXOS_FS_FAT___c__DisplayClass60_0___ctor 00000000100990e4     guideXOS.obj
 0003:0006b0e8       guideXOS_guideXOS_FS_FAT___c__DisplayClass60_0___GetFiles_b__0 00000000100990e8     guideXOS.obj
 0003:0006b1a8       guideXOS_guideXOS_Kernel_Drivers_EHCI_TD__Clean 00000000100991a8     guideXOS.obj
 0003:0006b218       guideXOS_guideXOS_Kernel_Drivers_EHCI_QH__Clean 0000000010099218     guideXOS.obj
 0003:0006b288       guideXOS_guideXOS_Kernel_Drivers_SATA_HBACommandHeader__set_CommandFISLength 0000000010099288     guideXOS.obj
 0003:0006b294       guideXOS_guideXOS_Kernel_Drivers_SATA_HBACommandHeader__set_Write 0000000010099294     guideXOS.obj
 0003:0006b2a0       guideXOS_guideXOS_Kernel_Drivers_SATA_SATADevice__Configure 00000000100992a0     guideXOS.obj
 0003:0006b378       guideXOS_guideXOS_Kernel_Drivers_SATA_SATADevice__StartCMD 0000000010099378     guideXOS.obj
 0003:0006b39c       guideXOS_guideXOS_Kernel_Drivers_SATA_SATADevice__StopCMD 000000001009939c     guideXOS.obj
 0003:0006b3d0       guideXOS_guideXOS_Kernel_Drivers_SATA_SATADevice__Read 00000000100993d0     guideXOS.obj
 0003:0006b3ec       guideXOS_guideXOS_Kernel_Drivers_SATA_SATADevice__Write 00000000100993ec     guideXOS.obj
 0003:0006b408       guideXOS_guideXOS_Kernel_Drivers_SATA_SATADevice__ReadOrWrite 0000000010099408     guideXOS.obj
 0003:0006b6cc       guideXOS_guideXOS_Kernel_Drivers_SATA_SATADevice__FindSlot 00000000100996cc     guideXOS.obj
 0003:0006b704       guideXOS_guideXOS_Kernel_Drivers_SATA_SATADevice___ctor 0000000010099704     guideXOS.obj
 0003:0006b724       guideXOS_guideXOS_Kernel_Drivers_USBMSCBot_USBDisk__Initialize 0000000010099724     guideXOS.obj
 0003:0006b89c       guideXOS_guideXOS_Kernel_Drivers_USBMSCBot_USBDisk__FillCBW 000000001009989c     guideXOS.obj
 0003:0006b908       guideXOS_guideXOS_Kernel_Drivers_USBMSCBot_USBDisk__BotReset 0000000010099908     guideXOS.obj
 0003:0006b964       guideXOS_guideXOS_Kernel_Drivers_USBMSCBot_USBDisk__GetMaxLun 0000000010099964     guideXOS.obj
 0003:0006b9e0       guideXOS_guideXOS_Kernel_Drivers_USBMSCBot_USBDisk__SendCBW 00000000100999e0     guideXOS.obj
 0003:0006bb00       guideXOS_guideXOS_Kernel_Drivers_USBMSCBot_USBDisk__ReceiveCSW 0000000010099b00     guideXOS.obj
 0003:0006bbc4       guideXOS_guideXOS_Kernel_Drivers_USBMSCBot_USBDisk__SCSI_Inquiry 0000000010099bc4     guideXOS.obj
 0003:0006bce0       guideXOS_guideXOS_Kernel_Drivers_USBMSCBot_USBDisk__TestUnitReady 0000000010099ce0     guideXOS.obj
 0003:0006bd80       guideXOS_guideXOS_Kernel_Drivers_USBMSCBot_USBDisk__ReadCapacity 0000000010099d80     guideXOS.obj
 0003:0006bed4       guideXOS_guideXOS_Kernel_Drivers_USBMSCBot_USBDisk__Swap32 0000000010099ed4     guideXOS.obj
 0003:0006bf04       guideXOS_guideXOS_Kernel_Drivers_USBMSCBot_USBDisk__Read10 0000000010099f04     guideXOS.obj
 0003:0006c040       guideXOS_guideXOS_Kernel_Drivers_USBMSCBot_USBDisk__Read 000000001009a040     guideXOS.obj
 0003:0006c0d4       guideXOS_guideXOS_Kernel_Drivers_USBMSCBot_USBDisk__Write 000000001009a0d4     guideXOS.obj
 0003:0006c0d8       guideXOS_guideXOS_Modules_ModuleManager___c___ctor 000000001009a0d8     guideXOS.obj
 0003:0006c0dc       guideXOS_guideXOS_Modules_ModuleManager___c___InitializeBuiltins_b__7_0 000000001009a0dc     guideXOS.obj
 0003:0006c120       guideXOS_guideXOS_GUI_DisplayOptions___c___ctor 000000001009a120     guideXOS.obj
 0003:0006c124       guideXOS_guideXOS_GUI_DisplayOptions___c___OnInput_b__40_0 000000001009a124     guideXOS.obj
 0003:0006c28c       guideXOS_guideXOS_GUI_DisplayOptions___c___OnInput_b__40_1 000000001009a28c     guideXOS.obj
 0003:0006c32c       guideXOS_guideXOS_GUI_GXMScriptWindow_TextBoxDef___ctor 000000001009a32c     guideXOS.obj
 0003:0006c348       guideXOS_guideXOS_GUI_GXMScriptWindow_ListViewDef___ctor 000000001009a348     guideXOS.obj
 0003:0006c398       guideXOS_guideXOS_GUI_GXMScriptWindow_DropdownDef___ctor 000000001009a398     guideXOS.obj
 0003:0006c3e8       guideXOS_guideXOS_GUI_GXMScriptWindow_Callback___ctor 000000001009a3e8     guideXOS.obj
 0003:0006c3ec       guideXOS_guideXOS_GUI_WorkspaceSwitcher_WindowSnapshot___ctor 000000001009a3ec     guideXOS.obj
 0003:0006c3f0       guideXOS_guideXOS_DockableWidgets_Monitor_Chart___ctor 000000001009a3f0     guideXOS.obj
 0003:0006c478       guideXOS_guideXOS_DefaultApps_DiskManager_DiskEntry___ctor 000000001009a478     guideXOS.obj
 0003:0006c47c       guideXOS_guideXOS_DefaultApps_DiskManager___c__DisplayClass38_0___ctor 000000001009a47c     guideXOS.obj
 0003:0006c480       guideXOS_guideXOS_DefaultApps_DiskManager___c__DisplayClass38_0___ReadMBRForEntry_b__0 000000001009a480     guideXOS.obj
 0003:0006c6d4       guideXOS_guideXOS_DefaultApps_DiskManager___c__DisplayClass54_0___ctor 000000001009a6d4     guideXOS.obj
 0003:0006c6d8       guideXOS_guideXOS_DefaultApps_DiskManager___c__DisplayClass54_0___TryCreatePartitionLargestFree_b__0 000000001009a6d8     guideXOS.obj
 0003:0006c73c       guideXOS_guideXOS_DefaultApps_DiskManager___c__DisplayClass54_0___TryCreatePartitionLargestFree_b__1 000000001009a73c     guideXOS.obj
 0003:0006c7a0       guideXOS_guideXOS_DefaultApps_IRCNetworks_Entry___ctor 000000001009a7a0     guideXOS.obj
 0003:0006c7a4       guideXOS_guideXOS_DefaultApps_Notepad___c__DisplayClass24_0___ctor 000000001009a7a4     guideXOS.obj
 0003:0006c7a8       guideXOS_guideXOS_DefaultApps_Notepad___c__DisplayClass24_0___OpenSaveAs_b__0 000000001009a7a8     guideXOS.obj
 0003:0006c7d8       guideXOS_guideXOS_DefaultApps_TaskManager_Chart___ctor 000000001009a7d8     guideXOS.obj
 0003:0006c86c       guideXOS_guideXOS_DefaultApps_TaskManager_Chart__EnsureSize 000000001009a86c     guideXOS.obj
 0003:0006c8f8       guideXOS_guideXOS_DefaultApps_WebBrowser_BrowserTab___ctor 000000001009a8f8     guideXOS.obj
 0003:0006c988       guideXOS_guideXOS_DefaultApps_WebBrowser_RenderElement___ctor 000000001009a988     guideXOS.obj
 0003:0006c98c       guideXOS_System_Array_1<UInt8>___ctor 000000001009a98c     guideXOS.obj
 0003:0006c990       guideXOS_System_Collections_Generic_List_1<UInt8>__ToArray 000000001009a990     guideXOS.obj
 0003:0006c9e4       guideXOS_System_Collections_Generic_List_1<UInt8>__Dispose 000000001009a9e4     guideXOS.obj
 0003:0006ca6c       guideXOS_System_Array_1<Char>___ctor 000000001009aa6c     guideXOS.obj
 0003:0006ca70       guideXOS_System_Array_1<guideXOS_System_ConsoleKey>___ctor 000000001009aa70     guideXOS.obj
 0003:0006ca74       guideXOS_System_Array_1<Int32>___ctor 000000001009aa74     guideXOS.obj
 0003:0006ca78       guideXOS_System_Collections_Generic_List_1<Int32>__Dispose 000000001009aa78     guideXOS.obj
 0003:0006cb00       guideXOS_System_Func_2<Int32__System___Canon>__InvokeOpenStaticThunk 000000001009ab00     guideXOS.obj
 0003:0006cb18       guideXOS_System_Array_1<UInt32>___ctor 000000001009ab18     guideXOS.obj
 0003:0006cb1c       guideXOS_System_Collections_Generic_List_1<UInt32>__Dispose 000000001009ab1c     guideXOS.obj
 0003:0006cba4       guideXOS_System_Array_1<UInt64>___ctor 000000001009aba4     guideXOS.obj
 0003:0006cba8       guideXOS_System_Collections_Generic_List_1<UInt64>__RemoveAt 000000001009aba8     guideXOS.obj
 0003:0006cc0c       guideXOS_System_Collections_Generic_List_1<UInt64>__Dispose 000000001009ac0c     guideXOS.obj
 0003:0006cc94       guideXOS_System_Array_1<guideXOS_System_Drawing_Point>___ctor 000000001009ac94     guideXOS.obj
 0003:0006cc98       guideXOS_System_Collections_Generic_List_1<guideXOS_System_Drawing_Point>__RemoveAt 000000001009ac98     guideXOS.obj
 0003:0006cd0c       guideXOS_System_Collections_Generic_List_1<guideXOS_System_Drawing_Point>__Dispose 000000001009ad0c     guideXOS.obj
 0003:0006cd94       guideXOS_System_Array_1<guideXOS_guideXOS_Kernel_Drivers_Resolution>___ctor 000000001009ad94     guideXOS.obj
 0003:0006cd98       guideXOS_System_Array_1<guideXOS_guideXOS_OS_FirewallMode>___ctor 000000001009ad98     guideXOS.obj
 0003:0006cd9c       guideXOS_System_Array_1<guideXOS_guideXOS_GUI_RecentProgramEntry>___ctor 000000001009ad9c     guideXOS.obj
 0003:0006cda0       guideXOS_System_Collections_Generic_List_1<guideXOS_guideXOS_GUI_RecentProgramEntry>__Insert 000000001009ada0     guideXOS.obj
 0003:0006cf08       guideXOS_System_Collections_Generic_List_1<guideXOS_guideXOS_GUI_RecentProgramEntry>__ToArray 000000001009af08     guideXOS.obj
 0003:0006cf94       guideXOS_System_Collections_Generic_List_1<guideXOS_guideXOS_GUI_RecentProgramEntry>__IndexOf 000000001009af94     guideXOS.obj
 0003:0006cfd0       guideXOS_System_Collections_Generic_List_1<guideXOS_guideXOS_GUI_RecentProgramEntry>__RemoveAt 000000001009afd0     guideXOS.obj
 0003:0006d07c       guideXOS_System_Collections_Generic_List_1<guideXOS_guideXOS_GUI_RecentProgramEntry>__Dispose 000000001009b07c     guideXOS.obj
 0003:0006d104       guideXOS_System_Array_1<guideXOS_guideXOS_GUI_RecentDocumentEntry>___ctor 000000001009b104     guideXOS.obj
 0003:0006d108       guideXOS_System_Collections_Generic_List_1<guideXOS_guideXOS_GUI_RecentDocumentEntry>__Insert 000000001009b108     guideXOS.obj
 0003:0006d270       guideXOS_System_Collections_Generic_List_1<guideXOS_guideXOS_GUI_RecentDocumentEntry>__ToArray 000000001009b270     guideXOS.obj
 0003:0006d2fc       guideXOS_System_Collections_Generic_List_1<guideXOS_guideXOS_GUI_RecentDocumentEntry>__IndexOf 000000001009b2fc     guideXOS.obj
 0003:0006d338       guideXOS_System_Collections_Generic_List_1<guideXOS_guideXOS_GUI_RecentDocumentEntry>__RemoveAt 000000001009b338     guideXOS.obj
 0003:0006d3e4       guideXOS_System_Collections_Generic_List_1<guideXOS_guideXOS_GUI_RecentDocumentEntry>__Dispose 000000001009b3e4     guideXOS.obj
 0003:0006d46c       guideXOS_System_Array_1<guideXOS_guideXOS_DefaultApps_PaintTool>___ctor 000000001009b46c     guideXOS.obj
 0003:0006d470       guideXOS_System_Collections_Generic_List_1<guideXOS_guideXOS_DefaultApps_PaintTool>__Dispose 000000001009b470     guideXOS.obj
 0003:0006d4f8       guideXOS_System_Array_1<guideXOS_Allocator_OwnerSnapshot>___ctor 000000001009b4f8     guideXOS.obj
 0003:0006d4fc       guideXOS_System_Array_1<guideXOS_IDT_IDTEntry>___ctor 000000001009b4fc     guideXOS.obj
 0003:0006d500       guideXOS_System_Array_1<guideXOS_guideXOS_NETv4_ARPCache>___ctor 000000001009b500     guideXOS.obj
 0003:0006d504       guideXOS_System_Collections_Generic_List_1<guideXOS_guideXOS_NETv4_ARPCache>__Dispose 000000001009b504     guideXOS.obj
 0003:0006d58c       guideXOS_System_Array_1<guideXOS_guideXOS_FS_EXT2_DirEnt>___ctor 000000001009b58c     guideXOS.obj
 0003:0006d590       guideXOS_System_Collections_Generic_List_1<guideXOS_guideXOS_FS_EXT2_DirEnt>__Dispose 000000001009b590     guideXOS.obj
 0003:0006d618       guideXOS_System_Array_1<guideXOS_guideXOS_Modules_ModuleManager_ModuleEntry>___ctor 000000001009b618     guideXOS.obj
 0003:0006d61c       guideXOS_System_Collections_Generic_List_1<guideXOS_guideXOS_Modules_ModuleManager_ModuleEntry>__Dispose 000000001009b61c     guideXOS.obj
 0003:0006d6a4       guideXOS_System_Array_1<guideXOS_guideXOS_GUI_GXMScriptWindow_Btn>___ctor 000000001009b6a4     guideXOS.obj
 0003:0006d6a8       guideXOS_System_Collections_Generic_List_1<guideXOS_guideXOS_GUI_GXMScriptWindow_Btn>__Dispose 000000001009b6a8     guideXOS.obj
 0003:0006d730       guideXOS_System_Array_1<guideXOS_guideXOS_GUI_GXMScriptWindow_Label>___ctor 000000001009b730     guideXOS.obj
 0003:0006d734       guideXOS_System_Collections_Generic_List_1<guideXOS_guideXOS_GUI_GXMScriptWindow_Label>__Dispose 000000001009b734     guideXOS.obj
 0003:0006d7bc       guideXOS_System_Array_1<guideXOS_guideXOS_GUI_PinnedManager_Pinned>___ctor 000000001009b7bc     guideXOS.obj
 0003:0006d7c0       guideXOS_System_Collections_Generic_List_1<guideXOS_guideXOS_GUI_PinnedManager_Pinned>__Dispose 000000001009b7c0     guideXOS.obj
 0003:0006d848       guideXOS_System_Array_1<guideXOS_guideXOS_GUI_StartMenu_AppEntry>___ctor 000000001009b848     guideXOS.obj
 0003:0006d84c       guideXOS_System_Array_1<guideXOS_guideXOS_GUI_USBDrives_Entry>___ctor 000000001009b84c     guideXOS.obj
 0003:0006d850       guideXOS_System_Array_1<guideXOS_guideXOS_GUI_WindowManager_PendingWindow>___ctor 000000001009b850     guideXOS.obj
 0003:0006d854       guideXOS_System_Collections_Generic_List_1<guideXOS_guideXOS_GUI_WindowManager_PendingWindow>__Dispose 000000001009b854     guideXOS.obj
 0003:0006d8dc       guideXOS_System_Array_1<guideXOS_guideXOS_DefaultApps_Devices_Row>___ctor 000000001009b8dc     guideXOS.obj
 0003:0006d8e0       guideXOS_System_Array_1<guideXOS_guideXOS_DefaultApps_DiskManager_Part>___ctor 000000001009b8e0     guideXOS.obj
 0003:0006d8e4       guideXOS_System_Array_1<System___Canon>___ctor 000000001009b8e4     guideXOS.obj
 0003:0006d8e8       guideXOS_System_Collections_Generic_List_1<System___Canon>___ctor 000000001009b8e8     guideXOS.obj
 0003:0006d91c       guideXOS_System_Collections_Generic_List_1<System___Canon>__ToArray 000000001009b91c     guideXOS.obj
 0003:0006d980       guideXOS_System_Collections_Generic_List_1<System___Canon>__IndexOf 000000001009b980     guideXOS.obj
 0003:0006d9e0       guideXOS_System_Collections_Generic_List_1<System___Canon>__Remove 000000001009b9e0     guideXOS.obj
 0003:0006da14       guideXOS_System_Collections_Generic_List_1<System___Canon>__RemoveAt 000000001009ba14     guideXOS.obj
 0003:0006da74       guideXOS_System_Collections_Generic_List_1<System___Canon>__Dispose 000000001009ba74     guideXOS.obj
 0003:0006dafc       guideXOS_System_Collections_Generic_Queue_1<System___Canon>__Dequeue 000000001009bafc     guideXOS.obj
 0003:0006db7c       guideXOS_System_Array_EmptyArray_1<System___Canon>___cctor 000000001009bb7c     guideXOS.obj
 0003:0006dbc4       guideXOS_System_Collections_Generic_Dictionary_2<System___Canon__Int32>___ctor 000000001009bbc4     guideXOS.obj
 0003:0006dc40       guideXOS_System_Collections_Generic_Dictionary_2<System___Canon__Int32>__Dispose 000000001009bc40     guideXOS.obj
 0003:0006dd8c       guideXOS_System_Collections_Generic_Dictionary_2<System___Canon__guideXOS_guideXOS_DefaultApps_PaintTool>___ctor 000000001009bd8c     guideXOS.obj
 0003:0006de08       guideXOS_System_Collections_Generic_Dictionary_2<System___Canon__guideXOS_guideXOS_DefaultApps_PaintTool>__Dispose 000000001009be08     guideXOS.obj
 0003:0006df54       __managed__Main            000000001009bf54     guideXOS.obj
 0003:0006df54       guideXOS__Module___StartupCodeMain 000000001009bf54     guideXOS.obj
 0003:0006df84       guideXOS_Allocator__ClearAllocate<guideXOS_guideXOS_Intel825xx_RXDescriptor> 000000001009bf84     guideXOS.obj
 0003:0006df98       guideXOS_Allocator__ClearAllocate<guideXOS_guideXOS_Intel825xx_TXDescriptor> 000000001009bf98     guideXOS.obj
 0003:0006dfac       guideXOS_Allocator__ClearAllocate<guideXOS_guideXOS_RTL8111_DMADescriptor> 000000001009bfac     guideXOS.obj
 0004:00000000       __embedded_metadata        000000001009c000     guideXOS.obj
 0004:00008d01       __embedded_metadata_End    00000000100a4d01     guideXOS.obj
 0004:00008d01       __embedded_resourcedata    00000000100a4d01     guideXOS.obj
 0004:00008d01       __embedded_resourcedata_End 00000000100a4d01     guideXOS.obj
 0004:00008d01       __embedded_resourceindex   00000000100a4d01     guideXOS.obj
 0004:00008d04       __embedded_resourceindex_End 00000000100a4d04     guideXOS.obj
 0004:00008d04       __type_to_metadata_map     00000000100a4d04     guideXOS.obj
 0004:00009182       __type_to_cctorContext_map 00000000100a5182     guideXOS.obj
 0004:00009182       __type_to_metadata_map_End 00000000100a5182     guideXOS.obj
 0004:0000918d       __method_to_entrypoint_map 00000000100a518d     guideXOS.obj
 0004:0000918d       __type_to_cctorContext_map_End 00000000100a518d     guideXOS.obj
 0004:00009190       __delegate_marshalling_stub_map 00000000100a5190     guideXOS.obj
 0004:00009190       __method_to_entrypoint_map_End 00000000100a5190     guideXOS.obj
 0004:00009193       __delegate_marshalling_stub_map_End 00000000100a5193     guideXOS.obj
 0004:00009193       __struct_marshalling_stub_map 00000000100a5193     guideXOS.obj
 0004:00009196       __array_type_map           00000000100a5196     guideXOS.obj
 0004:00009196       __struct_marshalling_stub_map_End 00000000100a5196     guideXOS.obj
 0004:000092ad       __array_type_map_End       00000000100a52ad     guideXOS.obj
 0004:000092ad       __field_to_offset_map      00000000100a52ad     guideXOS.obj
 0004:000092b0       __exact_method_instantiations 00000000100a52b0     guideXOS.obj
 0004:000092b0       __field_to_offset_map_End  00000000100a52b0     guideXOS.obj
 0004:000092b0       __nativelayoutinfo         00000000100a52b0     guideXOS.obj
 0004:000092b0       __nativelayoutinfo_End     00000000100a52b0     guideXOS.obj
 0004:000092b3       __exact_method_instantiations_End 00000000100a52b3     guideXOS.obj
 0004:000092b3       __generic_types_hashtable  00000000100a52b3     guideXOS.obj
 0004:00009380       __generic_methods_hashtable 00000000100a5380     guideXOS.obj
 0004:00009380       __generic_types_hashtable_End 00000000100a5380     guideXOS.obj
 0004:00009383       __generic_methods_hashtable_End 00000000100a5383     guideXOS.obj
 0004:00009383       __gvm_table                00000000100a5383     guideXOS.obj
 0004:00009386       __gvm_table_End            00000000100a5386     guideXOS.obj
 0004:00009386       __interface_gvm_table      00000000100a5386     guideXOS.obj
 0004:00009389       __GenericMethodsTemplateMap 00000000100a5389     guideXOS.obj
 0004:00009389       __interface_gvm_table_End  00000000100a5389     guideXOS.obj
 0004:0000938c       __GenericMethodsTemplateMap_End 00000000100a538c     guideXOS.obj
 0004:0000938c       __GenericTypesTemplateMap  00000000100a538c     guideXOS.obj
 0004:0000938f       __GenericTypesTemplateMap_End 00000000100a538f     guideXOS.obj
 0004:0000938f       __block_reflection_type_map 00000000100a538f     guideXOS.obj
 0004:00009616       _StaticsInfoHashtableNode  00000000100a5616     guideXOS.obj
 0004:00009616       __block_reflection_type_map_End 00000000100a5616     guideXOS.obj
 0004:00009621       _StaticsInfoHashtableNode_End 00000000100a5621     guideXOS.obj
 0004:00009621       __VirtualInvokeMap         00000000100a5621     guideXOS.obj
 0004:00009624       __DefaultConstructor_Map   00000000100a5624     guideXOS.obj
 0004:00009624       __VirtualInvokeMap_End     00000000100a5624     guideXOS.obj
 0004:0000974a       __DefaultConstructor_Map_End 00000000100a574a     guideXOS.obj
 0004:0000974a       __external_CommonFixupsTable_references 00000000100a574a     guideXOS.obj
 0004:00009b4e       __external_CommonFixupsTable_references_End 00000000100a5b4e     guideXOS.obj
 0004:00009b4e       __external_NativeReferences_references 00000000100a5b4e     guideXOS.obj
 0004:00009c22       __external_NativeReferences_references_End 00000000100a5c22     guideXOS.obj
 0004:00009c22       __external_NativeStatics_references 00000000100a5c22     guideXOS.obj
 0004:00009c2a       __external_NativeStatics_references_End 00000000100a5c2a     guideXOS.obj
 0004:00009c30       _stacktrace_methodRVA_to_token_mapping 00000000100a5c30     guideXOS.obj
 0004:0000c268       __ReadyToRunHeader         00000000100a8268     guideXOS.obj
 0004:0000c268       _stacktrace_methodRVA_to_token_mapping_End 00000000100a8268     guideXOS.obj
 0004:0000c548       __readonlydata_g_compilerEmbeddedSettingsBlob 00000000100a8548     guideXOS.obj
 0004:0000c548       g_compilerEmbeddedSettingsBlob 00000000100a8548     guideXOS.obj
 0004:0000c54c       __readonlydata_g_requiredCpuFeatures 00000000100a854c     guideXOS.obj
 0004:0000c54c       g_requiredCpuFeatures      00000000100a854c     guideXOS.obj
 0004:0000c550       __utf8str_Error            00000000100a8550     guideXOS.obj
 0004:0000c558       ??_7guideXOS_System_Action_1@@6B@ 00000000100a8558     guideXOS.obj
 0004:0000c578       ??_7guideXOS_System_EventHandler_1@@6B@ 00000000100a8578     guideXOS.obj
 0004:0000c598       ??_7guideXOS_System_Func_2@@6B@ 00000000100a8598     guideXOS.obj
 0004:0000c5b8       ??_7guideXOS_System_Func_5@@6B@ 00000000100a85b8     guideXOS.obj
 0004:0000c5d8       ??_7guideXOS_System_Collections_Generic_Dictionary_2@@6B@ 00000000100a85d8     guideXOS.obj
 0004:0000c5f8       ??_7guideXOS_System_Collections_Generic_List_1@@6B@ 00000000100a85f8     guideXOS.obj
 0004:0000c618       ??_7guideXOS_System_Collections_Generic_Queue_1@@6B@ 00000000100a8618     guideXOS.obj
 0004:0000c638       ??_7guideXOS_System_Array_EmptyArray_1@@6B@ 00000000100a8638     guideXOS.obj
 0004:0000c65c       __fatpointer_guideXOS_System_Array_EmptyArray_1<String>___cctor 00000000100a865c     guideXOS.obj
 0004:0000c688       ??_7guideXOS_System_Action@@6B@ 00000000100a8688     guideXOS.obj
 0004:0000c6b8       ??_7guideXOS_System_Array@@6B@ 00000000100a86b8     guideXOS.obj
 0004:0000c6f0       ??_7Boxed_Bool@@6B@        00000000100a86f0     guideXOS.obj
 0004:0000c728       ??_7Boxed_UInt8@@6B@       00000000100a8728     guideXOS.obj
 0004:0000c778       ??_7guideXOS_System_Delegate@@6B@ 00000000100a8778     guideXOS.obj
 0004:0000c7b0       ??_7guideXOS_System_Enum@@6B@ 00000000100a87b0     guideXOS.obj
 0004:0000c7e8       ??_7Boxed_Int32@@6B@       00000000100a87e8     guideXOS.obj
 0004:0000c838       ??_7guideXOS_System_MulticastDelegate@@6B@ 00000000100a8838     guideXOS.obj
 0004:0000c870       ??_7Object@@6B@            00000000100a8870     guideXOS.obj
 0004:0000c8a8       ??_7String@@6B@            00000000100a88a8     guideXOS.obj
 0004:0000c8d8       ??_7Boxed_UInt16@@6B@      00000000100a88d8     guideXOS.obj
 0004:0000c910       ??_7Boxed_UInt32@@6B@      00000000100a8910     guideXOS.obj
 0004:0000c948       ??_7Boxed_UInt64@@6B@      00000000100a8948     guideXOS.obj
 0004:0000c978       ??_7guideXOS_System_ValueType@@6B@ 00000000100a8978     guideXOS.obj
 0004:0000c9c8       ??_7guideXOS_System_Drawing_Image@@6B@ 00000000100a89c8     guideXOS.obj
 0004:0000ca00       ??_7guideXOS_guideXOS_Animation@@6B@ 00000000100a8a00     guideXOS.obj
 0004:0000ca50       ??_7guideXOS_guideXOS_Misc_BitFontDescriptor@@6B@ 00000000100a8a50     guideXOS.obj
 0004:0000caa0       ??_7guideXOS_guideXOS_Misc_Bitmap@@6B@ 00000000100a8aa0     guideXOS.obj
 0004:0000caf0       ??_7guideXOS_guideXOS_Misc_IFont@@6B@ 00000000100a8af0     guideXOS.obj
 0004:0000cb40       ??_7guideXOS_guideXOS_Misc_PNG@@6B@ 00000000100a8b40     guideXOS.obj
 0004:0000cb90       ??_7guideXOS_guideXOS_Misc_SVG@@6B@ 00000000100a8b90     guideXOS.obj
 0004:0000cbc8       ??_7guideXOS_guideXOS_Misc_Thread@@6B@ 00000000100a8bc8     guideXOS.obj
 0004:0000cc18       ??_7guideXOS_guideXOS_Misc_USBDevice@@6B@ 00000000100a8c18     guideXOS.obj
 0004:0000cc68       ??_7guideXOS_guideXOS_Graph_Graphics@@6B@ 00000000100a8c68     guideXOS.obj
 0004:0000cd20       ??_7guideXOS_guideXOS_FS_AutoFS@@6B@ 00000000100a8d20     guideXOS.obj
 0004:0000cd70       ??_7guideXOS_guideXOS_FS_Disk@@6B@ 00000000100a8d70     guideXOS.obj
 0004:0000cdd0       ??_7guideXOS_guideXOS_FS_EXT2@@6B@ 00000000100a8dd0     guideXOS.obj
 0004:0000ce38       ??_7guideXOS_guideXOS_FS_FAT@@6B@ 00000000100a8e38     guideXOS.obj
 0004:0000ce90       ??_7guideXOS_guideXOS_FS_FATFS@@6B@ 00000000100a8e90     guideXOS.obj
 0004:0000cf00       ??_7guideXOS_guideXOS_FS_FileInfo@@6B@ 00000000100a8f00     guideXOS.obj
 0004:0000cf38       ??_7guideXOS_guideXOS_FS_FileSystem@@6B@ 00000000100a8f38     guideXOS.obj
 0004:0000cfa8       ??_7guideXOS_guideXOS_FS_TarFS@@6B@ 00000000100a8fa8     guideXOS.obj
 0004:0000cff8       ??_7guideXOS_guideXOS_Kernel_Drivers_IDEDevice@@6B@ 00000000100a8ff8     guideXOS.obj
 0004:0000d040       ??_7guideXOS_guideXOS_Kernel_Drivers_PCIDevice@@6B@ 00000000100a9040     guideXOS.obj
 0004:0000d078       ??_7guideXOS_guideXOS_Kernel_Drivers_Ramdisk@@6B@ 00000000100a9078     guideXOS.obj
 0004:0000d0d0       ??_7guideXOS_guideXOS_Kernel_Drivers_VMWareSVGAII@@6B@ 00000000100a90d0     guideXOS.obj
 0004:0000d120       ??_7guideXOS_guideXOS_OS_App@@6B@ 00000000100a9120     guideXOS.obj
 0004:0000d168       ??_7guideXOS_guideXOS_OS_AppCollection@@6B@ 00000000100a9168     guideXOS.obj
 0004:0000d1d0       ??_7guideXOS_guideXOS_GUI_DisplayOptions@@6B@ 00000000100a91d0     guideXOS.obj
 0004:0000d258       ??_7guideXOS_guideXOS_GUI_ColorPicker@@6B@ 00000000100a9258     guideXOS.obj
 0004:0000d2e8       ??_7guideXOS_guideXOS_GUI_DockableWidget@@6B@ 00000000100a92e8     guideXOS.obj
 0004:0000d388       ??_7guideXOS_guideXOS_GUI_GXMScriptWindow@@6B@ 00000000100a9388     guideXOS.obj
 0004:0000d3f8       ??_7guideXOS_guideXOS_GUI_IconsPrivate@@6B@ 00000000100a93f8     guideXOS.obj
 0004:0000d460       ??_7guideXOS_guideXOS_GUI_MessageBox@@6B@ 00000000100a9460     guideXOS.obj
 0004:0000d4e8       ??_7guideXOS_guideXOS_GUI_NetworkConfigurationDialog@@6B@ 00000000100a94e8     guideXOS.obj
 0004:0000d558       ??_7guideXOS_guideXOS_GUI_Notify@@6B@ 00000000100a9558     guideXOS.obj
 0004:0000d5b8       ??_7guideXOS_guideXOS_GUI_OnScreenKeyboard@@6B@ 00000000100a95b8     guideXOS.obj
 0004:0000d648       ??_7guideXOS_guideXOS_GUI_OpenDialog@@6B@ 00000000100a9648     guideXOS.obj
 0004:0000d6c8       ??_7guideXOS_guideXOS_GUI_RightMenu@@6B@ 00000000100a96c8     guideXOS.obj
 0004:0000d758       ??_7guideXOS_guideXOS_GUI_SaveChangesDialog@@6B@ 00000000100a9758     guideXOS.obj
 0004:0000d7e8       ??_7guideXOS_guideXOS_GUI_SaveDialog@@6B@ 00000000100a97e8     guideXOS.obj
 0004:0000d878       ??_7guideXOS_guideXOS_GUI_ShutdownDialog@@6B@ 00000000100a9878     guideXOS.obj
 0004:0000d900       ??_7guideXOS_guideXOS_GUI_StartMenu@@6B@ 00000000100a9900     guideXOS.obj
 0004:0000d970       ??_7guideXOS_guideXOS_GUI_Taskbar@@6B@ 00000000100a9970     guideXOS.obj
 0004:0000d9d0       ??_7guideXOS_guideXOS_GUI_TaskbarMenu@@6B@ 00000000100a99d0     guideXOS.obj
 0004:0000da60       ??_7guideXOS_guideXOS_GUI_USBDrives@@6B@ 00000000100a9a60     guideXOS.obj
 0004:0000dae8       ??_7guideXOS_guideXOS_GUI_USBFiles@@6B@ 00000000100a9ae8     guideXOS.obj
 0004:0000db68       ??_7guideXOS_guideXOS_GUI_VisualEffectsSettings@@6B@ 00000000100a9b68     guideXOS.obj
 0004:0000dbf8       ??_7guideXOS_guideXOS_GUI_WidgetContainer@@6B@ 00000000100a9bf8     guideXOS.obj
 0004:0000dc88       ??_7guideXOS_guideXOS_GUI_WidgetContextMenu@@6B@ 00000000100a9c88     guideXOS.obj
 0004:0000dd00       ??_7guideXOS_guideXOS_GUI_Window@@6B@ 00000000100a9d00     guideXOS.obj
 0004:0000dd70       ??_7guideXOS_guideXOS_GUI_WorkspaceSwitcher@@6B@ 00000000100a9d70     guideXOS.obj
 0004:0000ddc0       ??_7guideXOS_guideXOS_GUI_Widgets_Button@@6B@ 00000000100a9dc0     guideXOS.obj
 0004:0000ddf8       ??_7guideXOS_guideXOS_GUI_Widgets_Base_Widget@@6B@ 00000000100a9df8     guideXOS.obj
 0004:0000de40       ??_7guideXOS_guideXOS_GUI_Base_WindowBase@@6B@ 00000000100a9e40     guideXOS.obj
 0004:0000deb0       ??_7guideXOS_guideXOS_DockableWidgets_Clock@@6B@ 00000000100a9eb0     guideXOS.obj
 0004:0000df58       ??_7guideXOS_guideXOS_DockableWidgets_Monitor@@6B@ 00000000100a9f58     guideXOS.obj
 0004:0000e000       ??_7guideXOS_guideXOS_DockableWidgets_PerformanceWidget@@6B@ 00000000100aa000     guideXOS.obj
 0004:0000e098       ??_7guideXOS_guideXOS_DefaultApps_Calculator@@6B@ 00000000100aa098     guideXOS.obj
 0004:0000e128       ??_7guideXOS_guideXOS_DefaultApps_ComputerFiles@@6B@ 00000000100aa128     guideXOS.obj
 0004:0000e1b8       ??_7guideXOS_guideXOS_DefaultApps_Devices@@6B@ 00000000100aa1b8     guideXOS.obj
 0004:0000e248       ??_7guideXOS_guideXOS_DefaultApps_DiskManager@@6B@ 00000000100aa248     guideXOS.obj
 0004:0000e2b8       ??_7guideXOS_guideXOS_DefaultApps_DriveInfo@@6B@ 00000000100aa2b8     guideXOS.obj
 0004:0000e328       ??_7guideXOS_guideXOS_DefaultApps_FConsole@@6B@ 00000000100aa328     guideXOS.obj
 0004:0000e3b8       ??_7guideXOS_guideXOS_DefaultApps_FirewallAlert@@6B@ 00000000100aa3b8     guideXOS.obj
 0004:0000e430       ??_7guideXOS_guideXOS_DefaultApps_FirewallWindow@@6B@ 00000000100aa430     guideXOS.obj
 0004:0000e4c0       ??_7guideXOS_guideXOS_DefaultApps_GUISamples@@6B@ 00000000100aa4c0     guideXOS.obj
 0004:0000e548       ??_7guideXOS_guideXOS_DefaultApps_ImageViewer@@6B@ 00000000100aa548     guideXOS.obj
 0004:0000e5d8       ??_7guideXOS_guideXOS_DefaultApps_IRCNetworks@@6B@ 00000000100aa5d8     guideXOS.obj
 0004:0000e668       ??_7guideXOS_guideXOS_DefaultApps_nexIRC@@6B@ 00000000100aa668     guideXOS.obj
 0004:0000e6f8       ??_7guideXOS_guideXOS_DefaultApps_Notepad@@6B@ 00000000100aa6f8     guideXOS.obj
 0004:0000e750       ??_7Boxed_guideXOS_guideXOS_DefaultApps_PaintTool@@6B@ 00000000100aa750     guideXOS.obj
 0004:0000e7c0       ??_7guideXOS_guideXOS_DefaultApps_Paint@@6B@ 00000000100aa7c0     guideXOS.obj
 0004:0000e848       ??_7guideXOS_guideXOS_DefaultApps_TaskManager@@6B@ 00000000100aa848     guideXOS.obj
 0004:0000e8d8       ??_7guideXOS_guideXOS_DefaultApps_USBDrives@@6B@ 00000000100aa8d8     guideXOS.obj
 0004:0000e968       ??_7guideXOS_guideXOS_DefaultApps_WAVPlayer@@6B@ 00000000100aa968     guideXOS.obj
 0004:0000e9f0       ??_7guideXOS_guideXOS_DefaultApps_WebBrowser@@6B@ 00000000100aa9f0     guideXOS.obj
 0004:0000ea80       ??_7guideXOS_guideXOS_DefaultApps_Welcome@@6B@ 00000000100aaa80     guideXOS.obj
 0004:0000eae8       ??_7guideXOS_guideXOS_Console_OnWriteHandler@@6B@ 00000000100aaae8     guideXOS.obj
 0004:0000eb30       ??_7guideXOS_guideXOS_NETv4_UDPClient@@6B@ 00000000100aab30     guideXOS.obj
 0004:0000eb78       ??_7guideXOS_guideXOS_NETv4_TCPClient@@6B@ 00000000100aab78     guideXOS.obj
 0004:0000ebc8       ??_7guideXOS_guideXOS_Network_Http_Header@@6B@ 00000000100aabc8     guideXOS.obj
 0004:0000ec10       ??_7guideXOS_guideXOS_Network_Http_Request@@6B@ 00000000100aac10     guideXOS.obj
 0004:0000ec58       ??_7guideXOS_guideXOS_Network_Http_Response@@6B@ 00000000100aac58     guideXOS.obj
 0004:0000ec90       ??_7guideXOS_guideXOS_Misc_Interrupts_INT@@6B@ 00000000100aac90     guideXOS.obj
 0004:0000ece0       ??_7guideXOS_guideXOS_FS_FAT___c__DisplayClass50_0@@6B@ 00000000100aace0     guideXOS.obj
 0004:0000ed28       ??_7guideXOS_guideXOS_FS_FAT___c__DisplayClass50_1@@6B@ 00000000100aad28     guideXOS.obj
 0004:0000ed70       ??_7guideXOS_guideXOS_FS_FAT___c__DisplayClass60_0@@6B@ 00000000100aad70     guideXOS.obj
 0004:0000eda0       ??_7guideXOS_guideXOS_Kernel_Drivers_SATA_SATADevice@@6B@ 00000000100aada0     guideXOS.obj
 0004:0000ee00       ??_7guideXOS_guideXOS_Kernel_Drivers_USBMSCBot_USBDisk@@6B@ 00000000100aae00     guideXOS.obj
 0004:0000ee40       ??_7guideXOS_guideXOS_Modules_ModuleManager___c@@6B@ 00000000100aae40     guideXOS.obj
 0004:0000ee70       ??_7guideXOS_guideXOS_GUI_DisplayOptions___c@@6B@ 00000000100aae70     guideXOS.obj
 0004:0000eeb8       ??_7guideXOS_guideXOS_GUI_GXMScriptWindow_TextBoxDef@@6B@ 00000000100aaeb8     guideXOS.obj
 0004:0000ef08       ??_7guideXOS_guideXOS_GUI_GXMScriptWindow_ListViewDef@@6B@ 00000000100aaf08     guideXOS.obj
 0004:0000ef50       ??_7guideXOS_guideXOS_GUI_GXMScriptWindow_DropdownDef@@6B@ 00000000100aaf50     guideXOS.obj
 0004:0000efa0       ??_7guideXOS_guideXOS_GUI_GXMScriptWindow_Callback@@6B@ 00000000100aafa0     guideXOS.obj
 0004:0000efe8       ??_7guideXOS_guideXOS_GUI_WorkspaceSwitcher_WindowSnapshot@@6B@ 00000000100aafe8     guideXOS.obj
 0004:0000f038       ??_7guideXOS_guideXOS_DockableWidgets_Monitor_Chart@@6B@ 00000000100ab038     guideXOS.obj
 0004:0000f088       ??_7guideXOS_guideXOS_DefaultApps_DiskManager_DiskEntry@@6B@ 00000000100ab088     guideXOS.obj
 0004:0000f0d8       ??_7guideXOS_guideXOS_DefaultApps_DiskManager___c__DisplayClass38_0@@6B@ 00000000100ab0d8     guideXOS.obj
 0004:0000f120       ??_7guideXOS_guideXOS_DefaultApps_DiskManager___c__DisplayClass54_0@@6B@ 00000000100ab120     guideXOS.obj
 0004:0000f168       ??_7guideXOS_guideXOS_DefaultApps_IRCNetworks_Entry@@6B@ 00000000100ab168     guideXOS.obj
 0004:0000f1b8       ??_7guideXOS_guideXOS_DefaultApps_Notepad___c__DisplayClass24_0@@6B@ 00000000100ab1b8     guideXOS.obj
 0004:0000f200       ??_7guideXOS_guideXOS_DefaultApps_TaskManager_Chart@@6B@ 00000000100ab200     guideXOS.obj
 0004:0000f248       ??_7guideXOS_guideXOS_DefaultApps_WebBrowser_BrowserTab@@6B@ 00000000100ab248     guideXOS.obj
 0004:0000f298       ??_7guideXOS_guideXOS_DefaultApps_WebBrowser_RenderElement@@6B@ 00000000100ab298     guideXOS.obj
 0004:0000f2e8       ??_7guideXOS_System_Collections_Generic_List_1<UInt8>@@6B@ 00000000100ab2e8     guideXOS.obj
 0004:0000f340       ??_7guideXOS_System_EventHandler_1<guideXOS_System_ConsoleKeyInfo>@@6B@ 00000000100ab340     guideXOS.obj
 0004:0000f390       ??_7guideXOS_System_Collections_Generic_List_1<Int32>@@6B@ 00000000100ab390     guideXOS.obj
 0004:0000f3e8       ??_7guideXOS_System_Func_2<Int32__guideXOS_System_Drawing_Image>@@6B@ 00000000100ab3e8     guideXOS.obj
 0004:0000f440       ??_7guideXOS_System_Action_1<String>@@6B@ 00000000100ab440     guideXOS.obj
 0004:0000f498       ??_7guideXOS_System_Collections_Generic_List_1<String>@@6B@ 00000000100ab498     guideXOS.obj
 0004:0000f4e0       ??_7guideXOS_System_Array_EmptyArray_1<String>@@6B@ 00000000100ab4e0     guideXOS.obj
 0004:0000f540       ??_7guideXOS_System_Func_5<String__Bool__UInt32__UInt32__Bool>@@6B@ 00000000100ab540     guideXOS.obj
 0004:0000f598       ??_7guideXOS_System_Action_1<UInt32>@@6B@ 00000000100ab598     guideXOS.obj
 0004:0000f5e8       ??_7guideXOS_System_Collections_Generic_List_1<UInt32>@@6B@ 00000000100ab5e8     guideXOS.obj
 0004:0000f640       ??_7guideXOS_System_Collections_Generic_List_1<UInt64>@@6B@ 00000000100ab640     guideXOS.obj
 0004:0000f698       ??_7guideXOS_System_Collections_Generic_List_1<guideXOS_System_Drawing_Image>@@6B@ 00000000100ab698     guideXOS.obj
 0004:0000f6f8       ??_7guideXOS_System_Collections_Generic_List_1<guideXOS_System_Drawing_Point>@@6B@ 00000000100ab6f8     guideXOS.obj
 0004:0000f750       ??_7guideXOS_System_Collections_Generic_List_1<guideXOS_guideXOS_Animation>@@6B@ 00000000100ab750     guideXOS.obj
 0004:0000f7b0       ??_7guideXOS_System_Collections_Generic_List_1<guideXOS_guideXOS_Misc_BitFontDescriptor>@@6B@ 00000000100ab7b0     guideXOS.obj
 0004:0000f810       ??_7guideXOS_System_Collections_Generic_List_1<guideXOS_guideXOS_Misc_Thread>@@6B@ 00000000100ab810     guideXOS.obj
 0004:0000f870       ??_7guideXOS_System_Collections_Generic_List_1<guideXOS_guideXOS_Misc_USBDevice>@@6B@ 00000000100ab870     guideXOS.obj
 0004:0000f8d0       ??_7guideXOS_System_Collections_Generic_List_1<guideXOS_guideXOS_FS_FileInfo>@@6B@ 00000000100ab8d0     guideXOS.obj
 0004:0000f930       ??_7guideXOS_System_Collections_Generic_List_1<guideXOS_guideXOS_Kernel_Drivers_IDEDevice>@@6B@ 00000000100ab930     guideXOS.obj
 0004:0000f990       ??_7guideXOS_System_Collections_Generic_List_1<guideXOS_guideXOS_Kernel_Drivers_PCIDevice>@@6B@ 00000000100ab990     guideXOS.obj
 0004:0000f9f0       ??_7guideXOS_System_Collections_Generic_List_1<guideXOS_guideXOS_OS_App>@@6B@ 00000000100ab9f0     guideXOS.obj
 0004:0000fa50       ??_7guideXOS_System_Collections_Generic_List_1<guideXOS_guideXOS_GUI_DockableWidget>@@6B@ 00000000100aba50     guideXOS.obj
 0004:0000fab0       ??_7guideXOS_System_Collections_Generic_List_1<guideXOS_guideXOS_GUI_RecentProgramEntry>@@6B@ 00000000100abab0     guideXOS.obj
 0004:0000fb08       ??_7guideXOS_System_Collections_Generic_List_1<guideXOS_guideXOS_GUI_RecentDocumentEntry>@@6B@ 00000000100abb08     guideXOS.obj
 0004:0000fb60       ??_7guideXOS_System_Collections_Generic_List_1<guideXOS_guideXOS_GUI_Window>@@6B@ 00000000100abb60     guideXOS.obj
 0004:0000fbc0       ??_7guideXOS_System_Collections_Generic_List_1<guideXOS_guideXOS_GUI_Widgets_Button>@@6B@ 00000000100abbc0     guideXOS.obj
 0004:0000fc20       ??_7guideXOS_System_Collections_Generic_Dictionary_2<guideXOS_guideXOS_GUI_Widgets_Button__Int32>@@6B@ 00000000100abc20     guideXOS.obj
 0004:0000fc78       ??_7guideXOS_System_Collections_Generic_Dictionary_2<guideXOS_guideXOS_GUI_Widgets_Button__guideXOS_guideXOS_DefaultApps_PaintTool>@@6B@ 00000000100abc78     guideXOS.obj
 0004:0000fcd0       ??_7guideXOS_System_Collections_Generic_List_1<guideXOS_guideXOS_DefaultApps_DriveInfo>@@6B@ 00000000100abcd0     guideXOS.obj
 0004:0000fd30       ??_7guideXOS_System_Collections_Generic_List_1<guideXOS_guideXOS_DefaultApps_PaintTool>@@6B@ 00000000100abd30     guideXOS.obj
 0004:0000fd88       ??_7guideXOS_System_Collections_Generic_List_1<guideXOS_guideXOS_NETv4_UDPClient>@@6B@ 00000000100abd88     guideXOS.obj
 0004:0000fde8       ??_7guideXOS_System_Collections_Generic_List_1<guideXOS_guideXOS_NETv4_TCPClient>@@6B@ 00000000100abde8     guideXOS.obj
 0004:0000fe48       ??_7guideXOS_System_Collections_Generic_List_1<guideXOS_guideXOS_NETv4_ARPCache>@@6B@ 00000000100abe48     guideXOS.obj
 0004:0000fea0       ??_7guideXOS_System_Collections_Generic_List_1<guideXOS_guideXOS_Network_Http_Header>@@6B@ 00000000100abea0     guideXOS.obj
 0004:0000ff00       ??_7guideXOS_System_Collections_Generic_List_1<guideXOS_guideXOS_Misc_Interrupts_INT>@@6B@ 00000000100abf00     guideXOS.obj
 0004:0000ff60       ??_7guideXOS_System_Collections_Generic_List_1<guideXOS_guideXOS_FS_EXT2_DirEnt>@@6B@ 00000000100abf60     guideXOS.obj
 0004:0000ffb8       ??_7guideXOS_System_Collections_Generic_List_1<guideXOS_guideXOS_Kernel_Drivers_SATA_SATADevice>@@6B@ 00000000100abfb8     guideXOS.obj
 0004:00010018       ??_7guideXOS_System_Collections_Generic_List_1<guideXOS_guideXOS_Modules_ModuleManager_ModuleEntry>@@6B@ 00000000100ac018     guideXOS.obj
 0004:00010070       ??_7guideXOS_System_Collections_Generic_List_1<guideXOS_guideXOS_GUI_GXMScriptWindow_Btn>@@6B@ 00000000100ac070     guideXOS.obj
 0004:000100c8       ??_7guideXOS_System_Collections_Generic_List_1<guideXOS_guideXOS_GUI_GXMScriptWindow_Label>@@6B@ 00000000100ac0c8     guideXOS.obj
 0004:00010120       ??_7guideXOS_System_Collections_Generic_List_1<guideXOS_guideXOS_GUI_GXMScriptWindow_TextBoxDef>@@6B@ 00000000100ac120     guideXOS.obj
 0004:00010180       ??_7guideXOS_System_Collections_Generic_List_1<guideXOS_guideXOS_GUI_GXMScriptWindow_ListViewDef>@@6B@ 00000000100ac180     guideXOS.obj
 0004:000101e0       ??_7guideXOS_System_Collections_Generic_List_1<guideXOS_guideXOS_GUI_GXMScriptWindow_DropdownDef>@@6B@ 00000000100ac1e0     guideXOS.obj
 0004:00010240       ??_7guideXOS_System_Collections_Generic_List_1<guideXOS_guideXOS_GUI_GXMScriptWindow_Callback>@@6B@ 00000000100ac240     guideXOS.obj
 0004:000102a0       ??_7guideXOS_System_Collections_Generic_List_1<guideXOS_guideXOS_GUI_PinnedManager_Pinned>@@6B@ 00000000100ac2a0     guideXOS.obj
 0004:000102f8       ??_7guideXOS_System_Collections_Generic_List_1<guideXOS_guideXOS_GUI_WindowManager_PendingWindow>@@6B@ 00000000100ac2f8     guideXOS.obj
 0004:00010350       ??_7guideXOS_System_Collections_Generic_List_1<guideXOS_guideXOS_GUI_WorkspaceSwitcher_WindowSnapshot>@@6B@ 00000000100ac350     guideXOS.obj
 0004:000103b0       ??_7guideXOS_System_Collections_Generic_List_1<guideXOS_guideXOS_DefaultApps_DiskManager_DiskEntry>@@6B@ 00000000100ac3b0     guideXOS.obj
 0004:00010410       ??_7guideXOS_System_Collections_Generic_List_1<guideXOS_guideXOS_DefaultApps_IRCNetworks_Entry>@@6B@ 00000000100ac410     guideXOS.obj
 0004:00010470       ??_7guideXOS_System_Collections_Generic_List_1<guideXOS_guideXOS_DefaultApps_WebBrowser_BrowserTab>@@6B@ 00000000100ac470     guideXOS.obj
 0004:000104d0       ??_7guideXOS_System_Collections_Generic_List_1<guideXOS_guideXOS_DefaultApps_WebBrowser_RenderElement>@@6B@ 00000000100ac4d0     guideXOS.obj
 0004:00010530       ??_7guideXOS_System_Collections_Generic_List_1<__Array<UInt8>>@@6B@ 00000000100ac530     guideXOS.obj
 0004:00010590       ??_7guideXOS_System_Collections_Generic_Queue_1<__Array<UInt8>>@@6B@ 00000000100ac590     guideXOS.obj
 0004:000105d0       ??_7__Array<UInt8>@@6B@    00000000100ac5d0     guideXOS.obj
 0004:00010600       ??_7__Array<Char>@@6B@     00000000100ac600     guideXOS.obj
 0004:00010630       ??_7__Array<guideXOS_System_ConsoleKey>@@6B@ 00000000100ac630     guideXOS.obj
 0004:00010660       ??_7__Array<Int32>@@6B@    00000000100ac660     guideXOS.obj
 0004:000106a8       ??_7__Array<Object>@@6B@   00000000100ac6a8     guideXOS.obj
 0004:000106f8       ??_7__Array<String>@@6B@   00000000100ac6f8     guideXOS.obj
 0004:00010730       ??_7__Array<UInt32>@@6B@   00000000100ac730     guideXOS.obj
 0004:00010760       ??_7__Array<UInt64>@@6B@   00000000100ac760     guideXOS.obj
 0004:000107a8       ??_7__Array<guideXOS_System_Drawing_Image>@@6B@ 00000000100ac7a8     guideXOS.obj
 0004:000107e0       ??_7__Array<guideXOS_System_Drawing_Point>@@6B@ 00000000100ac7e0     guideXOS.obj
 0004:00010828       ??_7__Array<guideXOS_guideXOS_Animation>@@6B@ 00000000100ac828     guideXOS.obj
 0004:00010878       ??_7__Array<guideXOS_guideXOS_Misc_BitFontDescriptor>@@6B@ 00000000100ac878     guideXOS.obj
 0004:000108c8       ??_7__Array<guideXOS_guideXOS_Misc_Thread>@@6B@ 00000000100ac8c8     guideXOS.obj
 0004:00010918       ??_7__Array<guideXOS_guideXOS_Misc_USBDevice>@@6B@ 00000000100ac918     guideXOS.obj
 0004:00010968       ??_7__Array<guideXOS_guideXOS_FS_FileInfo>@@6B@ 00000000100ac968     guideXOS.obj
 0004:000109a0       ??_7__Array<guideXOS_guideXOS_Kernel_Drivers_Resolution>@@6B@ 00000000100ac9a0     guideXOS.obj
 0004:000109e8       ??_7__Array<guideXOS_guideXOS_Kernel_Drivers_IDEDevice>@@6B@ 00000000100ac9e8     guideXOS.obj
 0004:00010a38       ??_7__Array<guideXOS_guideXOS_Kernel_Drivers_PCIDevice>@@6B@ 00000000100aca38     guideXOS.obj
 0004:00010a88       ??_7__Array<guideXOS_guideXOS_OS_App>@@6B@ 00000000100aca88     guideXOS.obj
 0004:00010ac0       ??_7__Array<guideXOS_guideXOS_OS_FirewallMode>@@6B@ 00000000100acac0     guideXOS.obj
 0004:00010b08       ??_7__Array<guideXOS_guideXOS_GUI_DockableWidget>@@6B@ 00000000100acb08     guideXOS.obj
 0004:00010b58       ??_7__Array<guideXOS_guideXOS_GUI_RecentProgramEntry>@@6B@ 00000000100acb58     guideXOS.obj
 0004:00010ba0       ??_7__Array<guideXOS_guideXOS_GUI_RecentDocumentEntry>@@6B@ 00000000100acba0     guideXOS.obj
 0004:00010be8       ??_7__Array<guideXOS_guideXOS_GUI_Window>@@6B@ 00000000100acbe8     guideXOS.obj
 0004:00010c38       ??_7__Array<guideXOS_guideXOS_GUI_Widgets_Button>@@6B@ 00000000100acc38     guideXOS.obj
 0004:00010c88       ??_7__Array<guideXOS_guideXOS_DefaultApps_DriveInfo>@@6B@ 00000000100acc88     guideXOS.obj
 0004:00010cc0       ??_7__Array<guideXOS_guideXOS_DefaultApps_PaintTool>@@6B@ 00000000100accc0     guideXOS.obj
 0004:00010cf0       ??_7__Array<guideXOS_Allocator_OwnerSnapshot>@@6B@ 00000000100accf0     guideXOS.obj
 0004:00010d20       ??_7__Array<guideXOS_IDT_IDTEntry>@@6B@ 00000000100acd20     guideXOS.obj
 0004:00010d68       ??_7__Array<guideXOS_guideXOS_NETv4_UDPClient>@@6B@ 00000000100acd68     guideXOS.obj
 0004:00010db8       ??_7__Array<guideXOS_guideXOS_NETv4_TCPClient>@@6B@ 00000000100acdb8     guideXOS.obj
 0004:00010df0       ??_7__Array<guideXOS_guideXOS_NETv4_ARPCache>@@6B@ 00000000100acdf0     guideXOS.obj
 0004:00010e38       ??_7__Array<guideXOS_guideXOS_Network_Http_Header>@@6B@ 00000000100ace38     guideXOS.obj
 0004:00010e88       ??_7__Array<guideXOS_guideXOS_Misc_Interrupts_INT>@@6B@ 00000000100ace88     guideXOS.obj
 0004:00010ed8       ??_7__Array<guideXOS_guideXOS_FS_EXT2_DirEnt>@@6B@ 00000000100aced8     guideXOS.obj
 0004:00010f20       ??_7__Array<guideXOS_guideXOS_Kernel_Drivers_SATA_SATADevice>@@6B@ 00000000100acf20     guideXOS.obj
 0004:00010f70       ??_7__Array<guideXOS_guideXOS_Modules_ModuleManager_ModuleEntry>@@6B@ 00000000100acf70     guideXOS.obj
 0004:00010fb8       ??_7__Array<guideXOS_guideXOS_GUI_GXMScriptWindow_Btn>@@6B@ 00000000100acfb8     guideXOS.obj
 0004:00011000       ??_7__Array<guideXOS_guideXOS_GUI_GXMScriptWindow_Label>@@6B@ 00000000100ad000     guideXOS.obj
 0004:00011048       ??_7__Array<guideXOS_guideXOS_GUI_GXMScriptWindow_TextBoxDef>@@6B@ 00000000100ad048     guideXOS.obj
 0004:00011098       ??_7__Array<guideXOS_guideXOS_GUI_GXMScriptWindow_ListViewDef>@@6B@ 00000000100ad098     guideXOS.obj
 0004:000110e8       ??_7__Array<guideXOS_guideXOS_GUI_GXMScriptWindow_DropdownDef>@@6B@ 00000000100ad0e8     guideXOS.obj
 0004:00011138       ??_7__Array<guideXOS_guideXOS_GUI_GXMScriptWindow_Callback>@@6B@ 00000000100ad138     guideXOS.obj
 0004:00011188       ??_7__Array<guideXOS_guideXOS_GUI_PinnedManager_Pinned>@@6B@ 00000000100ad188     guideXOS.obj
 0004:000111d0       ??_7__Array<guideXOS_guideXOS_GUI_StartMenu_AppEntry>@@6B@ 00000000100ad1d0     guideXOS.obj
 0004:00011218       ??_7__Array<guideXOS_guideXOS_GUI_USBDrives_Entry>@@6B@ 00000000100ad218     guideXOS.obj
 0004:00011248       ??_7__Array<guideXOS_guideXOS_GUI_WindowManager_PendingWindow>@@6B@ 00000000100ad248     guideXOS.obj
 0004:00011290       ??_7__Array<guideXOS_guideXOS_GUI_WorkspaceSwitcher_WindowSnapshot>@@6B@ 00000000100ad290     guideXOS.obj
 0004:000112e0       ??_7__Array<guideXOS_guideXOS_DefaultApps_Devices_Row>@@6B@ 00000000100ad2e0     guideXOS.obj
 0004:00011328       ??_7__Array<guideXOS_guideXOS_DefaultApps_DiskManager_DiskEntry>@@6B@ 00000000100ad328     guideXOS.obj
 0004:00011378       ??_7__Array<guideXOS_guideXOS_DefaultApps_DiskManager_Part>@@6B@ 00000000100ad378     guideXOS.obj
 0004:000113c0       ??_7__Array<guideXOS_guideXOS_DefaultApps_IRCNetworks_Entry>@@6B@ 00000000100ad3c0     guideXOS.obj
 0004:00011410       ??_7__Array<guideXOS_guideXOS_DefaultApps_WebBrowser_BrowserTab>@@6B@ 00000000100ad410     guideXOS.obj
 0004:00011460       ??_7__Array<guideXOS_guideXOS_DefaultApps_WebBrowser_RenderElement>@@6B@ 00000000100ad460     guideXOS.obj
 0004:000114b0       ??_7__Array<__Array<UInt8>>@@6B@ 00000000100ad4b0     guideXOS.obj
 0004:000114e8       __readonlydata_guideXOS_Program__SMain 00000000100ad4e8     guideXOS.obj
 0004:00011500       __readonlydata_guideXOS_IDT__intr_handler 00000000100ad500     guideXOS.obj
 0004:00011538       __readonlydata_guideXOS_System_Math__Sqrt 00000000100ad538     guideXOS.obj
 0004:00011548       __readonlydata_guideXOS_System_MathF__Floor 00000000100ad548     guideXOS.obj
 0004:00011550       __readonlydata_guideXOS_System_Drawing_Image__Resample 00000000100ad550     guideXOS.obj
 0004:00011558       __readonlydata_guideXOS_guideXOS_NETv4__TCPOnData 00000000100ad558     guideXOS.obj
 0004:00011578       __readonlydata_guideXOS_guideXOS_Misc_Panic__DrawExceptionInfo 00000000100ad578     guideXOS.obj
 0004:00011588       __readonlydata_guideXOS_guideXOS_Misc_Panic__GetExceptionName 00000000100ad588     guideXOS.obj
 0004:000115e0       __readonlydata_guideXOS_guideXOS_Misc_SVG__RenderSVG 00000000100ad5e0     guideXOS.obj
 0004:00011600       __readonlydata_guideXOS_guideXOS_Misc_SVG__RenderCircleElement 00000000100ad600     guideXOS.obj
 0004:00011608       __readonlydata_guideXOS_guideXOS_Misc_SVG__RenderEllipseElement 00000000100ad608     guideXOS.obj
 0004:00011610       __readonlydata_guideXOS_guideXOS_Misc_SVG__ParseSimpleFloat 00000000100ad610     guideXOS.obj
 0004:00011630       __readonlydata_guideXOS_guideXOS_Graph_Graphics__DrawPoint_0 00000000100ad630     guideXOS.obj
 0004:00011640       __readonlydata_guideXOS_guideXOS_Graph_Graphics__DrawLine 00000000100ad640     guideXOS.obj
 0004:00011658       __readonlydata_guideXOS_guideXOS_Kernel_Drivers_PS2Keyboard__TranslateSet2ToSet1 00000000100ad658     guideXOS.obj
 0004:00011868       __readonlydata_guideXOS_guideXOS_Kernel_Drivers_PS2Keyboard__UpdateModifiers 00000000100ad868     guideXOS.obj
 0004:00011880       __readonlydata_guideXOS_guideXOS_Kernel_Drivers_PS2Keyboard__ScancodeToKey 00000000100ad880     guideXOS.obj
 0004:00011a40       __readonlydata_guideXOS_guideXOS_Kernel_Drivers_PS2Keyboard__GetChar 00000000100ada40     guideXOS.obj
 0004:00011ab8       __readonlydata_guideXOS_guideXOS_Kernel_Drivers_VMwareTools__vmware_handle_mouse 00000000100adab8     guideXOS.obj
 0004:00011ac0       __readonlydata_guideXOS_guideXOS_OS_AuthClient__JsonEscape 00000000100adac0     guideXOS.obj
 0004:00011ad8       __readonlydata_guideXOS_guideXOS_GUI_Desktop__ClickEvent 00000000100adad8     guideXOS.obj
 0004:00011ae0       __readonlydata_guideXOS_guideXOS_GUI_DisplayOptions__ApplyGradient 00000000100adae0     guideXOS.obj
 0004:00011b10       __readonlydata_guideXOS_guideXOS_GUI_DisplayOptions__DrawGradientPreview 00000000100adb10     guideXOS.obj
 0004:00011b40       __readonlydata_guideXOS_guideXOS_GUI_GXMScriptWindow__MapFromKey 00000000100adb40     guideXOS.obj
 0004:00011b98       __readonlydata_guideXOS_guideXOS_GUI_OnScreenKeyboard__CharToConsoleKey 00000000100adb98     guideXOS.obj
 0004:00011c00       __readonlydata_guideXOS_guideXOS_GUI_OpenDialog__Keyboard_OnKeyChanged 00000000100adc00     guideXOS.obj
 0004:00011c20       __readonlydata_guideXOS_guideXOS_GUI_SaveDialog__Keyboard_OnKeyChanged 00000000100adc20     guideXOS.obj
 0004:00011c68       __readonlydata_guideXOS_guideXOS_GUI_UIPrimitives__CornerInset 00000000100adc68     guideXOS.obj
 0004:00011c78       __readonlydata_guideXOS_guideXOS_GUI_VisualEffectsSettings__ProcessTabInput 00000000100adc78     guideXOS.obj
 0004:00011c90       __readonlydata_guideXOS_guideXOS_GUI_VisualEffectsSettings__ProcessAnimationsInput 00000000100adc90     guideXOS.obj
 0004:00011ca8       __readonlydata_guideXOS_guideXOS_GUI_VisualEffectsSettings__ProcessVisualEffectsInput 00000000100adca8     guideXOS.obj
 0004:00011cb8       __readonlydata_guideXOS_guideXOS_GUI_VisualEffectsSettings__ProcessWindowRenderingInput 00000000100adcb8     guideXOS.obj
 0004:00011cd0       __readonlydata_guideXOS_guideXOS_GUI_VisualEffectsSettings__ProcessWidgetsInput 00000000100adcd0     guideXOS.obj
 0004:00011cf0       __readonlydata_guideXOS_guideXOS_GUI_VisualEffectsSettings__OnDraw 00000000100adcf0     guideXOS.obj
 0004:00011d08       __readonlydata_guideXOS_guideXOS_GUI_VisualEffectsSettings__DrawSlider 00000000100add08     guideXOS.obj
 0004:00011d10       __readonlydata_guideXOS_guideXOS_GUI_VisualEffectsSettings__GetCurrentTabHeight 00000000100add10     guideXOS.obj
 0004:00011d28       __readonlydata_guideXOS_guideXOS_GUI_Window__UpdateAnimation 00000000100add28     guideXOS.obj
 0004:00011d50       __readonlydata_guideXOS_guideXOS_GUI_Window__PerformButton 00000000100add50     guideXOS.obj
 0004:00011d68       __readonlydata_guideXOS_guideXOS_GUI_Window__DrawTitleButton 00000000100add68     guideXOS.obj
 0004:00011d80       __readonlydata_guideXOS_guideXOS_GUI_WorkspaceSwitcher__DrawWorkspaceThumbnail 00000000100add80     guideXOS.obj
 0004:00011d88       __readonlydata_guideXOS_guideXOS_DockableWidgets_Clock__DrawHand 00000000100add88     guideXOS.obj
 0004:00011d98       __readonlydata_guideXOS_guideXOS_DefaultApps_Devices__OnInput 00000000100add98     guideXOS.obj
 0004:00011da0       __readonlydata_guideXOS_guideXOS_DefaultApps_Devices__OnDraw 00000000100adda0     guideXOS.obj
 0004:00011da8       __readonlydata_guideXOS_guideXOS_DefaultApps_DiskManager__DrawVolumesGrid 00000000100adda8     guideXOS.obj
 0004:00011dc0       __readonlydata_guideXOS_guideXOS_DefaultApps_FConsole__MapFromKey 00000000100addc0     guideXOS.obj
 0004:00011e18       __readonlydata_guideXOS_guideXOS_DefaultApps_ImageViewer__OnDraw 00000000100ade18     guideXOS.obj
 0004:00011e20       __readonlydata_guideXOS_guideXOS_DefaultApps_ImageViewer__ZoomIn 00000000100ade20     guideXOS.obj
 0004:00011e28       __readonlydata_guideXOS_guideXOS_DefaultApps_ImageViewer__ZoomOut 00000000100ade28     guideXOS.obj
 0004:00011e30       __readonlydata_guideXOS_guideXOS_DefaultApps_ImageViewer__UpdateDisplayImage 00000000100ade30     guideXOS.obj
 0004:00011e38       __readonlydata_guideXOS_guideXOS_DefaultApps_nexIRC__MapChar 00000000100ade38     guideXOS.obj
 0004:00011e90       __readonlydata_guideXOS_guideXOS_DefaultApps_Notepad__MapFromKey 00000000100ade90     guideXOS.obj
 0004:00011ee8       __readonlydata_guideXOS_guideXOS_DefaultApps_Paint__HandleDrawing 00000000100adee8     guideXOS.obj
 0004:00011f08       __readonlydata_guideXOS_guideXOS_DefaultApps_Paint__FinishDrawing 00000000100adf08     guideXOS.obj
 0004:00011f18       __readonlydata_guideXOS_guideXOS_DefaultApps_TaskManager__OnInput 00000000100adf18     guideXOS.obj
 0004:00011f20       __readonlydata_guideXOS_guideXOS_DefaultApps_TaskManager__DrawPerformance 00000000100adf20     guideXOS.obj
 0004:00011f38       __readonlydata_guideXOS_guideXOS_DefaultApps_TaskManager__GetChartForCategory 00000000100adf38     guideXOS.obj
 0004:00011f48       __readonlydata_guideXOS_guideXOS_DefaultApps_WebBrowser__MapChar 00000000100adf48     guideXOS.obj
 0004:00011f70       ?__GCSTATICS@guideXOS_Program@@__PreInitData 00000000100adf70     guideXOS.obj
 0004:00011fd0       ?__GCSTATICS@guideXOS_Allocator@@__PreInitData 00000000100adfd0     guideXOS.obj
 0004:00011fe8       ?__GCSTATICS@guideXOS_guideXOS_Kernel_Drivers_DisplayManager@@__PreInitData 00000000100adfe8     guideXOS.obj
 0004:00011ff8       ?__GCSTATICS@guideXOS_guideXOS_Kernel_Drivers_SATA@@__PreInitData 00000000100adff8     guideXOS.obj
 0004:00012000       ?__GCSTATICS@guideXOS_guideXOS_OS_Session@@__PreInitData 00000000100ae000     guideXOS.obj
 0004:00012010       ?__GCSTATICS@guideXOS_guideXOS_GUI_Desktop@@__PreInitData 00000000100ae010     guideXOS.obj
 0004:00012060       ?__GCSTATICS@guideXOS_guideXOS_DockableWidgets_Clock@@__PreInitData 00000000100ae060     guideXOS.obj
 0004:00012070       ?__GCSTATICS@guideXOS_guideXOS_Modules_ModuleManager___c@@__PreInitData 00000000100ae070     guideXOS.obj
 0004:00012080       ?__GCSTATICS@guideXOS_guideXOS_GUI_DisplayOptions___c@@__PreInitData 00000000100ae080     guideXOS.obj
 0004:000120b0       __GCStaticEEType_01        00000000100ae0b0     guideXOS.obj
 0004:000120d8       __GCStaticEEType_011       00000000100ae0d8     guideXOS.obj
 0004:00012100       __GCStaticEEType_0111      00000000100ae100     guideXOS.obj
 0004:00012128       __GCStaticEEType_01111     00000000100ae128     guideXOS.obj
 0004:00012150       __GCStaticEEType_011111    00000000100ae150     guideXOS.obj
 0004:00012178       __GCStaticEEType_0111111   00000000100ae178     guideXOS.obj
 0004:000121a0       __GCStaticEEType_01111111111 00000000100ae1a0     guideXOS.obj
 0004:000121c8       __GCStaticEEType_0111111111111 00000000100ae1c8     guideXOS.obj
 0004:000121f0       __GCStaticEEType_01111111111111 00000000100ae1f0     guideXOS.obj
 0004:00012200       ??_7guideXOS__Module_@@6B@ 00000000100ae200     guideXOS.obj
 0004:00012220       ??_7Boxed_Char@@6B@        00000000100ae220     guideXOS.obj
 0004:00012248       ??_7Boxed_guideXOS_System_ConsoleKey@@6B@ 00000000100ae248     guideXOS.obj
 0004:00012270       ??_7Boxed_guideXOS_System_ConsoleKeyInfo@@6B@ 00000000100ae270     guideXOS.obj
 0004:00012298       ??_7Boxed_guideXOS_System_Drawing_Point@@6B@ 00000000100ae298     guideXOS.obj
 0004:000122c0       ??_7guideXOS_guideXOS_Console@@6B@ 00000000100ae2c0     guideXOS.obj
 0004:000122e8       ??_7guideXOS_guideXOS_FS_CloudFS@@6B@ 00000000100ae2e8     guideXOS.obj
 0004:00012310       ??_7Boxed_guideXOS_guideXOS_Kernel_Drivers_Resolution@@6B@ 00000000100ae310     guideXOS.obj
 0004:00012338       ??_7Boxed_guideXOS_guideXOS_OS_FirewallMode@@6B@ 00000000100ae338     guideXOS.obj
 0004:00012360       ??_7Boxed_guideXOS_guideXOS_GUI_RecentProgramEntry@@6B@ 00000000100ae360     guideXOS.obj
 0004:00012380       ??_7Boxed_guideXOS_guideXOS_GUI_RecentDocumentEntry@@6B@ 00000000100ae380     guideXOS.obj
 0004:000123a0       ??_7Boxed_guideXOS_Allocator_OwnerSnapshot@@6B@ 00000000100ae3a0     guideXOS.obj
 0004:000123c0       ??_7Boxed_guideXOS_IDT_IDTEntry@@6B@ 00000000100ae3c0     guideXOS.obj
 0004:000123e8       ??_7Boxed_guideXOS_guideXOS_NETv4_ARPCache@@6B@ 00000000100ae3e8     guideXOS.obj
 0004:00012410       ??_7Boxed_guideXOS_guideXOS_FS_EXT2_DirEnt@@6B@ 00000000100ae410     guideXOS.obj
 0004:00012430       ??_7Boxed_guideXOS_guideXOS_Modules_ModuleManager_ModuleEntry@@6B@ 00000000100ae430     guideXOS.obj
 0004:00012450       ??_7Boxed_guideXOS_guideXOS_GUI_GXMScriptWindow_Btn@@6B@ 00000000100ae450     guideXOS.obj
 0004:00012470       ??_7Boxed_guideXOS_guideXOS_GUI_GXMScriptWindow_Label@@6B@ 00000000100ae470     guideXOS.obj
 0004:00012490       ??_7Boxed_guideXOS_guideXOS_GUI_PinnedManager_Pinned@@6B@ 00000000100ae490     guideXOS.obj
 0004:000124b0       ??_7Boxed_guideXOS_guideXOS_GUI_StartMenu_AppEntry@@6B@ 00000000100ae4b0     guideXOS.obj
 0004:000124d0       ??_7Boxed_guideXOS_guideXOS_GUI_USBDrives_Entry@@6B@ 00000000100ae4d0     guideXOS.obj
 0004:000124f0       ??_7Boxed_guideXOS_guideXOS_GUI_WindowManager_PendingWindow@@6B@ 00000000100ae4f0     guideXOS.obj
 0004:00012518       ??_7Boxed_guideXOS_guideXOS_DefaultApps_Devices_Row@@6B@ 00000000100ae518     guideXOS.obj
 0004:00012538       ??_7Boxed_guideXOS_guideXOS_DefaultApps_DiskManager_Part@@6B@ 00000000100ae538     guideXOS.obj
 0004:00012558       __GenericInstance_UInt8    00000000100ae558     guideXOS.obj
 0004:00012568       __GenericInstance_guideXOS_System_ConsoleKeyInfo 00000000100ae568     guideXOS.obj
 0004:00012578       __GenericInstance_Int32    00000000100ae578     guideXOS.obj
 0004:00012588       __GenericInstance_String   00000000100ae588     guideXOS.obj
 0004:00012598       __GenericInstance_UInt32   00000000100ae598     guideXOS.obj
 0004:000125a8       __GenericInstance_UInt64   00000000100ae5a8     guideXOS.obj
 0004:000125b8       __GenericInstance_guideXOS_System_Drawing_Image 00000000100ae5b8     guideXOS.obj
 0004:000125c8       __GenericInstance_guideXOS_System_Drawing_Point 00000000100ae5c8     guideXOS.obj
 0004:000125d8       __GenericInstance_guideXOS_guideXOS_Animation 00000000100ae5d8     guideXOS.obj
 0004:000125e8       __GenericInstance_guideXOS_guideXOS_Misc_BitFontDescriptor 00000000100ae5e8     guideXOS.obj
 0004:000125f8       __GenericInstance_guideXOS_guideXOS_Misc_Thread 00000000100ae5f8     guideXOS.obj
 0004:00012608       __GenericInstance_guideXOS_guideXOS_Misc_USBDevice 00000000100ae608     guideXOS.obj
 0004:00012618       __GenericInstance_guideXOS_guideXOS_FS_FileInfo 00000000100ae618     guideXOS.obj
 0004:00012628       __GenericInstance_guideXOS_guideXOS_Kernel_Drivers_IDEDevice 00000000100ae628     guideXOS.obj
 0004:00012638       __GenericInstance_guideXOS_guideXOS_Kernel_Drivers_PCIDevice 00000000100ae638     guideXOS.obj
 0004:00012648       __GenericInstance_guideXOS_guideXOS_OS_App 00000000100ae648     guideXOS.obj
 0004:00012658       __GenericInstance_guideXOS_guideXOS_GUI_DockableWidget 00000000100ae658     guideXOS.obj
 0004:00012668       __GenericInstance_guideXOS_guideXOS_GUI_RecentProgramEntry 00000000100ae668     guideXOS.obj
 0004:00012678       __GenericInstance_guideXOS_guideXOS_GUI_RecentDocumentEntry 00000000100ae678     guideXOS.obj
 0004:00012688       __GenericInstance_guideXOS_guideXOS_GUI_Window 00000000100ae688     guideXOS.obj
 0004:00012698       __GenericInstance_guideXOS_guideXOS_GUI_Widgets_Button 00000000100ae698     guideXOS.obj
 0004:000126a8       __GenericInstance_guideXOS_guideXOS_DefaultApps_DriveInfo 00000000100ae6a8     guideXOS.obj
 0004:000126b8       __GenericInstance_guideXOS_guideXOS_DefaultApps_PaintTool 00000000100ae6b8     guideXOS.obj
 0004:000126c8       __GenericInstance_guideXOS_guideXOS_NETv4_UDPClient 00000000100ae6c8     guideXOS.obj
 0004:000126d8       __GenericInstance_guideXOS_guideXOS_NETv4_TCPClient 00000000100ae6d8     guideXOS.obj
 0004:000126e8       __GenericInstance_guideXOS_guideXOS_NETv4_ARPCache 00000000100ae6e8     guideXOS.obj
 0004:000126f8       __GenericInstance_guideXOS_guideXOS_Network_Http_Header 00000000100ae6f8     guideXOS.obj
 0004:00012708       __GenericInstance_guideXOS_guideXOS_Misc_Interrupts_INT 00000000100ae708     guideXOS.obj
 0004:00012718       __GenericInstance_guideXOS_guideXOS_FS_EXT2_DirEnt 00000000100ae718     guideXOS.obj
 0004:00012728       __GenericInstance_guideXOS_guideXOS_Kernel_Drivers_SATA_SATADevice 00000000100ae728     guideXOS.obj
 0004:00012738       __GenericInstance_guideXOS_guideXOS_Modules_ModuleManager_ModuleEntry 00000000100ae738     guideXOS.obj
 0004:00012748       __GenericInstance_guideXOS_guideXOS_GUI_GXMScriptWindow_Btn 00000000100ae748     guideXOS.obj
 0004:00012758       __GenericInstance_guideXOS_guideXOS_GUI_GXMScriptWindow_Label 00000000100ae758     guideXOS.obj
 0004:00012768       __GenericInstance_guideXOS_guideXOS_GUI_GXMScriptWindow_TextBoxDef 00000000100ae768     guideXOS.obj
 0004:00012778       __GenericInstance_guideXOS_guideXOS_GUI_GXMScriptWindow_ListViewDef 00000000100ae778     guideXOS.obj
 0004:00012788       __GenericInstance_guideXOS_guideXOS_GUI_GXMScriptWindow_DropdownDef 00000000100ae788     guideXOS.obj
 0004:00012798       __GenericInstance_guideXOS_guideXOS_GUI_GXMScriptWindow_Callback 00000000100ae798     guideXOS.obj
 0004:000127a8       __GenericInstance_guideXOS_guideXOS_GUI_PinnedManager_Pinned 00000000100ae7a8     guideXOS.obj
 0004:000127b8       __GenericInstance_guideXOS_guideXOS_GUI_WindowManager_PendingWindow 00000000100ae7b8     guideXOS.obj
 0004:000127c8       __GenericInstance_guideXOS_guideXOS_GUI_WorkspaceSwitcher_WindowSnapshot 00000000100ae7c8     guideXOS.obj
 0004:000127d8       __GenericInstance_guideXOS_guideXOS_DefaultApps_DiskManager_DiskEntry 00000000100ae7d8     guideXOS.obj
 0004:000127e8       __GenericInstance_guideXOS_guideXOS_DefaultApps_IRCNetworks_Entry 00000000100ae7e8     guideXOS.obj
 0004:000127f8       __GenericInstance_guideXOS_guideXOS_DefaultApps_WebBrowser_BrowserTab 00000000100ae7f8     guideXOS.obj
 0004:00012808       __GenericInstance_guideXOS_guideXOS_DefaultApps_WebBrowser_RenderElement 00000000100ae808     guideXOS.obj
 0004:00012818       __GenericInstance___Array<UInt8> 00000000100ae818     guideXOS.obj
 0004:00012828       __GenericInstance_String__Variance___2 00000000100ae828     guideXOS.obj
 0004:00012840       __GenericInstance_UInt32__Variance___2 00000000100ae840     guideXOS.obj
 0004:00012858       __GenericInstance_guideXOS_guideXOS_GUI_Widgets_Button_Int32 00000000100ae858     guideXOS.obj
 0004:00012870       __GenericInstance_guideXOS_guideXOS_GUI_Widgets_Button_guideXOS_guideXOS_DefaultApps_PaintTool 00000000100ae870     guideXOS.obj
 0004:00012888       __GenericInstance_Int32_guideXOS_System_Drawing_Image__Variance___2_1 00000000100ae888     guideXOS.obj
 0004:000128a8       __GenericInstance_String_Bool_UInt32_UInt32_Bool__Variance___2_2_2_2_1 00000000100ae8a8     guideXOS.obj
 0004:000128dd       __ehinfo_guideXOS_Program__KMain 00000000100ae8dd     guideXOS.obj
 0004:00012924       __ehinfo_guideXOS_Program__SMain 00000000100ae924     guideXOS.obj
 0004:000129c2       __ehinfo_guideXOS_Allocator__Free 00000000100ae9c2     guideXOS.obj
 0004:000129c8       __ehinfo_guideXOS_Allocator__Allocate_0 00000000100ae9c8     guideXOS.obj
 0004:000129ce       __ehinfo_guideXOS_Allocator__GetOwnerBytes 00000000100ae9ce     guideXOS.obj
 0004:000129d4       __ehinfo_guideXOS_Allocator__GetOwnerListSnapshot 00000000100ae9d4     guideXOS.obj
 0004:000129da       __ehinfo_guideXOS_Internal_Runtime_CompilerHelpers_ThrowHelpers__Error 00000000100ae9da     guideXOS.obj
 0004:000129e0       __ehinfo_String__Format    00000000100ae9e0     guideXOS.obj
 0004:000129e6       __ehinfo_guideXOS_System_StringPool___cctor 00000000100ae9e6     guideXOS.obj
 0004:000129f1       __ehinfo_guideXOS_System_Drawing_Image__ResizeImage 00000000100ae9f1     guideXOS.obj
 0004:000129f8       __ehinfo_guideXOS_guideXOS_Console__add_OnWrite 00000000100ae9f8     guideXOS.obj
 0004:000129fd       __ehinfo_guideXOS_guideXOS_Misc_BootSplash__Tick 00000000100ae9fd     guideXOS.obj
 0004:00012a07       __ehinfo_guideXOS_guideXOS_Misc_Panic__DrawStackTrace 00000000100aea07     guideXOS.obj
 0004:00012a11       __ehinfo_guideXOS_guideXOS_Misc_Panic__DrawSystemInfo 00000000100aea11     guideXOS.obj
 0004:00012a25       __ehinfo_guideXOS_guideXOS_Misc_Panic__DrawControlRegisters 00000000100aea25     guideXOS.obj
 0004:00012a2f       __ehinfo_guideXOS_guideXOS_Misc_Panic__DrawText 00000000100aea2f     guideXOS.obj
 0004:00012a37       __ehinfo_guideXOS_guideXOS_Misc_Panic__DrawTextLarge 00000000100aea37     guideXOS.obj
 0004:00012a40       __ehinfo_guideXOS_guideXOS_Misc_SVG___ctor 00000000100aea40     guideXOS.obj
 0004:00012a4a       __ehinfo_guideXOS_guideXOS_Misc_Thread__Start 00000000100aea4a     guideXOS.obj
 0004:00012a50       __ehinfo_guideXOS_guideXOS_Misc_Thread__Start_0 00000000100aea50     guideXOS.obj
 0004:00012a56       __ehinfo_guideXOS_guideXOS_FS_FAT__FindEntryLoc 00000000100aea56     guideXOS.obj
 0004:00012a63       __ehinfo_guideXOS_guideXOS_Kernel_Drivers_DisplayManager__EnsureSvga 00000000100aea63     guideXOS.obj
 0004:00012a6d       __ehinfo_guideXOS_guideXOS_Kernel_Drivers_DisplayManager__TrySetResolution 00000000100aea6d     guideXOS.obj
 0004:00012a80       __ehinfo_guideXOS_guideXOS_Kernel_Drivers_DisplayManager__SaveResolution 00000000100aea80     guideXOS.obj
 0004:00012a8a       __ehinfo_guideXOS_guideXOS_Kernel_Drivers_DisplayManager__TryLoadSaved 00000000100aea8a     guideXOS.obj
 0004:00012a94       __ehinfo_guideXOS_guideXOS_GUI_BackgroundRotationManager__Initialize 00000000100aea94     guideXOS.obj
 0004:00012a9f       __ehinfo_guideXOS_guideXOS_GUI_BackgroundRotationManager__RotateToNext 00000000100aea9f     guideXOS.obj
 0004:00012aa9       __ehinfo_guideXOS_guideXOS_GUI_DisplayOptions__LoadBackgrounds 00000000100aeaa9     guideXOS.obj
 0004:00012abe       __ehinfo_guideXOS_guideXOS_GUI_DisplayOptions__OnInput 00000000100aeabe     guideXOS.obj
 0004:00012ac9       __ehinfo_guideXOS_guideXOS_GUI_DisplayOptions__ApplyFont 00000000100aeac9     guideXOS.obj
 0004:00012ad3       __ehinfo_guideXOS_guideXOS_GUI_GXMScriptWindow__SaveFileAction 00000000100aead3     guideXOS.obj
 0004:00012ade       __ehinfo_guideXOS_guideXOS_GUI_GXMScriptWindow__LoadFileAction 00000000100aeade     guideXOS.obj
 0004:00012ae8       __ehinfo_guideXOS_guideXOS_GUI_GXMScriptWindow__SaveTextFromTextBox 00000000100aeae8     guideXOS.obj
 0004:00012af3       __ehinfo_guideXOS_guideXOS_GUI_GXMScriptWindow__LoadTextIntoTextBox 00000000100aeaf3     guideXOS.obj
 0004:00012afd       __ehinfo_guideXOS_guideXOS_GUI_GXMScriptWindow__LoadAndExecuteScript 00000000100aeafd     guideXOS.obj
 0004:00012b07       __ehinfo_guideXOS_guideXOS_GUI_GXMScriptWindow___OpenSaveDialogForTextBox_b__39_0 00000000100aeb07     guideXOS.obj
 0004:00012b11       __ehinfo_guideXOS_guideXOS_GUI_GXMScriptWindow___OpenOpenDialogForTextBox_b__40_0 00000000100aeb11     guideXOS.obj
 0004:00012b1b       __ehinfo_guideXOS_guideXOS_GUI_IconsPrivate__LoadIcon 00000000100aeb1b     guideXOS.obj
 0004:00012b25       __ehinfo_guideXOS_guideXOS_GUI_NetworkConfigurationDialog__ApplyConfiguration 00000000100aeb25     guideXOS.obj
 0004:00012b38       __ehinfo_guideXOS_guideXOS_GUI_USBFiles__LoadIcons 00000000100aeb38     guideXOS.obj
 0004:00012b47       __ehinfo_guideXOS_guideXOS_GUI_USBFiles__InitLocalFS 00000000100aeb47     guideXOS.obj
 0004:00012b56       __ehinfo_guideXOS_guideXOS_GUI_USBFiles__RefreshEntries 00000000100aeb56     guideXOS.obj
 0004:00012b5c       __ehinfo_guideXOS_guideXOS_GUI_Window__FreeOwnerMemory 00000000100aeb5c     guideXOS.obj
 0004:00012b6b       __ehinfo_guideXOS_guideXOS_GUI_WindowManager__Initialize 00000000100aeb6b     guideXOS.obj
 0004:00012b76       __ehinfo_guideXOS_guideXOS_GUI_WorkspaceManager__SwitchTo 00000000100aeb76     guideXOS.obj
 0004:00012b7c       __ehinfo_guideXOS_guideXOS_DockableWidgets_Clock__DrawHand 00000000100aeb7c     guideXOS.obj
 0004:00012b82       __ehinfo_guideXOS_guideXOS_DefaultApps_ComputerFiles__LoadIcons 00000000100aeb82     guideXOS.obj
 0004:00012b92       __ehinfo_guideXOS_guideXOS_DefaultApps_Devices__BuildRows 00000000100aeb92     guideXOS.obj
 0004:00012b9c       __ehinfo_guideXOS_guideXOS_DefaultApps_DiskManager__ProbeOnce 00000000100aeb9c     guideXOS.obj
 0004:00012bab       __ehinfo_guideXOS_guideXOS_DefaultApps_DiskManager__DetectFsAtLBA 00000000100aebab     guideXOS.obj
 0004:00012bc0       __ehinfo_guideXOS_guideXOS_DefaultApps_DiskManager__WithDisk 00000000100aebc0     guideXOS.obj
 0004:00012bc5       __ehinfo_guideXOS_guideXOS_DefaultApps_DiskManager__TrySetFS_Auto 00000000100aebc5     guideXOS.obj
 0004:00012bce       __ehinfo_guideXOS_guideXOS_DefaultApps_DiskManager__TrySetFS_FAT 00000000100aebce     guideXOS.obj
 0004:00012bd7       __ehinfo_guideXOS_guideXOS_DefaultApps_DiskManager__TrySetFS_TAR 00000000100aebd7     guideXOS.obj
 0004:00012be0       __ehinfo_guideXOS_guideXOS_DefaultApps_DiskManager__TrySetFS_EXT2 00000000100aebe0     guideXOS.obj
 0004:00012be9       __ehinfo_guideXOS_guideXOS_DefaultApps_DiskManager__TryFormatFATFS 00000000100aebe9     guideXOS.obj
 0004:00012bf3       __ehinfo_guideXOS_guideXOS_DefaultApps_DiskManager__TryCreatePartitionLargestFree 00000000100aebf3     guideXOS.obj
 0004:00012bfe       __ehinfo_guideXOS_guideXOS_DefaultApps_FConsole__HandleCommand 00000000100aebfe     guideXOS.obj
 0004:00012c44       __ehinfo_guideXOS_guideXOS_DefaultApps_GUISamples__BuildSamples 00000000100aec44     guideXOS.obj
 0004:00012c4e       __ehinfo_guideXOS_guideXOS_DefaultApps_GUISamples__CreateNewDemo 00000000100aec4e     guideXOS.obj
 0004:00012c58       __ehinfo_guideXOS_guideXOS_DefaultApps_GUISamples__ReloadDemos 00000000100aec58     guideXOS.obj
 0004:00012c61       __ehinfo_guideXOS_guideXOS_DefaultApps_Paint___ctor 00000000100aec61     guideXOS.obj
 0004:00012c71       __ehinfo_guideXOS_guideXOS_DefaultApps_Paint__OnDraw 00000000100aec71     guideXOS.obj
 0004:00012ca3       __ehinfo_guideXOS_guideXOS_DefaultApps_Paint__OnInput 00000000100aeca3     guideXOS.obj
 0004:00012cad       __ehinfo_guideXOS_guideXOS_DefaultApps_Paint__HandleToolbarClick 00000000100aecad     guideXOS.obj
 0004:00012cd4       __ehinfo_guideXOS_guideXOS_DefaultApps_Paint__HandleDrawing 00000000100aecd4     guideXOS.obj
 0004:00012cde       __ehinfo_guideXOS_guideXOS_DefaultApps_Paint__FinishDrawing 00000000100aecde     guideXOS.obj
 0004:00012ce8       __ehinfo_guideXOS_guideXOS_DefaultApps_Paint__DrawPixel 00000000100aece8     guideXOS.obj
 0004:00012cf1       __ehinfo_guideXOS_guideXOS_DefaultApps_Paint__DrawBrush 00000000100aecf1     guideXOS.obj
 0004:00012cfb       __ehinfo_guideXOS_guideXOS_DefaultApps_Paint__DrawBrushLine 00000000100aecfb     guideXOS.obj
 0004:00012d05       __ehinfo_guideXOS_guideXOS_DefaultApps_Paint__DrawThickLine 00000000100aed05     guideXOS.obj
 0004:00012d0d       __ehinfo_guideXOS_guideXOS_DefaultApps_Paint__DrawThickRectangle 00000000100aed0d     guideXOS.obj
 0004:00012d17       __ehinfo_guideXOS_guideXOS_DefaultApps_Paint__DrawThickCircle 00000000100aed17     guideXOS.obj
 0004:00012d2b       __ehinfo_guideXOS_guideXOS_DefaultApps_Paint__FloodFill 00000000100aed2b     guideXOS.obj
 0004:00012d35       __ehinfo_guideXOS_guideXOS_DefaultApps_Paint__AddColorButton 00000000100aed35     guideXOS.obj
 0004:00012d3f       __ehinfo_guideXOS_guideXOS_DefaultApps_Paint__AddToolButton 00000000100aed3f     guideXOS.obj
 0004:00012d49       __ehinfo_guideXOS_guideXOS_DefaultApps_Paint__AddSizeButton 00000000100aed49     guideXOS.obj
 0004:00012d53       __ehinfo_guideXOS_guideXOS_DefaultApps_TaskManager__DrawProcesses 00000000100aed53     guideXOS.obj
 0004:00012d66       __ehinfo_guideXOS_guideXOS_GUI_DisplayOptions___c___OnInput_b__40_0 00000000100aed66     guideXOS.obj
 0004:00012d70       __ehinfo_guideXOS_guideXOS_DefaultApps_DiskManager___c__DisplayClass38_0___ReadMBRForEntry_b__0 00000000100aed70     guideXOS.obj
 0004:00012d7f       __optionalfields_??_7guideXOS_System_Array_EmptyArray_1@@6B@ 00000000100aed7f     guideXOS.obj
 0004:00012d81       __optionalfields_??_7guideXOS_System_Array@@6B@ 00000000100aed81     guideXOS.obj
 0004:00012d87       __optionalfields_??_7Boxed_Bool@@6B@ 00000000100aed87     guideXOS.obj
 0004:00012d89       __optionalfields_??_7Boxed_UInt8@@6B@ 00000000100aed89     guideXOS.obj
 0004:00012d8b       __optionalfields_??_7guideXOS_System_Delegate@@6B@ 00000000100aed8b     guideXOS.obj
 0004:00012d8f       __optionalfields_??_7guideXOS_System_Enum@@6B@ 00000000100aed8f     guideXOS.obj
 0004:00012d96       __optionalfields_??_7Boxed_Int32@@6B@ 00000000100aed96     guideXOS.obj
 0004:00012d98       __optionalfields_??_7guideXOS_System_MulticastDelegate@@6B@ 00000000100aed98     guideXOS.obj
 0004:00012d9c       __optionalfields_??_7Object@@6B@ 00000000100aed9c     guideXOS.obj
 0004:00012d9f       __optionalfields_??_7Boxed_UInt16@@6B@ 00000000100aed9f     guideXOS.obj
 0004:00012da1       __optionalfields_??_7Boxed_UInt32@@6B@ 00000000100aeda1     guideXOS.obj
 0004:00012da3       __optionalfields_??_7guideXOS_System_ValueType@@6B@ 00000000100aeda3     guideXOS.obj
 0004:00012daa       __optionalfields_??_7guideXOS_System_Drawing_Image@@6B@ 00000000100aedaa     guideXOS.obj
 0004:00012dac       __optionalfields_??_7guideXOS_guideXOS_Animation@@6B@ 00000000100aedac     guideXOS.obj
 0004:00012dae       __optionalfields_??_7guideXOS_guideXOS_Misc_BitFontDescriptor@@6B@ 00000000100aedae     guideXOS.obj
 0004:00012db0       __optionalfields_??_7guideXOS_guideXOS_Misc_Bitmap@@6B@ 00000000100aedb0     guideXOS.obj
 0004:00012db2       __optionalfields_??_7guideXOS_guideXOS_Misc_IFont@@6B@ 00000000100aedb2     guideXOS.obj
 0004:00012db4       __optionalfields_??_7guideXOS_guideXOS_Misc_PNG@@6B@ 00000000100aedb4     guideXOS.obj
 0004:00012db6       __optionalfields_??_7guideXOS_guideXOS_Misc_SVG@@6B@ 00000000100aedb6     guideXOS.obj
 0004:00012db8       __optionalfields_??_7guideXOS_guideXOS_Misc_Thread@@6B@ 00000000100aedb8     guideXOS.obj
 0004:00012dba       __optionalfields_??_7guideXOS_guideXOS_Misc_USBDevice@@6B@ 00000000100aedba     guideXOS.obj
 0004:00012dbc       __optionalfields_??_7guideXOS_guideXOS_FS_Disk@@6B@ 00000000100aedbc     guideXOS.obj
 0004:00012dc3       __optionalfields_??_7guideXOS_guideXOS_FS_FAT@@6B@ 00000000100aedc3     guideXOS.obj
 0004:00012dc5       __optionalfields_??_7guideXOS_guideXOS_FS_FATFS@@6B@ 00000000100aedc5     guideXOS.obj
 0004:00012dc8       __optionalfields_??_7guideXOS_guideXOS_FS_FileInfo@@6B@ 00000000100aedc8     guideXOS.obj
 0004:00012dca       __optionalfields_??_7guideXOS_guideXOS_FS_FileSystem@@6B@ 00000000100aedca     guideXOS.obj
 0004:00012dd1       __optionalfields_??_7guideXOS_guideXOS_Kernel_Drivers_IDEDevice@@6B@ 00000000100aedd1     guideXOS.obj
 0004:00012dd3       __optionalfields_??_7guideXOS_guideXOS_Kernel_Drivers_PCIDevice@@6B@ 00000000100aedd3     guideXOS.obj
 0004:00012dd5       __optionalfields_??_7guideXOS_guideXOS_Kernel_Drivers_VMWareSVGAII@@6B@ 00000000100aedd5     guideXOS.obj
 0004:00012dd7       __optionalfields_??_7guideXOS_guideXOS_GUI_ColorPicker@@6B@ 00000000100aedd7     guideXOS.obj
 0004:00012dd9       __optionalfields_??_7guideXOS_guideXOS_GUI_DockableWidget@@6B@ 00000000100aedd9     guideXOS.obj
 0004:00012ddd       __optionalfields_??_7guideXOS_guideXOS_GUI_GXMScriptWindow@@6B@ 00000000100aeddd     guideXOS.obj
 0004:00012ddf       __optionalfields_??_7guideXOS_guideXOS_GUI_NetworkConfigurationDialog@@6B@ 00000000100aeddf     guideXOS.obj
 0004:00012de1       __optionalfields_??_7guideXOS_guideXOS_GUI_Notify@@6B@ 00000000100aede1     guideXOS.obj
 0004:00012de3       __optionalfields_??_7guideXOS_guideXOS_GUI_OnScreenKeyboard@@6B@ 00000000100aede3     guideXOS.obj
 0004:00012de7       __optionalfields_??_7guideXOS_guideXOS_GUI_OpenDialog@@6B@ 00000000100aede7     guideXOS.obj
 0004:00012de9       __optionalfields_??_7guideXOS_guideXOS_GUI_RightMenu@@6B@ 00000000100aede9     guideXOS.obj
 0004:00012deb       __optionalfields_??_7guideXOS_guideXOS_GUI_SaveChangesDialog@@6B@ 00000000100aedeb     guideXOS.obj
 0004:00012ded       __optionalfields_??_7guideXOS_guideXOS_GUI_SaveDialog@@6B@ 00000000100aeded     guideXOS.obj
 0004:00012def       __optionalfields_??_7guideXOS_guideXOS_GUI_StartMenu@@6B@ 00000000100aedef     guideXOS.obj
 0004:00012df1       __optionalfields_??_7guideXOS_guideXOS_GUI_Taskbar@@6B@ 00000000100aedf1     guideXOS.obj
 0004:00012df3       __optionalfields_??_7guideXOS_guideXOS_GUI_TaskbarMenu@@6B@ 00000000100aedf3     guideXOS.obj
 0004:00012df5       __optionalfields_??_7guideXOS_guideXOS_GUI_USBFiles@@6B@ 00000000100aedf5     guideXOS.obj
 0004:00012df7       __optionalfields_??_7guideXOS_guideXOS_GUI_VisualEffectsSettings@@6B@ 00000000100aedf7     guideXOS.obj
 0004:00012df9       __optionalfields_??_7guideXOS_guideXOS_GUI_WidgetContainer@@6B@ 00000000100aedf9     guideXOS.obj
 0004:00012dfb       __optionalfields_??_7guideXOS_guideXOS_GUI_Window@@6B@ 00000000100aedfb     guideXOS.obj
 0004:00012e01       __optionalfields_??_7guideXOS_guideXOS_GUI_WorkspaceSwitcher@@6B@ 00000000100aee01     guideXOS.obj
 0004:00012e03       __optionalfields_??_7guideXOS_guideXOS_GUI_Widgets_Button@@6B@ 00000000100aee03     guideXOS.obj
 0004:00012e05       __optionalfields_??_7guideXOS_guideXOS_GUI_Base_WindowBase@@6B@ 00000000100aee05     guideXOS.obj
 0004:00012e0b       __optionalfields_??_7guideXOS_guideXOS_DefaultApps_Calculator@@6B@ 00000000100aee0b     guideXOS.obj
 0004:00012e0d       __optionalfields_??_7guideXOS_guideXOS_DefaultApps_ComputerFiles@@6B@ 00000000100aee0d     guideXOS.obj
 0004:00012e0f       __optionalfields_??_7guideXOS_guideXOS_DefaultApps_Devices@@6B@ 00000000100aee0f     guideXOS.obj
 0004:00012e11       __optionalfields_??_7guideXOS_guideXOS_DefaultApps_DiskManager@@6B@ 00000000100aee11     guideXOS.obj
 0004:00012e13       __optionalfields_??_7guideXOS_guideXOS_DefaultApps_DriveInfo@@6B@ 00000000100aee13     guideXOS.obj
 0004:00012e15       __optionalfields_??_7guideXOS_guideXOS_DefaultApps_FConsole@@6B@ 00000000100aee15     guideXOS.obj
 0004:00012e17       __optionalfields_??_7guideXOS_guideXOS_DefaultApps_FirewallWindow@@6B@ 00000000100aee17     guideXOS.obj
 0004:00012e19       __optionalfields_??_7guideXOS_guideXOS_DefaultApps_ImageViewer@@6B@ 00000000100aee19     guideXOS.obj
 0004:00012e1b       __optionalfields_??_7guideXOS_guideXOS_DefaultApps_IRCNetworks@@6B@ 00000000100aee1b     guideXOS.obj
 0004:00012e1d       __optionalfields_??_7guideXOS_guideXOS_DefaultApps_nexIRC@@6B@ 00000000100aee1d     guideXOS.obj
 0004:00012e1f       __optionalfields_??_7guideXOS_guideXOS_DefaultApps_Notepad@@6B@ 00000000100aee1f     guideXOS.obj
 0004:00012e21       __optionalfields_??_7Boxed_guideXOS_guideXOS_DefaultApps_PaintTool@@6B@ 00000000100aee21     guideXOS.obj
 0004:00012e23       __optionalfields_??_7guideXOS_guideXOS_DefaultApps_TaskManager@@6B@ 00000000100aee23     guideXOS.obj
 0004:00012e25       __optionalfields_??_7guideXOS_guideXOS_DefaultApps_USBDrives@@6B@ 00000000100aee25     guideXOS.obj
 0004:00012e27       __optionalfields_??_7guideXOS_guideXOS_DefaultApps_WebBrowser@@6B@ 00000000100aee27     guideXOS.obj
 0004:00012e29       __optionalfields_??_7guideXOS_guideXOS_NETv4_TCPClient@@6B@ 00000000100aee29     guideXOS.obj
 0004:00012e2b       __optionalfields_??_7guideXOS_guideXOS_Network_Http_Response@@6B@ 00000000100aee2b     guideXOS.obj
 0004:00012e2d       __optionalfields_??_7guideXOS_guideXOS_Misc_Interrupts_INT@@6B@ 00000000100aee2d     guideXOS.obj
 0004:00012e2f       __optionalfields_??_7guideXOS_guideXOS_Kernel_Drivers_SATA_SATADevice@@6B@ 00000000100aee2f     guideXOS.obj
 0004:00012e31       __optionalfields_??_7guideXOS_guideXOS_GUI_GXMScriptWindow_TextBoxDef@@6B@ 00000000100aee31     guideXOS.obj
 0004:00012e33       __optionalfields_??_7guideXOS_guideXOS_GUI_GXMScriptWindow_DropdownDef@@6B@ 00000000100aee33     guideXOS.obj
 0004:00012e35       __optionalfields_??_7guideXOS_guideXOS_GUI_WorkspaceSwitcher_WindowSnapshot@@6B@ 00000000100aee35     guideXOS.obj
 0004:00012e37       __optionalfields_??_7guideXOS_guideXOS_DockableWidgets_Monitor_Chart@@6B@ 00000000100aee37     guideXOS.obj
 0004:00012e39       __optionalfields_??_7guideXOS_guideXOS_DefaultApps_DiskManager_DiskEntry@@6B@ 00000000100aee39     guideXOS.obj
 0004:00012e3b       __optionalfields_??_7guideXOS_guideXOS_DefaultApps_IRCNetworks_Entry@@6B@ 00000000100aee3b     guideXOS.obj
 0004:00012e3d       __optionalfields_??_7guideXOS_guideXOS_DefaultApps_WebBrowser_BrowserTab@@6B@ 00000000100aee3d     guideXOS.obj
 0004:00012e3f       __optionalfields_??_7guideXOS_guideXOS_DefaultApps_WebBrowser_RenderElement@@6B@ 00000000100aee3f     guideXOS.obj
 0004:00012e41       __optionalfields_??_7guideXOS_System_Collections_Generic_List_1<UInt8>@@6B@ 00000000100aee41     guideXOS.obj
 0004:00012e43       __optionalfields_??_7guideXOS_System_Collections_Generic_List_1<Int32>@@6B@ 00000000100aee43     guideXOS.obj
 0004:00012e45       __optionalfields_??_7guideXOS_System_Collections_Generic_List_1<String>@@6B@ 00000000100aee45     guideXOS.obj
 0004:00012e47       __optionalfields_??_7guideXOS_System_Array_EmptyArray_1<String>@@6B@ 00000000100aee47     guideXOS.obj
 0004:00012e4b       __optionalfields_??_7guideXOS_System_Collections_Generic_List_1<UInt32>@@6B@ 00000000100aee4b     guideXOS.obj
 0004:00012e4d       __optionalfields_??_7guideXOS_System_Collections_Generic_List_1<UInt64>@@6B@ 00000000100aee4d     guideXOS.obj
 0004:00012e4f       __optionalfields_??_7guideXOS_System_Collections_Generic_List_1<guideXOS_System_Drawing_Image>@@6B@ 00000000100aee4f     guideXOS.obj
 0004:00012e51       __optionalfields_??_7guideXOS_System_Collections_Generic_List_1<guideXOS_System_Drawing_Point>@@6B@ 00000000100aee51     guideXOS.obj
 0004:00012e53       __optionalfields_??_7guideXOS_System_Collections_Generic_List_1<guideXOS_guideXOS_Animation>@@6B@ 00000000100aee53     guideXOS.obj
 0004:00012e55       __optionalfields_??_7guideXOS_System_Collections_Generic_List_1<guideXOS_guideXOS_Misc_BitFontDescriptor>@@6B@ 00000000100aee55     guideXOS.obj
 0004:00012e57       __optionalfields_??_7guideXOS_System_Collections_Generic_List_1<guideXOS_guideXOS_Misc_Thread>@@6B@ 00000000100aee57     guideXOS.obj
 0004:00012e59       __optionalfields_??_7guideXOS_System_Collections_Generic_List_1<guideXOS_guideXOS_Misc_USBDevice>@@6B@ 00000000100aee59     guideXOS.obj
 0004:00012e5b       __optionalfields_??_7guideXOS_System_Collections_Generic_List_1<guideXOS_guideXOS_FS_FileInfo>@@6B@ 00000000100aee5b     guideXOS.obj
 0004:00012e5d       __optionalfields_??_7guideXOS_System_Collections_Generic_List_1<guideXOS_guideXOS_Kernel_Drivers_IDEDevice>@@6B@ 00000000100aee5d     guideXOS.obj
 0004:00012e5f       __optionalfields_??_7guideXOS_System_Collections_Generic_List_1<guideXOS_guideXOS_Kernel_Drivers_PCIDevice>@@6B@ 00000000100aee5f     guideXOS.obj
 0004:00012e61       __optionalfields_??_7guideXOS_System_Collections_Generic_List_1<guideXOS_guideXOS_OS_App>@@6B@ 00000000100aee61     guideXOS.obj
 0004:00012e63       __optionalfields_??_7guideXOS_System_Collections_Generic_List_1<guideXOS_guideXOS_GUI_DockableWidget>@@6B@ 00000000100aee63     guideXOS.obj
 0004:00012e65       __optionalfields_??_7guideXOS_System_Collections_Generic_List_1<guideXOS_guideXOS_GUI_RecentProgramEntry>@@6B@ 00000000100aee65     guideXOS.obj
 0004:00012e67       __optionalfields_??_7guideXOS_System_Collections_Generic_List_1<guideXOS_guideXOS_GUI_RecentDocumentEntry>@@6B@ 00000000100aee67     guideXOS.obj
 0004:00012e69       __optionalfields_??_7guideXOS_System_Collections_Generic_List_1<guideXOS_guideXOS_GUI_Window>@@6B@ 00000000100aee69     guideXOS.obj
 0004:00012e6b       __optionalfields_??_7guideXOS_System_Collections_Generic_List_1<guideXOS_guideXOS_GUI_Widgets_Button>@@6B@ 00000000100aee6b     guideXOS.obj
 0004:00012e6d       __optionalfields_??_7guideXOS_System_Collections_Generic_List_1<guideXOS_guideXOS_DefaultApps_DriveInfo>@@6B@ 00000000100aee6d     guideXOS.obj
 0004:00012e6f       __optionalfields_??_7guideXOS_System_Collections_Generic_List_1<guideXOS_guideXOS_DefaultApps_PaintTool>@@6B@ 00000000100aee6f     guideXOS.obj
 0004:00012e71       __optionalfields_??_7guideXOS_System_Collections_Generic_List_1<guideXOS_guideXOS_NETv4_UDPClient>@@6B@ 00000000100aee71     guideXOS.obj
 0004:00012e73       __optionalfields_??_7guideXOS_System_Collections_Generic_List_1<guideXOS_guideXOS_NETv4_TCPClient>@@6B@ 00000000100aee73     guideXOS.obj
 0004:00012e75       __optionalfields_??_7guideXOS_System_Collections_Generic_List_1<guideXOS_guideXOS_NETv4_ARPCache>@@6B@ 00000000100aee75     guideXOS.obj
 0004:00012e77       __optionalfields_??_7guideXOS_System_Collections_Generic_List_1<guideXOS_guideXOS_Network_Http_Header>@@6B@ 00000000100aee77     guideXOS.obj
 0004:00012e79       __optionalfields_??_7guideXOS_System_Collections_Generic_List_1<guideXOS_guideXOS_Misc_Interrupts_INT>@@6B@ 00000000100aee79     guideXOS.obj
 0004:00012e7b       __optionalfields_??_7guideXOS_System_Collections_Generic_List_1<guideXOS_guideXOS_FS_EXT2_DirEnt>@@6B@ 00000000100aee7b     guideXOS.obj
 0004:00012e7d       __optionalfields_??_7guideXOS_System_Collections_Generic_List_1<guideXOS_guideXOS_Kernel_Drivers_SATA_SATADevice>@@6B@ 00000000100aee7d     guideXOS.obj
 0004:00012e7f       __optionalfields_??_7guideXOS_System_Collections_Generic_List_1<guideXOS_guideXOS_Modules_ModuleManager_ModuleEntry>@@6B@ 00000000100aee7f     guideXOS.obj
 0004:00012e81       __optionalfields_??_7guideXOS_System_Collections_Generic_List_1<guideXOS_guideXOS_GUI_GXMScriptWindow_Btn>@@6B@ 00000000100aee81     guideXOS.obj
 0004:00012e83       __optionalfields_??_7guideXOS_System_Collections_Generic_List_1<guideXOS_guideXOS_GUI_GXMScriptWindow_Label>@@6B@ 00000000100aee83     guideXOS.obj
 0004:00012e85       __optionalfields_??_7guideXOS_System_Collections_Generic_List_1<guideXOS_guideXOS_GUI_GXMScriptWindow_TextBoxDef>@@6B@ 00000000100aee85     guideXOS.obj
 0004:00012e87       __optionalfields_??_7guideXOS_System_Collections_Generic_List_1<guideXOS_guideXOS_GUI_GXMScriptWindow_ListViewDef>@@6B@ 00000000100aee87     guideXOS.obj
 0004:00012e89       __optionalfields_??_7guideXOS_System_Collections_Generic_List_1<guideXOS_guideXOS_GUI_GXMScriptWindow_DropdownDef>@@6B@ 00000000100aee89     guideXOS.obj
 0004:00012e8b       __optionalfields_??_7guideXOS_System_Collections_Generic_List_1<guideXOS_guideXOS_GUI_GXMScriptWindow_Callback>@@6B@ 00000000100aee8b     guideXOS.obj
 0004:00012e8d       __optionalfields_??_7guideXOS_System_Collections_Generic_List_1<guideXOS_guideXOS_GUI_PinnedManager_Pinned>@@6B@ 00000000100aee8d     guideXOS.obj
 0004:00012e8f       __optionalfields_??_7guideXOS_System_Collections_Generic_List_1<guideXOS_guideXOS_GUI_WindowManager_PendingWindow>@@6B@ 00000000100aee8f     guideXOS.obj
 0004:00012e91       __optionalfields_??_7guideXOS_System_Collections_Generic_List_1<guideXOS_guideXOS_GUI_WorkspaceSwitcher_WindowSnapshot>@@6B@ 00000000100aee91     guideXOS.obj
 0004:00012e93       __optionalfields_??_7guideXOS_System_Collections_Generic_List_1<guideXOS_guideXOS_DefaultApps_DiskManager_DiskEntry>@@6B@ 00000000100aee93     guideXOS.obj
 0004:00012e95       __optionalfields_??_7guideXOS_System_Collections_Generic_List_1<guideXOS_guideXOS_DefaultApps_IRCNetworks_Entry>@@6B@ 00000000100aee95     guideXOS.obj
 0004:00012e97       __optionalfields_??_7guideXOS_System_Collections_Generic_List_1<guideXOS_guideXOS_DefaultApps_WebBrowser_BrowserTab>@@6B@ 00000000100aee97     guideXOS.obj
 0004:00012e99       __optionalfields_??_7guideXOS_System_Collections_Generic_List_1<guideXOS_guideXOS_DefaultApps_WebBrowser_RenderElement>@@6B@ 00000000100aee99     guideXOS.obj
 0004:00012e9b       __optionalfields_??_7guideXOS_System_Collections_Generic_List_1<__Array<UInt8>>@@6B@ 00000000100aee9b     guideXOS.obj
 0004:00012e9d       __optionalfields_??_7Boxed_Char@@6B@ 00000000100aee9d     guideXOS.obj
 0004:00012e9f       __optionalfields_??_7Boxed_guideXOS_System_ConsoleKey@@6B@ 00000000100aee9f     guideXOS.obj
 0004:00012ea1       __optionalfields_??_7Boxed_guideXOS_System_ConsoleKeyInfo@@6B@ 00000000100aeea1     guideXOS.obj
 0004:00012ea3       __optionalfields_??_7Boxed_guideXOS_System_Drawing_Point@@6B@ 00000000100aeea3     guideXOS.obj
 0004:00012ea5       __optionalfields_??_7guideXOS_guideXOS_Console@@6B@ 00000000100aeea5     guideXOS.obj
 0004:00012ea9       __optionalfields_??_7guideXOS_guideXOS_FS_CloudFS@@6B@ 00000000100aeea9     guideXOS.obj
 0004:00012eab       __optionalfields_??_7Boxed_guideXOS_guideXOS_Kernel_Drivers_Resolution@@6B@ 00000000100aeeab     guideXOS.obj
 0004:00012ead       __optionalfields_??_7Boxed_guideXOS_guideXOS_OS_FirewallMode@@6B@ 00000000100aeead     guideXOS.obj
 0004:00012eaf       __optionalfields_??_7Boxed_guideXOS_IDT_IDTEntry@@6B@ 00000000100aeeaf     guideXOS.obj
 0004:00012eb1       __optionalfields_??_7Boxed_guideXOS_guideXOS_NETv4_ARPCache@@6B@ 00000000100aeeb1     guideXOS.obj
 0004:00012eb3       __optionalfields_??_7Boxed_guideXOS_guideXOS_GUI_WindowManager_PendingWindow@@6B@ 00000000100aeeb3     guideXOS.obj
 0004:00012eb8       __GenericDict_guideXOS_System_Action_1<String> 00000000100aeeb8     guideXOS.obj
 0004:00012eb8       __GenericDict_guideXOS_System_Array_1<Object> 00000000100aeeb8     guideXOS.obj
 0004:00012eb8       __GenericDict_guideXOS_System_Array_1<String> 00000000100aeeb8     guideXOS.obj
 0004:00012eb8       __GenericDict_guideXOS_System_Collections_Generic_List_1<String> 00000000100aeeb8     guideXOS.obj
 0004:00012eb8       __GenericDict_guideXOS_System_Func_2<Int32__guideXOS_System_Drawing_Image> 00000000100aeeb8     guideXOS.obj
 0004:00012ec8       __GenericDict_guideXOS_System_Array_EmptyArray_1<String> 00000000100aeec8     guideXOS.obj
 0004:00012ee0       __GenericDict_guideXOS_System_Array_1<guideXOS_System_Drawing_Image> 00000000100aeee0     guideXOS.obj
 0004:00012ee0       __GenericDict_guideXOS_System_Collections_Generic_List_1<guideXOS_System_Drawing_Image> 00000000100aeee0     guideXOS.obj
 0004:00012ee0       __GenericDict_guideXOS_System_Func_5<String__Bool__UInt32__UInt32__Bool> 00000000100aeee0     guideXOS.obj
 0004:00012ef0       __GenericDict_guideXOS_System_Array_1<guideXOS_guideXOS_Animation> 00000000100aeef0     guideXOS.obj
 0004:00012ef0       __GenericDict_guideXOS_System_Collections_Generic_List_1<guideXOS_guideXOS_Animation> 00000000100aeef0     guideXOS.obj
 0004:00012f00       __GenericDict_guideXOS_System_Array_1<guideXOS_guideXOS_Misc_BitFontDescriptor> 00000000100aef00     guideXOS.obj
 0004:00012f00       __GenericDict_guideXOS_System_Collections_Generic_List_1<guideXOS_guideXOS_Misc_BitFontDescriptor> 00000000100aef00     guideXOS.obj
 0004:00012f10       __GenericDict_guideXOS_System_Array_1<guideXOS_guideXOS_Misc_Thread> 00000000100aef10     guideXOS.obj
 0004:00012f10       __GenericDict_guideXOS_System_Collections_Generic_List_1<guideXOS_guideXOS_Misc_Thread> 00000000100aef10     guideXOS.obj
 0004:00012f20       __GenericDict_guideXOS_System_Array_1<guideXOS_guideXOS_Misc_USBDevice> 00000000100aef20     guideXOS.obj
 0004:00012f20       __GenericDict_guideXOS_System_Collections_Generic_List_1<guideXOS_guideXOS_Misc_USBDevice> 00000000100aef20     guideXOS.obj
 0004:00012f30       __GenericDict_guideXOS_System_Array_1<guideXOS_guideXOS_FS_FileInfo> 00000000100aef30     guideXOS.obj
 0004:00012f30       __GenericDict_guideXOS_System_Collections_Generic_List_1<guideXOS_guideXOS_FS_FileInfo> 00000000100aef30     guideXOS.obj
 0004:00012f40       __GenericDict_guideXOS_System_Array_1<guideXOS_guideXOS_Kernel_Drivers_IDEDevice> 00000000100aef40     guideXOS.obj
 0004:00012f40       __GenericDict_guideXOS_System_Collections_Generic_List_1<guideXOS_guideXOS_Kernel_Drivers_IDEDevice> 00000000100aef40     guideXOS.obj
 0004:00012f50       __GenericDict_guideXOS_System_Array_1<guideXOS_guideXOS_Kernel_Drivers_PCIDevice> 00000000100aef50     guideXOS.obj
 0004:00012f50       __GenericDict_guideXOS_System_Collections_Generic_List_1<guideXOS_guideXOS_Kernel_Drivers_PCIDevice> 00000000100aef50     guideXOS.obj
 0004:00012f60       __GenericDict_guideXOS_System_Array_1<guideXOS_guideXOS_OS_App> 00000000100aef60     guideXOS.obj
 0004:00012f60       __GenericDict_guideXOS_System_Collections_Generic_List_1<guideXOS_guideXOS_OS_App> 00000000100aef60     guideXOS.obj
 0004:00012f70       __GenericDict_guideXOS_System_Array_1<guideXOS_guideXOS_GUI_DockableWidget> 00000000100aef70     guideXOS.obj
 0004:00012f70       __GenericDict_guideXOS_System_Collections_Generic_List_1<guideXOS_guideXOS_GUI_DockableWidget> 00000000100aef70     guideXOS.obj
 0004:00012f80       __GenericDict_guideXOS_System_Array_1<guideXOS_guideXOS_GUI_Window> 00000000100aef80     guideXOS.obj
 0004:00012f80       __GenericDict_guideXOS_System_Collections_Generic_List_1<guideXOS_guideXOS_GUI_Window> 00000000100aef80     guideXOS.obj
 0004:00012f90       __GenericDict_guideXOS_System_Array_1<guideXOS_guideXOS_GUI_Widgets_Button> 00000000100aef90     guideXOS.obj
 0004:00012f90       __GenericDict_guideXOS_System_Collections_Generic_List_1<guideXOS_guideXOS_GUI_Widgets_Button> 00000000100aef90     guideXOS.obj
 0004:00012fa0       __GenericDict_guideXOS_System_Collections_Generic_Dictionary_2<guideXOS_guideXOS_GUI_Widgets_Button__Int32> 00000000100aefa0     guideXOS.obj
 0004:00012fa8       __GenericDict_guideXOS_System_Collections_Generic_Dictionary_2<guideXOS_guideXOS_GUI_Widgets_Button__guideXOS_guideXOS_DefaultApps_PaintTool> 00000000100aefa8     guideXOS.obj
 0004:00012fb0       __GenericDict_guideXOS_System_Array_1<guideXOS_guideXOS_DefaultApps_DriveInfo> 00000000100aefb0     guideXOS.obj
 0004:00012fb0       __GenericDict_guideXOS_System_Collections_Generic_List_1<guideXOS_guideXOS_DefaultApps_DriveInfo> 00000000100aefb0     guideXOS.obj
 0004:00012fc0       __GenericDict_guideXOS_System_Array_1<guideXOS_guideXOS_NETv4_UDPClient> 00000000100aefc0     guideXOS.obj
 0004:00012fc0       __GenericDict_guideXOS_System_Collections_Generic_List_1<guideXOS_guideXOS_NETv4_UDPClient> 00000000100aefc0     guideXOS.obj
 0004:00012fd0       __GenericDict_guideXOS_System_Array_1<guideXOS_guideXOS_NETv4_TCPClient> 00000000100aefd0     guideXOS.obj
 0004:00012fd0       __GenericDict_guideXOS_System_Collections_Generic_List_1<guideXOS_guideXOS_NETv4_TCPClient> 00000000100aefd0     guideXOS.obj
 0004:00012fe0       __GenericDict_guideXOS_System_Array_1<guideXOS_guideXOS_Network_Http_Header> 00000000100aefe0     guideXOS.obj
 0004:00012fe0       __GenericDict_guideXOS_System_Collections_Generic_List_1<guideXOS_guideXOS_Network_Http_Header> 00000000100aefe0     guideXOS.obj
 0004:00012ff0       __GenericDict_guideXOS_System_Array_1<guideXOS_guideXOS_Misc_Interrupts_INT> 00000000100aeff0     guideXOS.obj
 0004:00012ff0       __GenericDict_guideXOS_System_Collections_Generic_List_1<guideXOS_guideXOS_Misc_Interrupts_INT> 00000000100aeff0     guideXOS.obj
 0004:00013000       __GenericDict_guideXOS_System_Array_1<guideXOS_guideXOS_Kernel_Drivers_SATA_SATADevice> 00000000100af000     guideXOS.obj
 0004:00013000       __GenericDict_guideXOS_System_Collections_Generic_List_1<guideXOS_guideXOS_Kernel_Drivers_SATA_SATADevice> 00000000100af000     guideXOS.obj
 0004:00013010       __GenericDict_guideXOS_System_Array_1<guideXOS_guideXOS_GUI_GXMScriptWindow_TextBoxDef> 00000000100af010     guideXOS.obj
 0004:00013010       __GenericDict_guideXOS_System_Collections_Generic_List_1<guideXOS_guideXOS_GUI_GXMScriptWindow_TextBoxDef> 00000000100af010     guideXOS.obj
 0004:00013020       __GenericDict_guideXOS_System_Array_1<guideXOS_guideXOS_GUI_GXMScriptWindow_ListViewDef> 00000000100af020     guideXOS.obj
 0004:00013020       __GenericDict_guideXOS_System_Collections_Generic_List_1<guideXOS_guideXOS_GUI_GXMScriptWindow_ListViewDef> 00000000100af020     guideXOS.obj
 0004:00013030       __GenericDict_guideXOS_System_Array_1<guideXOS_guideXOS_GUI_GXMScriptWindow_DropdownDef> 00000000100af030     guideXOS.obj
 0004:00013030       __GenericDict_guideXOS_System_Collections_Generic_List_1<guideXOS_guideXOS_GUI_GXMScriptWindow_DropdownDef> 00000000100af030     guideXOS.obj
 0004:00013040       __GenericDict_guideXOS_System_Array_1<guideXOS_guideXOS_GUI_GXMScriptWindow_Callback> 00000000100af040     guideXOS.obj
 0004:00013040       __GenericDict_guideXOS_System_Collections_Generic_List_1<guideXOS_guideXOS_GUI_GXMScriptWindow_Callback> 00000000100af040     guideXOS.obj
 0004:00013050       __GenericDict_guideXOS_System_Array_1<guideXOS_guideXOS_GUI_WorkspaceSwitcher_WindowSnapshot> 00000000100af050     guideXOS.obj
 0004:00013050       __GenericDict_guideXOS_System_Collections_Generic_List_1<guideXOS_guideXOS_GUI_WorkspaceSwitcher_WindowSnapshot> 00000000100af050     guideXOS.obj
 0004:00013060       __GenericDict_guideXOS_System_Array_1<guideXOS_guideXOS_DefaultApps_DiskManager_DiskEntry> 00000000100af060     guideXOS.obj
 0004:00013060       __GenericDict_guideXOS_System_Collections_Generic_List_1<guideXOS_guideXOS_DefaultApps_DiskManager_DiskEntry> 00000000100af060     guideXOS.obj
 0004:00013070       __GenericDict_guideXOS_System_Array_1<guideXOS_guideXOS_DefaultApps_IRCNetworks_Entry> 00000000100af070     guideXOS.obj
 0004:00013070       __GenericDict_guideXOS_System_Collections_Generic_List_1<guideXOS_guideXOS_DefaultApps_IRCNetworks_Entry> 00000000100af070     guideXOS.obj
 0004:00013080       __GenericDict_guideXOS_System_Array_1<guideXOS_guideXOS_DefaultApps_WebBrowser_BrowserTab> 00000000100af080     guideXOS.obj
 0004:00013080       __GenericDict_guideXOS_System_Collections_Generic_List_1<guideXOS_guideXOS_DefaultApps_WebBrowser_BrowserTab> 00000000100af080     guideXOS.obj
 0004:00013090       __GenericDict_guideXOS_System_Array_1<guideXOS_guideXOS_DefaultApps_WebBrowser_RenderElement> 00000000100af090     guideXOS.obj
 0004:00013090       __GenericDict_guideXOS_System_Collections_Generic_List_1<guideXOS_guideXOS_DefaultApps_WebBrowser_RenderElement> 00000000100af090     guideXOS.obj
 0004:000130a0       __GenericDict_guideXOS_System_Array_1<__Array<UInt8>> 00000000100af0a0     guideXOS.obj
 0004:000130a0       __GenericDict_guideXOS_System_Collections_Generic_List_1<__Array<UInt8>> 00000000100af0a0     guideXOS.obj
 0004:000130b0       __GenericDict_guideXOS_System_Collections_Generic_Queue_1<__Array<UInt8>> 00000000100af0b0     guideXOS.obj
 0004:000130c0       lodepng_default_decompress_settings 00000000100af0c0     NativeLib:lodepng.obj
 0004:000130e8       lodepng_default_compress_settings 00000000100af0e8     NativeLib:lodepng.obj
 0004:000133f8       ??_C@_08CJOLANMN@20220109@ 00000000100af3f8     NativeLib:lodepng.obj
 0004:00013404       ??_C@_04MNIAFIMC@IHDR@     00000000100af404     NativeLib:lodepng.obj
 0004:0001340c       ??_C@_04DGLHBNIA@PLTE@     00000000100af40c     NativeLib:lodepng.obj
 0004:00013414       ??_C@_04LPBJCHJJ@tRNS@     00000000100af414     NativeLib:lodepng.obj
 0004:0001341c       ??_C@_04HHPKOCLH@bKGD@     00000000100af41c     NativeLib:lodepng.obj
 0004:00013424       ??_C@_04LALJCFBI@tEXt@     00000000100af424     NativeLib:lodepng.obj
 0004:0001342c       ??_C@_04OHCMKLID@zTXt@     00000000100af42c     NativeLib:lodepng.obj
 0004:00013434       ??_C@_04MAGMEGNB@iTXt@     00000000100af434     NativeLib:lodepng.obj
 0004:0001343c       ??_C@_04CGNPPMIJ@tIME@     00000000100af43c     NativeLib:lodepng.obj
 0004:00013444       ??_C@_04PJNAKHPF@pHYs@     00000000100af444     NativeLib:lodepng.obj
 0004:0001344c       ??_C@_04KAEHPMDA@gAMA@     00000000100af44c     NativeLib:lodepng.obj
 0004:00013454       ??_C@_04JDAALODL@cHRM@     00000000100af454     NativeLib:lodepng.obj
 0004:0001345c       ??_C@_04FBDBODBG@sRGB@     00000000100af45c     NativeLib:lodepng.obj
 0004:00013464       ??_C@_04OMDJIEMA@iCCP@     00000000100af464     NativeLib:lodepng.obj
 0004:0001346c       ??_C@_04NHMHICBH@IDAT@     00000000100af46c     NativeLib:lodepng.obj
 0004:00013474       ??_C@_04COOFLABO@IEND@     00000000100af474     NativeLib:lodepng.obj
 0004:00013480       ??_C@_0N@MNIAGKFI@lodepng?3?5?$CFs?6@ 00000000100af480     NativeLib:lodepng.obj
 0004:00013490       ??_C@_07FFJHAIOD@LodePNG@  00000000100af490     NativeLib:lodepng.obj
 0004:00013498       ??_C@_0BN@IBGHKPF@no?5error?0?5everything?5went?5ok@ 00000000100af498     NativeLib:lodepng.obj
 0004:000134b8       ??_C@_0BB@KHCEDELJ@nothing?5done?5yet@ 00000000100af4b8     NativeLib:lodepng.obj
 0004:000134d0       ??_C@_0DF@INKBJCMB@end?5of?5input?5memory?5reached?5wit@ 00000000100af4d0     NativeLib:lodepng.obj
 0004:00013508       ??_C@_0DI@OINNFIKI@error?5in?5code?5tree?5made?5it?5jump@ 00000000100af508     NativeLib:lodepng.obj
 0004:00013540       ??_C@_0CP@DDHBCAOL@problem?5while?5processing?5dynami@ 00000000100af540     NativeLib:lodepng.obj
 0004:00013570       ??_C@_0DE@PCCGDGNM@invalid?5code?5while?5processing?5d@ 00000000100af570     NativeLib:lodepng.obj
 0004:000135a8       ??_C@_0DB@CCCHOPLJ@end?5of?5out?5buffer?5memory?5reache@ 00000000100af5a8     NativeLib:lodepng.obj
 0004:000135e0       ??_C@_0CG@MOLAAFOP@invalid?5distance?5code?5while?5inf@ 00000000100af5e0     NativeLib:lodepng.obj
 0004:00013608       ??_C@_0DH@OHJCBPG@invalid?5deflate?5block?5BTYPE?5enc@ 00000000100af608     NativeLib:lodepng.obj
 0004:00013640       ??_C@_0DG@LJBKCKDJ@NLEN?5is?5not?5ones?5complement?5of?5@ 00000000100af640     NativeLib:lodepng.obj
 0004:00013678       ??_C@_0DA@BOMDJJCD@end?5of?5in?5buffer?5memory?5reached@ 00000000100af678     NativeLib:lodepng.obj
 0004:000136a8       ??_C@_0BO@LPIJIILG@invalid?5FCHECK?5in?5zlib?5header@ 00000000100af6a8     NativeLib:lodepng.obj
 0004:000136c8       ??_C@_0CK@OFGJAJAB@invalid?5compression?5method?5in?5z@ 00000000100af6c8     NativeLib:lodepng.obj
 0004:000136f8       ??_C@_0DN@IHNMFLFH@FDICT?5encountered?5in?5zlib?5heade@ 00000000100af6f8     NativeLib:lodepng.obj
 0004:00013738       ??_C@_0CG@PKFJEKKJ@PNG?5file?5is?5smaller?5than?5a?5PNG?5@ 00000000100af738     NativeLib:lodepng.obj
 0004:00013760       ??_C@_0DC@KNOMKLMA@incorrect?5PNG?5signature?0?5it?8s?5n@ 00000000100af760     NativeLib:lodepng.obj
 0004:00013798       ??_C@_0CE@PGBEOGCC@first?5chunk?5is?5not?5the?5header?5c@ 00000000100af798     NativeLib:lodepng.obj
 0004:000137c0       ??_C@_0DI@DMLNOICN@chunk?5length?5too?5large?0?5chunk?5b@ 00000000100af7c0     NativeLib:lodepng.obj
 0004:000137f8       ??_C@_0BO@NDHLKIKI@illegal?5PNG?5color?5type?5or?5bpp@ 00000000100af7f8     NativeLib:lodepng.obj
 0004:00013818       ??_C@_0BP@ODHKPHCH@illegal?5PNG?5compression?5method@ 00000000100af818     NativeLib:lodepng.obj
 0004:00013838       ??_C@_0BK@NEGKONLH@illegal?5PNG?5filter?5method@ 00000000100af838     NativeLib:lodepng.obj
 0004:00013858       ??_C@_0BN@BGHOFLAF@illegal?5PNG?5interlace?5method@ 00000000100af858     NativeLib:lodepng.obj
 0004:00013878       ??_C@_0DM@MBIDFHIJ@chunk?5length?5of?5a?5chunk?5is?5too?5@ 00000000100af878     NativeLib:lodepng.obj
 0004:000138b8       ??_C@_0CE@HJIDBMAH@illegal?5PNG?5filter?5type?5encount@ 00000000100af8b8     NativeLib:lodepng.obj
 0004:000138e0       ??_C@_0CM@DFEKLLPN@illegal?5bit?5depth?5for?5this?5colo@ 00000000100af8e0     NativeLib:lodepng.obj
 0004:00013910       ??_C@_0CE@OODHKAPE@the?5palette?5is?5too?5small?5or?5too@ 00000000100af910     NativeLib:lodepng.obj
 0004:00013938       ??_C@_0DN@OLGBICPI@tRNS?5chunk?5before?5PLTE?5or?5has?5m@ 00000000100af938     NativeLib:lodepng.obj
 0004:00013978       ??_C@_0CO@IDOGAOKB@tRNS?5chunk?5has?5wrong?5size?5for?5g@ 00000000100af978     NativeLib:lodepng.obj
 0004:000139a8       ??_C@_0CI@IFCNLLFM@tRNS?5chunk?5has?5wrong?5size?5for?5R@ 00000000100af9a8     NativeLib:lodepng.obj
 0004:000139d0       ??_C@_0EB@CHDDNMPD@tRNS?5chunk?5appeared?5while?5it?5wa@ 00000000100af9d0     NativeLib:lodepng.obj
 0004:00013a18       ??_C@_0CM@HNLFOPI@bKGD?5chunk?5has?5wrong?5size?5for?5p@ 00000000100afa18     NativeLib:lodepng.obj
 0004:00013a48       ??_C@_0CO@ELMIGKLO@bKGD?5chunk?5has?5wrong?5size?5for?5g@ 00000000100afa48     NativeLib:lodepng.obj
 0004:00013a78       ??_C@_0CI@CMLABIJA@bKGD?5chunk?5has?5wrong?5size?5for?5R@ 00000000100afa78     NativeLib:lodepng.obj
 0004:00013aa0       ??_C@_0EI@GHHJBLGG@empty?5input?5buffer?5given?5to?5dec@ 00000000100afaa0     NativeLib:lodepng.obj
 0004:00013ae8       ??_C@_0DJ@MHOEEPLI@jumped?5past?5memory?5while?5genera@ 00000000100afae8     NativeLib:lodepng.obj
 0004:00013b28       ??_C@_0DB@BNPOFNMD@jumped?5past?5memory?5while?5inflat@ 00000000100afb28     NativeLib:lodepng.obj
 0004:00013b60       ??_C@_0CD@ICHNJILK@jumped?5past?5memory?5while?5inflat@ 00000000100afb60     NativeLib:lodepng.obj
 0004:00013b88       ??_C@_0BM@CEJPNBLF@size?5of?5zlib?5data?5too?5small@ 00000000100afb88     NativeLib:lodepng.obj
 0004:00013ba8       ??_C@_0DK@DEJNNMNC@repeat?5symbol?5in?5tree?5while?5the@ 00000000100afba8     NativeLib:lodepng.obj
 0004:00013be8       ??_C@_0CP@JKHHNIDN@jumped?5past?5tree?5while?5generati@ 00000000100afbe8     NativeLib:lodepng.obj
 0004:00013c20       ??_C@_0EM@MLFECFBO@given?5output?5image?5colortype?5or@ 00000000100afc20     NativeLib:lodepng.obj
 0004:00013c70       ??_C@_0DH@GCCBCJBH@invalid?5CRC?5encountered?5?$CIchecki@ 00000000100afc70     NativeLib:lodepng.obj
 0004:00013ca8       ??_C@_0DP@NMFEBLDJ@invalid?5ADLER32?5encountered?5?$CIch@ 00000000100afca8     NativeLib:lodepng.obj
 0004:00013ce8       ??_C@_0CJ@PKIBMELO@requested?5color?5conversion?5not?5@ 00000000100afce8     NativeLib:lodepng.obj
 0004:00013d20       ??_C@_0EL@DFAHNGDC@invalid?5window?5size?5given?5in?5th@ 00000000100afd20     NativeLib:lodepng.obj
 0004:00013d70       ??_C@_0FB@CGBCJAKP@invalid?5BTYPE?5given?5in?5the?5sett@ 00000000100afd70     NativeLib:lodepng.obj
 0004:00013dc8       ??_C@_0DB@GEFIFIEM@conversion?5from?5color?5to?5graysc@ 00000000100afdc8     NativeLib:lodepng.obj
 0004:00013e00       ??_C@_0EO@OPNCIJKM@length?5of?5a?5chunk?5too?5long?0?5max@ 00000000100afe00     NativeLib:lodepng.obj
 0004:00013e50       ??_C@_0DK@CGBJPOCG@the?5length?5of?5the?5END?5symbol?525@ 00000000100afe50     NativeLib:lodepng.obj
 0004:00013e90       ??_C@_0FP@NKPOKJKO@the?5length?5of?5a?5text?5chunk?5keyw@ 00000000100afe90     NativeLib:lodepng.obj
 0004:00013ef0       ??_C@_0FO@HGBKNLHO@the?5length?5of?5a?5text?5chunk?5keyw@ 00000000100afef0     NativeLib:lodepng.obj
 0004:00013f50       ??_C@_0FJ@LPKJLMJ@tried?5to?5encode?5a?5PLTE?5chunk?5wi@ 00000000100aff50     NativeLib:lodepng.obj
 0004:00013fb0       ??_C@_0ED@FHCCPMOF@unknown?5chunk?5type?5with?5?8critic@ 00000000100affb0     NativeLib:lodepng.obj
 0004:00013ff8       ??_C@_0DJ@OGMBNCEO@invalid?5interlace?5mode?5given?5to@ 00000000100afff8     NativeLib:lodepng.obj
 0004:00014040       ??_C@_0FN@JOBHGFBG@while?5decoding?0?5invalid?5compres@ 00000000100b0040     NativeLib:lodepng.obj
 0004:000140a0       ??_C@_0BI@GJKJMBKH@invalid?5tIME?5chunk?5size@ 00000000100b00a0     NativeLib:lodepng.obj
 0004:000140b8       ??_C@_0BI@NMOBNHEN@invalid?5pHYs?5chunk?5size@ 00000000100b00b8     NativeLib:lodepng.obj
 0004:000140d0       ??_C@_0DJ@PANFLBNP@no?5null?5termination?5char?5found?5@ 00000000100b00d0     NativeLib:lodepng.obj
 0004:00014110       ??_C@_0CP@KDAKHJNL@iTXt?5chunk?5too?5short?5to?5contain@ 00000000100b0110     NativeLib:lodepng.obj
 0004:00014140       ??_C@_0CA@FGDALBLM@integer?5overflow?5in?5buffer?5size@ 00000000100b0140     NativeLib:lodepng.obj
 0004:00014160       ??_C@_0CA@CBHGFENA@failed?5to?5open?5file?5for?5reading@ 00000000100b0160     NativeLib:lodepng.obj
 0004:00014180       ??_C@_0CA@EHFMONBL@failed?5to?5open?5file?5for?5writing@ 00000000100b0180     NativeLib:lodepng.obj
 0004:000141a0       ??_C@_0CD@MOHNLFBI@tried?5creating?5a?5tree?5of?50?5symb@ 00000000100b01a0     NativeLib:lodepng.obj
 0004:000141c8       ??_C@_0CF@PBAGOFJG@lazy?5matching?5at?5pos?50?5is?5impos@ 00000000100b01c8     NativeLib:lodepng.obj
 0004:000141f0       ??_C@_0FN@POPKDEPB@color?5conversion?5to?5palette?5req@ 00000000100b01f0     NativeLib:lodepng.obj
 0004:00014250       ??_C@_0BJ@FDBIHNP@memory?5allocation?5failed@ 00000000100b0250     NativeLib:lodepng.obj
 0004:00014270       ??_C@_0DK@JNCHGFNK@given?5image?5too?5small?5to?5contai@ 00000000100b0270     NativeLib:lodepng.obj
 0004:000142b0       ??_C@_0DC@KAGBFHHD@impossible?5offset?5in?5lz77?5encod@ 00000000100b02b0     NativeLib:lodepng.obj
 0004:000142f0       ??_C@_0FB@OFCJJNFO@must?5provide?5custom?5zlib?5functi@ 00000000100b02f0     NativeLib:lodepng.obj
 0004:00014350       ??_C@_0EJ@PHLJLBOL@invalid?5filter?5strategy?5given?5f@ 00000000100b0350     NativeLib:lodepng.obj
 0004:000143a0       ??_C@_0DK@LPMOJNBK@text?5chunk?5keyword?5too?5short?5or@ 00000000100b03a0     NativeLib:lodepng.obj
 0004:000143e0       ??_C@_0CC@EIKGNLEE@windowsize?5must?5be?5a?5power?5of?5t@ 00000000100b03e0     NativeLib:lodepng.obj
 0004:00014408       ??_C@_0BP@ICCEHJFD@invalid?5decompressed?5idat?5size@ 00000000100b0408     NativeLib:lodepng.obj
 0004:00014428       ??_C@_0CI@JGFANBIB@integer?5overflow?5due?5to?5too?5man@ 00000000100b0428     NativeLib:lodepng.obj
 0004:00014450       ??_C@_0CA@MGMLPFDK@zero?5width?5or?5height?5is?5invalid@ 00000000100b0450     NativeLib:lodepng.obj
 0004:00014470       ??_C@_0CK@EGDBBGEN@header?5chunk?5must?5have?5a?5size?5o@ 00000000100b0470     NativeLib:lodepng.obj
 0004:000144a0       ??_C@_0CP@IHBLLFBA@integer?5overflow?5with?5combined?5@ 00000000100b04a0     NativeLib:lodepng.obj
 0004:000144d0       ??_C@_0BI@KJHGONNK@invalid?5gAMA?5chunk?5size@ 00000000100b04d0     NativeLib:lodepng.obj
 0004:000144e8       ??_C@_0BI@KBKJIHFD@invalid?5cHRM?5chunk?5size@ 00000000100b04e8     NativeLib:lodepng.obj
 0004:00014500       ??_C@_0BI@KBICNMKA@invalid?5sRGB?5chunk?5size@ 00000000100b0500     NativeLib:lodepng.obj
 0004:00014518       ??_C@_0BO@IGFOGDFM@invalid?5sRGB?5rendering?5intent@ 00000000100b0518     NativeLib:lodepng.obj
 0004:00014540       ??_C@_0EO@BMBKHOHC@invalid?5ICC?5profile?5color?5type?0@ 00000000100b0540     NativeLib:lodepng.obj
 0004:00014590       ??_C@_0FE@BPIFLHKO@PNG?5specification?5does?5not?5allo@ 00000000100b0590     NativeLib:lodepng.obj
 0004:000145f0       ??_C@_0FC@MLLAEFDG@not?5allowed?5to?5set?5grayscale?5IC@ 00000000100b05f0     NativeLib:lodepng.obj
 0004:00014650       ??_C@_0EG@EPGPMDIP@invalid?5palette?5index?5in?5bKGD?5c@ 00000000100b0650     NativeLib:lodepng.obj
 0004:000146a0       ??_C@_0EE@GHMHHHIO@invalid?5bKGD?5color?5while?5encodi@ 00000000100b06a0     NativeLib:lodepng.obj
 0004:000146e8       ??_C@_0BM@KEIHAKGF@integer?5overflow?5of?5bitsize@ 00000000100b06e8     NativeLib:lodepng.obj
 0004:00014708       ??_C@_0DH@FKDLAJAG@PNG?5file?5must?5have?5PLTE?5chunk?5i@ 00000000100b0708     NativeLib:lodepng.obj
 0004:00014740       ??_C@_0FB@PHFDHCLM@color?5convert?5from?5palette?5mode@ 00000000100b0740     NativeLib:lodepng.obj
 0004:00014798       ??_C@_0CP@FAHPCGCI@tried?5to?5add?5more?5than?5256?5valu@ 00000000100b0798     NativeLib:lodepng.obj
 0004:000147d0       ??_C@_0EN@GBDNGCEI@tried?5to?5decompress?5zlib?5or?5def@ 00000000100b07d0     NativeLib:lodepng.obj
 0004:00014820       ??_C@_0CM@BLPPFIOD@custom?5zlib?5or?5inflate?5decompre@ 00000000100b0820     NativeLib:lodepng.obj
 0004:00014850       ??_C@_0CK@GAHFELDC@custom?5zlib?5or?5deflate?5compress@ 00000000100b0850     NativeLib:lodepng.obj
 0004:00014880       ??_C@_0CD@FMIJDPHM@compressed?5text?5unreasonably?5la@ 00000000100b0880     NativeLib:lodepng.obj
 0004:000148a8       ??_C@_0BP@KANCDNDL@ICC?5profile?5unreasonably?5large@ 00000000100b08a8     NativeLib:lodepng.obj
 0004:000148c8       ??_C@_0BD@KFLAIOGJ@unknown?5error?5code@ 00000000100b08c8     NativeLib:lodepng.obj
 0004:000148dc       ??_C@_15NFNBEBDE@?$AA0?$AA?3@ 00000000100b08dc     NativeLib:fatfs.obj
 0004:000148e8       ??_C@_0BK@MJHOFOK@Can?8t?5mount?5the?5partition@ 00000000100b08e8     NativeLib:fatfs.obj
 0004:00014908       ??_C@_0CN@MOOJHNPL@Can?8t?5open?5directory?5speficed?5e@ 00000000100b0908     NativeLib:fatfs.obj
 0004:00014938       ??_C@_0CI@GAAHLNHE@Can?8t?5open?5file?5speficed?5error?5@ 00000000100b0938     NativeLib:fatfs.obj
 0004:000149a0       ??_C@_08OBPJBIDN@?$CC?$CK?3?$DM?$DO?$DP?$HM?$HP@ 00000000100b09a0     NativeLib:ff.obj
 0004:000149ac       ??_C@_06GEALMDAJ@?$CL?0?$DL?$DN?$FL?$FN@ 00000000100b09ac     NativeLib:ff.obj
 0004:000149b8       ??_C@_0M@FLGABNOJ@?kv?$JAEXFAT?5?5?5@ 00000000100b09b8     NativeLib:ff.obj
 0004:000149c4       ??_C@_03MPELFIKF@FAT@      00000000100b09c4     NativeLib:ff.obj
 0004:000149c8       ??_C@_05HNJNFBJJ@FAT32@    00000000100b09c8     NativeLib:ff.obj
 0004:000149d0       ??_C@_0M@EINOEDMC@?k?$PO?$JAMSDOS5?40@ 00000000100b09d0     NativeLib:ff.obj
 0004:000149e0       ??_C@_0BE@EJDPBNPI@NO?5NAME?5?5?5?5FAT32?5?5?5@ 00000000100b09e0     NativeLib:ff.obj
 0004:000149f8       ??_C@_0BE@NGFNKJCP@NO?5NAME?5?5?5?5FAT?5?5?5?5?5@ 00000000100b09f8     NativeLib:ff.obj
 0004:0003f640       ??_C@_03LHCJEHON@nan@      00000000100db640     LibC:printf.obj
 0004:0003f644       ??_C@_04JDHKKAHP@fni?9@    00000000100db644     LibC:printf.obj
 0004:0003f64c       ??_C@_04MFCAAHPJ@fni?$CL@  00000000100db64c     LibC:printf.obj
 0004:0003f654       ??_C@_03DGIALOPI@fni@      00000000100db654     LibC:printf.obj
 0004:0003f658       __real@3f1a36e2eb1c432d    00000000100db658     LibC:printf.obj
 0004:0003f660       __real@3fc68a288b60c8b3    00000000100db660     LibC:printf.obj
 0004:0003f668       __real@3fd287a7636f4361    00000000100db668     LibC:printf.obj
 0004:0003f670       __real@3fd34413509f79fb    00000000100db670     LibC:printf.obj
 0004:0003f678       __real@3fe0000000000000    00000000100db678     LibC:printf.obj
 0004:0003f680       __real@3fe62e42fefa39ef    00000000100db680     LibC:printf.obj
 0004:0003f688       __real@3ff0000000000000    00000000100db688     LibC:printf.obj
 0004:0003f690       __real@3ff8000000000000    00000000100db690     LibC:printf.obj
 0004:0003f698       __real@4000000000000000    00000000100db698     LibC:printf.obj
 0004:0003f6a0       __real@40026bb1bbb55516    00000000100db6a0     LibC:printf.obj
 0004:0003f6a8       __real@400a934f0979a371    00000000100db6a8     LibC:printf.obj
 0004:0003f6b0       __real@4018000000000000    00000000100db6b0     LibC:printf.obj
 0004:0003f6b8       __real@4024000000000000    00000000100db6b8     LibC:printf.obj
 0004:0003f6c0       __real@402c000000000000    00000000100db6c0     LibC:printf.obj
 0004:0003f6c8       __real@412e848000000000    00000000100db6c8     LibC:printf.obj
 0004:0003f6d0       __real@41cdcd6500000000    00000000100db6d0     LibC:printf.obj
 0004:0003f6d8       __real@7fefffffffffffff    00000000100db6d8     LibC:printf.obj
 0004:0003f6e0       __real@c1cdcd6500000000    00000000100db6e0     LibC:printf.obj
 0004:0003f6e8       __real@ffefffffffffffff    00000000100db6e8     LibC:printf.obj
 0004:0003f6f0       __xmm@80000000000000008000000000000000 00000000100db6f0     LibC:printf.obj
 0004:0003f758       __imp_free                 00000000100db758     <linker-defined>
 0004:0003f760       __imp_malloc               00000000100db760     <linker-defined>
 0004:0003f768       __imp_realloc              00000000100db768     <linker-defined>
 0004:0003f770       __volatile_metadata        00000000100db770     <linker-defined>
 0004:0003f924       _unwind0guideXOS_Program__KMain 00000000100db924     guideXOS.obj
 0004:0003fa38       _unwind1guideXOS_Program__KMain 00000000100dba38     guideXOS.obj
 0004:0003fa4c       _unwind2guideXOS_Program__KMain 00000000100dba4c     guideXOS.obj
 0004:0003fa60       _unwind3guideXOS_Program__KMain 00000000100dba60     guideXOS.obj
 0004:0003fa74       _unwind4guideXOS_Program__KMain 00000000100dba74     guideXOS.obj
 0004:0003fa88       _unwind5guideXOS_Program__KMain 00000000100dba88     guideXOS.obj
 0004:0003fa9c       _unwind6guideXOS_Program__KMain 00000000100dba9c     guideXOS.obj
 0004:0003fab0       _unwind7guideXOS_Program__KMain 00000000100dbab0     guideXOS.obj
 0004:0003fac4       _unwind8guideXOS_Program__KMain 00000000100dbac4     guideXOS.obj
 0004:0003fad8       _unwind0guideXOS_Program__SMain 00000000100dbad8     guideXOS.obj
 0004:0003fd3c       _unwind1guideXOS_Program__SMain 00000000100dbd3c     guideXOS.obj
 0004:0003fd54       _unwind2guideXOS_Program__SMain 00000000100dbd54     guideXOS.obj
 0004:0003fd6c       _unwind3guideXOS_Program__SMain 00000000100dbd6c     guideXOS.obj
 0004:0003fd84       _unwind4guideXOS_Program__SMain 00000000100dbd84     guideXOS.obj
 0004:0003fd9c       _unwind5guideXOS_Program__SMain 00000000100dbd9c     guideXOS.obj
 0004:0003fdb4       _unwind6guideXOS_Program__SMain 00000000100dbdb4     guideXOS.obj
 0004:0003fdcc       _unwind7guideXOS_Program__SMain 00000000100dbdcc     guideXOS.obj
 0004:0003fde4       _unwind8guideXOS_Program__SMain 00000000100dbde4     guideXOS.obj
 0004:0003fdfc       _unwind9guideXOS_Program__SMain 00000000100dbdfc     guideXOS.obj
 0004:0003fe14       _unwind10guideXOS_Program__SMain 00000000100dbe14     guideXOS.obj
 0004:0003fe2c       _unwind11guideXOS_Program__SMain 00000000100dbe2c     guideXOS.obj
 0004:0003fe44       _unwind12guideXOS_Program__SMain 00000000100dbe44     guideXOS.obj
 0004:0003fe5c       _unwind13guideXOS_Program__SMain 00000000100dbe5c     guideXOS.obj
 0004:0003fe74       _unwind14guideXOS_Program__SMain 00000000100dbe74     guideXOS.obj
 0004:0003fe8c       _unwind15guideXOS_Program__SMain 00000000100dbe8c     guideXOS.obj
 0004:0003fea4       _unwind16guideXOS_Program__SMain 00000000100dbea4     guideXOS.obj
 0004:0003febc       _unwind17guideXOS_Program__SMain 00000000100dbebc     guideXOS.obj
 0004:0003fed4       _unwind0guideXOS_Program__RefreshCachedIcons 00000000100dbed4     guideXOS.obj
 0004:0003fef4       _unwind0guideXOS_Allocator__FindOrAddOwner 00000000100dbef4     guideXOS.obj
 0004:0003ff40       _unwind0guideXOS_Allocator__Initialize 00000000100dbf40     guideXOS.obj
 0004:0003ff6c       _unwind0guideXOS_Allocator__get_MemoryInUse 00000000100dbf6c     guideXOS.obj
 0004:0003ff78       _unwind0guideXOS_Allocator__GetPageIndexStart 00000000100dbf78     guideXOS.obj
 0004:0003ff88       _unwind0guideXOS_Allocator__Free 00000000100dbf88     guideXOS.obj
 0004:0004000c       _unwind1guideXOS_Allocator__Free 00000000100dc00c     guideXOS.obj
 0004:00040024       _unwind0guideXOS_Allocator__SuspiciousSize 00000000100dc024     guideXOS.obj
 0004:0004002c       _unwind0guideXOS_Allocator__Allocate_0 00000000100dc02c     guideXOS.obj
 0004:00040100       _unwind1guideXOS_Allocator__Allocate_0 00000000100dc100     guideXOS.obj
 0004:00040118       _unwind0guideXOS_Allocator__Reallocate 00000000100dc118     guideXOS.obj
 0004:00040140       _unwind0guideXOS_Allocator__ClearAllocate_0 00000000100dc140     guideXOS.obj
 0004:00040160       _unwind0guideXOS_Allocator__GetTagBytes 00000000100dc160     guideXOS.obj
 0004:0004016c       _unwind0guideXOS_Allocator__GetOwnerBytes 00000000100dc16c     guideXOS.obj
 0004:000401bc       _unwind1guideXOS_Allocator__GetOwnerBytes 00000000100dc1bc     guideXOS.obj
 0004:000401d4       _unwind0guideXOS_Allocator__GetOwnerListSnapshot 00000000100dc1d4     guideXOS.obj
 0004:0004022c       _unwind1guideXOS_Allocator__GetOwnerListSnapshot 00000000100dc22c     guideXOS.obj
 0004:00040244       _unwind0guideXOS_GDT__FillEntry 00000000100dc244     guideXOS.obj
 0004:0004024c       _unwind0guideXOS_GDT__Initialise 00000000100dc24c     guideXOS.obj
 0004:0004026c       _unwind0guideXOS_GDT__SetKernelStack 00000000100dc26c     guideXOS.obj
 0004:00040278       _unwind0guideXOS_IDT__Initialize 00000000100dc278     guideXOS.obj
 0004:000402a4       _unwind0guideXOS_IDT__AllowUserSoftwareInterrupt 00000000100dc2a4     guideXOS.obj
 0004:000402bc       _unwind0guideXOS_IDT__intr_handler 00000000100dc2bc     guideXOS.obj
 0004:000402fc       _unwind0guideXOS_Native__Load_GDT 00000000100dc2fc     guideXOS.obj
 0004:0004031c       _unwind0guideXOS_Native__Load_IDT 00000000100dc31c     guideXOS.obj
 0004:0004033c       _unwind0guideXOS_Internal_Runtime_EEType__get_IsArray 00000000100dc33c     guideXOS.obj
 0004:00040344       _unwind0guideXOS_Internal_Runtime_EEType__get_ArrayRank 00000000100dc344     guideXOS.obj
 0004:0004034c       _unwind0guideXOS_Internal_Runtime_CompilerHelpers_StartupCodeHelpers____imp_GetCurrentThreadId 00000000100dc34c     guideXOS.obj
 0004:00040354       _unwind0guideXOS_Internal_Runtime_CompilerHelpers_StartupCodeHelpers____CheckForDebuggerJustMyCode 00000000100dc354     guideXOS.obj
 0004:0004035c       _unwind0guideXOS_Internal_Runtime_CompilerHelpers_StartupCodeHelpers__FailFast 00000000100dc35c     guideXOS.obj
 0004:00040368       _unwind0guideXOS_Internal_Runtime_CompilerHelpers_StartupCodeHelpers__MemSet 00000000100dc368     guideXOS.obj
 0004:00040374       _unwind0guideXOS_Internal_Runtime_CompilerHelpers_StartupCodeHelpers__MemCpy 00000000100dc374     guideXOS.obj
 0004:00040380       _unwind0guideXOS_Internal_Runtime_CompilerHelpers_StartupCodeHelpers__RhpFallbackFailFast 00000000100dc380     guideXOS.obj
 0004:0004038c       _unwind0guideXOS_Internal_Runtime_CompilerHelpers_StartupCodeHelpers__RhpReversePInvoke2 00000000100dc38c     guideXOS.obj
 0004:00040394       _unwind0guideXOS_Internal_Runtime_CompilerHelpers_StartupCodeHelpers__RhpReversePInvokeReturn2 00000000100dc394     guideXOS.obj
 0004:0004039c       _unwind0guideXOS_Internal_Runtime_CompilerHelpers_StartupCodeHelpers__RhpReversePInvoke 00000000100dc39c     guideXOS.obj
 0004:000403a4       _unwind0guideXOS_Internal_Runtime_CompilerHelpers_StartupCodeHelpers__RhpReversePInvokeReturn 00000000100dc3a4     guideXOS.obj
 0004:000403ac       _unwind0guideXOS_Internal_Runtime_CompilerHelpers_StartupCodeHelpers__RhpPinvoke 00000000100dc3ac     guideXOS.obj
 0004:000403b4       _unwind0guideXOS_Internal_Runtime_CompilerHelpers_StartupCodeHelpers__RhpPinvokeReturn 00000000100dc3b4     guideXOS.obj
 0004:000403bc       _unwind0guideXOS_Internal_Runtime_CompilerHelpers_StartupCodeHelpers__RhpNewFast 00000000100dc3bc     guideXOS.obj
 0004:000403dc       _unwind0guideXOS_Internal_Runtime_CompilerHelpers_StartupCodeHelpers__RhpNewArray 00000000100dc3dc     guideXOS.obj
 0004:00040404       _unwind0guideXOS_Internal_Runtime_CompilerHelpers_StartupCodeHelpers__RhpAssignRef 00000000100dc404     guideXOS.obj
 0004:0004040c       _unwind0guideXOS_Internal_Runtime_CompilerHelpers_StartupCodeHelpers__RhpByRefAssignRef 00000000100dc40c     guideXOS.obj
 0004:00040414       _unwind0guideXOS_Internal_Runtime_CompilerHelpers_StartupCodeHelpers__RhpCheckedAssignRef 00000000100dc414     guideXOS.obj
 0004:0004041c       _unwind0guideXOS_Internal_Runtime_CompilerHelpers_StartupCodeHelpers__RhpStelemRef 00000000100dc41c     guideXOS.obj
 0004:00040428       _unwind0guideXOS_Internal_Runtime_CompilerHelpers_StartupCodeHelpers__RhTypeCast_IsInstanceOfClass 00000000100dc428     guideXOS.obj
 0004:00040440       _unwind0guideXOS_Internal_Runtime_CompilerHelpers_StartupCodeHelpers__InitializeModules 00000000100dc440     guideXOS.obj
 0004:00040484       _unwind0guideXOS_Internal_Runtime_CompilerHelpers_StartupCodeHelpers__InitializeStatics 00000000100dc484     guideXOS.obj
 0004:000404b8       _unwind0guideXOS_Internal_Runtime_CompilerHelpers_SynchronizedMethodHelpers__MonitorEnterStatic 00000000100dc4b8     guideXOS.obj
 0004:000404c0       _unwind0guideXOS_Internal_Runtime_CompilerHelpers_SynchronizedMethodHelpers__MonitorExitStatic 00000000100dc4c0     guideXOS.obj
 0004:000404c8       _unwind0guideXOS_Internal_Runtime_CompilerHelpers_ThrowHelpers__Error 00000000100dc4c8     guideXOS.obj
 0004:000404f0       _unwind1guideXOS_Internal_Runtime_CompilerHelpers_ThrowHelpers__Error 00000000100dc4f0     guideXOS.obj
 0004:00040508       _unwind0guideXOS_Internal_Runtime_CompilerHelpers_ThrowHelpers__ThrowOverflowException 00000000100dc508     guideXOS.obj
 0004:0004051c       _unwind0guideXOS_Internal_Runtime_CompilerHelpers_ThrowHelpers__ThrowIndexOutOfRangeException 00000000100dc51c     guideXOS.obj
 0004:00040530       _unwind0Bool__ToString     00000000100dc530     guideXOS.obj
 0004:00040538       _unwind0UInt8__ToString    00000000100dc538     guideXOS.obj
 0004:00040544       _unwind0guideXOS_System_Delegate__InitializeOpenStaticThunk 00000000100dc544     guideXOS.obj
 0004:00040554       _unwind0guideXOS_System_Delegate__InitializeClosedInstance 00000000100dc554     guideXOS.obj
 0004:00040560       _unwind0Int32__ToString    00000000100dc560     guideXOS.obj
 0004:0004056c       _unwind0Int32__op_Implicit 00000000100dc56c     guideXOS.obj
 0004:00040574       _unwind0Int64__ToString    00000000100dc574     guideXOS.obj
 0004:00040590       _unwind0guideXOS_System_Math__Sqrt 00000000100dc590     guideXOS.obj
 0004:0004059c       _unwind0guideXOS_System_MathF__Floor 00000000100dc59c     guideXOS.obj
 0004:000405a4       _unwind0Object___ctor      00000000100dc5a4     guideXOS.obj
 0004:000405ac       _unwind0Object__ToString   00000000100dc5ac     guideXOS.obj
 0004:000405b4       _unwind0Object__Dispose    00000000100dc5b4     guideXOS.obj
 0004:000405d0       _unwind0String__FromASCII  00000000100dc5d0     guideXOS.obj
 0004:000405ec       _unwind0String__Ctor       00000000100dc5ec     guideXOS.obj
 0004:000405f8       _unwind0String__Ctor_1     00000000100dc5f8     guideXOS.obj
 0004:00040608       _unwind0String__Ctor_2     00000000100dc608     guideXOS.obj
 0004:0004062c       _unwind0String__LastIndexOf 00000000100dc62c     guideXOS.obj
 0004:00040644       _unwind0String__Ctor_3     00000000100dc644     guideXOS.obj
 0004:00040654       _unwind0String__ToString   00000000100dc654     guideXOS.obj
 0004:0004065c       _unwind0String__Equals_0   00000000100dc65c     guideXOS.obj
 0004:00040680       _unwind0String__Concat     00000000100dc680     guideXOS.obj
 0004:000406bc       _unwind0String__IndexOf    00000000100dc6bc     guideXOS.obj
 0004:000406d4       _unwind0String__Concat_0   00000000100dc6d4     guideXOS.obj
 0004:000406f8       _unwind0String__Concat_1   00000000100dc6f8     guideXOS.obj
 0004:00040728       _unwind0String__Concat_2   00000000100dc728     guideXOS.obj
 0004:00040754       _unwind0String__Format     00000000100dc754     guideXOS.obj
 0004:000407ec       _unwind1String__Format     00000000100dc7ec     guideXOS.obj
 0004:00040804       _unwind0String__Split      00000000100dc804     guideXOS.obj
 0004:0004085c       _unwind0String__Substring  00000000100dc85c     guideXOS.obj
 0004:0004086c       _unwind0String__Substring_0 00000000100dc86c     guideXOS.obj
 0004:0004087c       _unwind0String__EndsWith_0 00000000100dc87c     guideXOS.obj
 0004:000408b8       _unwind0String__ToUpper    00000000100dc8b8     guideXOS.obj
 0004:000408dc       _unwind0guideXOS_System_StringPool___cctor 00000000100dc8dc     guideXOS.obj
 0004:00040958       _unwind1guideXOS_System_StringPool___cctor 00000000100dc958     guideXOS.obj
 0004:00040968       _unwind0guideXOS_System_StringPool__GetPercentage 00000000100dc968     guideXOS.obj
 0004:00040988       _unwind0guideXOS_System_StringPool__GetNumber 00000000100dc988     guideXOS.obj
 0004:000409a4       _unwind0guideXOS_System_StringPool__GetNumber_0 00000000100dc9a4     guideXOS.obj
 0004:000409c0       _unwind0guideXOS_System_StringPool__GetMemorySize 00000000100dc9c0     guideXOS.obj
 0004:00040aa8       _unwind0guideXOS_System_StringPool__GetTransferRate 00000000100dcaa8     guideXOS.obj
 0004:00040ac4       _unwind0guideXOS_System_StringPool__FormatUptime 00000000100dcac4     guideXOS.obj
 0004:00040b14       _unwind0UInt16__ToString   00000000100dcb14     guideXOS.obj
 0004:00040b20       _unwind0UInt32__ToString   00000000100dcb20     guideXOS.obj
 0004:00040b2c       _unwind0UInt64__ToString   00000000100dcb2c     guideXOS.obj
 0004:00040b48       _unwind0UInt64__ToStringHex 00000000100dcb48     guideXOS.obj
 0004:00040b64       _unwind0guideXOS_System_Threading_Monitor__Unlock 00000000100dcb64     guideXOS.obj
 0004:00040b80       _unwind0guideXOS_System_Runtime_TypeCast__CheckCastClass 00000000100dcb80     guideXOS.obj
 0004:00040b8c       _unwind0guideXOS_System_Runtime_TypeCast__CheckCastArray 00000000100dcb8c     guideXOS.obj
 0004:00040b98       _unwind0guideXOS_System_Runtime_TypeCast__IsInstanceOfArray 00000000100dcb98     guideXOS.obj
 0004:00040ba8       _unwind0guideXOS_System_Runtime_CompilerServices_ClassConstructorRunner__CheckStaticClassConstructionReturnNonGCStaticBase 00000000100dcba8     guideXOS.obj
 0004:00040bb4       _unwind0guideXOS_System_Runtime_CompilerServices_ClassConstructorRunner__CheckStaticClassConstructionReturnGCStaticBase 00000000100dcbb4     guideXOS.obj
 0004:00040bc4       _unwind0guideXOS_System_Runtime_CompilerServices_ClassConstructorRunner__CheckStaticClassConstruction 00000000100dcbc4     guideXOS.obj
 0004:00040bd0       _unwind0guideXOS_System_Drawing_Image___ctor 00000000100dcbd0     guideXOS.obj
 0004:00040be0       _unwind0guideXOS_System_Drawing_Image___ctor_0 00000000100dcbe0     guideXOS.obj
 0004:00040be8       _unwind0guideXOS_System_Drawing_Image__Resample 00000000100dcbe8     guideXOS.obj
 0004:00040c20       _unwind0guideXOS_System_Drawing_Image__ResizeImage 00000000100dcc20     guideXOS.obj
 0004:00040c88       _unwind1guideXOS_System_Drawing_Image__ResizeImage 00000000100dcc88     guideXOS.obj
 0004:00040ca0       _unwind0guideXOS_System_Drawing_Image__Dispose 00000000100dcca0     guideXOS.obj
 0004:00040cc4       _unwind0guideXOS_guideXOS_Animation___ctor 00000000100dccc4     guideXOS.obj
 0004:00040ccc       _unwind0guideXOS_guideXOS_Animator__Initialize 00000000100dcccc     guideXOS.obj
 0004:00040cf0       _unwind0guideXOS_guideXOS_Animator__OnInterrupt 00000000100dccf0     guideXOS.obj
 0004:00040d1c       _unwind0guideXOS_guideXOS_API__HandleSystemCall 00000000100dcd1c     guideXOS.obj
 0004:00040d54       _unwind0guideXOS_guideXOS_API__API_SndWrite 00000000100dcd54     guideXOS.obj
 0004:00040d5c       _unwind0guideXOS_guideXOS_API__API_Calloc 00000000100dcd5c     guideXOS.obj
 0004:00040d64       _unwind0guideXOS_guideXOS_API__API_StartThread 00000000100dcd64     guideXOS.obj
 0004:00040d78       _unwind0guideXOS_guideXOS_API__API_Error 00000000100dcd78     guideXOS.obj
 0004:00040d88       _unwind0guideXOS_guideXOS_API__API_GetTime 00000000100dcd88     guideXOS.obj
 0004:00040da4       _unwind0guideXOS_guideXOS_API__API_DrawImage 00000000100dcda4     guideXOS.obj
 0004:00040db8       _unwind0guideXOS_guideXOS_API__API_WriteString 00000000100dcdb8     guideXOS.obj
 0004:00040dd8       _unwind0guideXOS_guideXOS_API__API_Width 00000000100dcdd8     guideXOS.obj
 0004:00040de4       _unwind0guideXOS_guideXOS_API__API_Height 00000000100dcde4     guideXOS.obj
 0004:00040df0       _unwind0guideXOS_guideXOS_API__API_Update 00000000100dcdf0     guideXOS.obj
 0004:00040df8       _unwind0guideXOS_guideXOS_API__API_Clear 00000000100dcdf8     guideXOS.obj
 0004:00040e10       _unwind0guideXOS_guideXOS_API__API_DebugWrite 00000000100dce10     guideXOS.obj
 0004:00040e1c       _unwind0guideXOS_guideXOS_API__API_DebugWriteLine 00000000100dce1c     guideXOS.obj
 0004:00040e28       _unwind0guideXOS_guideXOS_API__API_Lock 00000000100dce28     guideXOS.obj
 0004:00040e34       _unwind0guideXOS_guideXOS_API__API_Unlock 00000000100dce34     guideXOS.obj
 0004:00040e48       _unwind0guideXOS_guideXOS_API__API_DrawPoint 00000000100dce48     guideXOS.obj
 0004:00040e5c       _unwind0guideXOS_guideXOS_API__API_SwitchToConsoleMode 00000000100dce5c     guideXOS.obj
 0004:00040e68       _unwind0guideXOS_guideXOS_API__API_ReadAllBytes 00000000100dce68     guideXOS.obj
 0004:00040e98       _unwind0guideXOS_guideXOS_API__API_Sleep 00000000100dce98     guideXOS.obj
 0004:00040ea0       _unwind0guideXOS_guideXOS_API__API_GetTick 00000000100dcea0     guideXOS.obj
 0004:00040eac       _unwind0guideXOS_guideXOS_API__API_Write 00000000100dceac     guideXOS.obj
 0004:00040eb8       _unwind0guideXOS_guideXOS_API__API_WriteLine 00000000100dceb8     guideXOS.obj
 0004:00040ec0       _unwind0guideXOS_guideXOS_API__API_Allocate 00000000100dcec0     guideXOS.obj
 0004:00040ecc       _unwind0guideXOS_guideXOS_API__API_Free 00000000100dcecc     guideXOS.obj
 0004:00040ed4       _unwind0guideXOS_guideXOS_API__API_Reallocate 00000000100dced4     guideXOS.obj
 0004:00040edc       _unwind0guideXOS_guideXOS_API__SayHello 00000000100dcedc     guideXOS.obj
 0004:00040ee8       _unwind0guideXOS_guideXOS_Kbd2Mouse__OnKeyChanged 00000000100dcee8     guideXOS.obj
 0004:00040f28       _unwind0guideXOS_guideXOS_ASC16__DrawChar 00000000100dcf28     guideXOS.obj
 0004:00040f5c       _unwind0guideXOS_guideXOS_Console__add_OnWrite 00000000100dcf5c     guideXOS.obj
 0004:00040f8c       _unwind1guideXOS_guideXOS_Console__add_OnWrite 00000000100dcf8c     guideXOS.obj
 0004:00040f98       _unwind0guideXOS_guideXOS_Console__Setup 00000000100dcf98     guideXOS.obj
 0004:00040fac       _unwind0guideXOS_guideXOS_Console__Write 00000000100dcfac     guideXOS.obj
 0004:00040fd0       _unwind0guideXOS_guideXOS_Console__Write_0 00000000100dcfd0     guideXOS.obj
 0004:00040ff8       _unwind0guideXOS_guideXOS_Console__WriteFramebuffer 00000000100dcff8     guideXOS.obj
 0004:00041020       _unwind0guideXOS_guideXOS_Console__MoveUp 00000000100dd020     guideXOS.obj
 0004:00041034       _unwind0guideXOS_guideXOS_Console__MoveUpFramebuffer 00000000100dd034     guideXOS.obj
 0004:00041044       _unwind0guideXOS_guideXOS_Console__UpdateCursorFramebuffer 00000000100dd044     guideXOS.obj
 0004:00041068       _unwind0guideXOS_guideXOS_Console__WriteLine 00000000100dd068     guideXOS.obj
 0004:00041090       _unwind0guideXOS_guideXOS_Console__WriteLine_0 00000000100dd090     guideXOS.obj
 0004:000410a0       _unwind0guideXOS_guideXOS_Console__Clear 00000000100dd0a0     guideXOS.obj
 0004:000410b4       _unwind0guideXOS_guideXOS_Console__ClearFramebuffer 00000000100dd0b4     guideXOS.obj
 0004:000410d0       _unwind0guideXOS_guideXOS_PageTable__Initialise 00000000100dd0d0     guideXOS.obj
 0004:000410f8       _unwind0guideXOS_guideXOS_PageTable__GetPageInternal 00000000100dd0f8     guideXOS.obj
 0004:00041114       _unwind0guideXOS_guideXOS_PageTable__MapOnRoot 00000000100dd114     guideXOS.obj
 0004:00041134       _unwind0guideXOS_guideXOS_PageTable__Next_0 00000000100dd134     guideXOS.obj
 0004:00041154       _unwind0guideXOS_guideXOS_Intel825xx__Initialize 00000000100dd154     guideXOS.obj
 0004:00041284       _unwind0guideXOS_guideXOS_Intel825xx__Reset 00000000100dd284     guideXOS.obj
 0004:0004129c       _unwind0guideXOS_guideXOS_Intel825xx__TXsetup 00000000100dd29c     guideXOS.obj
 0004:000412ac       _unwind0guideXOS_guideXOS_Intel825xx__RXsetup 00000000100dd2ac     guideXOS.obj
 0004:000412c0       _unwind0guideXOS_guideXOS_Intel825xx__ReadROM 00000000100dd2c0     guideXOS.obj
 0004:000412d4       _unwind0guideXOS_guideXOS_Intel825xx__OnInterrupt 00000000100dd2d4     guideXOS.obj
 0004:000412f4       _unwind0guideXOS_guideXOS_Intel825xx__Linkup 00000000100dd2f4     guideXOS.obj
 0004:00041310       _unwind0guideXOS_guideXOS_Intel825xx__Send 00000000100dd310     guideXOS.obj
 0004:00041324       _unwind0guideXOS_guideXOS_NETv4__Initialize 00000000100dd324     guideXOS.obj
 0004:00041344       _unwind0guideXOS_guideXOS_NETv4__SwapLeftRight 00000000100dd344     guideXOS.obj
 0004:0004134c       _unwind0guideXOS_guideXOS_NETv4__SwapLeftRight_0 00000000100dd34c     guideXOS.obj
 0004:00041354       _unwind0guideXOS_guideXOS_NETv4__SwapLeftRight_1 00000000100dd354     guideXOS.obj
 0004:0004135c       _unwind0guideXOS_guideXOS_NETv4__SwapLeftRight_2 00000000100dd35c     guideXOS.obj
 0004:00041364       _unwind0guideXOS_guideXOS_NETv4__OnData_0 00000000100dd364     guideXOS.obj
 0004:00041378       _unwind0guideXOS_guideXOS_NETv4__DNSQuery 00000000100dd378     guideXOS.obj
 0004:00041448       _unwind0guideXOS_guideXOS_NETv4__DHCPDiscover 00000000100dd448     guideXOS.obj
 0004:0004152c       _unwind0guideXOS_guideXOS_NETv4__MakeDHCPRequestPacket 00000000100dd52c     guideXOS.obj
 0004:0004154c       _unwind0guideXOS_guideXOS_NETv4__UDPBind 00000000100dd54c     guideXOS.obj
 0004:00041564       _unwind0guideXOS_guideXOS_NETv4__UDPSend 00000000100dd564     guideXOS.obj
 0004:00041590       _unwind0guideXOS_guideXOS_NETv4__MakeUDPPacket 00000000100dd590     guideXOS.obj
 0004:000415bc       _unwind0guideXOS_guideXOS_NETv4__UDPOnData_0 00000000100dd5bc     guideXOS.obj
 0004:00041608       _unwind0guideXOS_guideXOS_NETv4__TCPOnData 00000000100dd608     guideXOS.obj
 0004:00041690       _unwind0guideXOS_guideXOS_NETv4__TCPConnect 00000000100dd690     guideXOS.obj
 0004:000416a8       _unwind0guideXOS_guideXOS_NETv4__TCPClose 00000000100dd6a8     guideXOS.obj
 0004:000416b8       _unwind0guideXOS_guideXOS_NETv4__TCPSendData 00000000100dd6b8     guideXOS.obj
 0004:000416d0       _unwind0guideXOS_guideXOS_NETv4__TCPSend 00000000100dd6d0     guideXOS.obj
 0004:000416fc       _unwind0guideXOS_guideXOS_NETv4__MakeTCPPacket 00000000100dd6fc     guideXOS.obj
 0004:00041728       _unwind0guideXOS_guideXOS_NETv4__IPOnData 00000000100dd728     guideXOS.obj
 0004:0004174c       _unwind0guideXOS_guideXOS_NETv4__MakeIPPacket 00000000100dd74c     guideXOS.obj
 0004:0004175c       _unwind0guideXOS_guideXOS_NETv4__IPChecksum 00000000100dd75c     guideXOS.obj
 0004:0004176c       _unwind0guideXOS_guideXOS_NETv4__ICMPOnData 00000000100dd76c     guideXOS.obj
 0004:0004179c       _unwind0guideXOS_guideXOS_NETv4__ICMPPing 00000000100dd79c     guideXOS.obj
 0004:000417c4       _unwind0guideXOS_guideXOS_NETv4__ARPLookup 00000000100dd7c4     guideXOS.obj
 0004:00041814       _unwind0guideXOS_guideXOS_NETv4__ARPOnData 00000000100dd814     guideXOS.obj
 0004:00041848       _unwind0guideXOS_guideXOS_NETv4__MakeARPPacket 00000000100dd848     guideXOS.obj
 0004:00041860       _unwind0guideXOS_guideXOS_NETv4__ARPRequire 00000000100dd860     guideXOS.obj
 0004:00041880       _unwind0guideXOS_guideXOS_NETv4__MakeEthernetPacket 00000000100dd880     guideXOS.obj
 0004:00041898       _unwind0guideXOS_guideXOS_RTL8111__Initialize 00000000100dd898     guideXOS.obj
 0004:00041a64       _unwind0guideXOS_guideXOS_RTL8111__ResetRXDesc 00000000100dda64     guideXOS.obj
 0004:00041a70       _unwind0guideXOS_guideXOS_RTL8111__Send 00000000100dda70     guideXOS.obj
 0004:00041a98       _unwind0guideXOS_guideXOS_RTL8111__OnInterrupt 00000000100dda98     guideXOS.obj
 0004:00041ad0       _unwind0guideXOS_guideXOS_SMP__ApplicationProcessorMain 00000000100ddad0     guideXOS.obj
 0004:00041af4       _unwind0guideXOS_guideXOS_SMP__Initialize 00000000100ddaf4     guideXOS.obj
 0004:00041b78       _unwind0guideXOS_guideXOS_Network_Http__NextEphemeralPort 00000000100ddb78     guideXOS.obj
 0004:00041b84       _unwind0guideXOS_guideXOS_Network_Http__PostJson 00000000100ddb84     guideXOS.obj
 0004:00041b9c       _unwind0guideXOS_guideXOS_Network_Http__BuildPost 00000000100ddb9c     guideXOS.obj
 0004:00041bd8       _unwind0guideXOS_guideXOS_Network_Http__Send 00000000100ddbd8     guideXOS.obj
 0004:00041d64       _unwind0guideXOS_guideXOS_Network_Http__Resolve 00000000100ddd64     guideXOS.obj
 0004:00041da8       _unwind0guideXOS_guideXOS_Network_Http__IsZero 00000000100ddda8     guideXOS.obj
 0004:00041db0       _unwind0guideXOS_guideXOS_Network_Http__EqualsIp 00000000100dddb0     guideXOS.obj
 0004:00041db8       _unwind0guideXOS_guideXOS_Network_Http__ReceiveAll 00000000100dddb8     guideXOS.obj
 0004:00041e14       _unwind0guideXOS_guideXOS_Network_Http__IsHttpComplete 00000000100dde14     guideXOS.obj
 0004:00041e60       _unwind0guideXOS_guideXOS_Network_Http__HeaderContentLengthBytes 00000000100dde60     guideXOS.obj
 0004:00041e94       _unwind0guideXOS_guideXOS_Network_Http__HeaderChunkedBytes 00000000100dde94     guideXOS.obj
 0004:00041ea4       _unwind0guideXOS_guideXOS_Network_Http__ParseHttp 00000000100ddea4     guideXOS.obj
 0004:00041f84       _unwind0guideXOS_guideXOS_Network_Http__DecodeChunked 00000000100ddf84     guideXOS.obj
 0004:00041fdc       _unwind0guideXOS_guideXOS_Network_Http__IndexOf 00000000100ddfdc     guideXOS.obj
 0004:00042000       _unwind0guideXOS_guideXOS_Network_Http__Match 00000000100de000     guideXOS.obj
 0004:00042034       _unwind0guideXOS_guideXOS_Network_Http__ToAsciiBytes 00000000100de034     guideXOS.obj
 0004:00042064       _unwind0guideXOS_guideXOS_Network_Http__BytesToAscii_0 00000000100de064     guideXOS.obj
 0004:00042094       _unwind0guideXOS_guideXOS_Network_Http__SetHeader 00000000100de094     guideXOS.obj
 0004:000420ac       _unwind0guideXOS_guideXOS_Network_Http__GetHeader 00000000100de0ac     guideXOS.obj
 0004:000420c0       _unwind0guideXOS_guideXOS_Network_Http__EqualsIgnoreCase 00000000100de0c0     guideXOS.obj
 0004:000420e8       _unwind0guideXOS_guideXOS_Network_Http__IndexOfIgnoreCase 00000000100de0e8     guideXOS.obj
 0004:0004211c       _unwind0guideXOS_guideXOS_Network_Http__IndexOf_0 00000000100de11c     guideXOS.obj
 0004:00042134       _unwind0guideXOS_guideXOS_Network_Http__HasPrefix 00000000100de134     guideXOS.obj
 0004:00042158       _unwind0guideXOS_guideXOS_Network_Http__TrimSpaces 00000000100de158     guideXOS.obj
 0004:00042174       _unwind0guideXOS_guideXOS_Network_Http__ParseInt 00000000100de174     guideXOS.obj
 0004:00042188       _unwind0guideXOS_guideXOS_Network_Http__ParseIntToString 00000000100de188     guideXOS.obj
 0004:000421bc       _unwind0guideXOS_guideXOS_Network_Http__ParseHex 00000000100de1bc     guideXOS.obj
 0004:000421d4       _unwind0guideXOS_guideXOS_Misc_Audio__Initialize 00000000100de1d4     guideXOS.obj
 0004:000421e4       _unwind0guideXOS_guideXOS_Misc_Audio__snd_write 00000000100de1e4     guideXOS.obj
 0004:00042208       _unwind0guideXOS_guideXOS_Misc_Audio__snd_clear 00000000100de208     guideXOS.obj
 0004:00042214       _unwind0guideXOS_guideXOS_Misc_Audio__require 00000000100de214     guideXOS.obj
 0004:00042238       _unwind0guideXOS_guideXOS_Misc_Bitmap___ctor 00000000100de238     guideXOS.obj
 0004:0004229c       _unwind0guideXOS_guideXOS_Misc_BootSplash__Initialize 00000000100de29c     guideXOS.obj
 0004:000422b8       _unwind0guideXOS_guideXOS_Misc_BootSplash__Cleanup 00000000100de2b8     guideXOS.obj
 0004:000422c8       _unwind0guideXOS_guideXOS_Misc_BootSplash__Tick 00000000100de2c8     guideXOS.obj
 0004:0004236c       _unwind1guideXOS_guideXOS_Misc_BootSplash__Tick 00000000100de36c     guideXOS.obj
 0004:00042384       _unwind0guideXOS_guideXOS_Misc_ClassID__GetName 00000000100de384     guideXOS.obj
 0004:00042390       _unwind0guideXOS_guideXOS_Misc_EntryPoint__Entry 00000000100de390     guideXOS.obj
 0004:00042434       _unwind0guideXOS_guideXOS_Misc_EntryPoint__DetectArchitecture 00000000100de434     guideXOS.obj
 0004:00042450       _unwind0guideXOS_guideXOS_Misc_EntryPoint__TestPointerIntegrity 00000000100de450     guideXOS.obj
 0004:0004245c       _unwind0guideXOS_guideXOS_Misc_GXMLoader__TryExecute 00000000100de45c     guideXOS.obj
 0004:00042508       _unwind0guideXOS_guideXOS_Misc_GXMLoader__ApplyGuiLine 00000000100de508     guideXOS.obj
 0004:00042640       _unwind0guideXOS_guideXOS_Misc_GXMLoader__NextField 00000000100de640     guideXOS.obj
 0004:00042658       _unwind0guideXOS_guideXOS_Misc_GXMLoader__IndexOf 00000000100de658     guideXOS.obj
 0004:00042670       _unwind0guideXOS_guideXOS_Misc_GXMLoader__StringEquals 00000000100de670     guideXOS.obj
 0004:00042698       _unwind0guideXOS_guideXOS_Misc_GXMLoader__ToInt 00000000100de698     guideXOS.obj
 0004:000426b8       _unwind0guideXOS_guideXOS_Misc_GXMLoader__ToBool 00000000100de6b8     guideXOS.obj
 0004:0004271c       _unwind0guideXOS_guideXOS_Misc_GXMLoader__ExtractUtf8 00000000100de71c     guideXOS.obj
 0004:00042744       _unwind0guideXOS_guideXOS_Misc_GXMLoader__ReadU32 00000000100de744     guideXOS.obj
 0004:00042750       _unwind0guideXOS_guideXOS_Misc_IFont___ctor 00000000100de750     guideXOS.obj
 0004:00042760       _unwind0guideXOS_guideXOS_Misc_IFont__DrawChar 00000000100de760     guideXOS.obj
 0004:000427b4       _unwind0guideXOS_guideXOS_Misc_IFont__DrawString 00000000100de7b4     guideXOS.obj
 0004:000427d4       _unwind0guideXOS_guideXOS_Misc_IFont__DrawString_0 00000000100de7d4     guideXOS.obj
 0004:000427f4       _unwind0guideXOS_guideXOS_Misc_IFont__MeasureString 00000000100de7f4     guideXOS.obj
 0004:00042810       _unwind0guideXOS_guideXOS_Misc_IFont__DrawString_1 00000000100de810     guideXOS.obj
 0004:00042854       _unwind0guideXOS_guideXOS_Misc_Interrupts__EnableInterrupt_0 00000000100de854     guideXOS.obj
 0004:0004286c       _unwind0guideXOS_guideXOS_Misc_Interrupts__HandleInterrupt 00000000100de86c     guideXOS.obj
 0004:00042894       _unwind0guideXOS_guideXOS_Misc_Panic__Error 00000000100de894     guideXOS.obj
 0004:000428cc       _unwind0guideXOS_guideXOS_Misc_Panic__ShowEnhancedCrashScreen 00000000100de8cc     guideXOS.obj
 0004:00042908       _unwind0guideXOS_guideXOS_Misc_Panic__DrawPanicHeader 00000000100de908     guideXOS.obj
 0004:0004294c       _unwind0guideXOS_guideXOS_Misc_Panic__DrawExceptionInfo 00000000100de94c     guideXOS.obj
 0004:00042a14       _unwind0guideXOS_guideXOS_Misc_Panic__DrawRegisters 00000000100dea14     guideXOS.obj
 0004:00042aa0       _unwind0guideXOS_guideXOS_Misc_Panic__DrawStackTrace 00000000100deaa0     guideXOS.obj
 0004:00042b1c       _unwind1guideXOS_guideXOS_Misc_Panic__DrawStackTrace 00000000100deb1c     guideXOS.obj
 0004:00042b34       _unwind0guideXOS_guideXOS_Misc_Panic__DrawSystemInfo 00000000100deb34     guideXOS.obj
 0004:00042c08       _unwind1guideXOS_guideXOS_Misc_Panic__DrawSystemInfo 00000000100dec08     guideXOS.obj
 0004:00042c20       _unwind2guideXOS_guideXOS_Misc_Panic__DrawSystemInfo 00000000100dec20     guideXOS.obj
 0004:00042c38       _unwind0guideXOS_guideXOS_Misc_Panic__DrawControlRegisters 00000000100dec38     guideXOS.obj
 0004:00042cd8       _unwind1guideXOS_guideXOS_Misc_Panic__DrawControlRegisters 00000000100decd8     guideXOS.obj
 0004:00042cf0       _unwind0guideXOS_guideXOS_Misc_Panic__DrawRFlagsBreakdown 00000000100decf0     guideXOS.obj
 0004:00042d3c       _unwind0guideXOS_guideXOS_Misc_Panic__DrawSectionHeader 00000000100ded3c     guideXOS.obj
 0004:00042d5c       _unwind0guideXOS_guideXOS_Misc_Panic__DrawFooter 00000000100ded5c     guideXOS.obj
 0004:00042d70       _unwind0guideXOS_guideXOS_Misc_Panic__DrawText 00000000100ded70     guideXOS.obj
 0004:00042d98       _unwind1guideXOS_guideXOS_Misc_Panic__DrawText 00000000100ded98     guideXOS.obj
 0004:00042da8       _unwind0guideXOS_guideXOS_Misc_Panic__DrawTextLarge 00000000100deda8     guideXOS.obj
 0004:00042de0       _unwind1guideXOS_guideXOS_Misc_Panic__DrawTextLarge 00000000100dede0     guideXOS.obj
 0004:00042df8       _unwind0guideXOS_guideXOS_Misc_Panic__GetExceptionName 00000000100dedf8     guideXOS.obj
 0004:00042e0c       _unwind0guideXOS_guideXOS_Misc_PNG__BuildFallback 00000000100dee0c     guideXOS.obj
 0004:00042e3c       _unwind0guideXOS_guideXOS_Misc_PNG__HasPngHeader 00000000100dee3c     guideXOS.obj
 0004:00042e44       _unwind0guideXOS_guideXOS_Misc_PNG__TryGetIHDRDims 00000000100dee44     guideXOS.obj
 0004:00042e5c       _unwind0guideXOS_guideXOS_Misc_PNG___ctor 00000000100dee5c     guideXOS.obj
 0004:00042ec4       _unwind0guideXOS_guideXOS_Misc_PNG__lodepng_decode_memory 00000000100deec4     guideXOS.obj
 0004:00042ee8       _unwind0guideXOS_guideXOS_Misc_SchedulerExtensions__EnterUserMode 00000000100deee8     guideXOS.obj
 0004:00042f04       _unwind0guideXOS_guideXOS_Misc_SVG__BuildFallback 00000000100def04     guideXOS.obj
 0004:00042f34       _unwind0guideXOS_guideXOS_Misc_SVG___ctor 00000000100def34     guideXOS.obj
 0004:00042fac       _unwind1guideXOS_guideXOS_Misc_SVG___ctor 00000000100defac     guideXOS.obj
 0004:00042fc4       _unwind0guideXOS_guideXOS_Misc_SVG__RenderSVG 00000000100defc4     guideXOS.obj
 0004:00043040       _unwind0guideXOS_guideXOS_Misc_SVG__GetMinIndex 00000000100df040     guideXOS.obj
 0004:00043050       _unwind0guideXOS_guideXOS_Misc_SVG__FindString 00000000100df050     guideXOS.obj
 0004:00043088       _unwind0guideXOS_guideXOS_Misc_SVG__FindChar 00000000100df088     guideXOS.obj
 0004:000430a0       _unwind0guideXOS_guideXOS_Misc_SVG__RenderRectElement 00000000100df0a0     guideXOS.obj
 0004:00043114       _unwind0guideXOS_guideXOS_Misc_SVG__RenderCircleElement 00000000100df114     guideXOS.obj
 0004:00043178       _unwind0guideXOS_guideXOS_Misc_SVG__RenderEllipseElement 00000000100df178     guideXOS.obj
 0004:000431d8       _unwind0guideXOS_guideXOS_Misc_SVG__RenderPathElement 00000000100df1d8     guideXOS.obj
 0004:0004329c       _unwind0guideXOS_guideXOS_Misc_SVG__RenderPolygonElement 00000000100df29c     guideXOS.obj
 0004:0004330c       _unwind0guideXOS_guideXOS_Misc_SVG__RenderPolylineElement 00000000100df30c     guideXOS.obj
 0004:00043368       _unwind0guideXOS_guideXOS_Misc_SVG__ParseNextNumber 00000000100df368     guideXOS.obj
 0004:000433b8       _unwind0guideXOS_guideXOS_Misc_SVG__SplitString 00000000100df3b8     guideXOS.obj
 0004:0004342c       _unwind0guideXOS_guideXOS_Misc_SVG__DrawLine 00000000100df42c     guideXOS.obj
 0004:0004344c       _unwind0guideXOS_guideXOS_Misc_SVG__DrawRectStroke 00000000100df44c     guideXOS.obj
 0004:0004347c       _unwind0guideXOS_guideXOS_Misc_SVG__ParseFloatAttr 00000000100df47c     guideXOS.obj
 0004:000434a4       _unwind0guideXOS_guideXOS_Misc_SVG__ParseSimpleFloat 00000000100df4a4     guideXOS.obj
 0004:000434c4       _unwind0guideXOS_guideXOS_Misc_SVG__ParseColorAttr 00000000100df4c4     guideXOS.obj
 0004:00043560       _unwind0guideXOS_guideXOS_Misc_SVG__SetPixel 00000000100df560     guideXOS.obj
 0004:00043574       _unwind0guideXOS_guideXOS_Misc_Thread__NewThread 00000000100df574     guideXOS.obj
 0004:0004358c       _unwind0guideXOS_guideXOS_Misc_Thread__Start 00000000100df58c     guideXOS.obj
 0004:000435cc       _unwind1guideXOS_guideXOS_Misc_Thread__Start 00000000100df5cc     guideXOS.obj
 0004:000435e4       _unwind0guideXOS_guideXOS_Misc_Thread__Start_0 00000000100df5e4     guideXOS.obj
 0004:00043630       _unwind1guideXOS_guideXOS_Misc_Thread__Start_0 00000000100df630     guideXOS.obj
 0004:00043648       _unwind0guideXOS_guideXOS_Misc_Thread__Sleep 00000000100df648     guideXOS.obj
 0004:00043650       _unwind0guideXOS_guideXOS_Misc_ThreadPool__Initialize 00000000100df650     guideXOS.obj
 0004:000436c0       _unwind0guideXOS_guideXOS_Misc_ThreadPool__Terminate 00000000100df6c0     guideXOS.obj
 0004:000436e8       _unwind0guideXOS_guideXOS_Misc_ThreadPool__IdleThread 00000000100df6e8     guideXOS.obj
 0004:00043704       _unwind0guideXOS_guideXOS_Misc_ThreadPool__get_CanLock 00000000100df704     guideXOS.obj
 0004:00043710       _unwind0guideXOS_guideXOS_Misc_ThreadPool__Lock 00000000100df710     guideXOS.obj
 0004:00043720       _unwind0guideXOS_guideXOS_Misc_ThreadPool__UnLock 00000000100df720     guideXOS.obj
 0004:0004372c       _unwind0guideXOS_guideXOS_Misc_ThreadPool__Schedule 00000000100df72c     guideXOS.obj
 0004:000437f4       _unwind0guideXOS_guideXOS_Misc_USBDevice___ctor 00000000100df7f4     guideXOS.obj
 0004:000437fc       _unwind0guideXOS_guideXOS_Misc_USBRequest__Clean 00000000100df7fc     guideXOS.obj
 0004:0004381c       _unwind0guideXOS_guideXOS_Misc_USB__OnInterrupt 00000000100df81c     guideXOS.obj
 0004:0004383c       _unwind0guideXOS_guideXOS_Misc_USB__DriveDevice 00000000100df83c     guideXOS.obj
 0004:00043874       _unwind0guideXOS_guideXOS_Misc_USB__StartPolling 00000000100df874     guideXOS.obj
 0004:00043884       _unwind0guideXOS_guideXOS_Misc_USB__LoopPoll 00000000100df884     guideXOS.obj
 0004:000438a4       _unwind0guideXOS_guideXOS_Misc_UserModeStub__iret_to_user 00000000100df8a4     guideXOS.obj
 0004:000438b0       _unwind0guideXOS_guideXOS_Misc_VendorID__GetName 00000000100df8b0     guideXOS.obj
 0004:000438bc       _unwind0guideXOS_guideXOS_Misc_WAV__Decode 00000000100df8bc     guideXOS.obj
 0004:000438e8       _unwind0guideXOS_guideXOS_Graph_Graphics__FromImage 00000000100df8e8     guideXOS.obj
 0004:000438fc       _unwind0guideXOS_guideXOS_Graph_Graphics__Update 00000000100df8fc     guideXOS.obj
 0004:00043904       _unwind0guideXOS_guideXOS_Graph_Graphics__Clear 00000000100df904     guideXOS.obj
 0004:00043920       _unwind0guideXOS_guideXOS_Graph_Graphics__Copy 00000000100df920     guideXOS.obj
 0004:00043948       _unwind0guideXOS_guideXOS_Graph_Graphics__FillRectangle 00000000100df948     guideXOS.obj
 0004:0004396c       _unwind0guideXOS_guideXOS_Graph_Graphics__AFillRectangle 00000000100df96c     guideXOS.obj
 0004:00043994       _unwind0guideXOS_guideXOS_Graph_Graphics__GetPoint 00000000100df994     guideXOS.obj
 0004:0004399c       _unwind0guideXOS_guideXOS_Graph_Graphics__DrawPoint 00000000100df99c     guideXOS.obj
 0004:000439b8       _unwind0guideXOS_guideXOS_Graph_Graphics__DrawRectangle 00000000100df9b8     guideXOS.obj
 0004:000439d8       _unwind0guideXOS_guideXOS_Graph_Graphics__Save 00000000100df9d8     guideXOS.obj
 0004:00043a00       _unwind0guideXOS_guideXOS_Graph_Graphics__ADrawImage 00000000100dfa00     guideXOS.obj
 0004:00043a2c       _unwind0guideXOS_guideXOS_Graph_Graphics__DrawImage 00000000100dfa2c     guideXOS.obj
 0004:00043a8c       _unwind0guideXOS_guideXOS_Graph_Graphics__FPartOfNumber 00000000100dfa8c     guideXOS.obj
 0004:00043a94       _unwind0guideXOS_guideXOS_Graph_Graphics__DrawPoint_0 00000000100dfa94     guideXOS.obj
 0004:00043aa4       _unwind0guideXOS_guideXOS_Graph_Graphics__DrawLine 00000000100dfaa4     guideXOS.obj
 0004:00043ad0       _unwind0guideXOS_guideXOS_Graph_Graphics__BlurRectangle 00000000100dfad0     guideXOS.obj
 0004:00043bb0       _unwind0guideXOS_guideXOS_Graph_Graphics__ResetBlurBuffers 00000000100dfbb0     guideXOS.obj
 0004:00043bd8       _unwind0guideXOS_guideXOS_FS_AutoFS___ctor 00000000100dfbd8     guideXOS.obj
 0004:00043c08       _unwind0guideXOS_guideXOS_FS_AutoFS___ctor_0 00000000100dfc08     guideXOS.obj
 0004:00043c3c       _unwind0guideXOS_guideXOS_FS_AutoFS__LooksLikeTar 00000000100dfc3c     guideXOS.obj
 0004:00043c44       _unwind0guideXOS_guideXOS_FS_AutoFS__LooksLikeFat 00000000100dfc44     guideXOS.obj
 0004:00043c4c       _unwind0guideXOS_guideXOS_FS_AutoFS__LooksLikeExt 00000000100dfc4c     guideXOS.obj
 0004:00043c64       _unwind0guideXOS_guideXOS_FS_AutoFS__LooksLikeExt_0 00000000100dfc64     guideXOS.obj
 0004:00043c6c       _unwind0guideXOS_guideXOS_FS_AutoFS__GetFiles 00000000100dfc6c     guideXOS.obj
 0004:00043c7c       _unwind0guideXOS_guideXOS_FS_AutoFS__ReadAllBytes 00000000100dfc7c     guideXOS.obj
 0004:00043c8c       _unwind0guideXOS_guideXOS_FS_AutoFS__WriteAllBytes 00000000100dfc8c     guideXOS.obj
 0004:00043c9c       _unwind0guideXOS_guideXOS_FS_AutoFS__Format 00000000100dfc9c     guideXOS.obj
 0004:00043cac       _unwind0guideXOS_guideXOS_FS_EXT2___ctor 00000000100dfcac     guideXOS.obj
 0004:00043cd8       _unwind0guideXOS_guideXOS_FS_EXT2___ctor_0 00000000100dfcd8     guideXOS.obj
 0004:00043d04       _unwind0guideXOS_guideXOS_FS_EXT2__ReadBytes 00000000100dfd04     guideXOS.obj
 0004:00043d4c       _unwind0guideXOS_guideXOS_FS_EXT2__WriteBytes 00000000100dfd4c     guideXOS.obj
 0004:00043da4       _unwind0guideXOS_guideXOS_FS_EXT2__ReadBlock 00000000100dfda4     guideXOS.obj
 0004:00043dc4       _unwind0guideXOS_guideXOS_FS_EXT2__WriteBlock 00000000100dfdc4     guideXOS.obj
 0004:00043e00       _unwind0guideXOS_guideXOS_FS_EXT2__ReadBlockRange 00000000100dfe00     guideXOS.obj
 0004:00043e20       _unwind0guideXOS_guideXOS_FS_EXT2__ReadU32 00000000100dfe20     guideXOS.obj
 0004:00043e2c       _unwind0guideXOS_guideXOS_FS_EXT2__WriteU16 00000000100dfe2c     guideXOS.obj
 0004:00043e38       _unwind0guideXOS_guideXOS_FS_EXT2__WriteU32 00000000100dfe38     guideXOS.obj
 0004:00043e44       _unwind0guideXOS_guideXOS_FS_EXT2__ReadInode 00000000100dfe44     guideXOS.obj
 0004:00043e68       _unwind0guideXOS_guideXOS_FS_EXT2__WriteInode 00000000100dfe68     guideXOS.obj
 0004:00043e88       _unwind0guideXOS_guideXOS_FS_EXT2__EnumDirectory 00000000100dfe88     guideXOS.obj
 0004:00043f64       _unwind0guideXOS_guideXOS_FS_EXT2__ResolvePathToInode 00000000100dff64     guideXOS.obj
 0004:00043f90       _unwind0guideXOS_guideXOS_FS_EXT2__StrEq 00000000100dff90     guideXOS.obj
 0004:00043fb4       _unwind0guideXOS_guideXOS_FS_EXT2__GetFiles 00000000100dffb4     guideXOS.obj
 0004:00043fe4       _unwind0guideXOS_guideXOS_FS_EXT2__ReadAllBytes 00000000100dffe4     guideXOS.obj
 0004:0004405c       _unwind0guideXOS_guideXOS_FS_EXT2__WriteAllBytes 00000000100e005c     guideXOS.obj
 0004:000440fc       _unwind0guideXOS_guideXOS_FS_EXT2__Format 00000000100e00fc     guideXOS.obj
 0004:0004410c       _unwind0guideXOS_guideXOS_FS_FAT___ctor 00000000100e010c     guideXOS.obj
 0004:00044128       _unwind0guideXOS_guideXOS_FS_FAT___ctor_0 00000000100e0128     guideXOS.obj
 0004:00044140       _unwind0guideXOS_guideXOS_FS_FAT__InvalidateSector 00000000100e0140     guideXOS.obj
 0004:00044160       _unwind0guideXOS_guideXOS_FS_FAT__ReadSectorsCached 00000000100e0160     guideXOS.obj
 0004:000441d0       _unwind0guideXOS_guideXOS_FS_FAT__WriteSector 00000000100e01d0     guideXOS.obj
 0004:000441e8       _unwind0guideXOS_guideXOS_FS_FAT__ReadFatEntry 00000000100e01e8     guideXOS.obj
 0004:00044208       _unwind0guideXOS_guideXOS_FS_FAT__WriteFatEntry 00000000100e0208     guideXOS.obj
 0004:0004424c       _unwind0guideXOS_guideXOS_FS_FAT__IsEOC 00000000100e024c     guideXOS.obj
 0004:00044254       _unwind0guideXOS_guideXOS_FS_FAT__EOC 00000000100e0254     guideXOS.obj
 0004:0004425c       _unwind0guideXOS_guideXOS_FS_FAT__GetClusterChain 00000000100e025c     guideXOS.obj
 0004:00044274       _unwind0guideXOS_guideXOS_FS_FAT__ReadCluster 00000000100e0274     guideXOS.obj
 0004:000442a0       _unwind0guideXOS_guideXOS_FS_FAT__ZeroCluster 00000000100e02a0     guideXOS.obj
 0004:000442c0       _unwind0guideXOS_guideXOS_FS_FAT__ReadAllClusterChain 00000000100e02c0     guideXOS.obj
 0004:000442f4       _unwind0guideXOS_guideXOS_FS_FAT__ComposeShortName 00000000100e02f4     guideXOS.obj
 0004:00044320       _unwind0guideXOS_guideXOS_FS_FAT__AssembleLfn 00000000100e0320     guideXOS.obj
 0004:0004435c       _unwind0guideXOS_guideXOS_FS_FAT__IterateDirectory 00000000100e035c     guideXOS.obj
 0004:0004437c       _unwind0guideXOS_guideXOS_FS_FAT__IterateDirSectorRangeCluster 00000000100e037c     guideXOS.obj
 0004:00044398       _unwind0guideXOS_guideXOS_FS_FAT__IterateDirEntries 00000000100e0398     guideXOS.obj
 0004:000443dc       _unwind0guideXOS_guideXOS_FS_FAT__EqualsIgnoreCase 00000000100e03dc     guideXOS.obj
 0004:00044404       _unwind0guideXOS_guideXOS_FS_FAT__FindPath 00000000100e0404     guideXOS.obj
 0004:0004447c       _unwind0guideXOS_guideXOS_FS_FAT__FindEntryLoc 00000000100e047c     guideXOS.obj
 0004:00044578       _unwind1guideXOS_guideXOS_FS_FAT__FindEntryLoc 00000000100e0578     guideXOS.obj
 0004:00044590       _unwind2guideXOS_guideXOS_FS_FAT__FindEntryLoc 00000000100e0590     guideXOS.obj
 0004:000445a8       _unwind0guideXOS_guideXOS_FS_FAT__NextFreeCluster 00000000100e05a8     guideXOS.obj
 0004:000445c0       _unwind0guideXOS_guideXOS_FS_FAT__AllocateClustersForSize 00000000100e05c0     guideXOS.obj
 0004:000445e4       _unwind0guideXOS_guideXOS_FS_FAT__FreeClusterChain 00000000100e05e4     guideXOS.obj
 0004:00044608       _unwind0guideXOS_guideXOS_FS_FAT__WriteDataToChain 00000000100e0608     guideXOS.obj
 0004:000446b0       _unwind0guideXOS_guideXOS_FS_FAT__WriteDirEntry 00000000100e06b0     guideXOS.obj
 0004:00044728       _unwind0guideXOS_guideXOS_FS_FAT__GenerateShortName 00000000100e0728     guideXOS.obj
 0004:000447d8       _unwind0guideXOS_guideXOS_FS_FAT__EnsureDirHasFreeSlot 00000000100e07d8     guideXOS.obj
 0004:000447f8       _unwind0guideXOS_guideXOS_FS_FAT__GetFiles 00000000100e07f8     guideXOS.obj
 0004:00044820       _unwind0guideXOS_guideXOS_FS_FAT__ReadAllBytes 00000000100e0820     guideXOS.obj
 0004:00044838       _unwind0guideXOS_guideXOS_FS_FAT__WriteAllBytes 00000000100e0838     guideXOS.obj
 0004:0004488c       _unwind0guideXOS_guideXOS_FS_FAT__Format 00000000100e088c     guideXOS.obj
 0004:0004489c       _unwind0guideXOS_guideXOS_FS_FATFS___ctor 00000000100e089c     guideXOS.obj
 0004:000448bc       _unwind0guideXOS_guideXOS_FS_FATFS__GetFiles 00000000100e08bc     guideXOS.obj
 0004:000448e8       _unwind0guideXOS_guideXOS_FS_FATFS__get_fattime 00000000100e08e8     guideXOS.obj
 0004:00044904       _unwind0guideXOS_guideXOS_FS_FATFS__RAM_disk_write 00000000100e0904     guideXOS.obj
 0004:00044918       _unwind0guideXOS_guideXOS_FS_FATFS__RAM_disk_read 00000000100e0918     guideXOS.obj
 0004:0004492c       _unwind0guideXOS_guideXOS_FS_FATFS__read_all_bytes 00000000100e092c     guideXOS.obj
 0004:0004494c       _unwind0guideXOS_guideXOS_FS_FATFS__Format 00000000100e094c     guideXOS.obj
 0004:00044968       _unwind0guideXOS_guideXOS_FS_FATFS__ReadAllBytes 00000000100e0968     guideXOS.obj
 0004:00044994       _unwind0guideXOS_guideXOS_FS_FATFS__WriteAllBytes 00000000100e0994     guideXOS.obj
 0004:000449b8       _unwind0guideXOS_guideXOS_FS_FileInfo__Dispose 00000000100e09b8     guideXOS.obj
 0004:000449dc       _unwind0guideXOS_guideXOS_FS_FileInfo___ctor 00000000100e09dc     guideXOS.obj
 0004:000449e4       _unwind0guideXOS_guideXOS_FS_File__Exists 00000000100e09e4     guideXOS.obj
 0004:00044a04       _unwind0guideXOS_guideXOS_FS_FileSystem__SizeToSec 00000000100e0a04     guideXOS.obj
 0004:00044a0c       _unwind0guideXOS_guideXOS_FS_FileSystem__IsInDirectory 00000000100e0a0c     guideXOS.obj
 0004:00044a38       _unwind0guideXOS_guideXOS_FS_TarFS___ctor_0 00000000100e0a38     guideXOS.obj
 0004:00044a48       _unwind0guideXOS_guideXOS_FS_TarFS__GetFiles 00000000100e0a48     guideXOS.obj
 0004:00044ae0       _unwind0guideXOS_guideXOS_FS_TarFS__ReadAllBytes 00000000100e0ae0     guideXOS.obj
 0004:00044b48       _unwind0guideXOS_guideXOS_FS_TarFS__WriteAllBytes 00000000100e0b48     guideXOS.obj
 0004:00044b50       _unwind0guideXOS_guideXOS_FS_TarFS__Format 00000000100e0b50     guideXOS.obj
 0004:00044b58       _unwind0guideXOS_guideXOS_Kernel_Libraries_stdio___putchar 00000000100e0b58     guideXOS.obj
 0004:00044b68       _unwind0guideXOS_guideXOS_Kernel_Libraries_stdio__fopen 00000000100e0b68     guideXOS.obj
 0004:00044bcc       _unwind0guideXOS_guideXOS_Kernel_Libraries_stdio__fseek 00000000100e0bcc     guideXOS.obj
 0004:00044be0       _unwind0guideXOS_guideXOS_Kernel_Libraries_stdio__fread 00000000100e0be0     guideXOS.obj
 0004:00044bfc       _unwind0guideXOS_guideXOS_Kernel_Libraries_stdlib__malloc 00000000100e0bfc     guideXOS.obj
 0004:00044c08       _unwind0guideXOS_guideXOS_Kernel_Libraries_stdlib__free 00000000100e0c08     guideXOS.obj
 0004:00044c14       _unwind0guideXOS_guideXOS_Kernel_Libraries_stdlib__realloc 00000000100e0c14     guideXOS.obj
 0004:00044c20       _unwind0guideXOS_guideXOS_Kernel_Libraries_stdlib__calloc 00000000100e0c20     guideXOS.obj
 0004:00044c40       _unwind0guideXOS_guideXOS_Kernel_Libraries_stdlib__kmalloc 00000000100e0c40     guideXOS.obj
 0004:00044c4c       _unwind0guideXOS_guideXOS_Kernel_Libraries_stdlib__kfree 00000000100e0c4c     guideXOS.obj
 0004:00044c58       _unwind0guideXOS_guideXOS_Kernel_Libraries_stdlib__krealloc 00000000100e0c58     guideXOS.obj
 0004:00044c64       _unwind0guideXOS_guideXOS_Kernel_Libraries_stdlib__kcalloc 00000000100e0c64     guideXOS.obj
 0004:00044c84       _unwind0guideXOS_guideXOS_Kernel_Drivers_AC97__Initialize 00000000100e0c84     guideXOS.obj
 0004:00044cec       _unwind0guideXOS_guideXOS_Kernel_Drivers_AC97__OnInterrupt 00000000100e0cec     guideXOS.obj
 0004:00044d20       _unwind0guideXOS_guideXOS_Kernel_Drivers_ACPI__GetRSDP 00000000100e0d20     guideXOS.obj
 0004:00044d2c       _unwind0guideXOS_guideXOS_Kernel_Drivers_ACPI__Shutdown 00000000100e0d2c     guideXOS.obj
 0004:00044d54       _unwind0guideXOS_guideXOS_Kernel_Drivers_ACPI__Initialize 00000000100e0d54     guideXOS.obj
 0004:00044d74       _unwind0guideXOS_guideXOS_Kernel_Drivers_ACPI__ParseDT 00000000100e0d74     guideXOS.obj
 0004:00044dbc       _unwind0guideXOS_guideXOS_Kernel_Drivers_ACPI__RemapIRQ 00000000100e0dbc     guideXOS.obj
 0004:00044dd4       _unwind0guideXOS_guideXOS_Kernel_Drivers_ACPITimer__Sleep 00000000100e0dd4     guideXOS.obj
 0004:00044e0c       _unwind0guideXOS_guideXOS_Kernel_Drivers_ACPITimer__SleepMicroseconds 00000000100e0e0c     guideXOS.obj
 0004:00044e38       _unwind0guideXOS_guideXOS_Kernel_Drivers_Resolution__ToString 00000000100e0e38     guideXOS.obj
 0004:00044e64       _unwind0guideXOS_guideXOS_Kernel_Drivers_DisplayManager__EnsureSvga 00000000100e0e64     guideXOS.obj
 0004:00044eb0       _unwind1guideXOS_guideXOS_Kernel_Drivers_DisplayManager__EnsureSvga 00000000100e0eb0     guideXOS.obj
 0004:00044ec0       _unwind0guideXOS_guideXOS_Kernel_Drivers_DisplayManager__TrySetResolution 00000000100e0ec0     guideXOS.obj
 0004:00044efc       _unwind1guideXOS_guideXOS_Kernel_Drivers_DisplayManager__TrySetResolution 00000000100e0efc     guideXOS.obj
 0004:00044f0c       _unwind2guideXOS_guideXOS_Kernel_Drivers_DisplayManager__TrySetResolution 00000000100e0f0c     guideXOS.obj
 0004:00044f1c       _unwind0guideXOS_guideXOS_Kernel_Drivers_DisplayManager__ToASCII 00000000100e0f1c     guideXOS.obj
 0004:00044f38       _unwind0guideXOS_guideXOS_Kernel_Drivers_DisplayManager__SaveResolution 00000000100e0f38     guideXOS.obj
 0004:00044f80       _unwind1guideXOS_guideXOS_Kernel_Drivers_DisplayManager__SaveResolution 00000000100e0f80     guideXOS.obj
 0004:00044f98       _unwind0guideXOS_guideXOS_Kernel_Drivers_DisplayManager__TryLoadSaved 00000000100e0f98     guideXOS.obj
 0004:00044fd0       _unwind1guideXOS_guideXOS_Kernel_Drivers_DisplayManager__TryLoadSaved 00000000100e0fd0     guideXOS.obj
 0004:00044fe0       _unwind0guideXOS_guideXOS_Kernel_Drivers_DisplayManager__ApplySavedResolution 00000000100e0fe0     guideXOS.obj
 0004:00044fec       _unwind0guideXOS_guideXOS_Kernel_Drivers_EHCI__Initialize 00000000100e0fec     guideXOS.obj
 0004:0004509c       _unwind0guideXOS_guideXOS_Kernel_Drivers_EHCI__SendAndReceive 00000000100e109c     guideXOS.obj
 0004:000450c0       _unwind0guideXOS_guideXOS_Kernel_Drivers_EHCI__SetDeviceAddr 00000000100e10c0     guideXOS.obj
 0004:000450e0       _unwind0guideXOS_guideXOS_Kernel_Drivers_EHCI__WaitForComplete 00000000100e10e0     guideXOS.obj
 0004:00045100       _unwind0guideXOS_guideXOS_Kernel_Drivers_EHCI__GetDesc 00000000100e1100     guideXOS.obj
 0004:0004512c       _unwind0guideXOS_guideXOS_Kernel_Drivers_EHCI__GetConfig 00000000100e112c     guideXOS.obj
 0004:00045158       _unwind0guideXOS_guideXOS_Kernel_Drivers_EHCI__SetConfig 00000000100e1158     guideXOS.obj
 0004:0004517c       _unwind0guideXOS_guideXOS_Kernel_Drivers_EHCI__BulkTransfer 00000000100e117c     guideXOS.obj
 0004:000451a0       _unwind0guideXOS_guideXOS_Kernel_Drivers_EHCI__InitPort 00000000100e11a0     guideXOS.obj
 0004:00045258       _unwind0guideXOS_guideXOS_Kernel_Drivers_EHCI__ScanPorts 00000000100e1258     guideXOS.obj
 0004:0004527c       _unwind0guideXOS_guideXOS_Kernel_Drivers_ES1371__Initialize 00000000100e127c     guideXOS.obj
 0004:000452d8       _unwind0guideXOS_guideXOS_Kernel_Drivers_ES1371__OnInterrupt 00000000100e12d8     guideXOS.obj
 0004:00045308       _unwind0guideXOS_guideXOS_Kernel_Drivers_Framebuffer__set_TripleBuffered 00000000100e1308     guideXOS.obj
 0004:00045324       _unwind0guideXOS_guideXOS_Kernel_Drivers_Framebuffer__Update 00000000100e1324     guideXOS.obj
 0004:00045350       _unwind0guideXOS_guideXOS_Kernel_Drivers_Framebuffer__Initialize 00000000100e1350     guideXOS.obj
 0004:00045384       _unwind0guideXOS_guideXOS_Kernel_Drivers_HID__Initialize 00000000100e1384     guideXOS.obj
 0004:00045394       _unwind0guideXOS_guideXOS_Kernel_Drivers_HID__GetHIDPacket 00000000100e1394     guideXOS.obj
 0004:000453ac       _unwind0guideXOS_guideXOS_Kernel_Drivers_HID__GetKeyboard 00000000100e13ac     guideXOS.obj
 0004:000453c8       _unwind0guideXOS_guideXOS_Kernel_Drivers_HID__GetMouse 00000000100e13c8     guideXOS.obj
 0004:000453e4       _unwind0guideXOS_guideXOS_Kernel_Drivers_HID__Initialize_0 00000000100e13e4     guideXOS.obj
 0004:00045400       _unwind0guideXOS_guideXOS_Kernel_Drivers_HID__InitializeMouse 00000000100e1400     guideXOS.obj
 0004:00045418       _unwind0guideXOS_guideXOS_Kernel_Drivers_HID__InitializeKeyboard 00000000100e1418     guideXOS.obj
 0004:00045470       _unwind0guideXOS_guideXOS_Kernel_Drivers_HPET__Initialize 00000000100e1470     guideXOS.obj
 0004:0004548c       _unwind0guideXOS_guideXOS_Kernel_Drivers_HPET__WriteRegister 00000000100e148c     guideXOS.obj
 0004:0004549c       _unwind0guideXOS_guideXOS_Kernel_Drivers_HPET__ReadRegister 00000000100e149c     guideXOS.obj
 0004:000454a8       _unwind0guideXOS_guideXOS_Kernel_Drivers_Hub__Initialize 00000000100e14a8     guideXOS.obj
 0004:000454b8       _unwind0guideXOS_guideXOS_Kernel_Drivers_Hub__Initialize_0 00000000100e14b8     guideXOS.obj
 0004:00045550       _unwind0guideXOS_guideXOS_Kernel_Drivers_IDE__Initialize 00000000100e1550     guideXOS.obj
 0004:00045564       _unwind0guideXOS_guideXOS_Kernel_Drivers_IDE__ScanPorts 00000000100e1564     guideXOS.obj
 0004:000455e4       _unwind0guideXOS_guideXOS_Kernel_Drivers_IDE___ScanPorts_g__WaitForIdentifyData_3_2 00000000100e15e4     guideXOS.obj
 0004:00045604       _unwind0guideXOS_guideXOS_Kernel_Drivers_IDEDevice__ReadOrWrite 00000000100e1604     guideXOS.obj
 0004:00045654       _unwind0guideXOS_guideXOS_Kernel_Drivers_IDEDevice__WaitForReadyStatus 00000000100e1654     guideXOS.obj
 0004:00045674       _unwind0guideXOS_guideXOS_Kernel_Drivers_IDEDevice__Read 00000000100e1674     guideXOS.obj
 0004:0004568c       _unwind0guideXOS_guideXOS_Kernel_Drivers_IDEDevice__Write 00000000100e168c     guideXOS.obj
 0004:000456a4       _unwind0guideXOS_guideXOS_Kernel_Drivers_IDEDevice___ctor 00000000100e16a4     guideXOS.obj
 0004:000456b4       _unwind0guideXOS_guideXOS_Kernel_Drivers_IOAPIC__Initialize 00000000100e16b4     guideXOS.obj
 0004:000456d0       _unwind0guideXOS_guideXOS_Kernel_Drivers_IOAPIC__In 00000000100e16d0     guideXOS.obj
 0004:000456dc       _unwind0guideXOS_guideXOS_Kernel_Drivers_IOAPIC__Out 00000000100e16dc     guideXOS.obj
 0004:000456ec       _unwind0guideXOS_guideXOS_Kernel_Drivers_IOAPIC__SetEntry 00000000100e16ec     guideXOS.obj
 0004:000456fc       _unwind0guideXOS_guideXOS_Kernel_Drivers_IOAPIC__SetEntry_0 00000000100e16fc     guideXOS.obj
 0004:0004570c       _unwind0guideXOS_guideXOS_Kernel_Drivers_Keyboard__InvokeOnKeyChanged 00000000100e170c     guideXOS.obj
 0004:0004572c       _unwind0guideXOS_guideXOS_Kernel_Drivers_Keyboard__SimulateKey 00000000100e172c     guideXOS.obj
 0004:00045748       _unwind0guideXOS_guideXOS_Kernel_Drivers_Keyboard__CleanKeyInfo 00000000100e1748     guideXOS.obj
 0004:00045754       _unwind0guideXOS_guideXOS_Kernel_Drivers_LocalAPIC__ReadRegister 00000000100e1754     guideXOS.obj
 0004:00045760       _unwind0guideXOS_guideXOS_Kernel_Drivers_LocalAPIC__Initialize 00000000100e1760     guideXOS.obj
 0004:00045774       _unwind0guideXOS_guideXOS_Kernel_Drivers_LocalAPIC__SendIPI 00000000100e1774     guideXOS.obj
 0004:0004578c       _unwind0guideXOS_guideXOS_Kernel_Drivers_LocalAPICTimer__StartTimer 00000000100e178c     guideXOS.obj
 0004:000457ac       _unwind0guideXOS_guideXOS_Kernel_Drivers_LocalAPICTimer__EstimateBusSpeed 00000000100e17ac     guideXOS.obj
 0004:000457bc       _unwind0guideXOS_guideXOS_Kernel_Drivers_PCIDevice__WriteRegister 00000000100e17bc     guideXOS.obj
 0004:000457d4       _unwind0guideXOS_guideXOS_Kernel_Drivers_PCIDevice___ctor 00000000100e17d4     guideXOS.obj
 0004:000457dc       _unwind0guideXOS_guideXOS_Kernel_Drivers_PCI__GetDevice 00000000100e17dc     guideXOS.obj
 0004:00045800       _unwind0guideXOS_guideXOS_Kernel_Drivers_PCI__GetDevice_0 00000000100e1800     guideXOS.obj
 0004:00045828       _unwind0guideXOS_guideXOS_Kernel_Drivers_PCI__Initialise 00000000100e1828     guideXOS.obj
 0004:00045840       _unwind0guideXOS_guideXOS_Kernel_Drivers_PCI__CheckBus 00000000100e1840     guideXOS.obj
 0004:000458c0       _unwind0guideXOS_guideXOS_Kernel_Drivers_PCI__WriteRegister32 00000000100e18c0     guideXOS.obj
 0004:000458e4       _unwind0guideXOS_guideXOS_Kernel_Drivers_PCI__ReadRegister32 00000000100e18e4     guideXOS.obj
 0004:00045908       _unwind0guideXOS_guideXOS_Kernel_Drivers_PCI__ReadRegister16 00000000100e1908     guideXOS.obj
 0004:0004592c       _unwind0guideXOS_guideXOS_Kernel_Drivers_PCI__ReadRegister8 00000000100e192c     guideXOS.obj
 0004:00045950       _unwind0guideXOS_guideXOS_Kernel_Drivers_PCI__WriteRegister16 00000000100e1950     guideXOS.obj
 0004:00045974       _unwind0guideXOS_guideXOS_Kernel_Drivers_PCI__GetVendorID 00000000100e1974     guideXOS.obj
 0004:00045998       _unwind0guideXOS_guideXOS_Kernel_Drivers_PCI__GetHeaderType 00000000100e1998     guideXOS.obj
 0004:000459bc       _unwind0guideXOS_guideXOS_Kernel_Drivers_PCI__GetAddressBase 00000000100e19bc     guideXOS.obj
 0004:000459c4       _unwind0guideXOS_guideXOS_Kernel_Drivers_PCIExpress__Initialize 00000000100e19c4     guideXOS.obj
 0004:000459e8       _unwind0guideXOS_guideXOS_Kernel_Drivers_PCIExpress__CheckBus 00000000100e19e8     guideXOS.obj
 0004:00045a58       _unwind0guideXOS_guideXOS_Kernel_Drivers_PIC__Disable 00000000100e1a58     guideXOS.obj
 0004:00045a98       _unwind0guideXOS_guideXOS_Kernel_Drivers_Power__Reboot 00000000100e1a98     guideXOS.obj
 0004:00045abc       _unwind0guideXOS_guideXOS_Kernel_Drivers_PS2Keyboard__Initialize 00000000100e1abc     guideXOS.obj
 0004:00045ae8       _unwind0guideXOS_guideXOS_Kernel_Drivers_PS2Keyboard__OnInterrupt 00000000100e1ae8     guideXOS.obj
 0004:00045b18       _unwind0guideXOS_guideXOS_Kernel_Drivers_PS2Keyboard__TranslateSet2ToSet1 00000000100e1b18     guideXOS.obj
 0004:00045b24       _unwind0guideXOS_guideXOS_Kernel_Drivers_PS2Keyboard__UpdateModifiers 00000000100e1b24     guideXOS.obj
 0004:00045b34       _unwind0guideXOS_guideXOS_Kernel_Drivers_PS2Keyboard__ScancodeToKey 00000000100e1b34     guideXOS.obj
 0004:00045b40       _unwind0guideXOS_guideXOS_Kernel_Drivers_PS2Keyboard__GetChar 00000000100e1b40     guideXOS.obj
 0004:00045b60       _unwind0guideXOS_guideXOS_Kernel_Drivers_PS2Mouse__Initialise 00000000100e1b60     guideXOS.obj
 0004:00045bc4       _unwind0guideXOS_guideXOS_Kernel_Drivers_PS2Mouse__WriteRegister 00000000100e1bc4     guideXOS.obj
 0004:00045bf0       _unwind0guideXOS_guideXOS_Kernel_Drivers_PS2Mouse__OnInterrupt 00000000100e1bf0     guideXOS.obj
 0004:00045c28       _unwind0guideXOS_guideXOS_Kernel_Drivers_Ramdisk__Read 00000000100e1c28     guideXOS.obj
 0004:00045c44       _unwind0guideXOS_guideXOS_Kernel_Drivers_Ramdisk__Write 00000000100e1c44     guideXOS.obj
 0004:00045c60       _unwind0guideXOS_guideXOS_Kernel_Drivers_RTC__get_Second 00000000100e1c60     guideXOS.obj
 0004:00045c84       _unwind0guideXOS_guideXOS_Kernel_Drivers_RTC__get_Minute 00000000100e1c84     guideXOS.obj
 0004:00045ca8       _unwind0guideXOS_guideXOS_Kernel_Drivers_RTC__get_Hour 00000000100e1ca8     guideXOS.obj
 0004:00045ccc       _unwind0guideXOS_guideXOS_Kernel_Drivers_RTC__get_Century 00000000100e1ccc     guideXOS.obj
 0004:00045cf0       _unwind0guideXOS_guideXOS_Kernel_Drivers_RTC__get_Year 00000000100e1cf0     guideXOS.obj
 0004:00045d14       _unwind0guideXOS_guideXOS_Kernel_Drivers_RTC__get_Month 00000000100e1d14     guideXOS.obj
 0004:00045d38       _unwind0guideXOS_guideXOS_Kernel_Drivers_RTC__get_Day 00000000100e1d38     guideXOS.obj
 0004:00045d5c       _unwind0guideXOS_guideXOS_Kernel_Drivers_SATA__Initialize 00000000100e1d5c     guideXOS.obj
 0004:00045e18       _unwind0guideXOS_guideXOS_Kernel_Drivers_SATA__CheckPortType 00000000100e1e18     guideXOS.obj
 0004:00045e20       _unwind0guideXOS_guideXOS_Kernel_Drivers_Serial__Initialise 00000000100e1e20     guideXOS.obj
 0004:00045e54       _unwind0guideXOS_guideXOS_Kernel_Drivers_Serial__Write_0 00000000100e1e54     guideXOS.obj
 0004:00045e74       _unwind0guideXOS_guideXOS_Kernel_Drivers_SMBIOS__Initialise 00000000100e1e74     guideXOS.obj
 0004:00045e9c       _unwind0guideXOS_guideXOS_Kernel_Drivers_SMBIOS__PrintIndex 00000000100e1e9c     guideXOS.obj
 0004:00045eb4       _unwind0guideXOS_guideXOS_Kernel_Drivers_Timer__Initialize 00000000100e1eb4     guideXOS.obj
 0004:00045ed4       _unwind0guideXOS_guideXOS_Kernel_Drivers_Timer__EstimateCPUSpeed 00000000100e1ed4     guideXOS.obj
 0004:00045ef8       _unwind0guideXOS_guideXOS_Kernel_Drivers_Timer__OnInterrupt 00000000100e1ef8     guideXOS.obj
 0004:00045f0c       _unwind0guideXOS_guideXOS_Kernel_Drivers_Timer__Sleep 00000000100e1f0c     guideXOS.obj
 0004:00045f2c       _unwind0guideXOS_guideXOS_Kernel_Drivers_USBMSCBot__TryCreateDisk 00000000100e1f2c     guideXOS.obj
 0004:00045f50       _unwind0guideXOS_guideXOS_Kernel_Drivers_VMWareSVGAII___ctor 00000000100e1f50     guideXOS.obj
 0004:00045f8c       _unwind0guideXOS_guideXOS_Kernel_Drivers_VMWareSVGAII__InitializeFIFO 00000000100e1f8c     guideXOS.obj
 0004:00045fc0       _unwind0guideXOS_guideXOS_Kernel_Drivers_VMWareSVGAII__SetMode 00000000100e1fc0     guideXOS.obj
 0004:00046008       _unwind0guideXOS_guideXOS_Kernel_Drivers_VMwareTools__Initialize 00000000100e2008     guideXOS.obj
 0004:00046018       _unwind0guideXOS_guideXOS_Kernel_Drivers_VMwareTools__vmware_handle_mouse 00000000100e2018     guideXOS.obj
 0004:00046044       _unwind0guideXOS_guideXOS_Kernel_Drivers_VMwareTools__mouse_absolute 00000000100e2044     guideXOS.obj
 0004:0004606c       _unwind0guideXOS_guideXOS_Kernel_Drivers_VMwareTools__is_vmware_backdoor 00000000100e206c     guideXOS.obj
 0004:0004608c       _unwind0guideXOS_guideXOS_Kernel_Drivers_USBStorage__Register 00000000100e208c     guideXOS.obj
 0004:000460a4       _unwind0guideXOS_guideXOS_Kernel_Drivers_USBStorage__GetFirst 00000000100e20a4     guideXOS.obj
 0004:000460b0       _unwind0guideXOS_guideXOS_Kernel_Drivers_USBStorage___cctor 00000000100e20b0     guideXOS.obj
 0004:000460c0       _unwind0guideXOS_guideXOS_OS_AppCollection___ctor 00000000100e20c0     guideXOS.obj
 0004:000460e4       _unwind0guideXOS_guideXOS_OS_AppCollection__LoadDefaultApps 00000000100e20e4     guideXOS.obj
 0004:00046128       _unwind0guideXOS_guideXOS_OS_AppCollection__Load 00000000100e2128     guideXOS.obj
 0004:0004620c       _unwind0guideXOS_guideXOS_OS_AppCollection__LaunchGXMFromFile 00000000100e220c     guideXOS.obj
 0004:00046244       _unwind0guideXOS_guideXOS_OS_AuthClient__JsonEscape 00000000100e2244     guideXOS.obj
 0004:0004627c       _unwind0guideXOS_guideXOS_OS_AuthClient__ParseGuidFromJson 00000000100e227c     guideXOS.obj
 0004:00046294       _unwind0guideXOS_guideXOS_OS_AuthClient__IndexOfIgnoreCase 00000000100e2294     guideXOS.obj
 0004:000462c4       _unwind0guideXOS_guideXOS_OS_AuthClient__IndexOfFrom 00000000100e22c4     guideXOS.obj
 0004:000462dc       _unwind0guideXOS_guideXOS_OS_AuthClient__TryLogin 00000000100e22dc     guideXOS.obj
 0004:00046304       _unwind0guideXOS_guideXOS_OS_AuthClient__TryRegister 00000000100e2304     guideXOS.obj
 0004:0004632c       _unwind0guideXOS_guideXOS_OS_Firewall__ListHas 00000000100e232c     guideXOS.obj
 0004:00046340       _unwind0guideXOS_guideXOS_OS_Firewall__Initialize 00000000100e2340     guideXOS.obj
 0004:00046358       _unwind0guideXOS_guideXOS_OS_Firewall__get_Exceptions 00000000100e2358     guideXOS.obj
 0004:00046388       _unwind0guideXOS_guideXOS_OS_Firewall__AddException 00000000100e2388     guideXOS.obj
 0004:000463a0       _unwind0guideXOS_guideXOS_OS_Firewall__Check 00000000100e23a0     guideXOS.obj
 0004:000463bc       _unwind0guideXOS_guideXOS_OS_Firewall__QueueAlert 00000000100e23bc     guideXOS.obj
 0004:000463dc       _unwind0guideXOS_guideXOS_OS_Firewall__ShowAlert 00000000100e23dc     guideXOS.obj
 0004:000463f4       _unwind0guideXOS_guideXOS_OS_Firewall__RemoveAlert 00000000100e23f4     guideXOS.obj
 0004:0004640c       _unwind0guideXOS_guideXOS_OS_Firewall___cctor 00000000100e240c     guideXOS.obj
 0004:00046424       _unwind0guideXOS_guideXOS_Modules_ModuleManager__Register 00000000100e2424     guideXOS.obj
 0004:0004643c       _unwind0guideXOS_guideXOS_Modules_ModuleManager__InitializeBuiltins 00000000100e243c     guideXOS.obj
 0004:00046470       _unwind0guideXOS_guideXOS_Modules_ModuleManager___cctor 00000000100e2470     guideXOS.obj
 0004:00046480       _unwind0guideXOS_guideXOS_GUI_BackgroundRotationManager__Initialize 00000000100e2480     guideXOS.obj
 0004:00046524       _unwind1guideXOS_guideXOS_GUI_BackgroundRotationManager__Initialize 00000000100e2524     guideXOS.obj
 0004:0004653c       _unwind0guideXOS_guideXOS_GUI_BackgroundRotationManager__LoadBackgroundPaths 00000000100e253c     guideXOS.obj
 0004:00046598       _unwind0guideXOS_guideXOS_GUI_BackgroundRotationManager__Update 00000000100e2598     guideXOS.obj
 0004:000465b4       _unwind0guideXOS_guideXOS_GUI_BackgroundRotationManager__RotateToNext 00000000100e25b4     guideXOS.obj
 0004:00046638       _unwind1guideXOS_guideXOS_GUI_BackgroundRotationManager__RotateToNext 00000000100e2638     guideXOS.obj
 0004:00046650       _unwind0guideXOS_guideXOS_GUI_BackgroundRotationManager__StartFadeTransition 00000000100e2650     guideXOS.obj
 0004:00046664       _unwind0guideXOS_guideXOS_GUI_BackgroundRotationManager__DrawBackground 00000000100e2664     guideXOS.obj
 0004:00046678       _unwind0guideXOS_guideXOS_GUI_Busy__Pop 00000000100e2678     guideXOS.obj
 0004:00046684       _unwind0guideXOS_guideXOS_GUI_Desktop__Initialize 00000000100e2684     guideXOS.obj
 0004:000466b4       _unwind0guideXOS_guideXOS_GUI_Desktop__ClearDirCache 00000000100e26b4     guideXOS.obj
 0004:000466e0       _unwind0guideXOS_guideXOS_GUI_Desktop__GetDirectoryEntries 00000000100e26e0     guideXOS.obj
 0004:000466fc       _unwind0guideXOS_guideXOS_GUI_Desktop__IsMouseOverAnyVisibleWindow 00000000100e26fc     guideXOS.obj
 0004:00046728       _unwind0guideXOS_guideXOS_GUI_Desktop__SetIconSize 00000000100e2728     guideXOS.obj
 0004:00046734       _unwind0guideXOS_guideXOS_GUI_Desktop__Update 00000000100e2734     guideXOS.obj
 0004:00046b8c       _unwind0guideXOS_guideXOS_GUI_Desktop__ClickEvent 00000000100e2b8c     guideXOS.obj
 0004:00046bc4       _unwind0guideXOS_guideXOS_GUI_Desktop__OnClick 00000000100e2bc4     guideXOS.obj
 0004:00046ec0       _unwind0guideXOS_guideXOS_GUI_DisplayOptions___ctor 00000000100e2ec0     guideXOS.obj
 0004:00046fa0       _unwind0guideXOS_guideXOS_GUI_DisplayOptions__LoadBackgrounds 00000000100e2fa0     guideXOS.obj
 0004:00047168       _unwind1guideXOS_guideXOS_GUI_DisplayOptions__LoadBackgrounds 00000000100e3168     guideXOS.obj
 0004:00047180       _unwind2guideXOS_guideXOS_GUI_DisplayOptions__LoadBackgrounds 00000000100e3180     guideXOS.obj
 0004:00047198       _unwind0guideXOS_guideXOS_GUI_DisplayOptions__LoadFonts 00000000100e3198     guideXOS.obj
 0004:000471e4       _unwind0guideXOS_guideXOS_GUI_DisplayOptions__OnInput 00000000100e31e4     guideXOS.obj
 0004:00047430       _unwind1guideXOS_guideXOS_GUI_DisplayOptions__OnInput 00000000100e3430     guideXOS.obj
 0004:00047448       _unwind0guideXOS_guideXOS_GUI_DisplayOptions__RevertResolution 00000000100e3448     guideXOS.obj
 0004:00047474       _unwind0guideXOS_guideXOS_GUI_DisplayOptions__ApplyGradient 00000000100e3474     guideXOS.obj
 0004:000474a4       _unwind0guideXOS_guideXOS_GUI_DisplayOptions__CreateGradient 00000000100e34a4     guideXOS.obj
 0004:000474f4       _unwind0guideXOS_guideXOS_GUI_DisplayOptions__DrawGradientPreview 00000000100e34f4     guideXOS.obj
 0004:00047540       _unwind0guideXOS_guideXOS_GUI_DisplayOptions__ApplyFont 00000000100e3540     guideXOS.obj
 0004:000475d0       _unwind1guideXOS_guideXOS_GUI_DisplayOptions__ApplyFont 00000000100e35d0     guideXOS.obj
 0004:000475e4       _unwind0guideXOS_guideXOS_GUI_DisplayOptions__OnDraw 00000000100e35e4     guideXOS.obj
 0004:00047c0c       _unwind0guideXOS_guideXOS_GUI_DisplayOptions__Dispose 00000000100e3c0c     guideXOS.obj
 0004:00047c68       _unwind0guideXOS_guideXOS_GUI_ColorPicker__OnInput 00000000100e3c68     guideXOS.obj
 0004:00047c9c       _unwind0guideXOS_guideXOS_GUI_ColorPicker__OnDraw 00000000100e3c9c     guideXOS.obj
 0004:00047cd8       _unwind0guideXOS_guideXOS_GUI_ColorPicker__SampleColor 00000000100e3cd8     guideXOS.obj
 0004:00047ce0       _unwind0guideXOS_guideXOS_GUI_DockableWidget__HandleDragging 00000000100e3ce0     guideXOS.obj
 0004:00047d00       _unwind0guideXOS_guideXOS_GUI_DockableWidget__CheckForDocking 00000000100e3d00     guideXOS.obj
 0004:00047d5c       _unwind0guideXOS_guideXOS_GUI_DockableWidget__IsNearWidget 00000000100e3d5c     guideXOS.obj
 0004:00047d64       _unwind0guideXOS_guideXOS_GUI_DockableWidget__CreateContainerWith 00000000100e3d64     guideXOS.obj
 0004:00047d88       _unwind0guideXOS_guideXOS_GUI_DockableWidget__UndockFromContainer 00000000100e3d88     guideXOS.obj
 0004:00047d98       _unwind0guideXOS_guideXOS_GUI_DockableWidget__DrawCloseButton 00000000100e3d98     guideXOS.obj
 0004:00047dc0       _unwind0guideXOS_guideXOS_GUI_GXMScriptWindow___ctor 00000000100e3dc0     guideXOS.obj
 0004:00047dfc       _unwind0guideXOS_guideXOS_GUI_GXMScriptWindow__AddTextBox 00000000100e3dfc     guideXOS.obj
 0004:00047e18       _unwind0guideXOS_guideXOS_GUI_GXMScriptWindow__AddList 00000000100e3e18     guideXOS.obj
 0004:00047e70       _unwind0guideXOS_guideXOS_GUI_GXMScriptWindow__AddDropdown 00000000100e3e70     guideXOS.obj
 0004:00047ec8       _unwind0guideXOS_guideXOS_GUI_GXMScriptWindow__AddOnClick 00000000100e3ec8     guideXOS.obj
 0004:00047ee0       _unwind0guideXOS_guideXOS_GUI_GXMScriptWindow__AddOnChange 00000000100e3ee0     guideXOS.obj
 0004:00047ef8       _unwind0guideXOS_guideXOS_GUI_GXMScriptWindow__AddOnTextChange 00000000100e3ef8     guideXOS.obj
 0004:00047f10       _unwind0guideXOS_guideXOS_GUI_GXMScriptWindow__Keyboard_OnKeyChanged 00000000100e3f10     guideXOS.obj
 0004:00047fa8       _unwind0guideXOS_guideXOS_GUI_GXMScriptWindow__MapFromKey 00000000100e3fa8     guideXOS.obj
 0004:00047fb8       _unwind0guideXOS_guideXOS_GUI_GXMScriptWindow__OnInput 00000000100e3fb8     guideXOS.obj
 0004:00048054       _unwind0guideXOS_guideXOS_GUI_GXMScriptWindow__RunActions 00000000100e4054     guideXOS.obj
 0004:000480a4       _unwind0guideXOS_guideXOS_GUI_GXMScriptWindow__ExecuteAction 00000000100e40a4     guideXOS.obj
 0004:0004819c       _unwind0guideXOS_guideXOS_GUI_GXMScriptWindow__ExecuteTextAction 00000000100e419c     guideXOS.obj
 0004:000481c8       _unwind0guideXOS_guideXOS_GUI_GXMScriptWindow__ReplaceToken 00000000100e41c8     guideXOS.obj
 0004:000481fc       _unwind0guideXOS_guideXOS_GUI_GXMScriptWindow__IndexOf 00000000100e41fc     guideXOS.obj
 0004:0004822c       _unwind0guideXOS_guideXOS_GUI_GXMScriptWindow__SaveFileAction 00000000100e422c     guideXOS.obj
 0004:00048348       _unwind1guideXOS_guideXOS_GUI_GXMScriptWindow__SaveFileAction 00000000100e4348     guideXOS.obj
 0004:00048360       _unwind0guideXOS_guideXOS_GUI_GXMScriptWindow__LoadFileAction 00000000100e4360     guideXOS.obj
 0004:00048538       _unwind1guideXOS_guideXOS_GUI_GXMScriptWindow__LoadFileAction 00000000100e4538     guideXOS.obj
 0004:00048550       _unwind0guideXOS_guideXOS_GUI_GXMScriptWindow__SaveTextFromTextBox 00000000100e4550     guideXOS.obj
 0004:00048600       _unwind1guideXOS_guideXOS_GUI_GXMScriptWindow__SaveTextFromTextBox 00000000100e4600     guideXOS.obj
 0004:00048618       _unwind0guideXOS_guideXOS_GUI_GXMScriptWindow__LoadTextIntoTextBox 00000000100e4618     guideXOS.obj
 0004:000486f4       _unwind1guideXOS_guideXOS_GUI_GXMScriptWindow__LoadTextIntoTextBox 00000000100e46f4     guideXOS.obj
 0004:0004870c       _unwind0guideXOS_guideXOS_GUI_GXMScriptWindow__OpenSaveDialogForTextBox 00000000100e470c     guideXOS.obj
 0004:00048738       _unwind0guideXOS_guideXOS_GUI_GXMScriptWindow__OpenOpenDialogForTextBox 00000000100e4738     guideXOS.obj
 0004:0004875c       _unwind0guideXOS_guideXOS_GUI_GXMScriptWindow__LoadAndExecuteScript 00000000100e475c     guideXOS.obj
 0004:0004885c       _unwind1guideXOS_guideXOS_GUI_GXMScriptWindow__LoadAndExecuteScript 00000000100e485c     guideXOS.obj
 0004:00048874       _unwind0guideXOS_guideXOS_GUI_GXMScriptWindow__Notify 00000000100e4874     guideXOS.obj
 0004:000488a0       _unwind0guideXOS_guideXOS_GUI_GXMScriptWindow__OnDraw 00000000100e48a0     guideXOS.obj
 0004:00048908       _unwind0guideXOS_guideXOS_GUI_GXMScriptWindow__Dispose 00000000100e4908     guideXOS.obj
 0004:00048b6c       _unwind0guideXOS_guideXOS_GUI_GXMScriptWindow___OpenSaveDialogForTextBox_b__39_0 00000000100e4b6c     guideXOS.obj
 0004:00048c10       _unwind1guideXOS_guideXOS_GUI_GXMScriptWindow___OpenSaveDialogForTextBox_b__39_0 00000000100e4c10     guideXOS.obj
 0004:00048c28       _unwind0guideXOS_guideXOS_GUI_GXMScriptWindow___OpenOpenDialogForTextBox_b__40_0 00000000100e4c28     guideXOS.obj
 0004:00048cdc       _unwind1guideXOS_guideXOS_GUI_GXMScriptWindow___OpenOpenDialogForTextBox_b__40_0 00000000100e4cdc     guideXOS.obj
 0004:00048cf4       _unwind0guideXOS_guideXOS_GUI_IconsPrivate___ctor 00000000100e4cf4     guideXOS.obj
 0004:00048e40       _unwind0guideXOS_guideXOS_GUI_IconsPrivate__LoadIcon 00000000100e4e40     guideXOS.obj
 0004:00048ea4       _unwind1guideXOS_guideXOS_GUI_IconsPrivate__LoadIcon 00000000100e4ea4     guideXOS.obj
 0004:00048eb4       _unwind0guideXOS_guideXOS_GUI_Icons__ConfigureIcon 00000000100e4eb4     guideXOS.obj
 0004:00048ec4       _unwind0guideXOS_guideXOS_GUI_Icons__NotepadIcon 00000000100e4ec4     guideXOS.obj
 0004:00048ed4       _unwind0guideXOS_guideXOS_GUI_Icons__ApplicationsIcon 00000000100e4ed4     guideXOS.obj
 0004:00048ee4       _unwind0guideXOS_guideXOS_GUI_Icons__EditIcon 00000000100e4ee4     guideXOS.obj
 0004:00048ef4       _unwind0guideXOS_guideXOS_GUI_Icons__AudioPauseIcon 00000000100e4ef4     guideXOS.obj
 0004:00048f04       _unwind0guideXOS_guideXOS_GUI_Icons__CalculatorIcon 00000000100e4f04     guideXOS.obj
 0004:00048f14       _unwind0guideXOS_guideXOS_GUI_Icons__AudioPlayIcon 00000000100e4f14     guideXOS.obj
 0004:00048f24       _unwind0guideXOS_guideXOS_GUI_Icons__DocumentIcon 00000000100e4f24     guideXOS.obj
 0004:00048f34       _unwind0guideXOS_guideXOS_GUI_Icons__ImageIcon 00000000100e4f34     guideXOS.obj
 0004:00048f44       _unwind0guideXOS_guideXOS_GUI_Icons__AudioIcon 00000000100e4f44     guideXOS.obj
 0004:00048f54       _unwind0guideXOS_guideXOS_GUI_Icons__FolderIcon 00000000100e4f54     guideXOS.obj
 0004:00048f64       _unwind0guideXOS_guideXOS_GUI_Icons__TaskbarIcon 00000000100e4f64     guideXOS.obj
 0004:00048f74       _unwind0guideXOS_guideXOS_GUI_Icons__TaskbarIconOver 00000000100e4f74     guideXOS.obj
 0004:00048f84       _unwind0guideXOS_guideXOS_GUI_Icons__TaskbarIconDown 00000000100e4f84     guideXOS.obj
 0004:00048f94       _unwind0guideXOS_guideXOS_GUI_Icons___cctor 00000000100e4f94     guideXOS.obj
 0004:00048fb4       _unwind0guideXOS_guideXOS_GUI_Lockscreen__Run 00000000100e4fb4     guideXOS.obj
 0004:00049028       _unwind0guideXOS_guideXOS_GUI_Lockscreen__DrawLockscreenUI 00000000100e5028     guideXOS.obj
 0004:000490e4       _unwind0guideXOS_guideXOS_GUI_MessageBox___ctor 00000000100e50e4     guideXOS.obj
 0004:000490f8       _unwind0guideXOS_guideXOS_GUI_MessageBox__OnDraw 00000000100e50f8     guideXOS.obj
 0004:0004910c       _unwind0guideXOS_guideXOS_GUI_NetworkConfigurationDialog___ctor 00000000100e510c     guideXOS.obj
 0004:00049134       _unwind0guideXOS_guideXOS_GUI_NetworkConfigurationDialog__LoadCurrentConfig 00000000100e5134     guideXOS.obj
 0004:00049168       _unwind0guideXOS_guideXOS_GUI_NetworkConfigurationDialog__Keyboard_OnKeyChanged 00000000100e5168     guideXOS.obj
 0004:00049194       _unwind0guideXOS_guideXOS_GUI_NetworkConfigurationDialog__OnInput 00000000100e5194     guideXOS.obj
 0004:000491f4       _unwind0guideXOS_guideXOS_GUI_NetworkConfigurationDialog__GetOctetArray 00000000100e51f4     guideXOS.obj
 0004:000491fc       _unwind0guideXOS_guideXOS_GUI_NetworkConfigurationDialog__ApplyConfiguration 00000000100e51fc     guideXOS.obj
 0004:000492bc       _unwind1guideXOS_guideXOS_GUI_NetworkConfigurationDialog__ApplyConfiguration 00000000100e52bc     guideXOS.obj
 0004:000492d4       _unwind2guideXOS_guideXOS_GUI_NetworkConfigurationDialog__ApplyConfiguration 00000000100e52d4     guideXOS.obj
 0004:000492ec       _unwind0guideXOS_guideXOS_GUI_NetworkConfigurationDialog__ParseOctet 00000000100e52ec     guideXOS.obj
 0004:00049308       _unwind0guideXOS_guideXOS_GUI_NetworkConfigurationDialog__OnDraw 00000000100e5308     guideXOS.obj
 0004:00049384       _unwind0guideXOS_guideXOS_GUI_NetworkConfigurationDialog__DrawRadioButton 00000000100e5384     guideXOS.obj
 0004:000493b4       _unwind0guideXOS_guideXOS_GUI_NetworkConfigurationDialog__DrawIPFields 00000000100e53b4     guideXOS.obj
 0004:0004940c       _unwind0guideXOS_guideXOS_GUI_NetworkConfigurationDialog__DrawButton 00000000100e540c     guideXOS.obj
 0004:00049438       _unwind0guideXOS_guideXOS_GUI_NetworkConfigurationDialog__Dispose 00000000100e5438     guideXOS.obj
 0004:00049460       _unwind0guideXOS_guideXOS_GUI_Notify___ctor 00000000100e5460     guideXOS.obj
 0004:0004947c       _unwind0guideXOS_guideXOS_GUI_Notify__Dispose 00000000100e547c     guideXOS.obj
 0004:000494a8       _unwind0guideXOS_guideXOS_GUI_NotificationManager__Add 00000000100e54a8     guideXOS.obj
 0004:000494bc       _unwind0guideXOS_guideXOS_GUI_OnScreenKeyboard__OnInput 00000000100e54bc     guideXOS.obj
 0004:0004951c       _unwind0guideXOS_guideXOS_GUI_OnScreenKeyboard__SendKey 00000000100e551c     guideXOS.obj
 0004:00049530       _unwind0guideXOS_guideXOS_GUI_OnScreenKeyboard__CharToConsoleKey 00000000100e5530     guideXOS.obj
 0004:0004953c       _unwind0guideXOS_guideXOS_GUI_OnScreenKeyboard__OnDraw 00000000100e553c     guideXOS.obj
 0004:000495b4       _unwind0guideXOS_guideXOS_GUI_OnScreenKeyboard__DrawKey 00000000100e55b4     guideXOS.obj
 0004:000495dc       _unwind0guideXOS_guideXOS_GUI_OnScreenKeyboard__DrawSpecialKey 00000000100e55dc     guideXOS.obj
 0004:00049604       _unwind0guideXOS_guideXOS_GUI_OnScreenKeyboard___cctor 00000000100e5604     guideXOS.obj
 0004:00049618       _unwind0guideXOS_guideXOS_GUI_OpenDialog___ctor 00000000100e5618     guideXOS.obj
 0004:0004963c       _unwind0guideXOS_guideXOS_GUI_OpenDialog__Keyboard_OnKeyChanged 00000000100e563c     guideXOS.obj
 0004:0004967c       _unwind0guideXOS_guideXOS_GUI_OpenDialog__VisibleRows 00000000100e567c     guideXOS.obj
 0004:00049684       _unwind0guideXOS_guideXOS_GUI_OpenDialog__RefreshEntries 00000000100e5684     guideXOS.obj
 0004:000496b4       _unwind0guideXOS_guideXOS_GUI_OpenDialog__GoUp 00000000100e56b4     guideXOS.obj
 0004:000496cc       _unwind0guideXOS_guideXOS_GUI_OpenDialog__OpenSelected 00000000100e56cc     guideXOS.obj
 0004:000496f8       _unwind0guideXOS_guideXOS_GUI_OpenDialog__OnInput 00000000100e56f8     guideXOS.obj
 0004:00049720       _unwind0guideXOS_guideXOS_GUI_OpenDialog__OnDraw 00000000100e5720     guideXOS.obj
 0004:00049794       _unwind0guideXOS_guideXOS_GUI_PinnedManager__IsPinned 00000000100e5794     guideXOS.obj
 0004:000497ac       _unwind0guideXOS_guideXOS_GUI_PinnedManager__PinApp 00000000100e57ac     guideXOS.obj
 0004:000497cc       _unwind0guideXOS_guideXOS_GUI_PinnedManager__PinFile 00000000100e57cc     guideXOS.obj
 0004:000497f4       _unwind0guideXOS_guideXOS_GUI_PinnedManager__PinComputerFiles 00000000100e57f4     guideXOS.obj
 0004:00049810       _unwind0guideXOS_guideXOS_GUI_PinnedManager___cctor 00000000100e5810     guideXOS.obj
 0004:00049820       _unwind0guideXOS_guideXOS_GUI_RecentManager__AddProgram 00000000100e5820     guideXOS.obj
 0004:00049854       _unwind0guideXOS_guideXOS_GUI_RecentManager__AddDocument 00000000100e5854     guideXOS.obj
 0004:00049888       _unwind0guideXOS_guideXOS_GUI_RecentManager___cctor 00000000100e5888     guideXOS.obj
 0004:000498a0       _unwind0guideXOS_guideXOS_GUI_RightMenu___ctor 00000000100e58a0     guideXOS.obj
 0004:000498b0       _unwind0guideXOS_guideXOS_GUI_RightMenu__OnSetVisible 00000000100e58b0     guideXOS.obj
 0004:000498c0       _unwind0guideXOS_guideXOS_GUI_RightMenu__OnInput 00000000100e58c0     guideXOS.obj
 0004:00049950       _unwind0guideXOS_guideXOS_GUI_RightMenu__Hit 00000000100e5950     guideXOS.obj
 0004:00049958       _unwind0guideXOS_guideXOS_GUI_RightMenu__OnDraw 00000000100e5958     guideXOS.obj
 0004:000499bc       _unwind0guideXOS_guideXOS_GUI_SaveChangesDialog___ctor 00000000100e59bc     guideXOS.obj
 0004:000499d4       _unwind0guideXOS_guideXOS_GUI_SaveChangesDialog__OnInput 00000000100e59d4     guideXOS.obj
 0004:000499fc       _unwind0guideXOS_guideXOS_GUI_SaveChangesDialog__OnDraw 00000000100e59fc     guideXOS.obj
 0004:00049a30       _unwind0guideXOS_guideXOS_GUI_SaveDialog___ctor 00000000100e5a30     guideXOS.obj
 0004:00049a5c       _unwind0guideXOS_guideXOS_GUI_SaveDialog__RefreshEntries 00000000100e5a5c     guideXOS.obj
 0004:00049a8c       _unwind0guideXOS_guideXOS_GUI_SaveDialog__GoUp 00000000100e5a8c     guideXOS.obj
 0004:00049aa4       _unwind0guideXOS_guideXOS_GUI_SaveDialog__Keyboard_OnKeyChanged 00000000100e5aa4     guideXOS.obj
 0004:00049ae0       _unwind0guideXOS_guideXOS_GUI_SaveDialog__VisibleRows 00000000100e5ae0     guideXOS.obj
 0004:00049ae8       _unwind0guideXOS_guideXOS_GUI_SaveDialog__StartsWithFast 00000000100e5ae8     guideXOS.obj
 0004:00049b14       _unwind0guideXOS_guideXOS_GUI_SaveDialog__FuzzyResolveIfUnique 00000000100e5b14     guideXOS.obj
 0004:00049b68       _unwind0guideXOS_guideXOS_GUI_SaveDialog__SaveAction 00000000100e5b68     guideXOS.obj
 0004:00049b90       _unwind0guideXOS_guideXOS_GUI_SaveDialog__OnInput 00000000100e5b90     guideXOS.obj
 0004:00049bb8       _unwind0guideXOS_guideXOS_GUI_SaveDialog__OnDraw 00000000100e5bb8     guideXOS.obj
 0004:00049c1c       _unwind0guideXOS_guideXOS_GUI_ShutdownDialog___ctor 00000000100e5c1c     guideXOS.obj
 0004:00049c2c       _unwind0guideXOS_guideXOS_GUI_ShutdownDialog__OnInput 00000000100e5c2c     guideXOS.obj
 0004:00049c48       _unwind0guideXOS_guideXOS_GUI_ShutdownDialog__OnDraw 00000000100e5c48     guideXOS.obj
 0004:00049c80       _unwind0guideXOS_guideXOS_GUI_StartMenu___ctor 00000000100e5c80     guideXOS.obj
 0004:00049c90       _unwind0guideXOS_guideXOS_GUI_StartMenu__OnSetVisible 00000000100e5c90     guideXOS.obj
 0004:00049ca8       _unwind0guideXOS_guideXOS_GUI_StartMenu__BuildBackgroundBlurCache 00000000100e5ca8     guideXOS.obj
 0004:00049d68       _unwind0guideXOS_guideXOS_GUI_StartMenu__RefreshRecentCacheIfNeeded 00000000100e5d68     guideXOS.obj
 0004:00049dc0       _unwind0guideXOS_guideXOS_GUI_StartMenu__OnInput 00000000100e5dc0     guideXOS.obj
 0004:0004a018       _unwind0guideXOS_guideXOS_GUI_StartMenu__OnDraw 00000000100e6018     guideXOS.obj
 0004:0004a738       _unwind0guideXOS_guideXOS_GUI_StartMenu__ToggleAllPrograms 00000000100e6738     guideXOS.obj
 0004:0004a748       _unwind0guideXOS_guideXOS_GUI_StartMenu__BuildAllProgramsOrder 00000000100e6748     guideXOS.obj
 0004:0004a810       _unwind0guideXOS_guideXOS_GUI_StartMenu__CompareIgnoreCase 00000000100e6810     guideXOS.obj
 0004:0004a838       _unwind0guideXOS_guideXOS_GUI_StartMenu__TruncateToWidth 00000000100e6838     guideXOS.obj
 0004:0004a868       _unwind0guideXOS_guideXOS_GUI_Taskbar___ctor 00000000100e6868     guideXOS.obj
 0004:0004a880       _unwind0guideXOS_guideXOS_GUI_Taskbar__DrawWorkspaceSwitcher 00000000100e6880     guideXOS.obj
 0004:0004a890       _unwind0guideXOS_guideXOS_GUI_Taskbar__Draw 00000000100e6890     guideXOS.obj
 0004:0004af0c       _unwind0guideXOS_guideXOS_GUI_Taskbar__ToggleShowDesktop 00000000100e6f0c     guideXOS.obj
 0004:0004af60       _unwind0guideXOS_guideXOS_GUI_Taskbar__OpenOnScreenKeyboard 00000000100e6f60     guideXOS.obj
 0004:0004afb0       _unwind0guideXOS_guideXOS_GUI_TaskbarMenu__OnSetVisible 00000000100e6fb0     guideXOS.obj
 0004:0004afc4       _unwind0guideXOS_guideXOS_GUI_TaskbarMenu__OnInput 00000000100e6fc4     guideXOS.obj
 0004:0004b004       _unwind0guideXOS_guideXOS_GUI_TaskbarMenu__OnDraw 00000000100e7004     guideXOS.obj
 0004:0004b028       _unwind0guideXOS_guideXOS_GUI_UI__IsMouseOver 00000000100e7028     guideXOS.obj
 0004:0004b03c       _unwind0guideXOS_guideXOS_GUI_UI__ButtonFillColor 00000000100e703c     guideXOS.obj
 0004:0004b04c       _unwind0guideXOS_guideXOS_GUI_UIPrimitives__AFillRoundedRect 00000000100e704c     guideXOS.obj
 0004:0004b088       _unwind0guideXOS_guideXOS_GUI_UIPrimitives__AFillRoundedRectTop 00000000100e7088     guideXOS.obj
 0004:0004b0bc       _unwind0guideXOS_guideXOS_GUI_UIPrimitives__DrawRoundedRect 00000000100e70bc     guideXOS.obj
 0004:0004b124       _unwind0guideXOS_guideXOS_GUI_UIPrimitives__CornerInset 00000000100e7124     guideXOS.obj
 0004:0004b12c       _unwind0guideXOS_guideXOS_GUI_USBDrives__RefreshList 00000000100e712c     guideXOS.obj
 0004:0004b1a8       _unwind0guideXOS_guideXOS_GUI_USBDrives__FormatSize 00000000100e71a8     guideXOS.obj
 0004:0004b1c0       _unwind0guideXOS_guideXOS_GUI_USBDrives__OnInput 00000000100e71c0     guideXOS.obj
 0004:0004b20c       _unwind0guideXOS_guideXOS_GUI_USBDrives__OnDraw 00000000100e720c     guideXOS.obj
 0004:0004b2ac       _unwind0guideXOS_guideXOS_GUI_USBFiles___ctor 00000000100e72ac     guideXOS.obj
 0004:0004b2c8       _unwind0guideXOS_guideXOS_GUI_USBFiles__LoadIcons 00000000100e72c8     guideXOS.obj
 0004:0004b2fc       _unwind1guideXOS_guideXOS_GUI_USBFiles__LoadIcons 00000000100e72fc     guideXOS.obj
 0004:0004b308       _unwind2guideXOS_guideXOS_GUI_USBFiles__LoadIcons 00000000100e7308     guideXOS.obj
 0004:0004b314       _unwind0guideXOS_guideXOS_GUI_USBFiles__InitLocalFS 00000000100e7314     guideXOS.obj
 0004:0004b380       _unwind1guideXOS_guideXOS_GUI_USBFiles__InitLocalFS 00000000100e7380     guideXOS.obj
 0004:0004b390       _unwind2guideXOS_guideXOS_GUI_USBFiles__InitLocalFS 00000000100e7390     guideXOS.obj
 0004:0004b3a0       _unwind0guideXOS_guideXOS_GUI_USBFiles__RefreshEntries 00000000100e73a0     guideXOS.obj
 0004:0004b434       _unwind1guideXOS_guideXOS_GUI_USBFiles__RefreshEntries 00000000100e7434     guideXOS.obj
 0004:0004b44c       _unwind0guideXOS_guideXOS_GUI_USBFiles__OnInput 00000000100e744c     guideXOS.obj
 0004:0004b4b0       _unwind0guideXOS_guideXOS_GUI_USBFiles__OnDraw 00000000100e74b0     guideXOS.obj
 0004:0004b524       _unwind0guideXOS_guideXOS_GUI_VisualEffectsSettings___ctor 00000000100e7524     guideXOS.obj
 0004:0004b534       _unwind0guideXOS_guideXOS_GUI_VisualEffectsSettings__LoadSettings 00000000100e7534     guideXOS.obj
 0004:0004b544       _unwind0guideXOS_guideXOS_GUI_VisualEffectsSettings__OnInput 00000000100e7544     guideXOS.obj
 0004:0004b588       _unwind0guideXOS_guideXOS_GUI_VisualEffectsSettings__ProcessTabInput 00000000100e7588     guideXOS.obj
 0004:0004b5a0       _unwind0guideXOS_guideXOS_GUI_VisualEffectsSettings__ProcessAnimationsInput 00000000100e75a0     guideXOS.obj
 0004:0004b5c4       _unwind0guideXOS_guideXOS_GUI_VisualEffectsSettings__ProcessVisualEffectsInput 00000000100e75c4     guideXOS.obj
 0004:0004b5f4       _unwind0guideXOS_guideXOS_GUI_VisualEffectsSettings__ProcessWindowRenderingInput 00000000100e75f4     guideXOS.obj
 0004:0004b620       _unwind0guideXOS_guideXOS_GUI_VisualEffectsSettings__ProcessPerformanceInput 00000000100e7620     guideXOS.obj
 0004:0004b648       _unwind0guideXOS_guideXOS_GUI_VisualEffectsSettings__ProcessWidgetsInput 00000000100e7648     guideXOS.obj
 0004:0004b670       _unwind0guideXOS_guideXOS_GUI_VisualEffectsSettings__CheckCheckbox 00000000100e7670     guideXOS.obj
 0004:0004b678       _unwind0guideXOS_guideXOS_GUI_VisualEffectsSettings__CheckSlider 00000000100e7678     guideXOS.obj
 0004:0004b680       _unwind0guideXOS_guideXOS_GUI_VisualEffectsSettings__OnDraw 00000000100e7680     guideXOS.obj
 0004:0004b6d8       _unwind0guideXOS_guideXOS_GUI_VisualEffectsSettings__DrawAnimationsTab 00000000100e76d8     guideXOS.obj
 0004:0004b6fc       _unwind0guideXOS_guideXOS_GUI_VisualEffectsSettings__DrawVisualEffectsTab 00000000100e76fc     guideXOS.obj
 0004:0004b72c       _unwind0guideXOS_guideXOS_GUI_VisualEffectsSettings__DrawWindowRenderingTab 00000000100e772c     guideXOS.obj
 0004:0004b758       _unwind0guideXOS_guideXOS_GUI_VisualEffectsSettings__DrawPerformanceTab 00000000100e7758     guideXOS.obj
 0004:0004b77c       _unwind0guideXOS_guideXOS_GUI_VisualEffectsSettings__DrawWidgetsTab 00000000100e777c     guideXOS.obj
 0004:0004b7a4       _unwind0guideXOS_guideXOS_GUI_VisualEffectsSettings__DrawAboutTab 00000000100e77a4     guideXOS.obj
 0004:0004b7f8       _unwind0guideXOS_guideXOS_GUI_VisualEffectsSettings__DrawTitle 00000000100e77f8     guideXOS.obj
 0004:0004b81c       _unwind0guideXOS_guideXOS_GUI_VisualEffectsSettings__DrawSubtitle 00000000100e781c     guideXOS.obj
 0004:0004b840       _unwind0guideXOS_guideXOS_GUI_VisualEffectsSettings__DrawCheckboxWithLabel 00000000100e7840     guideXOS.obj
 0004:0004b858       _unwind0guideXOS_guideXOS_GUI_VisualEffectsSettings__DrawSliderWithLabel 00000000100e7858     guideXOS.obj
 0004:0004b888       _unwind0guideXOS_guideXOS_GUI_VisualEffectsSettings__DrawCheckbox 00000000100e7888     guideXOS.obj
 0004:0004b8ac       _unwind0guideXOS_guideXOS_GUI_VisualEffectsSettings__DrawSlider 00000000100e78ac     guideXOS.obj
 0004:0004b8d0       _unwind0guideXOS_guideXOS_GUI_VisualEffectsSettings__DrawScrollbar 00000000100e78d0     guideXOS.obj
 0004:0004b8f0       _unwind0guideXOS_guideXOS_GUI_VisualEffectsSettings__DrawButtons 00000000100e78f0     guideXOS.obj
 0004:0004b920       _unwind0guideXOS_guideXOS_GUI_VisualEffectsSettings__GetCurrentTabHeight 00000000100e7920     guideXOS.obj
 0004:0004b928       _unwind0guideXOS_guideXOS_GUI_VisualEffectsSettings__ApplySettings 00000000100e7928     guideXOS.obj
 0004:0004b940       _unwind0guideXOS_guideXOS_GUI_VisualEffectsSettings__ResetToDefaults 00000000100e7940     guideXOS.obj
 0004:0004b954       _unwind0guideXOS_guideXOS_GUI_WidgetContainer___ctor 00000000100e7954     guideXOS.obj
 0004:0004b968       _unwind0guideXOS_guideXOS_GUI_WidgetContainer__AddWidget 00000000100e7968     guideXOS.obj
 0004:0004b99c       _unwind0guideXOS_guideXOS_GUI_WidgetContainer__RemoveWidget 00000000100e799c     guideXOS.obj
 0004:0004b9b4       _unwind0guideXOS_guideXOS_GUI_WidgetContainer__UndockWidgetToPosition 00000000100e79b4     guideXOS.obj
 0004:0004b9cc       _unwind0guideXOS_guideXOS_GUI_WidgetContainer__UpdateLayout 00000000100e79cc     guideXOS.obj
 0004:0004b9e4       _unwind0guideXOS_guideXOS_GUI_WidgetContainer__OnInput 00000000100e79e4     guideXOS.obj
 0004:0004ba70       _unwind0guideXOS_guideXOS_GUI_WidgetContainer__UndockWidget 00000000100e7a70     guideXOS.obj
 0004:0004ba88       _unwind0guideXOS_guideXOS_GUI_WidgetContainer__OnDraw 00000000100e7a88     guideXOS.obj
 0004:0004bab4       _unwind0guideXOS_guideXOS_GUI_WidgetContainer__DrawCloseButton 00000000100e7ab4     guideXOS.obj
 0004:0004badc       _unwind0guideXOS_guideXOS_GUI_WidgetContainer__Dispose 00000000100e7adc     guideXOS.obj
 0004:0004bb04       _unwind0guideXOS_guideXOS_GUI_WidgetContextMenu___ctor 00000000100e7b04     guideXOS.obj
 0004:0004bb14       _unwind0guideXOS_guideXOS_GUI_WidgetContextMenu__OnInput 00000000100e7b14     guideXOS.obj
 0004:0004bb28       _unwind0guideXOS_guideXOS_GUI_WidgetContextMenu__OnDraw 00000000100e7b28     guideXOS.obj
 0004:0004bb58       _unwind0guideXOS_guideXOS_GUI_Window__set_Visible 00000000100e7b58     guideXOS.obj
 0004:0004bb7c       _unwind0guideXOS_guideXOS_GUI_Window___ctor 00000000100e7b7c     guideXOS.obj
 0004:0004bba0       _unwind0guideXOS_guideXOS_GUI_Window__BeginFadeIn 00000000100e7ba0     guideXOS.obj
 0004:0004bbb4       _unwind0guideXOS_guideXOS_GUI_Window__BeginFadeOutClose 00000000100e7bb4     guideXOS.obj
 0004:0004bbd8       _unwind0guideXOS_guideXOS_GUI_Window__BeginMinimize 00000000100e7bd8     guideXOS.obj
 0004:0004bbec       _unwind0guideXOS_guideXOS_GUI_Window__BeginRestore 00000000100e7bec     guideXOS.obj
 0004:0004bc00       _unwind0guideXOS_guideXOS_GUI_Window__UpdateAnimation 00000000100e7c00     guideXOS.obj
 0004:0004bc28       _unwind0guideXOS_guideXOS_GUI_Window__IsUnderMouse 00000000100e7c28     guideXOS.obj
 0004:0004bc38       _unwind0guideXOS_guideXOS_GUI_Window__OnSetVisible 00000000100e7c38     guideXOS.obj
 0004:0004bc48       _unwind0guideXOS_guideXOS_GUI_Window__DisposeBlurCache 00000000100e7c48     guideXOS.obj
 0004:0004bc6c       _unwind0guideXOS_guideXOS_GUI_Window__ComputeButtonRects 00000000100e7c6c     guideXOS.obj
 0004:0004bc74       _unwind0guideXOS_guideXOS_GUI_Window__HitTestButtons 00000000100e7c74     guideXOS.obj
 0004:0004bc84       _unwind0guideXOS_guideXOS_GUI_Window__PerformButton 00000000100e7c84     guideXOS.obj
 0004:0004bca4       _unwind0guideXOS_guideXOS_GUI_Window__DrawTitleButton 00000000100e7ca4     guideXOS.obj
 0004:0004bd08       _unwind0guideXOS_guideXOS_GUI_Window__OnInput 00000000100e7d08     guideXOS.obj
 0004:0004bd34       _unwind0guideXOS_guideXOS_GUI_Window__OnDraw 00000000100e7d34     guideXOS.obj
 0004:0004bebc       _unwind0guideXOS_guideXOS_GUI_Window__DrawBorder 00000000100e7ebc     guideXOS.obj
 0004:0004bed0       _unwind0guideXOS_guideXOS_GUI_Window__ClampToScreen 00000000100e7ed0     guideXOS.obj
 0004:0004bee0       _unwind0guideXOS_guideXOS_GUI_Window__Minimize 00000000100e7ee0     guideXOS.obj
 0004:0004bef0       _unwind0guideXOS_guideXOS_GUI_Window__Restore 00000000100e7ef0     guideXOS.obj
 0004:0004bf04       _unwind0guideXOS_guideXOS_GUI_Window__Maximize 00000000100e7f04     guideXOS.obj
 0004:0004bf14       _unwind0guideXOS_guideXOS_GUI_Window__Dispose 00000000100e7f14     guideXOS.obj
 0004:0004bf24       _unwind0guideXOS_guideXOS_GUI_Window__FreeOwnerMemory 00000000100e7f24     guideXOS.obj
 0004:0004bf50       _unwind1guideXOS_guideXOS_GUI_Window__FreeOwnerMemory 00000000100e7f50     guideXOS.obj
 0004:0004bf64       _unwind2guideXOS_guideXOS_GUI_Window__FreeOwnerMemory 00000000100e7f64     guideXOS.obj
 0004:0004bf78       _unwind0guideXOS_guideXOS_GUI_WindowManager__Initialize 00000000100e7f78     guideXOS.obj
 0004:0004c06c       _unwind1guideXOS_guideXOS_GUI_WindowManager__Initialize 00000000100e806c     guideXOS.obj
 0004:0004c07c       _unwind0guideXOS_guideXOS_GUI_WindowManager__FlushPendingCreates 00000000100e807c     guideXOS.obj
 0004:0004c0ac       _unwind0guideXOS_guideXOS_GUI_WindowManager__MoveToEnd 00000000100e80ac     guideXOS.obj
 0004:0004c0f0       _unwind0guideXOS_guideXOS_GUI_WindowManager__DrawAllExceptTaskManager 00000000100e80f0     guideXOS.obj
 0004:0004c134       _unwind0guideXOS_guideXOS_GUI_WindowManager__DrawTaskManager 00000000100e8134     guideXOS.obj
 0004:0004c15c       _unwind0guideXOS_guideXOS_GUI_WindowManager__UpdateCpuPercents 00000000100e815c     guideXOS.obj
 0004:0004c16c       _unwind0guideXOS_guideXOS_GUI_WindowManager__InputAll 00000000100e816c     guideXOS.obj
 0004:0004c1c8       _unwind0guideXOS_guideXOS_GUI_WindowManager__GetStartMenuWindows 00000000100e81c8     guideXOS.obj
 0004:0004c200       _unwind0guideXOS_guideXOS_GUI_WindowManager__CleanupClosedWindows 00000000100e8200     guideXOS.obj
 0004:0004c22c       _unwind0guideXOS_guideXOS_GUI_WorkspaceManager__IndexOf 00000000100e822c     guideXOS.obj
 0004:0004c250       _unwind0guideXOS_guideXOS_GUI_WorkspaceManager__ListContains 00000000100e8250     guideXOS.obj
 0004:0004c26c       _unwind0guideXOS_guideXOS_GUI_WorkspaceManager__ListRemove 00000000100e826c     guideXOS.obj
 0004:0004c288       _unwind0guideXOS_guideXOS_GUI_WorkspaceManager__EnsureAllWindowsTracked 00000000100e8288     guideXOS.obj
 0004:0004c2cc       _unwind0guideXOS_guideXOS_GUI_WorkspaceManager__GetWorkspace 00000000100e82cc     guideXOS.obj
 0004:0004c2dc       _unwind0guideXOS_guideXOS_GUI_WorkspaceManager__AddWorkspace 00000000100e82dc     guideXOS.obj
 0004:0004c2e8       _unwind0guideXOS_guideXOS_GUI_WorkspaceManager__SwitchTo 00000000100e82e8     guideXOS.obj
 0004:0004c370       _unwind1guideXOS_guideXOS_GUI_WorkspaceManager__SwitchTo 00000000100e8370     guideXOS.obj
 0004:0004c388       _unwind0guideXOS_guideXOS_GUI_WorkspaceManager__WorkspaceWindowCounts 00000000100e8388     guideXOS.obj
 0004:0004c3b8       _unwind0guideXOS_guideXOS_GUI_WorkspaceManager___cctor 00000000100e83b8     guideXOS.obj
 0004:0004c3d4       _unwind0guideXOS_guideXOS_GUI_WorkspaceSwitcher___ctor 00000000100e83d4     guideXOS.obj
 0004:0004c3e8       _unwind0guideXOS_guideXOS_GUI_WorkspaceSwitcher__RefreshWindowCache 00000000100e83e8     guideXOS.obj
 0004:0004c454       _unwind0guideXOS_guideXOS_GUI_WorkspaceSwitcher__OnInput 00000000100e8454     guideXOS.obj
 0004:0004c4a0       _unwind0guideXOS_guideXOS_GUI_WorkspaceSwitcher__OnDraw 00000000100e84a0     guideXOS.obj
 0004:0004c510       _unwind0guideXOS_guideXOS_GUI_WorkspaceSwitcher__DrawWorkspaceThumbnail 00000000100e8510     guideXOS.obj
 0004:0004c638       _unwind0guideXOS_guideXOS_GUI_Widgets_Button___ctor 00000000100e8638     guideXOS.obj
 0004:0004c640       _unwind0guideXOS_guideXOS_GUI_Widgets_Base_Widget___ctor 00000000100e8640     guideXOS.obj
 0004:0004c648       _unwind0guideXOS_guideXOS_GUI_Base_WindowBase___ctor 00000000100e8648     guideXOS.obj
 0004:0004c650       _unwind0guideXOS_guideXOS_DockableWidgets_Clock__get_PreferredHeight 00000000100e8650     guideXOS.obj
 0004:0004c658       _unwind0guideXOS_guideXOS_DockableWidgets_Clock___ctor 00000000100e8658     guideXOS.obj
 0004:0004c668       _unwind0guideXOS_guideXOS_DockableWidgets_Clock__OnInput 00000000100e8668     guideXOS.obj
 0004:0004c690       _unwind0guideXOS_guideXOS_DockableWidgets_Clock__OnDraw 00000000100e8690     guideXOS.obj
 0004:0004c6a4       _unwind0guideXOS_guideXOS_DockableWidgets_Clock__DrawContent 00000000100e86a4     guideXOS.obj
 0004:0004c728       _unwind0guideXOS_guideXOS_DockableWidgets_Clock__DrawHand 00000000100e8728     guideXOS.obj
 0004:0004c764       _unwind1guideXOS_guideXOS_DockableWidgets_Clock__DrawHand 00000000100e8764     guideXOS.obj
 0004:0004c77c       _unwind0guideXOS_guideXOS_DockableWidgets_Monitor__get_PreferredHeight 00000000100e877c     guideXOS.obj
 0004:0004c784       _unwind0guideXOS_guideXOS_DockableWidgets_Monitor___ctor 00000000100e8784     guideXOS.obj
 0004:0004c79c       _unwind0guideXOS_guideXOS_DockableWidgets_Monitor__OnInput 00000000100e879c     guideXOS.obj
 0004:0004c7c4       _unwind0guideXOS_guideXOS_DockableWidgets_Monitor__OnDraw 00000000100e87c4     guideXOS.obj
 0004:0004c7ec       _unwind0guideXOS_guideXOS_DockableWidgets_Monitor__DrawContent 00000000100e87ec     guideXOS.obj
 0004:0004c810       _unwind0guideXOS_guideXOS_DockableWidgets_Monitor__Render 00000000100e8810     guideXOS.obj
 0004:0004c854       _unwind0guideXOS_guideXOS_DockableWidgets_Monitor__DrawLineChart 00000000100e8854     guideXOS.obj
 0004:0004c874       _unwind0guideXOS_guideXOS_DockableWidgets_PerformanceWidget__get_PreferredHeight 00000000100e8874     guideXOS.obj
 0004:0004c87c       _unwind0guideXOS_guideXOS_DockableWidgets_PerformanceWidget___ctor 00000000100e887c     guideXOS.obj
 0004:0004c88c       _unwind0guideXOS_guideXOS_DockableWidgets_PerformanceWidget__OnInput 00000000100e888c     guideXOS.obj
 0004:0004c8b4       _unwind0guideXOS_guideXOS_DockableWidgets_PerformanceWidget__OnDraw 00000000100e88b4     guideXOS.obj
 0004:0004c8c8       _unwind0guideXOS_guideXOS_DockableWidgets_PerformanceWidget__DrawContent 00000000100e88c8     guideXOS.obj
 0004:0004c8e8       _unwind0guideXOS_guideXOS_DockableWidgets_PerformanceWidget__DrawMetric 00000000100e88e8     guideXOS.obj
 0004:0004c910       _unwind0guideXOS_guideXOS_DockableWidgets_PerformanceWidget__UpdateMetrics 00000000100e8910     guideXOS.obj
 0004:0004c924       _unwind0guideXOS_guideXOS_DefaultApps_Calculator___ctor 00000000100e8924     guideXOS.obj
 0004:0004c964       _unwind0guideXOS_guideXOS_DefaultApps_Calculator__OnDraw 00000000100e8964     guideXOS.obj
 0004:0004c998       _unwind0guideXOS_guideXOS_DefaultApps_Calculator__OnInput 00000000100e8998     guideXOS.obj
 0004:0004c9dc       _unwind0guideXOS_guideXOS_DefaultApps_Calculator__ProcessButton 00000000100e89dc     guideXOS.obj
 0004:0004ca18       _unwind0guideXOS_guideXOS_DefaultApps_Calculator__AddButton 00000000100e8a18     guideXOS.obj
 0004:0004ca38       _unwind0guideXOS_guideXOS_DefaultApps_ComputerFiles___ctor 00000000100e8a38     guideXOS.obj
 0004:0004ca60       _unwind0guideXOS_guideXOS_DefaultApps_ComputerFiles___ctor_0 00000000100e8a60     guideXOS.obj
 0004:0004ca88       _unwind0guideXOS_guideXOS_DefaultApps_ComputerFiles__Keyboard_OnKeyChanged 00000000100e8a88     guideXOS.obj
 0004:0004caa0       _unwind0guideXOS_guideXOS_DefaultApps_ComputerFiles__LoadIcons 00000000100e8aa0     guideXOS.obj
 0004:0004caec       _unwind1guideXOS_guideXOS_DefaultApps_ComputerFiles__LoadIcons 00000000100e8aec     guideXOS.obj
 0004:0004caf8       _unwind2guideXOS_guideXOS_DefaultApps_ComputerFiles__LoadIcons 00000000100e8af8     guideXOS.obj
 0004:0004cb04       _unwind0guideXOS_guideXOS_DefaultApps_ComputerFiles__RefreshDrives 00000000100e8b04     guideXOS.obj
 0004:0004cb44       _unwind0guideXOS_guideXOS_DefaultApps_ComputerFiles__ClearEntriesCache 00000000100e8b44     guideXOS.obj
 0004:0004cb7c       _unwind0guideXOS_guideXOS_DefaultApps_ComputerFiles__EnsureEntries 00000000100e8b7c     guideXOS.obj
 0004:0004cb94       _unwind0guideXOS_guideXOS_DefaultApps_ComputerFiles__PushHistory 00000000100e8b94     guideXOS.obj
 0004:0004cbd0       _unwind0guideXOS_guideXOS_DefaultApps_ComputerFiles__get_CanGoForward 00000000100e8bd0     guideXOS.obj
 0004:0004cbd8       _unwind0guideXOS_guideXOS_DefaultApps_ComputerFiles__GoBack 00000000100e8bd8     guideXOS.obj
 0004:0004cbe8       _unwind0guideXOS_guideXOS_DefaultApps_ComputerFiles__GoForward 00000000100e8be8     guideXOS.obj
 0004:0004cbf8       _unwind0guideXOS_guideXOS_DefaultApps_ComputerFiles__GoUpLevel 00000000100e8bf8     guideXOS.obj
 0004:0004cc10       _unwind0guideXOS_guideXOS_DefaultApps_ComputerFiles__CurrentPad 00000000100e8c10     guideXOS.obj
 0004:0004cc18       _unwind0guideXOS_guideXOS_DefaultApps_ComputerFiles__OnInput 00000000100e8c18     guideXOS.obj
 0004:0004cd80       _unwind0guideXOS_guideXOS_DefaultApps_ComputerFiles__ContainsIgnoreCase 00000000100e8d80     guideXOS.obj
 0004:0004cdb4       _unwind0guideXOS_guideXOS_DefaultApps_ComputerFiles__GetTotalContentHeight 00000000100e8db4     guideXOS.obj
 0004:0004cdd0       _unwind0guideXOS_guideXOS_DefaultApps_ComputerFiles__OnDraw 00000000100e8dd0     guideXOS.obj
 0004:0004cff4       _unwind0guideXOS_guideXOS_DefaultApps_ComputerFiles__Dispose 00000000100e8ff4     guideXOS.obj
 0004:0004d02c       _unwind0guideXOS_guideXOS_DefaultApps_Devices__EnsureRowsCapacity 00000000100e902c     guideXOS.obj
 0004:0004d070       _unwind0guideXOS_guideXOS_DefaultApps_Devices__AddRow 00000000100e9070     guideXOS.obj
 0004:0004d090       _unwind0guideXOS_guideXOS_DefaultApps_Devices__BuildRows 00000000100e9090     guideXOS.obj
 0004:0004d240       _unwind1guideXOS_guideXOS_DefaultApps_Devices__BuildRows 00000000100e9240     guideXOS.obj
 0004:0004d258       _unwind0guideXOS_guideXOS_DefaultApps_Devices__OnInput 00000000100e9258     guideXOS.obj
 0004:0004d2c4       _unwind0guideXOS_guideXOS_DefaultApps_Devices__OnDraw 00000000100e92c4     guideXOS.obj
 0004:0004d410       _unwind0guideXOS_guideXOS_DefaultApps_DiskManager___ctor 00000000100e9410     guideXOS.obj
 0004:0004d42c       _unwind0guideXOS_guideXOS_DefaultApps_DiskManager__BuildStatus 00000000100e942c     guideXOS.obj
 0004:0004d46c       _unwind0guideXOS_guideXOS_DefaultApps_DiskManager__RefreshDisks 00000000100e946c     guideXOS.obj
 0004:0004d558       _unwind0guideXOS_guideXOS_DefaultApps_DiskManager__GetSelected 00000000100e9558     guideXOS.obj
 0004:0004d564       _unwind0guideXOS_guideXOS_DefaultApps_DiskManager__ProbeOnce 00000000100e9564     guideXOS.obj
 0004:0004d5d0       _unwind1guideXOS_guideXOS_DefaultApps_DiskManager__ProbeOnce 00000000100e95d0     guideXOS.obj
 0004:0004d5e0       _unwind2guideXOS_guideXOS_DefaultApps_DiskManager__ProbeOnce 00000000100e95e0     guideXOS.obj
 0004:0004d5f0       _unwind0guideXOS_guideXOS_DefaultApps_DiskManager__FmtSize 00000000100e95f0     guideXOS.obj
 0004:0004d604       _unwind0guideXOS_guideXOS_DefaultApps_DiskManager__DetectFsAtLBA 00000000100e9604     guideXOS.obj
 0004:0004d670       _unwind1guideXOS_guideXOS_DefaultApps_DiskManager__DetectFsAtLBA 00000000100e9670     guideXOS.obj
 0004:0004d684       _unwind2guideXOS_guideXOS_DefaultApps_DiskManager__DetectFsAtLBA 00000000100e9684     guideXOS.obj
 0004:0004d698       _unwind3guideXOS_guideXOS_DefaultApps_DiskManager__DetectFsAtLBA 00000000100e9698     guideXOS.obj
 0004:0004d6ac       _unwind0guideXOS_guideXOS_DefaultApps_DiskManager__WithDisk 00000000100e96ac     guideXOS.obj
 0004:0004d6f8       _unwind1guideXOS_guideXOS_DefaultApps_DiskManager__WithDisk 00000000100e96f8     guideXOS.obj
 0004:0004d708       _unwind0guideXOS_guideXOS_DefaultApps_DiskManager__ReadMBRForEntry 00000000100e9708     guideXOS.obj
 0004:0004d754       _unwind0guideXOS_guideXOS_DefaultApps_DiskManager__OnInput 00000000100e9754     guideXOS.obj
 0004:0004d79c       _unwind0guideXOS_guideXOS_DefaultApps_DiskManager__OnDraw 00000000100e979c     guideXOS.obj
 0004:0004d7bc       _unwind0guideXOS_guideXOS_DefaultApps_DiskManager__DrawLeftPane 00000000100e97bc     guideXOS.obj
 0004:0004d7ec       _unwind0guideXOS_guideXOS_DefaultApps_DiskManager__DrawVolumesGrid 00000000100e97ec     guideXOS.obj
 0004:0004d908       _unwind0guideXOS_guideXOS_DefaultApps_DiskManager__DrawPartitionMap 00000000100e9908     guideXOS.obj
 0004:0004da00       _unwind0guideXOS_guideXOS_DefaultApps_DiskManager__DrawActions 00000000100e9a00     guideXOS.obj
 0004:0004da30       _unwind0guideXOS_guideXOS_DefaultApps_DiskManager__DrawHeaderCell 00000000100e9a30     guideXOS.obj
 0004:0004da50       _unwind0guideXOS_guideXOS_DefaultApps_DiskManager__DrawCell 00000000100e9a50     guideXOS.obj
 0004:0004da6c       _unwind0guideXOS_guideXOS_DefaultApps_DiskManager__DrawButton 00000000100e9a6c     guideXOS.obj
 0004:0004da8c       _unwind0guideXOS_guideXOS_DefaultApps_DiskManager__TrySetFS_Auto 00000000100e9a8c     guideXOS.obj
 0004:0004dacc       _unwind1guideXOS_guideXOS_DefaultApps_DiskManager__TrySetFS_Auto 00000000100e9acc     guideXOS.obj
 0004:0004dad8       _unwind0guideXOS_guideXOS_DefaultApps_DiskManager__TrySetFS_FAT 00000000100e9ad8     guideXOS.obj
 0004:0004db1c       _unwind1guideXOS_guideXOS_DefaultApps_DiskManager__TrySetFS_FAT 00000000100e9b1c     guideXOS.obj
 0004:0004db28       _unwind0guideXOS_guideXOS_DefaultApps_DiskManager__TrySetFS_TAR 00000000100e9b28     guideXOS.obj
 0004:0004db78       _unwind1guideXOS_guideXOS_DefaultApps_DiskManager__TrySetFS_TAR 00000000100e9b78     guideXOS.obj
 0004:0004db88       _unwind0guideXOS_guideXOS_DefaultApps_DiskManager__TrySetFS_EXT2 00000000100e9b88     guideXOS.obj
 0004:0004dbcc       _unwind1guideXOS_guideXOS_DefaultApps_DiskManager__TrySetFS_EXT2 00000000100e9bcc     guideXOS.obj
 0004:0004dbd8       _unwind0guideXOS_guideXOS_DefaultApps_DiskManager__TryFormatFATFS 00000000100e9bd8     guideXOS.obj
 0004:0004dc40       _unwind1guideXOS_guideXOS_DefaultApps_DiskManager__TryFormatFATFS 00000000100e9c40     guideXOS.obj
 0004:0004dc58       _unwind0guideXOS_guideXOS_DefaultApps_DiskManager__TryCreatePartitionLargestFree 00000000100e9c58     guideXOS.obj
 0004:0004dd54       _unwind1guideXOS_guideXOS_DefaultApps_DiskManager__TryCreatePartitionLargestFree 00000000100e9d54     guideXOS.obj
 0004:0004dd6c       _unwind0guideXOS_guideXOS_DefaultApps_DriveInfo__Dispose 00000000100e9d6c     guideXOS.obj
 0004:0004dd88       _unwind0guideXOS_guideXOS_DefaultApps_DriveInfo___ctor 00000000100e9d88     guideXOS.obj
 0004:0004dd90       _unwind0guideXOS_guideXOS_DefaultApps_FConsole___ctor 00000000100e9d90     guideXOS.obj
 0004:0004ddb8       _unwind0guideXOS_guideXOS_DefaultApps_FConsole__UpdateTitle 00000000100e9db8     guideXOS.obj
 0004:0004ddc8       _unwind0guideXOS_guideXOS_DefaultApps_FConsole__GetPromptString 00000000100e9dc8     guideXOS.obj
 0004:0004dde4       _unwind0guideXOS_guideXOS_DefaultApps_FConsole__Rebind 00000000100e9de4     guideXOS.obj
 0004:0004ddfc       _unwind0guideXOS_guideXOS_DefaultApps_FConsole__MapFromKey 00000000100e9dfc     guideXOS.obj
 0004:0004de08       _unwind0guideXOS_guideXOS_DefaultApps_FConsole__Keyboard_OnKeyChanged 00000000100e9e08     guideXOS.obj
 0004:0004de30       _unwind0guideXOS_guideXOS_DefaultApps_FConsole__TrimSpaces 00000000100e9e30     guideXOS.obj
 0004:0004de4c       _unwind0guideXOS_guideXOS_DefaultApps_FConsole__StartsWithFast 00000000100e9e4c     guideXOS.obj
 0004:0004de74       _unwind0guideXOS_guideXOS_DefaultApps_FConsole__JoinParts 00000000100e9e74     guideXOS.obj
 0004:0004de8c       _unwind0guideXOS_guideXOS_DefaultApps_FConsole__TryParseIp 00000000100e9e8c     guideXOS.obj
 0004:0004deb8       _unwind0guideXOS_guideXOS_DefaultApps_FConsole__HandleViKey 00000000100e9eb8     guideXOS.obj
 0004:0004df0c       _unwind0guideXOS_guideXOS_DefaultApps_FConsole__InsertVi 00000000100e9f0c     guideXOS.obj
 0004:0004df28       _unwind0guideXOS_guideXOS_DefaultApps_FConsole__RedrawVi 00000000100e9f28     guideXOS.obj
 0004:0004df44       _unwind0guideXOS_guideXOS_DefaultApps_FConsole__SaveVi 00000000100e9f44     guideXOS.obj
 0004:0004df88       _unwind0guideXOS_guideXOS_DefaultApps_FConsole__ExitVi 00000000100e9f88     guideXOS.obj
 0004:0004df98       _unwind0guideXOS_guideXOS_DefaultApps_FConsole__EnterVi 00000000100e9f98     guideXOS.obj
 0004:0004e000       _unwind0guideXOS_guideXOS_DefaultApps_FConsole__ToAbs 00000000100ea000     guideXOS.obj
 0004:0004e01c       _unwind0guideXOS_guideXOS_DefaultApps_FConsole__ResolveFileToken 00000000100ea01c     guideXOS.obj
 0004:0004e050       _unwind0guideXOS_guideXOS_DefaultApps_FConsole__SplitArgs 00000000100ea050     guideXOS.obj
 0004:0004e0cc       _unwind0guideXOS_guideXOS_DefaultApps_FConsole__HandleCommand 00000000100ea0cc     guideXOS.obj
 0004:0004f204       _unwind1guideXOS_guideXOS_DefaultApps_FConsole__HandleCommand 00000000100eb204     guideXOS.obj
 0004:0004f21c       _unwind2guideXOS_guideXOS_DefaultApps_FConsole__HandleCommand 00000000100eb21c     guideXOS.obj
 0004:0004f234       _unwind3guideXOS_guideXOS_DefaultApps_FConsole__HandleCommand 00000000100eb234     guideXOS.obj
 0004:0004f24c       _unwind4guideXOS_guideXOS_DefaultApps_FConsole__HandleCommand 00000000100eb24c     guideXOS.obj
 0004:0004f264       _unwind5guideXOS_guideXOS_DefaultApps_FConsole__HandleCommand 00000000100eb264     guideXOS.obj
 0004:0004f27c       _unwind6guideXOS_guideXOS_DefaultApps_FConsole__HandleCommand 00000000100eb27c     guideXOS.obj
 0004:0004f294       _unwind7guideXOS_guideXOS_DefaultApps_FConsole__HandleCommand 00000000100eb294     guideXOS.obj
 0004:0004f2ac       _unwind0guideXOS_guideXOS_DefaultApps_FConsole__EqualsIgnoreCase 00000000100eb2ac     guideXOS.obj
 0004:0004f2d8       _unwind0guideXOS_guideXOS_DefaultApps_FConsole__StartsWithIgnoreCase 00000000100eb2d8     guideXOS.obj
 0004:0004f304       _unwind0guideXOS_guideXOS_DefaultApps_FConsole__PadRight 00000000100eb304     guideXOS.obj
 0004:0004f34c       _unwind0guideXOS_guideXOS_DefaultApps_FConsole__OnInput 00000000100eb34c     guideXOS.obj
 0004:0004f380       _unwind0guideXOS_guideXOS_DefaultApps_FConsole__OnDraw 00000000100eb380     guideXOS.obj
 0004:0004f3a8       _unwind0guideXOS_guideXOS_DefaultApps_FConsole__DrawString 00000000100eb3a8     guideXOS.obj
 0004:0004f3e4       _unwind0guideXOS_guideXOS_DefaultApps_FConsole__Console_OnWrite 00000000100eb3e4     guideXOS.obj
 0004:0004f3f4       _unwind0guideXOS_guideXOS_DefaultApps_FConsole__WriteLine 00000000100eb3f4     guideXOS.obj
 0004:0004f404       _unwind0guideXOS_guideXOS_DefaultApps_FirewallAlert___ctor 00000000100eb404     guideXOS.obj
 0004:0004f418       _unwind0guideXOS_guideXOS_DefaultApps_FirewallAlert__OnInput 00000000100eb418     guideXOS.obj
 0004:0004f43c       _unwind0guideXOS_guideXOS_DefaultApps_FirewallAlert__OnDraw 00000000100eb43c     guideXOS.obj
 0004:0004f47c       _unwind0guideXOS_guideXOS_DefaultApps_FirewallWindow___ctor 00000000100eb47c     guideXOS.obj
 0004:0004f48c       _unwind0guideXOS_guideXOS_DefaultApps_FirewallWindow__OnInput 00000000100eb48c     guideXOS.obj
 0004:0004f4c8       _unwind0guideXOS_guideXOS_DefaultApps_FirewallWindow__OnDraw 00000000100eb4c8     guideXOS.obj
 0004:0004f518       _unwind0guideXOS_guideXOS_DefaultApps_GUISamples__BuildSamples 00000000100eb518     guideXOS.obj
 0004:0004f5a0       _unwind1guideXOS_guideXOS_DefaultApps_GUISamples__BuildSamples 00000000100eb5a0     guideXOS.obj
 0004:0004f5b4       _unwind0guideXOS_guideXOS_DefaultApps_GUISamples__OnInput 00000000100eb5b4     guideXOS.obj
 0004:0004f5d4       _unwind0guideXOS_guideXOS_DefaultApps_GUISamples__OnDraw 00000000100eb5d4     guideXOS.obj
 0004:0004f644       _unwind0guideXOS_guideXOS_DefaultApps_GUISamples__CreateNewDemo 00000000100eb644     guideXOS.obj
 0004:0004f6d0       _unwind1guideXOS_guideXOS_DefaultApps_GUISamples__CreateNewDemo 00000000100eb6d0     guideXOS.obj
 0004:0004f6e4       _unwind0guideXOS_guideXOS_DefaultApps_GUISamples__ReloadDemos 00000000100eb6e4     guideXOS.obj
 0004:0004f70c       _unwind1guideXOS_guideXOS_DefaultApps_GUISamples__ReloadDemos 00000000100eb70c     guideXOS.obj
 0004:0004f718       _unwind0guideXOS_guideXOS_DefaultApps_GUISamples__HideAllDemos 00000000100eb718     guideXOS.obj
 0004:0004f738       _unwind0guideXOS_guideXOS_DefaultApps_GUISamples__ShowAllDemos 00000000100eb738     guideXOS.obj
 0004:0004f750       _unwind0guideXOS_guideXOS_DefaultApps_ImageViewer__OnDraw 00000000100eb750     guideXOS.obj
 0004:0004f77c       _unwind0guideXOS_guideXOS_DefaultApps_ImageViewer__OnInput 00000000100eb77c     guideXOS.obj
 0004:0004f7a0       _unwind0guideXOS_guideXOS_DefaultApps_ImageViewer__ZoomIn 00000000100eb7a0     guideXOS.obj
 0004:0004f7b0       _unwind0guideXOS_guideXOS_DefaultApps_ImageViewer__ZoomOut 00000000100eb7b0     guideXOS.obj
 0004:0004f7c0       _unwind0guideXOS_guideXOS_DefaultApps_ImageViewer__UpdateDisplayImage 00000000100eb7c0     guideXOS.obj
 0004:0004f7d4       _unwind0guideXOS_guideXOS_DefaultApps_ImageViewer__SetImage 00000000100eb7d4     guideXOS.obj
 0004:0004f7f8       _unwind0guideXOS_guideXOS_DefaultApps_ImageViewer__Dispose 00000000100eb7f8     guideXOS.obj
 0004:0004f810       _unwind0guideXOS_guideXOS_DefaultApps_IRCNetworks___ctor 00000000100eb810     guideXOS.obj
 0004:0004f82c       _unwind0guideXOS_guideXOS_DefaultApps_IRCNetworks__LoadDefaults 00000000100eb82c     guideXOS.obj
 0004:0004f844       _unwind0guideXOS_guideXOS_DefaultApps_IRCNetworks__OnInput 00000000100eb844     guideXOS.obj
 0004:0004f864       _unwind0guideXOS_guideXOS_DefaultApps_IRCNetworks__AddEntry 00000000100eb864     guideXOS.obj
 0004:0004f87c       _unwind0guideXOS_guideXOS_DefaultApps_IRCNetworks__AttemptConnect 00000000100eb87c     guideXOS.obj
 0004:0004f894       _unwind0guideXOS_guideXOS_DefaultApps_IRCNetworks__OnDraw 00000000100eb894     guideXOS.obj
 0004:0004f8f0       _unwind0guideXOS_guideXOS_DefaultApps_IRCNetworks__DrawField 00000000100eb8f0     guideXOS.obj
 0004:0004f910       _unwind0guideXOS_guideXOS_DefaultApps_IRCNetworks__DrawButton 00000000100eb910     guideXOS.obj
 0004:0004f928       _unwind0guideXOS_guideXOS_DefaultApps_nexIRC___ctor 00000000100eb928     guideXOS.obj
 0004:0004f94c       _unwind0guideXOS_guideXOS_DefaultApps_nexIRC__NextEphemeralPort 00000000100eb94c     guideXOS.obj
 0004:0004f958       _unwind0guideXOS_guideXOS_DefaultApps_nexIRC__TryAutoConnect 00000000100eb958     guideXOS.obj
 0004:0004f978       _unwind0guideXOS_guideXOS_DefaultApps_nexIRC__Keyboard_OnKeyChanged 00000000100eb978     guideXOS.obj
 0004:0004f998       _unwind0guideXOS_guideXOS_DefaultApps_nexIRC__MapChar 00000000100eb998     guideXOS.obj
 0004:0004f9a8       _unwind0guideXOS_guideXOS_DefaultApps_nexIRC__TrimTrailing 00000000100eb9a8     guideXOS.obj
 0004:0004f9c4       _unwind0guideXOS_guideXOS_DefaultApps_nexIRC__ToLowerFast 00000000100eb9c4     guideXOS.obj
 0004:0004f9f8       _unwind0guideXOS_guideXOS_DefaultApps_nexIRC__StartsWithFast 00000000100eb9f8     guideXOS.obj
 0004:0004fa20       _unwind0guideXOS_guideXOS_DefaultApps_nexIRC__SubmitInput 00000000100eba20     guideXOS.obj
 0004:0004fa40       _unwind0guideXOS_guideXOS_DefaultApps_nexIRC__HandleCommand 00000000100eba40     guideXOS.obj
 0004:0004fa8c       _unwind0guideXOS_guideXOS_DefaultApps_nexIRC__Split 00000000100eba8c     guideXOS.obj
 0004:0004fae4       _unwind0guideXOS_guideXOS_DefaultApps_nexIRC__Join 00000000100ebae4     guideXOS.obj
 0004:0004fafc       _unwind0guideXOS_guideXOS_DefaultApps_nexIRC__SendIrc 00000000100ebafc     guideXOS.obj
 0004:0004fb10       _unwind0guideXOS_guideXOS_DefaultApps_nexIRC__ToAscii 00000000100ebb10     guideXOS.obj
 0004:0004fb34       _unwind0guideXOS_guideXOS_DefaultApps_nexIRC__AddLog 00000000100ebb34     guideXOS.obj
 0004:0004fb4c       _unwind0guideXOS_guideXOS_DefaultApps_nexIRC__PollNetwork 00000000100ebb4c     guideXOS.obj
 0004:0004fb70       _unwind0guideXOS_guideXOS_DefaultApps_nexIRC__SendHandshake 00000000100ebb70     guideXOS.obj
 0004:0004fb88       _unwind0guideXOS_guideXOS_DefaultApps_nexIRC__ProcessIncoming 00000000100ebb88     guideXOS.obj
 0004:0004fbc0       _unwind0guideXOS_guideXOS_DefaultApps_nexIRC__HandleLine 00000000100ebbc0     guideXOS.obj
 0004:0004fbdc       _unwind0guideXOS_guideXOS_DefaultApps_nexIRC__OnInput 00000000100ebbdc     guideXOS.obj
 0004:0004fbf0       _unwind0guideXOS_guideXOS_DefaultApps_nexIRC__OnDraw 00000000100ebbf0     guideXOS.obj
 0004:0004fc28       _unwind0guideXOS_guideXOS_DefaultApps_nexIRC__BuildChannelsText 00000000100ebc28     guideXOS.obj
 0004:0004fc48       _unwind0guideXOS_guideXOS_DefaultApps_nexIRC__DrawChatLines 00000000100ebc48     guideXOS.obj
 0004:0004fc70       _unwind0guideXOS_guideXOS_DefaultApps_Notepad___ctor 00000000100ebc70     guideXOS.obj
 0004:0004fc8c       _unwind0guideXOS_guideXOS_DefaultApps_Notepad__OnSetVisible 00000000100ebc8c     guideXOS.obj
 0004:0004fce8       _unwind0guideXOS_guideXOS_DefaultApps_Notepad__MapFromKey 00000000100ebce8     guideXOS.obj
 0004:0004fcf8       _unwind0guideXOS_guideXOS_DefaultApps_Notepad__UpdateStatusKeys 00000000100ebcf8     guideXOS.obj
 0004:0004fd0c       _unwind0guideXOS_guideXOS_DefaultApps_Notepad__Keyboard_OnKeyChanged 00000000100ebd0c     guideXOS.obj
 0004:0004fd2c       _unwind0guideXOS_guideXOS_DefaultApps_Notepad__SaveTo 00000000100ebd2c     guideXOS.obj
 0004:0004fde0       _unwind0guideXOS_guideXOS_DefaultApps_Notepad__OpenSaveAs 00000000100ebde0     guideXOS.obj
 0004:0004fe0c       _unwind0guideXOS_guideXOS_DefaultApps_Notepad__StartsWithFast 00000000100ebe0c     guideXOS.obj
 0004:0004fe34       _unwind0guideXOS_guideXOS_DefaultApps_Notepad__OpenFile 00000000100ebe34     guideXOS.obj
 0004:0004fee8       _unwind0guideXOS_guideXOS_DefaultApps_Notepad__OnInput 00000000100ebee8     guideXOS.obj
 0004:0004ff08       _unwind0guideXOS_guideXOS_DefaultApps_Notepad__OnDraw 00000000100ebf08     guideXOS.obj
 0004:0004ff50       _unwind0guideXOS_guideXOS_DefaultApps_Notepad__DrawStatusBar 00000000100ebf50     guideXOS.obj
 0004:0004ffdc       _unwind0guideXOS_guideXOS_DefaultApps_Notepad__DrawBadge 00000000100ebfdc     guideXOS.obj
 0004:0004fffc       _unwind0guideXOS_guideXOS_DefaultApps_Notepad__Dispose 00000000100ebffc     guideXOS.obj
 0004:00050024       _unwind0guideXOS_guideXOS_DefaultApps_Notepad___OnSetVisible_b__19_0 00000000100ec024     guideXOS.obj
 0004:0005004c       _unwind0guideXOS_guideXOS_DefaultApps_Notepad___OnSetVisible_b__19_3 00000000100ec04c     guideXOS.obj
 0004:0005005c       _unwind0guideXOS_guideXOS_DefaultApps_Notepad___OnSetVisible_b__19_1 00000000100ec05c     guideXOS.obj
 0004:0005006c       _unwind0guideXOS_guideXOS_DefaultApps_Notepad___OnSetVisible_b__19_2 00000000100ec06c     guideXOS.obj
 0004:0005007c       _unwind0guideXOS_guideXOS_DefaultApps_Paint___ctor 00000000100ec07c     guideXOS.obj
 0004:000501c0       _unwind1guideXOS_guideXOS_DefaultApps_Paint___ctor 00000000100ec1c0     guideXOS.obj
 0004:000501d0       _unwind2guideXOS_guideXOS_DefaultApps_Paint___ctor 00000000100ec1d0     guideXOS.obj
 0004:000501e0       _unwind0guideXOS_guideXOS_DefaultApps_Paint__OnDraw 00000000100ec1e0     guideXOS.obj
 0004:00050334       _unwind1guideXOS_guideXOS_DefaultApps_Paint__OnDraw 00000000100ec334     guideXOS.obj
 0004:0005034c       _unwind2guideXOS_guideXOS_DefaultApps_Paint__OnDraw 00000000100ec34c     guideXOS.obj
 0004:00050364       _unwind3guideXOS_guideXOS_DefaultApps_Paint__OnDraw 00000000100ec364     guideXOS.obj
 0004:0005037c       _unwind4guideXOS_guideXOS_DefaultApps_Paint__OnDraw 00000000100ec37c     guideXOS.obj
 0004:00050394       _unwind5guideXOS_guideXOS_DefaultApps_Paint__OnDraw 00000000100ec394     guideXOS.obj
 0004:000503ac       _unwind0guideXOS_guideXOS_DefaultApps_Paint__OnInput 00000000100ec3ac     guideXOS.obj
 0004:00050414       _unwind1guideXOS_guideXOS_DefaultApps_Paint__OnInput 00000000100ec414     guideXOS.obj
 0004:00050424       _unwind0guideXOS_guideXOS_DefaultApps_Paint__HandleToolbarClick 00000000100ec424     guideXOS.obj
 0004:000504c0       _unwind1guideXOS_guideXOS_DefaultApps_Paint__HandleToolbarClick 00000000100ec4c0     guideXOS.obj
 0004:000504d8       _unwind2guideXOS_guideXOS_DefaultApps_Paint__HandleToolbarClick 00000000100ec4d8     guideXOS.obj
 0004:000504f0       _unwind3guideXOS_guideXOS_DefaultApps_Paint__HandleToolbarClick 00000000100ec4f0     guideXOS.obj
 0004:00050508       _unwind4guideXOS_guideXOS_DefaultApps_Paint__HandleToolbarClick 00000000100ec508     guideXOS.obj
 0004:00050520       _unwind0guideXOS_guideXOS_DefaultApps_Paint__HandleDrawing 00000000100ec520     guideXOS.obj
 0004:00050560       _unwind1guideXOS_guideXOS_DefaultApps_Paint__HandleDrawing 00000000100ec560     guideXOS.obj
 0004:00050570       _unwind0guideXOS_guideXOS_DefaultApps_Paint__FinishDrawing 00000000100ec570     guideXOS.obj
 0004:000505a0       _unwind1guideXOS_guideXOS_DefaultApps_Paint__FinishDrawing 00000000100ec5a0     guideXOS.obj
 0004:000505ac       _unwind0guideXOS_guideXOS_DefaultApps_Paint__DrawPixel 00000000100ec5ac     guideXOS.obj
 0004:000505cc       _unwind1guideXOS_guideXOS_DefaultApps_Paint__DrawPixel 00000000100ec5cc     guideXOS.obj
 0004:000505d8       _unwind0guideXOS_guideXOS_DefaultApps_Paint__DrawBrush 00000000100ec5d8     guideXOS.obj
 0004:00050608       _unwind1guideXOS_guideXOS_DefaultApps_Paint__DrawBrush 00000000100ec608     guideXOS.obj
 0004:00050620       _unwind0guideXOS_guideXOS_DefaultApps_Paint__DrawBrushLine 00000000100ec620     guideXOS.obj
 0004:00050650       _unwind1guideXOS_guideXOS_DefaultApps_Paint__DrawBrushLine 00000000100ec650     guideXOS.obj
 0004:00050668       _unwind0guideXOS_guideXOS_DefaultApps_Paint__DrawThickLine 00000000100ec668     guideXOS.obj
 0004:00050684       _unwind1guideXOS_guideXOS_DefaultApps_Paint__DrawThickLine 00000000100ec684     guideXOS.obj
 0004:00050690       _unwind0guideXOS_guideXOS_DefaultApps_Paint__DrawThickRectangle 00000000100ec690     guideXOS.obj
 0004:000506c8       _unwind1guideXOS_guideXOS_DefaultApps_Paint__DrawThickRectangle 00000000100ec6c8     guideXOS.obj
 0004:000506e0       _unwind0guideXOS_guideXOS_DefaultApps_Paint__DrawThickCircle 00000000100ec6e0     guideXOS.obj
 0004:0005072c       _unwind1guideXOS_guideXOS_DefaultApps_Paint__DrawThickCircle 00000000100ec72c     guideXOS.obj
 0004:00050740       _unwind2guideXOS_guideXOS_DefaultApps_Paint__DrawThickCircle 00000000100ec740     guideXOS.obj
 0004:00050754       _unwind0guideXOS_guideXOS_DefaultApps_Paint__FloodFill 00000000100ec754     guideXOS.obj
 0004:000507e0       _unwind1guideXOS_guideXOS_DefaultApps_Paint__FloodFill 00000000100ec7e0     guideXOS.obj
 0004:000507f8       _unwind0guideXOS_guideXOS_DefaultApps_Paint__AddColorButton 00000000100ec7f8     guideXOS.obj
 0004:00050830       _unwind1guideXOS_guideXOS_DefaultApps_Paint__AddColorButton 00000000100ec830     guideXOS.obj
 0004:00050844       _unwind0guideXOS_guideXOS_DefaultApps_Paint__AddToolButton 00000000100ec844     guideXOS.obj
 0004:00050890       _unwind1guideXOS_guideXOS_DefaultApps_Paint__AddToolButton 00000000100ec890     guideXOS.obj
 0004:000508a8       _unwind0guideXOS_guideXOS_DefaultApps_Paint__AddSizeButton 00000000100ec8a8     guideXOS.obj
 0004:000508f4       _unwind1guideXOS_guideXOS_DefaultApps_Paint__AddSizeButton 00000000100ec8f4     guideXOS.obj
 0004:0005090c       _unwind0guideXOS_guideXOS_DefaultApps_TaskManager___ctor 00000000100ec90c     guideXOS.obj
 0004:00050938       _unwind0guideXOS_guideXOS_DefaultApps_TaskManager__OnSetVisible 00000000100ec938     guideXOS.obj
 0004:00050944       _unwind0guideXOS_guideXOS_DefaultApps_TaskManager__OnInput 00000000100ec944     guideXOS.obj
 0004:000509b0       _unwind0guideXOS_guideXOS_DefaultApps_TaskManager__OnDraw 00000000100ec9b0     guideXOS.obj
 0004:000509e0       _unwind0guideXOS_guideXOS_DefaultApps_TaskManager__DrawTombstoned 00000000100ec9e0     guideXOS.obj
 0004:00050a1c       _unwind0guideXOS_guideXOS_DefaultApps_TaskManager__CountTombstoned 00000000100eca1c     guideXOS.obj
 0004:00050a3c       _unwind0guideXOS_guideXOS_DefaultApps_TaskManager__GetTombstonedAt 00000000100eca3c     guideXOS.obj
 0004:00050a5c       _unwind0guideXOS_guideXOS_DefaultApps_TaskManager__RestoreTombstoned 00000000100eca5c     guideXOS.obj
 0004:00050a6c       _unwind0guideXOS_guideXOS_DefaultApps_TaskManager__EndTombstoned 00000000100eca6c     guideXOS.obj
 0004:00050a80       _unwind0guideXOS_guideXOS_DefaultApps_TaskManager__DrawTab 00000000100eca80     guideXOS.obj
 0004:00050aa8       _unwind0guideXOS_guideXOS_DefaultApps_TaskManager__DrawProcesses 00000000100ecaa8     guideXOS.obj
 0004:00050bbc       _unwind1guideXOS_guideXOS_DefaultApps_TaskManager__DrawProcesses 00000000100ecbbc     guideXOS.obj
 0004:00050bd4       _unwind2guideXOS_guideXOS_DefaultApps_TaskManager__DrawProcesses 00000000100ecbd4     guideXOS.obj
 0004:00050bec       _unwind0guideXOS_guideXOS_DefaultApps_TaskManager__DrawHeaderCell 00000000100ecbec     guideXOS.obj
 0004:00050c0c       _unwind0guideXOS_guideXOS_DefaultApps_TaskManager__DrawPerformance 00000000100ecc0c     guideXOS.obj
 0004:00050c94       _unwind0guideXOS_guideXOS_DefaultApps_TaskManager__GetChartForCategory 00000000100ecc94     guideXOS.obj
 0004:00050c9c       _unwind0guideXOS_guideXOS_DefaultApps_TaskManager__DrawMiniGraph 00000000100ecc9c     guideXOS.obj
 0004:00050cf4       _unwind0guideXOS_guideXOS_DefaultApps_TaskManager__DrawCpuDetail 00000000100eccf4     guideXOS.obj
 0004:00050d48       _unwind0guideXOS_guideXOS_DefaultApps_TaskManager__DrawMemDetail 00000000100ecd48     guideXOS.obj
 0004:00050f94       _unwind0guideXOS_guideXOS_DefaultApps_TaskManager__DrawDiskDetail 00000000100ecf94     guideXOS.obj
 0004:00050ffc       _unwind0guideXOS_guideXOS_DefaultApps_TaskManager__DrawNetDetail 00000000100ecffc     guideXOS.obj
 0004:00051048       _unwind0guideXOS_guideXOS_DefaultApps_TaskManager__UpdateChart 00000000100ed048     guideXOS.obj
 0004:00051068       _unwind0guideXOS_guideXOS_DefaultApps_TaskManager__OnEndTask 00000000100ed068     guideXOS.obj
 0004:00051080       _unwind0guideXOS_guideXOS_DefaultApps_TaskManager__SampleOwnerBytes 00000000100ed080     guideXOS.obj
 0004:000510e8       _unwind0guideXOS_guideXOS_DefaultApps_TaskManager__Dispose 00000000100ed0e8     guideXOS.obj
 0004:0005111c       _unwind0guideXOS_guideXOS_DefaultApps_TaskManager__DrawMemoryDetails 00000000100ed11c     guideXOS.obj
 0004:00051228       _unwind0guideXOS_guideXOS_DefaultApps_TaskManager__UpdateMemoryDetailStats 00000000100ed228     guideXOS.obj
 0004:0005123c       _unwind0guideXOS_guideXOS_DefaultApps_TaskManager___SampleOwnerBytes_g__FindOrAddOwner_95_0 00000000100ed23c     guideXOS.obj
 0004:00051260       _unwind0guideXOS_guideXOS_DefaultApps_USBDrives___ctor 00000000100ed260     guideXOS.obj
 0004:00051274       _unwind0guideXOS_guideXOS_DefaultApps_USBDrives__RefreshDrives 00000000100ed274     guideXOS.obj
 0004:000512a4       _unwind0guideXOS_guideXOS_DefaultApps_USBDrives__OnDraw 00000000100ed2a4     guideXOS.obj
 0004:000512c8       _unwind0guideXOS_guideXOS_DefaultApps_USBDrives__OnInput 00000000100ed2c8     guideXOS.obj
 0004:00051314       _unwind0guideXOS_guideXOS_DefaultApps_WAVPlayer___ctor 00000000100ed314     guideXOS.obj
 0004:00051330       _unwind0guideXOS_guideXOS_DefaultApps_WAVPlayer__OnInput 00000000100ed330     guideXOS.obj
 0004:00051344       _unwind0guideXOS_guideXOS_DefaultApps_WAVPlayer__OnDraw 00000000100ed344     guideXOS.obj
 0004:0005137c       _unwind0guideXOS_guideXOS_DefaultApps_WAVPlayer__Play 00000000100ed37c     guideXOS.obj
 0004:000513ac       _unwind0guideXOS_guideXOS_DefaultApps_WAVPlayer__DoPlay 00000000100ed3ac     guideXOS.obj
 0004:000513c4       _unwind0guideXOS_guideXOS_DefaultApps_WebBrowser___ctor 00000000100ed3c4     guideXOS.obj
 0004:000513ec       _unwind0guideXOS_guideXOS_DefaultApps_WebBrowser__OnKey 00000000100ed3ec     guideXOS.obj
 0004:00051418       _unwind0guideXOS_guideXOS_DefaultApps_WebBrowser__MapChar 00000000100ed418     guideXOS.obj
 0004:00051428       _unwind0guideXOS_guideXOS_DefaultApps_WebBrowser__OnInput 00000000100ed428     guideXOS.obj
 0004:00051490       _unwind0guideXOS_guideXOS_DefaultApps_WebBrowser__OnDraw 00000000100ed490     guideXOS.obj
 0004:000514cc       _unwind0guideXOS_guideXOS_DefaultApps_WebBrowser__DrawTabBar 00000000100ed4cc     guideXOS.obj
 0004:00051508       _unwind0guideXOS_guideXOS_DefaultApps_WebBrowser__DrawRenderedContent 00000000100ed508     guideXOS.obj
 0004:00051574       _unwind0guideXOS_guideXOS_DefaultApps_WebBrowser__DrawScrollbar 00000000100ed574     guideXOS.obj
 0004:000515b0       _unwind0guideXOS_guideXOS_DefaultApps_WebBrowser__AddNewTab 00000000100ed5b0     guideXOS.obj
 0004:000515c8       _unwind0guideXOS_guideXOS_DefaultApps_WebBrowser__CloseTab 00000000100ed5c8     guideXOS.obj
 0004:000515e0       _unwind0guideXOS_guideXOS_DefaultApps_WebBrowser__PollReceive 00000000100ed5e0     guideXOS.obj
 0004:000515f4       _unwind0guideXOS_guideXOS_DefaultApps_WebBrowser__StartRequest 00000000100ed5f4     guideXOS.obj
 0004:00051638       _unwind0guideXOS_guideXOS_DefaultApps_WebBrowser__AppendData 00000000100ed638     guideXOS.obj
 0004:000516ac       _unwind0guideXOS_guideXOS_DefaultApps_WebBrowser__ParseAndRenderHtml 00000000100ed6ac     guideXOS.obj
 0004:00051794       _unwind0guideXOS_guideXOS_DefaultApps_WebBrowser__AddTextElement 00000000100ed794     guideXOS.obj
 0004:0005189c       _unwind0guideXOS_guideXOS_DefaultApps_WebBrowser__AddLine 00000000100ed89c     guideXOS.obj
 0004:000518c0       _unwind0guideXOS_guideXOS_DefaultApps_WebBrowser__SplitWords 00000000100ed8c0     guideXOS.obj
 0004:00051914       _unwind0guideXOS_guideXOS_DefaultApps_WebBrowser__ExtractTitle 00000000100ed914     guideXOS.obj
 0004:00051978       _unwind0guideXOS_guideXOS_DefaultApps_WebBrowser__ToLowerCase 00000000100ed978     guideXOS.obj
 0004:000519ac       _unwind0guideXOS_guideXOS_DefaultApps_WebBrowser__FindString 00000000100ed9ac     guideXOS.obj
 0004:000519e4       _unwind0guideXOS_guideXOS_DefaultApps_WebBrowser__NextEphemeral 00000000100ed9e4     guideXOS.obj
 0004:000519f0       _unwind0guideXOS_guideXOS_DefaultApps_WebBrowser__ToAscii 00000000100ed9f0     guideXOS.obj
 0004:00051a14       _unwind0guideXOS_guideXOS_DefaultApps_WebBrowser__OnSetVisible 00000000100eda14     guideXOS.obj
 0004:00051a30       _unwind0guideXOS_guideXOS_DefaultApps_WebBrowser__IndexOf 00000000100eda30     guideXOS.obj
 0004:00051a48       _unwind0guideXOS_guideXOS_DefaultApps_WebBrowser__StartsWithFast 00000000100eda48     guideXOS.obj
 0004:00051a6c       _unwind0guideXOS_guideXOS_DefaultApps_WebBrowser__Dispose 00000000100eda6c     guideXOS.obj
 0004:00051aa8       _unwind0guideXOS_guideXOS_DefaultApps_Welcome___ctor 00000000100edaa8     guideXOS.obj
 0004:00051ac8       _unwind0guideXOS_guideXOS_DefaultApps_Welcome__OnDraw 00000000100edac8     guideXOS.obj
 0004:00051ae0       _unwind0guideXOS_guideXOS_Compat_Posix__EndsWithSlash 00000000100edae0     guideXOS.obj
 0004:00051ae8       _unwind0guideXOS_guideXOS_Compat_Posix__LastSlashBefore 00000000100edae8     guideXOS.obj
 0004:00051b00       _unwind0guideXOS_guideXOS_Compat_Posix__StartsWithString 00000000100edb00     guideXOS.obj
 0004:00051b28       _unwind0guideXOS_guideXOS_Compat_Posix__NormalizePath 00000000100edb28     guideXOS.obj
 0004:00051b90       _unwind0guideXOS_guideXOS_Compat_Posix__EnsureDir 00000000100edb90     guideXOS.obj
 0004:00051ba0       _unwind0guideXOS_guideXOS_Compat_Posix__CombineRelative 00000000100edba0     guideXOS.obj
 0004:00051bb4       _unwind0guideXOS_guideXOS_Compat_Posix__Split 00000000100edbb4     guideXOS.obj
 0004:00051bf0       _unwind0guideXOS_guideXOS_Compat_Posix__List 00000000100edbf0     guideXOS.obj
 0004:00051c30       _unwind0guideXOS_guideXOS_Compat_Posix__DirectoryExists 00000000100edc30     guideXOS.obj
 0004:00051ca8       _unwind0guideXOS_guideXOS_Compat_Posix__DisposeAll 00000000100edca8     guideXOS.obj
 0004:00051cd0       _unwind0guideXOS_guideXOS_Compat_Posix__TryFuzzyResolve 00000000100edcd0     guideXOS.obj
 0004:00051d48       _unwind0guideXOS_guideXOS_NETv4_MACAddress__op_Equality 00000000100edd48     guideXOS.obj
 0004:00051d50       _unwind0guideXOS_guideXOS_NETv4_TCPClient___ctor 00000000100edd50     guideXOS.obj
 0004:00051d68       _unwind0guideXOS_guideXOS_NETv4_TCPClient__CacheConcat 00000000100edd68     guideXOS.obj
 0004:00051dbc       _unwind0guideXOS_guideXOS_NETv4_TCPClient__CacheFlush 00000000100eddbc     guideXOS.obj
 0004:00051dd0       _unwind0guideXOS_guideXOS_NETv4_IPAddress__IsInSameSubnet 00000000100eddd0     guideXOS.obj
 0004:00051dd8       _unwind0guideXOS_guideXOS_Network_Http_Header___ctor 00000000100eddd8     guideXOS.obj
 0004:00051de0       _unwind0guideXOS_guideXOS_Network_Http_Request___ctor 00000000100edde0     guideXOS.obj
 0004:00051df4       _unwind0guideXOS_guideXOS_Network_Http_Response___ctor 00000000100eddf4     guideXOS.obj
 0004:00051e08       _unwind0guideXOS_guideXOS_Misc_Interrupts_INT___ctor 00000000100ede08     guideXOS.obj
 0004:00051e10       _unwind0guideXOS_guideXOS_FS_FAT___c__DisplayClass50_0___ctor 00000000100ede10     guideXOS.obj
 0004:00051e18       _unwind0guideXOS_guideXOS_FS_FAT___c__DisplayClass50_0___FindPath_b__0 00000000100ede18     guideXOS.obj
 0004:00051e28       _unwind0guideXOS_guideXOS_FS_FAT___c__DisplayClass50_1___ctor 00000000100ede28     guideXOS.obj
 0004:00051e30       _unwind0guideXOS_guideXOS_FS_FAT___c__DisplayClass50_1___FindPath_b__1 00000000100ede30     guideXOS.obj
 0004:00051e44       _unwind0guideXOS_guideXOS_FS_FAT___c__DisplayClass60_0___ctor 00000000100ede44     guideXOS.obj
 0004:00051e4c       _unwind0guideXOS_guideXOS_FS_FAT___c__DisplayClass60_0___GetFiles_b__0 00000000100ede4c     guideXOS.obj
 0004:00051e68       _unwind0guideXOS_guideXOS_Kernel_Drivers_EHCI_TD__Clean 00000000100ede68     guideXOS.obj
 0004:00051e88       _unwind0guideXOS_guideXOS_Kernel_Drivers_EHCI_QH__Clean 00000000100ede88     guideXOS.obj
 0004:00051ea8       _unwind0guideXOS_guideXOS_Kernel_Drivers_SATA_HBACommandHeader__set_CommandFISLength 00000000100edea8     guideXOS.obj
 0004:00051eb0       _unwind0guideXOS_guideXOS_Kernel_Drivers_SATA_HBACommandHeader__set_Write 00000000100edeb0     guideXOS.obj
 0004:00051eb8       _unwind0guideXOS_guideXOS_Kernel_Drivers_SATA_SATADevice__Configure 00000000100edeb8     guideXOS.obj
 0004:00051ee0       _unwind0guideXOS_guideXOS_Kernel_Drivers_SATA_SATADevice__StartCMD 00000000100edee0     guideXOS.obj
 0004:00051ef0       _unwind0guideXOS_guideXOS_Kernel_Drivers_SATA_SATADevice__StopCMD 00000000100edef0     guideXOS.obj
 0004:00051f00       _unwind0guideXOS_guideXOS_Kernel_Drivers_SATA_SATADevice__Read 00000000100edf00     guideXOS.obj
 0004:00051f0c       _unwind0guideXOS_guideXOS_Kernel_Drivers_SATA_SATADevice__Write 00000000100edf0c     guideXOS.obj
 0004:00051f18       _unwind0guideXOS_guideXOS_Kernel_Drivers_SATA_SATADevice__ReadOrWrite 00000000100edf18     guideXOS.obj
 0004:00051f64       _unwind0guideXOS_guideXOS_Kernel_Drivers_SATA_SATADevice__FindSlot 00000000100edf64     guideXOS.obj
 0004:00051f78       _unwind0guideXOS_guideXOS_Kernel_Drivers_SATA_SATADevice___ctor 00000000100edf78     guideXOS.obj
 0004:00051f88       _unwind0guideXOS_guideXOS_Kernel_Drivers_USBMSCBot_USBDisk__Initialize 00000000100edf88     guideXOS.obj
 0004:00051fbc       _unwind0guideXOS_guideXOS_Kernel_Drivers_USBMSCBot_USBDisk__FillCBW 00000000100edfbc     guideXOS.obj
 0004:00051fcc       _unwind0guideXOS_guideXOS_Kernel_Drivers_USBMSCBot_USBDisk__BotReset 00000000100edfcc     guideXOS.obj
 0004:00051fd8       _unwind0guideXOS_guideXOS_Kernel_Drivers_USBMSCBot_USBDisk__GetMaxLun 00000000100edfd8     guideXOS.obj
 0004:00051fe4       _unwind0guideXOS_guideXOS_Kernel_Drivers_USBMSCBot_USBDisk__SendCBW 00000000100edfe4     guideXOS.obj
 0004:00052010       _unwind0guideXOS_guideXOS_Kernel_Drivers_USBMSCBot_USBDisk__ReceiveCSW 00000000100ee010     guideXOS.obj
 0004:0005202c       _unwind0guideXOS_guideXOS_Kernel_Drivers_USBMSCBot_USBDisk__SCSI_Inquiry 00000000100ee02c     guideXOS.obj
 0004:00052060       _unwind0guideXOS_guideXOS_Kernel_Drivers_USBMSCBot_USBDisk__TestUnitReady 00000000100ee060     guideXOS.obj
 0004:00052084       _unwind0guideXOS_guideXOS_Kernel_Drivers_USBMSCBot_USBDisk__ReadCapacity 00000000100ee084     guideXOS.obj
 0004:000520d8       _unwind0guideXOS_guideXOS_Kernel_Drivers_USBMSCBot_USBDisk__Swap32 00000000100ee0d8     guideXOS.obj
 0004:000520e0       _unwind0guideXOS_guideXOS_Kernel_Drivers_USBMSCBot_USBDisk__Read10 00000000100ee0e0     guideXOS.obj
 0004:00052110       _unwind0guideXOS_guideXOS_Kernel_Drivers_USBMSCBot_USBDisk__Read 00000000100ee110     guideXOS.obj
 0004:0005212c       _unwind0guideXOS_guideXOS_Kernel_Drivers_USBMSCBot_USBDisk__Write 00000000100ee12c     guideXOS.obj
 0004:00052134       _unwind0guideXOS_guideXOS_Modules_ModuleManager___c___ctor 00000000100ee134     guideXOS.obj
 0004:0005213c       _unwind0guideXOS_guideXOS_Modules_ModuleManager___c___InitializeBuiltins_b__7_0 00000000100ee13c     guideXOS.obj
 0004:00052150       _unwind0guideXOS_guideXOS_GUI_DisplayOptions___c___ctor 00000000100ee150     guideXOS.obj
 0004:00052158       _unwind0guideXOS_guideXOS_GUI_DisplayOptions___c___OnInput_b__40_0 00000000100ee158     guideXOS.obj
 0004:000521d0       _unwind1guideXOS_guideXOS_GUI_DisplayOptions___c___OnInput_b__40_0 00000000100ee1d0     guideXOS.obj
 0004:000521e8       _unwind0guideXOS_guideXOS_GUI_DisplayOptions___c___OnInput_b__40_1 00000000100ee1e8     guideXOS.obj
 0004:00052224       _unwind0guideXOS_guideXOS_GUI_GXMScriptWindow_TextBoxDef___ctor 00000000100ee224     guideXOS.obj
 0004:00052230       _unwind0guideXOS_guideXOS_GUI_GXMScriptWindow_ListViewDef___ctor 00000000100ee230     guideXOS.obj
 0004:00052244       _unwind0guideXOS_guideXOS_GUI_GXMScriptWindow_DropdownDef___ctor 00000000100ee244     guideXOS.obj
 0004:00052258       _unwind0guideXOS_guideXOS_GUI_GXMScriptWindow_Callback___ctor 00000000100ee258     guideXOS.obj
 0004:00052260       _unwind0guideXOS_guideXOS_GUI_WorkspaceSwitcher_WindowSnapshot___ctor 00000000100ee260     guideXOS.obj
 0004:00052268       _unwind0guideXOS_guideXOS_DockableWidgets_Monitor_Chart___ctor 00000000100ee268     guideXOS.obj
 0004:00052284       _unwind0guideXOS_guideXOS_DefaultApps_DiskManager_DiskEntry___ctor 00000000100ee284     guideXOS.obj
 0004:0005228c       _unwind0guideXOS_guideXOS_DefaultApps_DiskManager___c__DisplayClass38_0___ctor 00000000100ee28c     guideXOS.obj
 0004:00052294       _unwind0guideXOS_guideXOS_DefaultApps_DiskManager___c__DisplayClass38_0___ReadMBRForEntry_b__0 00000000100ee294     guideXOS.obj
 0004:000522f4       _unwind1guideXOS_guideXOS_DefaultApps_DiskManager___c__DisplayClass38_0___ReadMBRForEntry_b__0 00000000100ee2f4     guideXOS.obj
 0004:00052308       _unwind2guideXOS_guideXOS_DefaultApps_DiskManager___c__DisplayClass38_0___ReadMBRForEntry_b__0 00000000100ee308     guideXOS.obj
 0004:0005231c       _unwind0guideXOS_guideXOS_DefaultApps_DiskManager___c__DisplayClass54_0___ctor 00000000100ee31c     guideXOS.obj
 0004:00052324       _unwind0guideXOS_guideXOS_DefaultApps_DiskManager___c__DisplayClass54_0___TryCreatePartitionLargestFree_b__0 00000000100ee324     guideXOS.obj
 0004:00052334       _unwind0guideXOS_guideXOS_DefaultApps_DiskManager___c__DisplayClass54_0___TryCreatePartitionLargestFree_b__1 00000000100ee334     guideXOS.obj
 0004:00052344       _unwind0guideXOS_guideXOS_DefaultApps_IRCNetworks_Entry___ctor 00000000100ee344     guideXOS.obj
 0004:0005234c       _unwind0guideXOS_guideXOS_DefaultApps_Notepad___c__DisplayClass24_0___ctor 00000000100ee34c     guideXOS.obj
 0004:00052354       _unwind0guideXOS_guideXOS_DefaultApps_Notepad___c__DisplayClass24_0___OpenSaveAs_b__0 00000000100ee354     guideXOS.obj
 0004:00052364       _unwind0guideXOS_guideXOS_DefaultApps_TaskManager_Chart___ctor 00000000100ee364     guideXOS.obj
 0004:00052380       _unwind0guideXOS_guideXOS_DefaultApps_TaskManager_Chart__EnsureSize 00000000100ee380     guideXOS.obj
 0004:0005239c       _unwind0guideXOS_guideXOS_DefaultApps_WebBrowser_BrowserTab___ctor 00000000100ee39c     guideXOS.obj
 0004:000523b0       _unwind0guideXOS_guideXOS_DefaultApps_WebBrowser_RenderElement___ctor 00000000100ee3b0     guideXOS.obj
 0004:000523b8       _unwind0guideXOS_System_Array_1<UInt8>___ctor 00000000100ee3b8     guideXOS.obj
 0004:000523c0       _unwind0guideXOS_System_Collections_Generic_List_1<UInt8>__ToArray 00000000100ee3c0     guideXOS.obj
 0004:000523e0       _unwind0guideXOS_System_Collections_Generic_List_1<UInt8>__Dispose 00000000100ee3e0     guideXOS.obj
 0004:00052404       _unwind0guideXOS_System_Array_1<Char>___ctor 00000000100ee404     guideXOS.obj
 0004:0005240c       _unwind0guideXOS_System_Array_1<guideXOS_System_ConsoleKey>___ctor 00000000100ee40c     guideXOS.obj
 0004:00052414       _unwind0guideXOS_System_Array_1<Int32>___ctor 00000000100ee414     guideXOS.obj
 0004:0005241c       _unwind0guideXOS_System_Collections_Generic_List_1<Int32>__Dispose 00000000100ee41c     guideXOS.obj
 0004:00052440       _unwind0guideXOS_System_Func_2<Int32__System___Canon>__InvokeOpenStaticThunk 00000000100ee440     guideXOS.obj
 0004:00052454       _unwind0guideXOS_System_Array_1<UInt32>___ctor 00000000100ee454     guideXOS.obj
 0004:0005245c       _unwind0guideXOS_System_Collections_Generic_List_1<UInt32>__Dispose 00000000100ee45c     guideXOS.obj
 0004:00052480       _unwind0guideXOS_System_Array_1<UInt64>___ctor 00000000100ee480     guideXOS.obj
 0004:00052488       _unwind0guideXOS_System_Collections_Generic_List_1<UInt64>__RemoveAt 00000000100ee488     guideXOS.obj
 0004:000524ac       _unwind0guideXOS_System_Collections_Generic_List_1<UInt64>__Dispose 00000000100ee4ac     guideXOS.obj
 0004:000524d0       _unwind0guideXOS_System_Array_1<guideXOS_System_Drawing_Point>___ctor 00000000100ee4d0     guideXOS.obj
 0004:000524d8       _unwind0guideXOS_System_Collections_Generic_List_1<guideXOS_System_Drawing_Point>__RemoveAt 00000000100ee4d8     guideXOS.obj
 0004:00052500       _unwind0guideXOS_System_Collections_Generic_List_1<guideXOS_System_Drawing_Point>__Dispose 00000000100ee500     guideXOS.obj
 0004:00052524       _unwind0guideXOS_System_Array_1<guideXOS_guideXOS_Kernel_Drivers_Resolution>___ctor 00000000100ee524     guideXOS.obj
 0004:0005252c       _unwind0guideXOS_System_Array_1<guideXOS_guideXOS_OS_FirewallMode>___ctor 00000000100ee52c     guideXOS.obj
 0004:00052534       _unwind0guideXOS_System_Array_1<guideXOS_guideXOS_GUI_RecentProgramEntry>___ctor 00000000100ee534     guideXOS.obj
 0004:0005253c       _unwind0guideXOS_System_Collections_Generic_List_1<guideXOS_guideXOS_GUI_RecentProgramEntry>__Insert 00000000100ee53c     guideXOS.obj
 0004:000525b0       _unwind0guideXOS_System_Collections_Generic_List_1<guideXOS_guideXOS_GUI_RecentProgramEntry>__ToArray 00000000100ee5b0     guideXOS.obj
 0004:000525f0       _unwind0guideXOS_System_Collections_Generic_List_1<guideXOS_guideXOS_GUI_RecentProgramEntry>__IndexOf 00000000100ee5f0     guideXOS.obj
 0004:000525fc       _unwind0guideXOS_System_Collections_Generic_List_1<guideXOS_guideXOS_GUI_RecentProgramEntry>__RemoveAt 00000000100ee5fc     guideXOS.obj
 0004:00052640       _unwind0guideXOS_System_Collections_Generic_List_1<guideXOS_guideXOS_GUI_RecentProgramEntry>__Dispose 00000000100ee640     guideXOS.obj
 0004:00052664       _unwind0guideXOS_System_Array_1<guideXOS_guideXOS_GUI_RecentDocumentEntry>___ctor 00000000100ee664     guideXOS.obj
 0004:0005266c       _unwind0guideXOS_System_Collections_Generic_List_1<guideXOS_guideXOS_GUI_RecentDocumentEntry>__Insert 00000000100ee66c     guideXOS.obj
 0004:000526e0       _unwind0guideXOS_System_Collections_Generic_List_1<guideXOS_guideXOS_GUI_RecentDocumentEntry>__ToArray 00000000100ee6e0     guideXOS.obj
 0004:00052720       _unwind0guideXOS_System_Collections_Generic_List_1<guideXOS_guideXOS_GUI_RecentDocumentEntry>__IndexOf 00000000100ee720     guideXOS.obj
 0004:0005272c       _unwind0guideXOS_System_Collections_Generic_List_1<guideXOS_guideXOS_GUI_RecentDocumentEntry>__RemoveAt 00000000100ee72c     guideXOS.obj
 0004:00052770       _unwind0guideXOS_System_Collections_Generic_List_1<guideXOS_guideXOS_GUI_RecentDocumentEntry>__Dispose 00000000100ee770     guideXOS.obj
 0004:00052794       _unwind0guideXOS_System_Array_1<guideXOS_guideXOS_DefaultApps_PaintTool>___ctor 00000000100ee794     guideXOS.obj
 0004:0005279c       _unwind0guideXOS_System_Collections_Generic_List_1<guideXOS_guideXOS_DefaultApps_PaintTool>__Dispose 00000000100ee79c     guideXOS.obj
 0004:000527c0       _unwind0guideXOS_System_Array_1<guideXOS_Allocator_OwnerSnapshot>___ctor 00000000100ee7c0     guideXOS.obj
 0004:000527c8       _unwind0guideXOS_System_Array_1<guideXOS_IDT_IDTEntry>___ctor 00000000100ee7c8     guideXOS.obj
 0004:000527d0       _unwind0guideXOS_System_Array_1<guideXOS_guideXOS_NETv4_ARPCache>___ctor 00000000100ee7d0     guideXOS.obj
 0004:000527d8       _unwind0guideXOS_System_Collections_Generic_List_1<guideXOS_guideXOS_NETv4_ARPCache>__Dispose 00000000100ee7d8     guideXOS.obj
 0004:000527fc       _unwind0guideXOS_System_Array_1<guideXOS_guideXOS_FS_EXT2_DirEnt>___ctor 00000000100ee7fc     guideXOS.obj
 0004:00052804       _unwind0guideXOS_System_Collections_Generic_List_1<guideXOS_guideXOS_FS_EXT2_DirEnt>__Dispose 00000000100ee804     guideXOS.obj
 0004:00052828       _unwind0guideXOS_System_Array_1<guideXOS_guideXOS_Modules_ModuleManager_ModuleEntry>___ctor 00000000100ee828     guideXOS.obj
 0004:00052830       _unwind0guideXOS_System_Collections_Generic_List_1<guideXOS_guideXOS_Modules_ModuleManager_ModuleEntry>__Dispose 00000000100ee830     guideXOS.obj
 0004:00052854       _unwind0guideXOS_System_Array_1<guideXOS_guideXOS_GUI_GXMScriptWindow_Btn>___ctor 00000000100ee854     guideXOS.obj
 0004:0005285c       _unwind0guideXOS_System_Collections_Generic_List_1<guideXOS_guideXOS_GUI_GXMScriptWindow_Btn>__Dispose 00000000100ee85c     guideXOS.obj
 0004:00052880       _unwind0guideXOS_System_Array_1<guideXOS_guideXOS_GUI_GXMScriptWindow_Label>___ctor 00000000100ee880     guideXOS.obj
 0004:00052888       _unwind0guideXOS_System_Collections_Generic_List_1<guideXOS_guideXOS_GUI_GXMScriptWindow_Label>__Dispose 00000000100ee888     guideXOS.obj
 0004:000528ac       _unwind0guideXOS_System_Array_1<guideXOS_guideXOS_GUI_PinnedManager_Pinned>___ctor 00000000100ee8ac     guideXOS.obj
 0004:000528b4       _unwind0guideXOS_System_Collections_Generic_List_1<guideXOS_guideXOS_GUI_PinnedManager_Pinned>__Dispose 00000000100ee8b4     guideXOS.obj
 0004:000528d8       _unwind0guideXOS_System_Array_1<guideXOS_guideXOS_GUI_StartMenu_AppEntry>___ctor 00000000100ee8d8     guideXOS.obj
 0004:000528e0       _unwind0guideXOS_System_Array_1<guideXOS_guideXOS_GUI_USBDrives_Entry>___ctor 00000000100ee8e0     guideXOS.obj
 0004:000528e8       _unwind0guideXOS_System_Array_1<guideXOS_guideXOS_GUI_WindowManager_PendingWindow>___ctor 00000000100ee8e8     guideXOS.obj
 0004:000528f0       _unwind0guideXOS_System_Collections_Generic_List_1<guideXOS_guideXOS_GUI_WindowManager_PendingWindow>__Dispose 00000000100ee8f0     guideXOS.obj
 0004:00052914       _unwind0guideXOS_System_Array_1<guideXOS_guideXOS_DefaultApps_Devices_Row>___ctor 00000000100ee914     guideXOS.obj
 0004:0005291c       _unwind0guideXOS_System_Array_1<guideXOS_guideXOS_DefaultApps_DiskManager_Part>___ctor 00000000100ee91c     guideXOS.obj
 0004:00052924       _unwind0guideXOS_System_Array_1<System___Canon>___ctor 00000000100ee924     guideXOS.obj
 0004:0005292c       _unwind0guideXOS_System_Collections_Generic_List_1<System___Canon>___ctor 00000000100ee92c     guideXOS.obj
 0004:00052940       _unwind0guideXOS_System_Collections_Generic_List_1<System___Canon>__ToArray 00000000100ee940     guideXOS.obj
 0004:0005296c       _unwind0guideXOS_System_Collections_Generic_List_1<System___Canon>__IndexOf 00000000100ee96c     guideXOS.obj
 0004:0005298c       _unwind0guideXOS_System_Collections_Generic_List_1<System___Canon>__Remove 00000000100ee98c     guideXOS.obj
 0004:0005299c       _unwind0guideXOS_System_Collections_Generic_List_1<System___Canon>__RemoveAt 00000000100ee99c     guideXOS.obj
 0004:000529c4       _unwind0guideXOS_System_Collections_Generic_List_1<System___Canon>__Dispose 00000000100ee9c4     guideXOS.obj
 0004:000529e8       _unwind0guideXOS_System_Collections_Generic_Queue_1<System___Canon>__Dequeue 00000000100ee9e8     guideXOS.obj
 0004:00052a1c       _unwind0guideXOS_System_Array_EmptyArray_1<System___Canon>___cctor 00000000100eea1c     guideXOS.obj
 0004:00052a30       _unwind0guideXOS_System_Collections_Generic_Dictionary_2<System___Canon__Int32>___ctor 00000000100eea30     guideXOS.obj
 0004:00052a4c       _unwind0guideXOS_System_Collections_Generic_Dictionary_2<System___Canon__Int32>__Dispose 00000000100eea4c     guideXOS.obj
 0004:00052a84       _unwind0guideXOS_System_Collections_Generic_Dictionary_2<System___Canon__guideXOS_guideXOS_DefaultApps_PaintTool>___ctor 00000000100eea84     guideXOS.obj
 0004:00052aa0       _unwind0guideXOS_System_Collections_Generic_Dictionary_2<System___Canon__guideXOS_guideXOS_DefaultApps_PaintTool>__Dispose 00000000100eeaa0     guideXOS.obj
 0004:00052ad8       _unwind0guideXOS__Module___StartupCodeMain 00000000100eead8     guideXOS.obj
 0004:00052ae8       _unwind0guideXOS_Allocator__ClearAllocate<guideXOS_guideXOS_Intel825xx_RXDescriptor> 00000000100eeae8     guideXOS.obj
 0004:00052af4       _unwind0guideXOS_Allocator__ClearAllocate<guideXOS_guideXOS_Intel825xx_TXDescriptor> 00000000100eeaf4     guideXOS.obj
 0004:00052b00       _unwind0guideXOS_Allocator__ClearAllocate<guideXOS_guideXOS_RTL8111_DMADescriptor> 00000000100eeb00     guideXOS.obj
 0005:00000000       __FrozenSegmentRegionStart 00000000100f0000     guideXOS.obj
 0005:00000008       __Str_                     00000000100f0008     guideXOS.obj
 0005:00000020       __Str________________________________F9B74DCC2C30B833333DF39209DF1D350F28DAD78C0CCF4488DEC08673AE266D 00000000100f0020     guideXOS.obj
 0005:00002038       __Str___102B51B9765A56A3E899F7CF0EE38E5251F9C503B357B330A49183EB7B155604 00000000100f2038     guideXOS.obj
 0005:00002050       __Str__Detected_media___E6E76DA0E16EAF0D94B5773DC7FA1A5126330A41B340ECEE8128F2AB215381D1 00000000100f2050     guideXOS.obj
 0005:00002088       __Str__Lines___BBA1C5C4D7BAAA532A1BAC6A885580A298ADB6E552FCC1F7613560A9DDD4253A 00000000100f2088     guideXOS.obj
 0005:000020b0       __Str__Location___902905F97F180F8CE9ED07D1D2D85480CE26369010AF6BE4BC9CF1DD8D460BAB 00000000100f20b0     guideXOS.obj
 0005:000020e0       __Str____B7F560303EE2CCA55615B53FCFF87C6AB2C55F9E71A6CEA93C61B572213E7075 00000000100f20e0     guideXOS.obj
 0005:00002100       __Str______8663F3A9812CA2DC91038557C63ADE57BB5F517C202ADFA5CA3D8F0CEDD07D5D 00000000100f2100     guideXOS.obj
 0005:00002120       __Str___User_Agent__guideXOS_0_2__Co_3BFF99A77A66626415E16FC71D0FF784808B6D42A53375A627D2BD03BEF34A0E 00000000100f2120     guideXOS.obj
 0005:00002198       __Str___869F1DFB999A452F497A4CF7F44DB2D6EE661F74A9E7E05251BC1420E50672D4 00000000100f2198     guideXOS.obj
 0005:000021b0       __Str____DF99A91EB92A56824B6697CDA1E8F32E20782291DE4C5509A167ABE1829793A9 00000000100f21b0     guideXOS.obj
 0005:000021d0       __Str______FF9AD70A423572A66AED5041663913D4B85FAD296307647226E2ADEFDBCE1EDC 00000000100f21d0     guideXOS.obj
 0005:000021f0       __Str___1__Run__dns__hostname_____e__A3773AB9ABB68923727913D78ECFF64C4087AB79A16084DF95FA6DF442AAA6A5 00000000100f21f0     guideXOS.obj
 0005:00002268       __Str___1__ipconfig__release_____Rel_2E68C52891594DE9358006055BD44F4983582B5917103C725AC10F8FF12B5FBB 00000000100f2268     guideXOS.obj
 0005:000022d8       __Str___2__Then__ping__ip_________us_F3588FEA206EC312EA65EFB9DE5809898CD9DA8F6D8D2B57FE3D980DEBDE165F 00000000100f22d8     guideXOS.obj
 0005:00002350       __Str___2__netinit_______________Re__A84B3727DC94A7237A4AF7FB7BB1AF6ADDEE6D1D6963EDD97D30F36A44689212 00000000100f2350     guideXOS.obj
 0005:000023c8       __Str___Fade_In_Duration__FEC2B9836A6E5B8A0554F699785E31F9F95C34408465681CB1F2C198C013D75E 00000000100f23c8     guideXOS.obj
 0005:00002408       __Str___Fade_Out_Duration__C7372A845BF8988C09176EDFA1806543A9E1A2F83FFA4053D782E965B882C43D 00000000100f2408     guideXOS.obj
 0005:00002448       __Str___Rotation_Interval__9189D4368FF3BB482FC77F9D1AE2397DBCAFDD718BA2CFF79434388699B4AF96 00000000100f2448     guideXOS.obj
 0005:00002488       __Str___Slide_Duration__EAB445511403D443183691BAF19EB4ED5776574FCE27082FACB31B17734F0A32 00000000100f2488     guideXOS.obj
 0005:000024c0       __Str___Transition_Duration__69979428EB4DA9E125D14D4D94872828CE0BA52ADB453F131D3C979C220ED5D9 00000000100f24c0     guideXOS.obj
 0005:00002508       __Str_________________0123456789_____D1D3E4C4807A6735F52C1CA76ABB625C11CD94208B0CD60185A95FA73A041AC3 00000000100f2508     guideXOS.obj
 0005:000025e0       __Str____6B1CB7A90FA899AF521DBF2B7FC9EBAD061749633CB10FD63093877FDC3F29EF 00000000100f25e0     guideXOS.obj
 0005:00002600       __Str___USB__7FA99D0616FD7DCE269DF86324BB34FE63DC6FE185549A9D95BCBF97697F2639 00000000100f2600     guideXOS.obj
 0005:00002628       __Str___current__CFB873BDC7866015445BF1DC7E4E0209DFC0DD4F4D8FD849B547C8DD04DC463E 00000000100f2628     guideXOS.obj
 0005:00002658       __Str____8EE1B2452B9F193162AB5B3FD65CD941A8CDA0655D18CB6FF8456BDD39B137C3 00000000100f2658     guideXOS.obj
 0005:00002678       __Str__0_____FAA079C02BC5D828775AE19A26E7126B5E64647D552C72F7DD7DFF2D7B651634 00000000100f2678     guideXOS.obj
 0005:000026a0       __Str____5D6CAD0B38452B2AA55F82917EE0E9428139190674C51AB25D3F1B650D53CF04 00000000100f26a0     guideXOS.obj
 0005:000026c0       __Str____DAC3E4F6F4BC4376454DAF19FAF2DFC1F1C39F23835BEB3A94AF7214620C3C17 00000000100f26c0     guideXOS.obj
 0005:000026e0       __Str__AM_73566812B0B3D62C1068A09EF4F2BF50EF26A64C3DE246F213753A07493A4E19 00000000100f26e0     guideXOS.obj
 0005:00002700       __Str__B_782C7081DDE927C467ABBECDBB4FC47A96CDDA4AC6521499C62B7C9739B1F4A9 00000000100f2700     guideXOS.obj
 0005:00002720       __Str__Configured_5922E3C8AAB74D690AA4D06B9DF341DB60A4B1862FB622162AD4A4AE76E753FB 00000000100f2720     guideXOS.obj
 0005:00002750       __Str__DevID_0x_753BD4BCFBD614398F1C1428721D321574B9F8C48F40905C5F668558116FD0F1 00000000100f2750     guideXOS.obj
 0005:00002778       __Str__Device_0x_B20DFF85FE651C3E65A386AF811D7BACA969009E25399B8354AB737052CDE5B4 00000000100f2778     guideXOS.obj
 0005:000027a8       __Str__Devices_0322465C1468CE8CE770F0ACE2B2449E8651E47072B413F18D677D05E032903F 00000000100f27a8     guideXOS.obj
 0005:000027d0       __Str__Func__6B642A99A14FA2263157B41CC664F793BD7F798C191231CF666359A42D59ECCB 00000000100f27d0     guideXOS.obj
 0005:000027f8       __Str__GB_4F8A3E5383DE2E72BED4B5DCAA3553070F7EC3FA59ED01A89918E420D05B95B4 00000000100f27f8     guideXOS.obj
 0005:00002818       __Str__HTTP_1_0__Host___723261CB12C9F25228FA84CA4627CC3F53A0ADA17D4C14D9D4C04EE0AD0E118D 00000000100f2818     guideXOS.obj
 0005:00002850       __Str__HTTP_1_1___CC7A014AED348233E7A2B8E8C5FAA4439D8A60D3894C28DECDD167FAE288EE05 00000000100f2850     guideXOS.obj
 0005:00002880       __Str__Has_Exited_3AF34E3D7FB3A925896A818FC98708DA45721EB45B5F1CC1D666570A2F96247D 00000000100f2880     guideXOS.obj
 0005:000028b0       __Str__KB_C67FF38127055921185C4D10769DD7392249A142D284F368CDCF36888E188F29 00000000100f28b0     guideXOS.obj
 0005:000028d0       __Str__KB_s_F1061009791A1F66AB0FA73DD93FCDB0A00D1471DE69576831BEFCF23D4FA313 00000000100f28d0     guideXOS.obj
 0005:000028f0       __Str__MB_3237212821C2FC6468D3678B8ED5498C3F5557F8E22F2FD390840F2725DAB7EF 00000000100f28f0     guideXOS.obj
 0005:00002910       __Str__MB_s_58105D3CB8BECFC997F0E20F82F42BC177FA49D608F723389D9126D5FD133980 00000000100f2910     guideXOS.obj
 0005:00002930       __Str__PM_3B3FFA6E8D400FB02DFEA30065C034E72FD17B671142465D71A430401A0D04B1 00000000100f2930     guideXOS.obj
 0005:00002950       __Str__Slot__FA9F310952EAF46B214AC1E04CEC66B6BC88E9E1F8EC6DC935AF1CA1E0DAD449 00000000100f2950     guideXOS.obj
 0005:00002978       __Str__TB_6EE428EE688581A92CD002B93D9AEF0DF3B05B0899B500A81553D582BA5C108E 00000000100f2978     guideXOS.obj
 0005:00002998       __Str__by__74094911964D78E62D232B70406D7B686597E2090825DBA80F9576D527E68EFC 00000000100f2998     guideXOS.obj
 0005:000029b8       __Str__device_s__9D456DAE03865F35209389858224DF7E5B619BEC3C886E8C64C153A08C31BFD0 00000000100f29b8     guideXOS.obj
 0005:000029e8       __Str__from__40F30B053D5BFFC199A827E6EC6711394A444E9616D570CD82C5406863FF727E 00000000100f29e8     guideXOS.obj
 0005:00002a10       __Str__is_empty_or_not_found_75D153C697446BC9FAF1C0BF11FFB9B94AC82B2F7C0ACB956C6967F07BF1103F 00000000100f2a10     guideXOS.obj
 0005:00002a58       __Str__is_not_found__FD845D57E9E54361143D8F52AC79ED9257C55D6B55340B1C86C3DF14A2DEEFEC 00000000100f2a58     guideXOS.obj
 0005:00002a90       __Str__min_EB7CC1D00E939B745A39A2A9BBCB646CCE0EBA9BD4D68C4632B3FD557A6E813E 00000000100f2a90     guideXOS.obj
 0005:00002ab0       __Str__ms_555EB25F921288D4A17968345D51E25F602D38D4D41835D90CA11213F1B91CE8 00000000100f2ab0     guideXOS.obj
 0005:00002ad0       __Str__px_F719E239E78796471ACCD16D5359D0DF09546AC5E3D395B32E4B4DD531068C9B 00000000100f2ad0     guideXOS.obj
 0005:00002af0       __Str__seconds____2CCFB6D32CAF23F17127FF9302F952FFF5172773A57030050273B756CE9177D1 00000000100f2af0     guideXOS.obj
 0005:00002b20       __Str__to__4704C585B23A1EE1197E71C7EF5316E957CC5665E6542823D4393ACBB2F2D737 00000000100f2b20     guideXOS.obj
 0005:00002b40       __Str__wants_to_communicate___777FD34FD958274977E3947D9B7B2005FCCED6C955CDB6B538C870AA8010163F 00000000100f2b40     guideXOS.obj
 0005:00002b88       __Str__window_CB7D3308C9A88944FF4C160D58C44F828011CE595FF31F7B3C9AC781B9A6D3B5 00000000100f2b88     guideXOS.obj
 0005:00002bb0       __Str__x__F47F07D6E43A458F94C79FC162F24431A2038AE77D2AF272D195DF10E8EC2D60 00000000100f2bb0     guideXOS.obj
 0005:00002bd0       __Str________________0123456789______F7BF6D38F3A9D914233DDAFB3D4E6DC2429E6CDAD1083CA3CD14A08C2A885C7F 00000000100f2bd0     guideXOS.obj
 0005:00002ca8       __Str___37AA3970B6801C9D286464F7D86E50BF41C88E54C7B4D08F3FF61935B3F59C3C 00000000100f2ca8     guideXOS.obj
 0005:00002cc0       __Str___is_not_found_83939CD445D2BC021F4028A01FDE5517453ED4B51B26E4EB3BC9F2FEF568FD40 00000000100f2cc0     guideXOS.obj
 0005:00002cf8       __Str____6E586CBEE3390CE73582F487F39ED8139079194C26C5FED5F748EC2ADF236C4D 00000000100f2cf8     guideXOS.obj
 0005:00002d18       __Str__LoginGuid__76B634541467C090D39864E86F001B81486E2E74F07A14A66DA3EFEF7C37A01C 00000000100f2d18     guideXOS.obj
 0005:00002d48       __Str__Success__true_C872BCBACDFE5EF4505895EB58386AB1E248C1A7B8D263EE88045CCDA5C38684 00000000100f2d48     guideXOS.obj
 0005:00002d80       __Str__loginGuid__91DD2BF4063A67BF27B40EF1AFAF111DB82856360E3568D4BACCC6C92B9D1182 00000000100f2d80     guideXOS.obj
 0005:00002db0       __Str__success__true_F37328F9B5A843E8571F112A0E31D1517FA3952FFC8D4669F0FF7F95B4D9DCBD 00000000100f2db0     guideXOS.obj
 0005:00002de8       __Str___9DEF996CB1EA87E596B6CADCCCA3839A352E99D9CE07E635CDB239F38CA294F8 00000000100f2de8     guideXOS.obj
 0005:00002e00       __Str__guideXOS_246B888B38E63335BAF9840504348CF7256C51C900C3333B5AF23CC8B2DA4160 00000000100f2e00     guideXOS.obj
 0005:00002e28       __Str__VALUE_DDC4C0F86C74227371E55543EA65E3D7076CF46EA80C0F5C65955A2FBE118A73 00000000100f2e28     guideXOS.obj
 0005:00002e50       __Str___BBB3AFA31AF1ADF2DEB2CD3774F62DF5807ACF44963FC296E62DE13B00380A6B 00000000100f2e50     guideXOS.obj
 0005:00002e68       __Str___Free_D18097B175F1184C8EB9B6AF30DFF85C40CFEE2AED5A19064E10E7451EB62DBC 00000000100f2e68     guideXOS.obj
 0005:00002e90       __Str___8A76197204599702D0F07CA4BB29A6958D1C56121D2E7D652CA25E4663CB2F76 00000000100f2e90     guideXOS.obj
 0005:00002ea8       __Str__Kernel__1EC5DCF4B86804D20EF28D56975AD2B1129740590752C7D796B96C3B17CBCF1D 00000000100f2ea8     guideXOS.obj
 0005:00002ed0       __Str__User__D87633777C42DF4B6863B75980A661989EDB12B7F9CD2B53312A0793133A4ACE 00000000100f2ed0     guideXOS.obj
 0005:00002ef8       __Str__empty__90C960A19659A24E421A2E3AD65FC542D95BFA978F39B2171D9FF2F0D7FEE8A9 00000000100f2ef8     guideXOS.obj
 0005:00002f20       __Str__new__2267A2BCD549CDDBE9CC46BF7556E28D0C2850E8870D0310E2C4CA1EEE68DF3F 00000000100f2f20     guideXOS.obj
 0005:00002f40       __Str__no_title__FE998FAFCE664AFE758A4366734315D3A5811933FC5DDE2A9917791CB2764827 00000000100f2f40     guideXOS.obj
 0005:00002f70       __Str__null__CF3561AB36AA4693F6779F5A720F5306AB902E0DCAC6846B86B48155D4A82825 00000000100f2f70     guideXOS.obj
 0005:00002f98       __Str__select__14862B678AA4A16D424F49E30BD48075BBB46D94ABFC971736E99153AC6ACC5D 00000000100f2f98     guideXOS.obj
 0005:00002fc0       __Str__too_small__89705DC80151EC93CF4B9D9A7B5C45C09C4E27A769312A21A0E2857BCDB1E6A3 00000000100f2fc0     guideXOS.obj
 0005:00002ff0       __Str___7C186033295A11388EB388A21E6E25AD05E9B6C45CD3C403DC3FAE8A2D19516E 00000000100f2ff0     guideXOS.obj
 0005:00003008       __Str___17D5F5A33AB5F6AED0395D2BC0A4E5DF61D92441EA8D77B0952C01BC8AA8BDE0 00000000100f3008     guideXOS.obj
 0005:00003020       __Str___206014A4266C2082B9433011FB2991059F972D570A8B3C976E5B2B8DFCFBFC8D 00000000100f3020     guideXOS.obj
 0005:00003038       __Str___D8FA32DD40B181D8250A4ECDE2F2F17BD7BFDF2793278D06EA5AFC647F3D5762 00000000100f3038     guideXOS.obj
 0005:00003050       __Str____159F0875013DAD37050AD50DDFAF4061A6569D160655235D4311F0A1AC685FD2 00000000100f3050     guideXOS.obj
 0005:00003070       __Str___0x_A64C77123C2AB1347129725DA2ED015A4DFEACE837A7ABA2C1F8C089801A3BD6 00000000100f3070     guideXOS.obj
 0005:00003090       __Str___Partition__0BE4F53908808E561D397F6BA334F0CEA988967DC5A6E92B2110E4B3EDEABB22 00000000100f3090     guideXOS.obj
 0005:000030c0       __Str___req__05549F28F32587410F26F014E61C50CEC1BEEA3BA46B86A341A913E46D133C9B 00000000100f30c0     guideXOS.obj
 0005:000030e8       __Str___total__1B3D8A1D3EE665A899F0C918FC9F9BA1AB1378206F3AE518ECF5AF84DC0E7754 00000000100f30e8     guideXOS.obj
 0005:00003110       __Str___password___8E71BE388166DAF1C1D62495A051C51BE829450FAF41DA90D0AD62B4951A8500 00000000100f3110     guideXOS.obj
 0005:00003140       __Str___24EA1EBD0BAFD39482DB46EC2D8959E61353A90EFC072719E1308F86C3A106BA 00000000100f3140     guideXOS.obj
 0005:00003158       __Str____vi_____6BD8B92680CFD2180BE452432DC0296865890E7D60E17E234181E78559EB7FCE 00000000100f3158     guideXOS.obj
 0005:00003180       __Str________________________A5F3EA75B9894116720F0DB04BF5BAA23E696495801C5EFD8D78CEFC8B1CD4E8 00000000100f3180     guideXOS.obj
 0005:000031c8       __Str____PONG__E0BAD541C2DA20B0114E4B5EABCBF1B1AF8AAAA65BC2B9FD90B176B40C99C31F 00000000100f31c8     guideXOS.obj
 0005:000031f0       __Str___075D3DDF5A3A826E13A92288E853BC4B2CB17FB05367AE865F401A4BB11F05CE 00000000100f31f0     guideXOS.obj
 0005:00003208       __Str____C7D10CEAFB0974092160E3ED2F2C029A9B6EF35EF6149AA328E34F80F58D154E 00000000100f3208     guideXOS.obj
 0005:00003228       __Str_____5A6C76A5C5BFCA312641FD696079B328416AE5F1D47852E6B6303B507EA33374 00000000100f3228     guideXOS.obj
 0005:00003248       __Str__BMP_81DB78B626C81CDE580688833A34BBB57047B193936BA58C23AD4D527D08D1F1 00000000100f3248     guideXOS.obj
 0005:00003268       __Str__JPEG_5F85C283436D72DB0AFA87C24B3D21F22F3D27363C80D7FA5663347A18D6D36D 00000000100f3268     guideXOS.obj
 0005:00003288       __Str__JPG_BC772014878C962ED92CCD055FA92B8ABBF5292E75F9C7561124C2D2BEF95637 00000000100f3288     guideXOS.obj
 0005:000032a8       __Str__PNG_BBA2DCB905D0E15B2E26222DA2D9013329438AF7B8E4092151E9949BBC5DD2F2 00000000100f32a8     guideXOS.obj
 0005:000032c8       __Str__bmp_930DE8F09EEB7E0A6A097DA4298EC752B087A86AD7ED7509FC9147B1598D9417 00000000100f32c8     guideXOS.obj
 0005:000032e8       __Str__gxm_0CC75A21EC73A5797142247FFAC9596C70E6B0F5E8A2F236F997CC547921F034 00000000100f32e8     guideXOS.obj
 0005:00003308       __Str__jpeg_503B22D5B674E896C3013F32E37123737BB6FF59675BEE9981BE67DC21D36390 00000000100f3308     guideXOS.obj
 0005:00003328       __Str__jpg_7ADF781468780D1AD3166264D705733F979013564F4D0A0F85EE263668A69327 00000000100f3328     guideXOS.obj
 0005:00003348       __Str__mue_6FCEE403DC96EE81AB870F9AEC397D00E7A92E617A61B1B4E554F6B0724DCCFA 00000000100f3348     guideXOS.obj
 0005:00003368       __Str__png_8553D5B341E1075AB39612DF6F9B58B0AC7D702D6088B5AF443D3DC513BB303B 00000000100f3368     guideXOS.obj
 0005:00003388       __Str__txt_0FF8D48BC8A97E63AF55826E6956AE01B3BDE08A92E11606D9B53F9B5954873F 00000000100f3388     guideXOS.obj
 0005:000033a8       __Str__wav_0A4E88975981D40CD5B288B9344D3DB8FE84BBF5E282E714539B8AE747D5A8E4 00000000100f33a8     guideXOS.obj
 0005:000033c8       __Str___ADE0274F84B828B0980112609BB51775D0A4E39BF4728F21DCDD04A627ABB92A 00000000100f33c8     guideXOS.obj
 0005:000033e0       __Str__clear_2D242605F9D30CBE958E938A1FA301ECB75A12CA0F050057779F12D3F79BDC97 00000000100f33e0     guideXOS.obj
 0005:00003408       __Str__connect_ADADDB8398BF11E55777372A8CF76946C8F6601D33533796F670617D48BB18C7 00000000100f3408     guideXOS.obj
 0005:00003430       __Str__div_DDD868C2E1978F7C880EF65C24BAD2DEFED5BC79DA347BBAFCC1645D9CA33779 00000000100f3430     guideXOS.obj
 0005:00003450       __Str__join_96C9C9D6AF93889F8EC3E5556CABF022261FDCB252B2428475B0CC3FEF197E7D 00000000100f3450     guideXOS.obj
 0005:00003470       __Str__nick_1CF55201F942D0F735170D90A522AEBEFC5D16A4DD60294831550EDFD7BD5112 00000000100f3470     guideXOS.obj
 0005:00003490       __Str__p_48F7CD120778862B4BEC91D4E3AA7AE8107910E0146F76027B116087EFE49982 00000000100f3490     guideXOS.obj
 0005:000034b0       __Str__preferences_system_svg_C13685BF020814B1F73FE79B278172162E9ED8A58677574ED29FB192A0A5869E 00000000100f34b0     guideXOS.obj
 0005:000034f8       __Str__quit_69065162860C3A0370B5DF5D02574C64CF89DAFF870BCE066B01BEEA92CE24CF 00000000100f34f8     guideXOS.obj
 0005:00003518       __Str__system_file_manager_svg_C8F33BA210B7A18602996EDDA8DD872600F9BF660C5DF6454072E15DB82504D5 00000000100f3518     guideXOS.obj
 0005:00003560       __Str__utilities_text_editor_svg_F8800F81E5924ACF23682F9F1B30DE3C6E6C0840084D51EBCA8C4BFBD07156AB 00000000100f3560     guideXOS.obj
 0005:000035b0       __Str__v1_auth_login_53EBEA30A8891F7E3FF68CBA175A8E1112DF99FC85B6E8C253E6550764C4856E 00000000100f35b0     guideXOS.obj
 0005:000035e8       __Str__v1_auth_register_5C151973C031D4725233EC0B274154F6ED0551FF303CC2D773E9C9AE69D29E49 00000000100f35e8     guideXOS.obj
 0005:00003620       __Str__vlc_svg_B25797F76EEED19510ACA72EA6D4D36020B40CF14B0375275FAF5283C5A4C30D 00000000100f3620     guideXOS.obj
 0005:00003648       __Str__0_E4F60D0AA6D7F3D3B6A6494B1C861B99F649C6F9EC51ABAF201B20F297327C95 00000000100f3648     guideXOS.obj
 0005:00003660       __Str__0__17DECE518A46ED315C292E481BD6518792B4B66D6668984E77D9839574FF7F3B 00000000100f3660     guideXOS.obj
 0005:00003680       __Str__0x_FE28E49AFDC968306E74CA85C02CC9BB561359BFCB7774E8E2B7AC1B18E53B5F 00000000100f3680     guideXOS.obj
 0005:000036a0       __Str__1_E79E418E48623569D75E2A7B09AE88ED9B77B126A445B9FF9DC6989A08EFA079 00000000100f36a0     guideXOS.obj
 0005:000036b8       __Str__10px_6BB327F8AEB2F6202C22790C12F0DD2AA0860B9E4D007287BE1A91C9A49926EE 00000000100f36b8     guideXOS.obj
 0005:000036d8       __Str__127_0_0_1_A65017B383AFE1D4C5D31A1A299B19102BA29D57D8A1D13F96EF19D7A3A64B7C 00000000100f36d8     guideXOS.obj
 0005:00003700       __Str__1px_932907FDB61F4FC08AFE04C0EF7DD28B14AAB0559457209B7EE2C1CCA1005DA0 00000000100f3700     guideXOS.obj
 0005:00003720       __Str__2_913DA1F8DF6F8FD47593840D533BA0458CC9873996BF310460ABB495B34C232A 00000000100f3720     guideXOS.obj
 0005:00003738       __Str__20px_38FBCC92732C3F617893ED92A5B16F1E48F491FCA9DFFBB8180483B5485B1753 00000000100f3738     guideXOS.obj
 0005:00003758       __Str__3_AC11339FFA8F270C4F781E0A3922BB1C80D9DEE6E4B6911CA34538ED9AE03CAA 00000000100f3758     guideXOS.obj
 0005:00003770       __Str__3A_International_Inc_5315B88D11BA929A4204C30298F9569260789D622828A638FEE0586FBECC7B2C 00000000100f3770     guideXOS.obj
 0005:000037b0       __Str__3Com_Corporation_92A37FA265807647BE8AA185BFCE29B50C23B1417FBA500E40B477FEFE41861F 00000000100f37b0     guideXOS.obj
 0005:000037e8       __Str__3Dlabs__Inc_Ltd_871288597BABC2D48EABB8F97CDB8ED41993DDCCFFD68300FB592FA1E21A0380 00000000100f37e8     guideXOS.obj
 0005:00003820       __Str__3com_Corporation_8CA316728EBB2F7815FFB260D2C59D5E3B4BA0261AB8F2FB897260E8D91086FB 00000000100f3820     guideXOS.obj
 0005:00003858       __Str__3dfx_Interactive_Inc_01417CCEED199870B4E1CB6FA42C7042B39BEC1DE96207F27E2D70EC08C551B9 00000000100f3858     guideXOS.obj
 0005:00003898       __Str__3dpower_B48782B3D819767FAD492A3EE96BAA04A8F186AF72711F5B9F9F369CD7460B4A 00000000100f3898     guideXOS.obj
 0005:000038c0       __Str__3pardata_Inc_14396FD3D74223653C3B0D0A82012B6B131273A2B03AE0737A513AF603DA4D78 00000000100f38c0     guideXOS.obj
 0005:000038f0       __Str__3px_001136F61145BADFC06CE64FA303617F328640E42BF002454C4654E34A964A0F 00000000100f38f0     guideXOS.obj
 0005:00003910       __Str__4_3089C464221340FED4229D6BA913A04224C91B44158C22163E8849EB7DCC4878 00000000100f3910     guideXOS.obj
 0005:00003928       __Str__4links_377009DE7BD19117AE35BE35F1E4817C03186F1C89114F1986209BDC43080358 00000000100f3928     guideXOS.obj
 0005:00003950       __Str__5_166F829E016F2315A8099E3A8D2DBEC6D91572379FF02C760BA4E0335789D47F 00000000100f3950     guideXOS.obj
 0005:00003968       __Str__5px_EFBD4F60783228CE8CBD49DBB675CEA03BA4336A46EB441CC2E69EAC42923A6B 00000000100f3968     guideXOS.obj
 0005:00003988       __Str__6_AA4FB8A61CAB7DB73F42671F2BB987A7291A436929B3D5F17FFE05F96BE13371 00000000100f3988     guideXOS.obj
 0005:000039a0       __Str__64_bit_F708CFF9C75DF7A18E6EB1D0DCC16A6030D72156E144BB3F6B0519663E4C6F36 00000000100f39a0     guideXOS.obj
 0005:000039c8       __Str__7_BB153E97380F82AA57033ADD2C11B28A3AE640C8DAAA89D2BD5BD317456ECB03 00000000100f39c8     guideXOS.obj
 0005:000039e0       __Str__8_0C59629D81806B2B169BCD633F8A9CB7DA43A8D692DBC95BC201D0F5CF5E08D5 00000000100f39e0     guideXOS.obj
 0005:000039f8       __Str__8x8_Inc_D4049E13F1A632DF5A9863E7D05AE49BCDCCF93F79CAE798C76508A84B50FCE6 00000000100f39f8     guideXOS.obj
 0005:00003a20       __Str__9_B58D15E89A953322B7AC8FC0D6E37710C1EACD25D8304EFD002904CB18EF62C6 00000000100f3a20     guideXOS.obj
 0005:00003a38       __Str___7648EB81C4E9FEF7B51879C6FCD6FB4B8863EEA0CB2A978C508711DC52C80041 00000000100f3a38     guideXOS.obj
 0005:00003a50       __Str____48BDF9D888628DCD4A727A4603A290D1F437F30E627BF4CF9B157DDE4C1A240B 00000000100f3a50     guideXOS.obj
 0005:00003a70       __Str___F19928677B2F51AD669B77D49DAFC34F42C5AE36C01D954E82BE31CCBC6B659F 00000000100f3a70     guideXOS.obj
 0005:00003a88       __Str___4A2A7B898F79E4E459B8BB00C50430A11D5936AD43EE9C14660A267789F7BE23 00000000100f3a88     guideXOS.obj
 0005:00003aa0       __Str___title__01A1634F3585DF52491333D21C3C6F62A748F23467886CB7EEF63D637D07CCBA 00000000100f3aa0     guideXOS.obj
 0005:00003ac8       __Str__circle_53B6F215CB2B085E8A6F3EB7E1CEA6AA493199F8DFA4FEFF4F1BE9818CDC9DAD 00000000100f3ac8     guideXOS.obj
 0005:00003af0       __Str__ellipse_6B459B9046A221EA6F9D854011967B15205705F488A606E1F619EDE44331E6C2 00000000100f3af0     guideXOS.obj
 0005:00003b18       __Str__empty__4C34EAAF5E38F440D9A3BA1930BC3C49C26ACD46496525A6224D51A8CD2D2357 00000000100f3b18     guideXOS.obj
 0005:00003b40       __Str__none__15B5532CCA429E96FF980BE550D28F5C11FB739847960C1D3BBD98D54F78251F 00000000100f3b40     guideXOS.obj
 0005:00003b68       __Str__path_4CDB81075F33F92F6469FB0A8F3A980C142646DD53545E7DCE22F557186F0C05 00000000100f3b68     guideXOS.obj
 0005:00003b88       __Str__polygon_CA26883A42652FF6FED538EAB5497FA3E66E40E863EB31FF372BCF9246AF11AA 00000000100f3b88     guideXOS.obj
 0005:00003bb0       __Str__polyline_12EEC24A9B1567129B73571B4DC1DA6254D58ABE2B9D38A9D408310880B27FF5 00000000100f3bb0     guideXOS.obj
 0005:00003bd8       __Str__rect_C2BD3538A421710585DE8C9EA2119CC2FE018EC95A262BEAA37DCFDE7B71AE7D 00000000100f3bd8     guideXOS.obj
 0005:00003bf8       __Str__title__F9DB043E4AEAED581D35B1EE2C91C11E8291DDCF70129CF84E38BC6B96A42351 00000000100f3bf8     guideXOS.obj
 0005:00003c20       __Str___E7DAC261E841E53EB65AC8C2A0E56544DF49C46D71E8002D7764F92C66C4C868 00000000100f3c20     guideXOS.obj
 0005:00003c38       __Str_____Architecture_Detection_____2B18F03F03FFA321ECBD43E610AB72AFF87DAE43746D317A8C7896F3A9A51A5D 00000000100f3c38     guideXOS.obj
 0005:00003c90       __Str_____Architecture_Detection_Com_9A74ADE38B9D2FB45B3C69079BA743CA673E452BE8812C9C177FA57E3CAB1551 00000000100f3c90     guideXOS.obj
 0005:00003cf8       __Str_____Free___Call_Statistics_____E931ECD18D0F4C754A3A31F5891292616BF11D8383713436E53FE3B641123508 00000000100f3cf8     guideXOS.obj
 0005:00003d50       __Str_____Heap_Allocator_____E39977532E555BCDA4F8C2812BCE6AD60B12E53A5976C0703D56D923BCBCBF95 00000000100f3d50     guideXOS.obj
 0005:00003d98       __Str_____Memory_Allocator_Details___6D7A4706287B6DA864EFC3AB9AC5F633B52375B234A9AFBB33D9D44B2356C390 00000000100f3d98     guideXOS.obj
 0005:00003df0       __Str___0D549A9E1389098A9E7C5D1E01E30A361DA49F46C8F166E55D8A7F18E063B3C3 00000000100f3df0     guideXOS.obj
 0005:00003e08       __Str____225F4F5C8CAAF8FF43018A2028532A19EA83AD486AA0FACB73EC2C0031B2097D 00000000100f3e08     guideXOS.obj
 0005:00003e28       __Str___B813D21BDB2AE744A65AD78D0695CBF15A7750CA8A4828B4518913A26849BD05 00000000100f3e28     guideXOS.obj
 0005:00003e40       __Str___as_Ltd_de_Phoenix_del____de__4292D2E78C087C167239AE35B024CEDB5173C6B129B8EFAF53B24E85A125EAA7 00000000100f3e40     guideXOS.obj
 0005:00003ea8       __Str_A_critical_error_has_occurred__076680406B094E512045A8C598AE8B7D5D3A9443DFB5F1BEB682DE43B3F8C4B1 00000000100f3ea8     guideXOS.obj
 0005:00003f38       __Str_A_Max_Technology_Co_Ltd_A082B5684391625C8566FE551E3DEEBE55B81BC0B675A0FBED9F7C557A31F5EF 00000000100f3f38     guideXOS.obj
 0005:00003f80       __Str_A_Trend_Technology_E83601E314C813DF4C76644197752E5EF2C0D80B9651F7955F884CE906A1362D 00000000100f3f80     guideXOS.obj
 0005:00003fc0       __Str_A_Trend_Technology_Co_Ltd_245B4D947530E472E89093FFBC1D9B55A09A83D9A36F4E05BE159A49581C49C5 00000000100f3fc0     guideXOS.obj
 0005:00004008       __Str_ABB_AB__Sweden__F1BCD1EAD2D36F852E35F1FAD338C3976021D881E34E69255CCFA916445697AE 00000000100f4008     guideXOS.obj
 0005:00004040       __Str_ABB_Network_Partner_AB_EDB0641A0655DC11BB53FA52BF1B54D303E288911937DB6D15E35098C75E921F 00000000100f4040     guideXOS.obj
 0005:00004088       __Str_ABB_Power_Systems_00FF0129BB9721C53FDA150FC4B573F4C14D91EADD159E6D66F86DCC1C3564B4 00000000100f4088     guideXOS.obj
 0005:000040c0       __Str_ABB_Robotics_Products_AB_AAFADC6ECBA4848A80B4E5B6D93C6A015D3E6E8DF1021DC7BC2ACD3EE737EC7A 00000000100f40c0     guideXOS.obj
 0005:00004108       __Str_ACPI_Timer_is_not_present___44FECAE2C32EB6ABDC67FBDE2AC3B3ED8BE4DC95D40C9BF967B5E90A807C23F5 00000000100f4108     guideXOS.obj
 0005:00004158       __Str_ACPI_VEN_INT_DEV_33A0_063E808A8B8BEE47F58BABCB07C0F47E52007117BEB8327FE5B296E16BD46329 00000000100f4158     guideXOS.obj
 0005:00004198       __Str_ADLINK_Technology_Inc_31E68A8C11868E35758D1C5B207BC82D397C1DEFAD324A9DFE092171908B87CA 00000000100f4198     guideXOS.obj
 0005:000041d8       __Str_ADMtek_Inc_D84B340B389F2F908A8182BE311F6AA76174D2BDFEBBE567B58CBB6AFA16D7AD 00000000100f41d8     guideXOS.obj
 0005:00004208       __Str_AEG_Electrocom_GmbH_000D3E8E3826C3D9C8C3502BCD19F0A4C606622C16D716E610A5A80B2FC40F11 00000000100f4208     guideXOS.obj
 0005:00004248       __Str_AG_Communications_EAE04245C54AD983942B32A6B269672EDDE6286B9429E61E588B3DB31C98E4B2 00000000100f4248     guideXOS.obj
 0005:00004280       __Str_AG_Electronics_Ltd_9425E60EE67DB6349C0C7D07C3749F5686FE65D6EB4F8FD8EE0DC59AD0D557FA 00000000100f4280     guideXOS.obj
 0005:000042c0       __Str_AGEIA_Technologies__Inc_47F5B368F0EDA400439613A4323843EDE0F045B9455E0D3DC4638380A5B14DBB 00000000100f42c0     guideXOS.obj
 0005:00004308       __Str_ALIGNMENT_CHECK_B1AC452023AEB493B9EFA3768F1C80EFB48674D4BE2CB18C437374863D128C11 00000000100f4308     guideXOS.obj
 0005:00004340       __Str_AMO_GmbH_FBB82CADD6EA439143F275CAF963ED60E51ECDF625E72D6C3C2795FED2605711 00000000100f4340     guideXOS.obj
 0005:00004368       __Str_AMP_Incorporated_DDC23C6ED016AD955E0A12C9C4B65F4DC5D33F0F4A112A05B5BE7D90A89F7237 00000000100f4368     guideXOS.obj
 0005:000043a0       __Str_APD_SA_2A3060A994CEEBEB898A26AFEF97A961842CE685D1E3AD2B74A8949225EF9806 00000000100f43a0     guideXOS.obj
 0005:000043c8       __Str_ARCOM_Control_Systems_Ltd_2F10130C2368E093465927952BA26CB8B5954BE948840D5A29B33D276CF8FF07 00000000100f43c8     guideXOS.obj
 0005:00004410       __Str_ARK_Logic__Inc_C49DFD84EAD5539A7E746BD19A464775D8ACF9B3EC59EBA07338CE0419BEDF8B 00000000100f4410     guideXOS.obj
 0005:00004448       __Str_ARK_Research_Corp_8CED1A5241F52107D66C1C1EC10493A10038C1CEC055D2B726AE5CDC35D68831 00000000100f4448     guideXOS.obj
 0005:00004480       __Str_ARM_Ltd_415CA24C11C4C7FB4002D219E390693EE88C472D6B49790E23B9774ECD7F76C3 00000000100f4480     guideXOS.obj
 0005:000044a8       __Str_ARN                  00000000100f44a8     guideXOS.obj
 0005:000044c8       __Str_ARP_table_not_initialized_2525A5C24CB91A9C915F1CC2547C5A9807DD494A80FED0D27465B8FE70EC3CBF 00000000100f44c8     guideXOS.obj
 0005:00004510       __Str_ARVOO_Engineering_BV_3E7529247BCEA32308D1B8A4F031A2142C04A6ECE2C76DA3F373B0063CF4B455 00000000100f4510     guideXOS.obj
 0005:00004550       __Str_ASDFGHJKL___D9A99A84F09C6CE30161B77DFC3DDC0788CAD753D0ECF6DCA3DC4A09CA832D8D 00000000100f4550     guideXOS.obj
 0005:00004580       __Str_ASMedia_Technology_Inc_CE3B086AB8B04A6E76757B618B895E37B6592F4F7467B8E4DAC38818211FD065 00000000100f4580     guideXOS.obj
 0005:000045c8       __Str_AST_Research_A8F25840B6BA56318F774DE4775BCF2929E14A75CFEE89244A339C3FA80B27EE 00000000100f45c8     guideXOS.obj
 0005:000045f8       __Str_ASUS                 00000000100f45f8     guideXOS.obj
 0005:00004618       __Str_AVC_Technology_Inc_0D86D1182F9DEF802647D3CC6F11CD701B6F05E2F6B7EDABAD466A03227D4857 00000000100f4618     guideXOS.obj
 0005:00004658       __Str_AVM_AUDIOVISUELLES_MKTG___Comp_230E0D99E5101A5CB5059DF3DC42DD916EC3E9B55C8852FF80442145869427EF 00000000100f4658     guideXOS.obj
 0005:000046c0       __Str_Aaeon_Electronics_Inc_E4F430BDE674107897CAE8FBA04F849D180B244BBD8C4BAF220D6CC75A84FFB6 00000000100f46c0     guideXOS.obj
 0005:00004700       __Str_Aashima_Technology_BV_F6AC862FFF42626D6AF62139A9EBB87BB6497F19AA742057C8AA45A313FF9E1D 00000000100f4700     guideXOS.obj
 0005:00004740       __Str_Abekas__Inc_CB921FC7BEBC0BCBA44DA6FA6126A6E23F9590480F7D0E8166BE328F7587576A 00000000100f4740     guideXOS.obj
 0005:00004770       __Str_Abit_Computer_Corp_EB0C3BD0D2E2B09B4B31926D663159D9CBC3B92E8BC08E6DE17D5585003C1A11 00000000100f4770     guideXOS.obj
 0005:000047b0       __Str_AboCom_Systems__Inc_FCCF25FF3608191201B386A177A13AAAD5433445E3A6856626AAE95B697E9601 00000000100f47b0     guideXOS.obj
 0005:000047f0       __Str_About                00000000100f47f0     guideXOS.obj
 0005:00004810       __Str_Absolute_Analysis_85DF9BE3A8AF986BA65AAE9215D9340AE97500752EFB2DD158159403E1D71055 00000000100f4810     guideXOS.obj
 0005:00004848       __Str_Acard_Technology_Corp_8C3CAE73E61513F0863FCE76B409FE8DC8EC4A8FE8B05DB1B6E9238E8A89984C 00000000100f4848     guideXOS.obj
 0005:00004888       __Str_Access___0______Mode___1_______E8F280B7A341B9319FF09AA2486BE57BE0A3AD58C1782584DD8345FCCDFA5458 00000000100f4888     guideXOS.obj
 0005:000048f8       __Str_Accton_Technology_Corporation_1186FDB73383269CBEF403E6321C99B9BD1AA486A510E0BF29E81E46EC376DA4 00000000100f48f8     guideXOS.obj
 0005:00004948       __Str_Accusys_Inc_CF4A597E330FFD3C0FDD2C1FE3C1C68B917997E3BE927FEB33E15AFC31CBAD92 00000000100f4948     guideXOS.obj
 0005:00004978       __Str_Acer_Incorporated_A36AF58C8BC59A1E694BBC139102A716ECA9913FE8860C4C20761410560E3EF8 00000000100f4978     guideXOS.obj
 0005:000049b0       __Str_Acer_aspire_one_86D3DB2277665BAD455E2B3F17DE7344AF4C75306AA8F10AA9368B181CAA2B32 00000000100f49b0     guideXOS.obj
 0005:000049e8       __Str_Achme_Computer_Inc___GONE______17A425830FFFF0848E2B2EA593032ABB0A5CC8AC42C53E8DA8710DF1497D32EA 00000000100f49e8     guideXOS.obj
 0005:00004a40       __Str_Acksys               00000000100f4a40     guideXOS.obj
 0005:00004a68       __Str_Acqiris              00000000100f4a68     guideXOS.obj
 0005:00004a90       __Str_Acresso_Software_Inc_D516599B0026A8566D65F33C899F7489ED6C0A0B8CD0BA970B0B9DC38608D67F 00000000100f4a90     guideXOS.obj
 0005:00004ad0       __Str_Actel                00000000100f4ad0     guideXOS.obj
 0005:00004af0       __Str_Actions              00000000100f4af0     guideXOS.obj
 0005:00004b18       __Str_Actiontec_Electronics_Inc_6B683D7E397D07BFF7D09539BA550B8C3BEBBAEBA182107E71696403A3E1F427 00000000100f4b18     guideXOS.obj
 0005:00004b60       __Str_Active_time__BCDD5814671B8149EAAEB766D3135BD61C9D9164EF4900B08F8BD48D2D340483 00000000100f4b60     guideXOS.obj
 0005:00004b90       __Str_Aculab_Plc_0B0E001B3B8AB42BF9D24454C03341169E1F04DEDF30AF0907D6CB1660D888F8 00000000100f4b90     guideXOS.obj
 0005:00004bc0       __Str_Acumen               00000000100f4bc0     guideXOS.obj
 0005:00004be8       __Str_Adac_Corporation_C284073941731BA4FC4F8860FEB067B445829E8508814E6E9DAA5D44750C6969 00000000100f4be8     guideXOS.obj
 0005:00004c20       __Str_Adaptec_Inc_5A629FDEDFEDCDDA1518E251E58EE9249D39588F51C194147B8727C084FA45AE 00000000100f4c20     guideXOS.obj
 0005:00004c50       __Str_Adaptec_Cogent_Data_Technologi_48BE63829EC3B3E9572472B6710CB27E76513417BE075ABA17CAE3A7EB5EEEDA 00000000100f4c50     guideXOS.obj
 0005:00004ca8       __Str_Adaptive_Solutions_E24314EF71B3B6C8DF7C49CCF10DAFEB5343B358BFD8EEC4B263D8039D88ADAC 00000000100f4ca8     guideXOS.obj
 0005:00004ce8       __Str_Adax_Inc_5A269ABDEE5F71A0DB813D1E5FB87BB9B6CA8CB45AE13AD8A8D18F7F1CA1B439 00000000100f4ce8     guideXOS.obj
 0005:00004d10       __Str_Add                  00000000100f4d10     guideXOS.obj
 0005:00004d30       __Str_Add__392B1158288CD88AC451741A1FFFFDBE40E3C19EF12FF45C7F3AD4B448D77393 00000000100f4d30     guideXOS.obj
 0005:00004d50       __Str_Added_exception___0B38EBC6328D7B522B98FEF5434779EE2A8B67AA610E521AA6E693578A188ED2 00000000100f4d50     guideXOS.obj
 0005:00004d88       __Str_Added_network_E201768AA1FECD0B75D4384F7C8E4E75394BCCEC359715B2324A7A87FC8A43F5 00000000100f4d88     guideXOS.obj
 0005:00004db8       __Str_Addi_Data_GMBH_68C49C825846F453278C50F647618E3F8E98F40BA9CCF110300ADDEF388C8058 00000000100f4db8     guideXOS.obj
 0005:00004df0       __Str_Additional___37EACDB66A52F54E65B280A447459D488537330C0134A595D16ECABEBBC1688B 00000000100f4df0     guideXOS.obj
 0005:00004e20       __Str_Addonics             00000000100f4e20     guideXOS.obj
 0005:00004e48       __Str_Adicti_Corp_AA60D3E9C15BB0152270B7BC8D6B11825D8EE76C7E640BABEB900F52C56BD5AD 00000000100f4e48     guideXOS.obj
 0005:00004e78       __Str_Admore_Technology_Inc_BAD9ADE6FE66E54251F3570F9EBA0A5CF063742CCD3FAD105B5FDB9ADC9BADED 00000000100f4e78     guideXOS.obj
 0005:00004eb8       __Str_Adobe_Systems_848E82D27920AC353B65A820D1262E25AA4B9FFD57274BA7816C14C5E3E0FCB5 00000000100f4eb8     guideXOS.obj
 0005:00004ee8       __Str_Adtek_System_Science_Co_Ltd_DD12635BA840687B556A503F448174D693420E45922DADEC124F80B77D472488 00000000100f4ee8     guideXOS.obj
 0005:00004f38       __Str_Adtran               00000000100f4f38     guideXOS.obj
 0005:00004f60       __Str_Advanced_Integration_Research_A28A2D48CA71348ADD18C1F8226BED078F117269F3B4434C27200BC20140B517 00000000100f4f60     guideXOS.obj
 0005:00004fb0       __Str_Advanced_Logic_Research_Inc_E33791A6B40CF657709F4998F4283BD43D8FDBD084BE8A41121738806D40C7EC 00000000100f4fb0     guideXOS.obj
 0005:00005000       __Str_Advanced_Micro_Devices_2C69C41EEBB6D75227D339C1364D2B07EFCEED3246559E004DB1C18D13BE4113 00000000100f5000     guideXOS.obj
 0005:00005048       __Str_Advanced_Micro_Devices__Inc_593FFF61AFD70788E51763891C535D843CA868CACF7A20A244E300BFE108121C 00000000100f5048     guideXOS.obj
 0005:00005098       __Str_Advanced_Peripherals_Labs_43F3195029E7DF37562DB49D3F930ED173DDAF72ED82BBD6290E8A1C0EA65CCE 00000000100f5098     guideXOS.obj
 0005:000050e0       __Str_Advanced_Peripherals_Tech_B8B92DB1885EE4D4107D9A3E833397231416B3451FA3C9661AAD6E7C5F1C3C54 00000000100f50e0     guideXOS.obj
 0005:00005128       __Str_Advanced_System_Products_6B1926E09847C43C6B3CBC1853333CE3C37864057F24E8AAFC676C6B6D388761 00000000100f5128     guideXOS.obj
 0005:00005170       __Str_Advanced_Telecommunications_Mo_6295D638F68CB5231171F6802A20D8402A7DCEA552CE5244C873E3BBFF9D5800 00000000100f5170     guideXOS.obj
 0005:000051d0       __Str_Advanet_Inc_B3CC521E9CA14095FCC465269EF939287E59F42A8271FD523F57DE8ED05702DD 00000000100f51d0     guideXOS.obj
 0005:00005200       __Str_Advantech_Co__Ltd_69AFC9128633D0AC9D9A16BE060264ECB8EA5009FA785D27AB654B8AD660A82C 00000000100f5200     guideXOS.obj
 0005:00005238       __Str_Agere_Inc_8C245A89510DD9B93FAEE7CE4F84FC4C4534EB83013DB96167F7D04773208F43 00000000100f5238     guideXOS.obj
 0005:00005260       __Str_Agie_SA_32D49BC638BDDB0B6BB3C2496B0060AAE4603ADCB355CFDD5A8A7065E7CFCE11 00000000100f5260     guideXOS.obj
 0005:00005288       __Str_Agilent_Technologies_26ABC5A14EF08CE65782A0A23F4C5923F992DE126779728203A3346C2F1EC291 00000000100f5288     guideXOS.obj
 0005:000052c8       __Str_Aim_GMBH_02CAD2EC3A14432F6D75F9FB6A920B05E233E8D84A3C7FCA4C313DF3F6E1D2CE 00000000100f52c8     guideXOS.obj
 0005:000052f0       __Str_Aims_Lab_D246B34E809D8EAFF44E1D2F4F899B96B2F653C6F83C27809A5C6462189B8B01 00000000100f52f0     guideXOS.obj
 0005:00005318       __Str_Aiptek_USA_D484C95F1D8ECBD44BF9F6C32962536EE2E527284E5179E306883E5A8C58E5CF 00000000100f5318     guideXOS.obj
 0005:00005348       __Str_Air_Prime_Inc_7B049485B0B76B6DE1D052F5FAA616FD677E744D41A6D1F255C84875F8C3BBE8 00000000100f5348     guideXOS.obj
 0005:00005378       __Str_Aironet_Wireless_Communication_EF7712506211208B95906BD29107651B4B991A273EC44852194CE5F785252098 00000000100f5378     guideXOS.obj
 0005:000053d0       __Str_Aiwa_Co_Ltd_E416CF3BA67D9857940BACC7E09307D737C42D6D253B3FB783B3C29EC54050E1 00000000100f53d0     guideXOS.obj
 0005:00005400       __Str_Alacritech_Inc_1AD6D9D4DF8FA4323EDAB708EB905287112ADE598DD91596A789712EC91A53E5 00000000100f5400     guideXOS.obj
 0005:00005438       __Str_Alacron              00000000100f5438     guideXOS.obj
 0005:00005460       __Str_Aladdin_E_Token_B08154EE5680DB3044C6F034BC17F71ABE3E183CAE2B79F03974FB18D29DC2E6 00000000100f5460     guideXOS.obj
 0005:00005498       __Str_Aladdin_Knowledge_Systems_8C712A7A9524CAAE01BCDC5B69B144C68E7D63BB56C2547F02EB82A1F7DEACCE 00000000100f5498     guideXOS.obj
 0005:000054e0       __Str_Alaris_Inc_FC77DC42860562DD27C2566DDFCC6F93288D7212ABEF0115FD003E5BFA7EBA6F 00000000100f54e0     guideXOS.obj
 0005:00005510       __Str_Alcatel_Cit_4A4DDC8227F58532D8276637B77B1544C2BE6884748BB940D1F36DE1AD58D2C5 00000000100f5510     guideXOS.obj
 0005:00005540       __Str_Alchemy_Semiconductor_Inc_FEF5AE157365A6014F1FE55A085D3703184068D9D6A5E1C858F89BADBE406270 00000000100f5540     guideXOS.obj
 0005:00005588       __Str_Alcor_Micro_Corp_53DDA22582831B5627E67106B8E8052BD7349524C01CFB3F5633A705606208F9 00000000100f5588     guideXOS.obj
 0005:000055c0       __Str_Alesis_Studio_7B297AC3460C76CDEF24BDD7B47CE4C5A43D8E488A159445C5FA48BA2B131C36 00000000100f55c0     guideXOS.obj
 0005:000055f0       __Str_Alfa_Inc_52D872790A68C8AFFC05D38B4B6BF1AE893791D716250F34349ED2289D2E4E7F 00000000100f55f0     guideXOS.obj
 0005:00005618       __Str_Ali_Corporation_2CB9123EB88044AA08280FA6456DEF377F348030F7A74C71DCA932AEA3F4589C 00000000100f5618     guideXOS.obj
 0005:00005650       __Str_All_CPU_Halted_Now__75307B9727CB3F43D618ED4B269841D634DC23C3C6C9BA7E29F38D99D863D1E4 00000000100f5650     guideXOS.obj
 0005:00005690       __Str_All_Programs_A814984DE469DC4ADD7B3AB42F6295888187DD6FD49C7594B6DB7502517AC737 00000000100f5690     guideXOS.obj
 0005:000056c0       __Str_Allen_Bradley_Co_1B84BA64726DDB6157D5AE45F20818AFCDADB121DB553FD8631332B0CFD325F8 00000000100f56c0     guideXOS.obj
 0005:000056f8       __Str_Alliance_Semiconductor_E86223FEAD3F0CABF4634ED23CD1DB7B10B4FEEDA51A75880BF3E68CD3CDAA0F 00000000100f56f8     guideXOS.obj
 0005:00005740       __Str_Allied_Data_Technologies_0219B74210568201F23EA2F9D8425A5AB77E0B92574E52EDB052851BAF3E66BE 00000000100f5740     guideXOS.obj
 0005:00005788       __Str_Allied_Telesyn_International_D7A5B280D758EC9E981FDE0EB85F9E1A742381D65193ED6D9887A3AA2D89A6A7 00000000100f5788     guideXOS.obj
 0005:000057d8       __Str_Allocate             00000000100f57d8     guideXOS.obj
 0005:00005800       __Str_Allocated_Pages__312EC262328B35184BE0316914096FD70CACD845EBF5A836B8898735942B64E4 00000000100f5800     guideXOS.obj
 0005:00005838       __Str_Allow                00000000100f5838     guideXOS.obj
 0005:00005858       __Str_Aloka_Co_Ltd_AD5D712D825B9BB50AA69C8BD716104B5D214C461C1AC840D43CCB7D9142D87D 00000000100f5858     guideXOS.obj
 0005:00005888       __Str_Alpha_Data_1142658E87A93521B67B5A3B72D843797A1C66E49D53AF9BD2510947EEDB7B53 00000000100f5888     guideXOS.obj
 0005:000058b8       __Str_Alpha_Processor_Inc_1EC2DBB44F5B22B028C0DB76BAF28B1F25AEC8BBC405C717C0FFBDEB1C378E13 00000000100f58b8     guideXOS.obj
 0005:000058f8       __Str_Alpha_Top_Corp_5B4787BA00151888A1360A071B191C8B4E97DB29B7ED9FE721A73F25B80D5584 00000000100f58f8     guideXOS.obj
 0005:00005930       __Str_Alpine_Electronics_Inc_C51C3217C7512E5C8CC9C4D5DF9C99146A059902273A8451C2A74EC565EC78B1 00000000100f5930     guideXOS.obj
 0005:00005978       __Str_Alps_Electronic_Corp_Ltd_8D63F3878AE0B940BD5B9A828A6DFAE8B26CA16DF64E139A0383FBF2D67D3907 00000000100f5978     guideXOS.obj
 0005:000059c0       __Str_Already_at_root_8FDD80C744E2E4B73E511FB4B7A43D4F92FA3ADDC91B45D0B893C224156D93DB 00000000100f59c0     guideXOS.obj
 0005:000059f8       __Str_Alta_Technology_Corp_6C79F4AD8F65115B06AD56585B8C6BF556AF3C2107C33FB490B82C2659BA69EC 00000000100f59f8     guideXOS.obj
 0005:00005a38       __Str_Alteon_Networks_Inc_61CBE0FD3A197F8B675BD32FB264F2AAE3E83AC16C07EA1C3324981ADA4B7390 00000000100f5a38     guideXOS.obj
 0005:00005a78       __Str_Altera_Corporation_3A5F55C7CF0B2C5F58803476378A58B71793E04FDA5BA17DEA0E6499E631C7BB 00000000100f5a78     guideXOS.obj
 0005:00005ab8       __Str_Alternate_DNS_server__A56E655058F63EB02DBF3004A5959B76AF0EAF5B88011101B2D53956AB8D00CC 00000000100f5ab8     guideXOS.obj
 0005:00005af8       __Str_Altima_Communications_Inc_68A0BF54A42D6EBAC006F19C799F7E3448F3D76CFE16DF9FE18E8443795EC5A7 00000000100f5af8     guideXOS.obj
 0005:00005b40       __Str_Altos_India_Ltd_4FA08F184C70CDFFC384805AC25460ADFE0C9E49AF23DB4C777C8DB2A9D00BF1 00000000100f5b40     guideXOS.obj
 0005:00005b78       __Str_Ambicom_Inc_300E67D8487BFBB8F2C24B2638BB1D3BD4F75DFAF698D55299525486A4EC1697 00000000100f5b78     guideXOS.obj
 0005:00005ba8       __Str_Ambient_Technologies_Inc_800351612D9BA794DFA15CB16D24223CD4306417BA1B9C6AFDC071DF42401D47 00000000100f5ba8     guideXOS.obj
 0005:00005bf0       __Str_Ambiguous__multiple_apps_match_CA9336D7CA353509421A950D762013E29DF66BA6F1F2639992810C49B845FDA3 00000000100f5bf0     guideXOS.obj
 0005:00005c48       __Str_Ambit_Microsystems_Corp_15BD24AFF4AC0F37B8F5429A074FF6B750F0572ECC137A51FF79CE29859D0D54 00000000100f5c48     guideXOS.obj
 0005:00005c90       __Str_Amdahl_Corp_BDF81019C1E8C309B6275C7306A0C9EF7B49A33FD8631EEE92C63F8889F52CF2 00000000100f5c90     guideXOS.obj
 0005:00005cc0       __Str_American_Megatrends_Inc_4139EFB9A8A8563D72A49C4846F3CFCA19E11874FFB9B6CB420F52D1E4DC273A 00000000100f5cc0     guideXOS.obj
 0005:00005d08       __Str_American_Microsystems_Inc_D098466E4B3443CB7D4378BF71DD86506BB7ECF0E351EE94ABAD0AD2B7B913ED 00000000100f5d08     guideXOS.obj
 0005:00005d50       __Str_Amersham_Pharmacia_Biotech_D6B62B16B2C0F5F820F2EDF508C355F60F36570E985C4607509035BE3571DF8E 00000000100f5d50     guideXOS.obj
 0005:00005da0       __Str_Amplicon_Liveline_Limited_EAD35D0F8E3D572FB87DACE04320499530B21A1501D343BD82BD59B14FCEFE80 00000000100f5da0     guideXOS.obj
 0005:00005de8       __Str_Amtelco              00000000100f5de8     guideXOS.obj
 0005:00005e10       __Str_Analog_Devices__Inc_03F97B9F9655DF5C54276D125128A8FF65F8A08CF05C7C48118AC586331C5A5D 00000000100f5e10     guideXOS.obj
 0005:00005e50       __Str_Analogic_Corp_B7D0224AE0CD2D084247C7C63BEF8A55F35D4507B28323B8B0CB4AD117352BD9 00000000100f5e50     guideXOS.obj
 0005:00005e80       __Str_Ancor_Communications_Inc_B1001CE3E1E0FBF3BE7917CA0C8DA085D9925B79785482867689D49E0C3D5ED9 00000000100f5e80     guideXOS.obj
 0005:00005ec8       __Str_Andor_Technology_Ltd_B2BA34D2FDB9166E03B798988C8B8A82D8A12C57BAA70E301ADFD2A073CDFD27 00000000100f5ec8     guideXOS.obj
 0005:00005f08       __Str_Andrew_Corp_73AD779363A4EA2A7D773E87487D3D02CFC3B438421A9F1AB07D06D615700ACE 00000000100f5f08     guideXOS.obj
 0005:00005f38       __Str_Anigma_Corp_EFF09BD896DAE615845C03501710BFDD80475E629AA8E40DC569DA2D231B0943 00000000100f5f38     guideXOS.obj
 0005:00005f68       __Str_Animations           00000000100f5f68     guideXOS.obj
 0005:00005f98       __Str_Annabooks            00000000100f5f98     guideXOS.obj
 0005:00005fc0       __Str_Annapolis_Micro_Systems_Inc_B6D865880D0A8201354B6D4289AB482A54CECC48DD122F840069EB872933225A 00000000100f5fc0     guideXOS.obj
 0005:00006010       __Str_Antal_Electronic_73169586878BCD2CC9ACC6BA3514ABCB9CD2BC8285F68E56558767ED0D1853D3 00000000100f6010     guideXOS.obj
 0005:00006048       __Str_Antara_LLC_96741F28BED32B86C13BC45F2ECA897593C4BBACD7064E0E1BF22D77D7FBC2D1 00000000100f6048     guideXOS.obj
 0005:00006078       __Str_Antex_Electronics_Corp_0BAB5FD130085D4424E12C6F99DC7F59C26522D003E725F427EC7787550F7D41 00000000100f6078     guideXOS.obj
 0005:000060c0       __Str_Aopen_Inc_9E10D2579501BDE8DE09A5EC7C293A416AD638353923762B9DE0A1BFDF324C75 00000000100f60c0     guideXOS.obj
 0005:000060e8       __Str_Apex_Inc_A60B70AEA2352B70BB2E46F1FC790AB39C911A1C47EB10880674FD6CE27ACBB0 00000000100f60e8     guideXOS.obj
 0005:00006110       __Str_Apostolos            00000000100f6110     guideXOS.obj
 0005:00006138       __Str_App_not_found___BD8CBA6E92FD402219B5F41BF8D0725987E2C30568CDF6CEB9B11A66A22FA2F6 00000000100f6138     guideXOS.obj
 0005:00006170       __Str_App_system_not_initialized_9D98323D0DCB54A67B5E791D88F834DC4AD1F109D31F523F377271F5F951F3A4 00000000100f6170     guideXOS.obj
 0005:000061c0       __Str_Appian_Graphics_D583FD6101ED7BBFE2986ABBF746A40733EF431CB6F70F39443E19F6A819708D 00000000100f61c0     guideXOS.obj
 0005:000061f8       __Str_Apple_Inc_B057706865C085A98F6C3FE7EE52A20DBD3971DEFEFCA092A5BAE2E27B721E6C 00000000100f61f8     guideXOS.obj
 0005:00006220       __Str_Applicom_International_D4CF49CDA19D24AC340ABBD65A4D33D33B2C2C4A0F274AFA6592ADF855083DD4 00000000100f6220     guideXOS.obj
 0005:00006268       __Str_Applied_Computing_Systems_Inc_2F1389EC842656499D6BE3AEC4DD36FA17B36C29CBC17D88E6BC7B1F58ED84B3 00000000100f6268     guideXOS.obj
 0005:000062b8       __Str_Applied_Integration_Corporatio_417307491D2933E2EECBB9A1796328D49A74EBE26D258B29DA3E3B3DE10630BF 00000000100f62b8     guideXOS.obj
 0005:00006310       __Str_Applied_Intelligent_Systems_In_CC95329118057B1D10FCEC6BBECAE38A478CEFF180C867C5DD2B10A3A3F5F087 00000000100f6310     guideXOS.obj
 0005:00006368       __Str_Applied_Micro_Circuits_Corp_9F3DD74B04D276AACBF6712786E1F403A520A54D45E561F8EDDACD79CBAA2D9E 00000000100f6368     guideXOS.obj
 0005:000063b8       __Str_Apply                00000000100f63b8     guideXOS.obj
 0005:000063d8       __Str_Apricot_Computers_C7997C71CD9191AD1C31ED2B06339FA94A3CB01FF293E7A78C8C763377CA1225 00000000100f63d8     guideXOS.obj
 0005:00006410       __Str_April                00000000100f6410     guideXOS.obj
 0005:00006430       __Str_Aptix_Corporation_11721BA62F29F7299DE585518723667D2F52A3651BC5365E7C83749BA5D3ACF1 00000000100f6430     guideXOS.obj
 0005:00006468       __Str_Aralion_Inc_09D18A35FDE2134725717C461B856499C956F638626601BAC00B26BF5AC17DB6 00000000100f6468     guideXOS.obj
 0005:00006498       __Str_Archtek_Telecom_Corp_BB7A2DD45A6B5B85F9399AD928AA5957E763226787ACA515DC705A053571BD82 00000000100f6498     guideXOS.obj
 0005:000064d8       __Str_Arcus_Technology_Inc_72085BCE48ADF199132054BAB112A7AF6F161C43691086717B2BCBA8DB70BE78 00000000100f64d8     guideXOS.obj
 0005:00006518       __Str_Ardent_Technologies_Inc_7EEBD02881C4CE7C96C2CA8A4B6926A8F21A84AF36ACD413B5783280109DC86D 00000000100f6518     guideXOS.obj
 0005:00006560       __Str_Are_you_sure_you_want_to_shut__C7460E8AB1C67907BC95073EDAA0C835336104139BFAA3DFDCDD99C91D2E98E3 00000000100f6560     guideXOS.obj
 0005:000065c0       __Str_Ariel_Corporation_D3C7226AAD7B785837FC3F002EE0E435E9E7FB3D2F02E761085A6DDE9CA52F89 00000000100f65c0     guideXOS.obj
 0005:000065f8       __Str_Arima_Computer_Corporation_F1F410756CE0A7CFD8641E25FF4778B434121697A2EC84F0FE22591CCD0D2F5D 00000000100f65f8     guideXOS.obj
 0005:00006648       __Str_Array_Corp_6E16F95912D165FE1B57BBE1A54947DD565D57AA6C0C1A9FFAD515A75064BB96 00000000100f6648     guideXOS.obj
 0005:00006678       __Str_Array_Microsystems_2AFDE0F99510A6807C7F437C02B436913D80D743DB7370E31A72F43718C511ED 00000000100f6678     guideXOS.obj
 0005:000066b8       __Str_ArtX_Inc_D0BE36D71586680DAB9E290A772B57C9E2CC1E0CE7129DD47B3EC2F5E5E8216B 00000000100f66b8     guideXOS.obj
 0005:000066e0       __Str_Artesyn_Embedded_Technologies_A618E0BB6CB52D366BBD5D65C06A393A9AC99868074034C915055180693B0B78 00000000100f66e0     guideXOS.obj
 0005:00006730       __Str_Artist_Graphics_44E4431FA498D43558A178ACFD8ACB4D4400119CEC82BFE62BFC18AD0D9FDB77 00000000100f6730     guideXOS.obj
 0005:00006768       __Str_Asante_Technologies_Inc_E730A1D0475070999B998055EA96229167A6C9BA111F71F936AB0761C7218845 00000000100f6768     guideXOS.obj
 0005:000067b0       __Str_Ascii_Corporation_DA9FACB3453B5534CBCDB6A94C5F8AF5EE1356C53D302CE6391C5FECD61E2E5E 00000000100f67b0     guideXOS.obj
 0005:000067e8       __Str_Asiliant__Chips_And_Technologi_50A4C35B585B60281FE2FD387A82D7CA627F91E099F446642116F58CF13957B5 00000000100f67e8     guideXOS.obj
 0005:00006840       __Str_Asix_Electronics_Corp_DC51E8FED5B91B0659A04B71E42C781BB52D8D093BFAFB035CAC3429E5183BB5 00000000100f6840     guideXOS.obj
 0005:00006880       __Str_Astrodesign_Inc_4C11EAEA4CD8251AA994D8EA6AA46B4C81B044E943DB9FE2C627105BABEFD357 00000000100f6880     guideXOS.obj
 0005:000068b8       __Str_Asustek___ASMedia_Technology_I_930F624AE66E213E78F21616CBB5418BD35AAC1FC003BC45B6806028EC699E4D 00000000100f68b8     guideXOS.obj
 0005:00006910       __Str_Asustek_Computer_Inc_5BC3CA6F54B11126D106D7786A0EB0CD68D02B01A1C76D965D965822178ECAAE 00000000100f6910     guideXOS.obj
 0005:00006950       __Str_Atan_Technology_Inc_4FCD11F8AC09A79DF616A15F1000D093868C3ABDA0E4E73D6AB13BB3B1674917 00000000100f6950     guideXOS.obj
 0005:00006990       __Str_Atelier_Informatiques_et_Elect_EADBB942CE472DFE3D2A4FF82624D5080D4C7CD417CFAC7A53ED8910E755E980 00000000100f6990     guideXOS.obj
 0005:000069f8       __Str_Aten_Research_Inc_1791B4E814D13ACE7FFEEF71247E0AFF0DDB1FC068C08CFC5403BC383DC6BDAD 00000000100f69f8     guideXOS.obj
 0005:00006a30       __Str_Atheros_Communications_09980DEC74ADC18FA7CF905DF41A4BF6BCA6890E58D81C338A8EC99B0A78A4AD 00000000100f6a30     guideXOS.obj
 0005:00006a78       __Str_Atheros_Communications_Inc_FF817C8A831BD3DBDF526CFB6110F522C01F5D59D38077FFEA481640FA49D7F2 00000000100f6a78     guideXOS.obj
 0005:00006ac8       __Str_Atlantek_Microsystems_Pty_Ltd_FE26D17AEEFFCF1460AFC0CF741CBFDF37FBB2B553A5797DD8CB4519EFECCABD 00000000100f6ac8     guideXOS.obj
 0005:00006b18       __Str_Atmel_Corp_0CA0621457E112B5B8920468A07CA56067B975F7B5A9D029C357EDFF7FE414A3 00000000100f6b18     guideXOS.obj
 0005:00006b48       __Str_Atmel_Dream_B131DA6506688572ED14F9CC48A639A6009B4BC7809F74C9B20A8AEFDAAA4819 00000000100f6b48     guideXOS.obj
 0005:00006b78       __Str_Attachmate_Corp_4B41CAA9D875E5835BF78AB5EF702A6E04D72DC034BBEAE8B99850C318EC05D5 00000000100f6b78     guideXOS.obj
 0005:00006bb0       __Str_Atto_Technology_D90A517B570B8BE51CB1E6D6398AB24FC076CA5CF935948D9586813989A3071D 00000000100f6bb0     guideXOS.obj
 0005:00006be8       __Str_Audio_controller_is_unavailabl_9AA959F097FE666E97C812339008097A7E966AA2AD3B58577DC98E349F955029 00000000100f6be8     guideXOS.obj
 0005:00006c40       __Str_Audio__ES1371_64A47DDA0F96AE7945872CF94F05952BE8A319C18AF4373E95C501DB09548C76 00000000100f6c40     guideXOS.obj
 0005:00006c70       __Str_Audio__Intel_AC_97_44B1FD388E4E00CB15B7B410391E77B5C0D3066FDA354090BC45B66098D66623 00000000100f6c70     guideXOS.obj
 0005:00006cb0       __Str_Audiocodes_Inc_735B282FAD332DF94A2C3A5A8AA69072C34B68A6D6F3D3D3A471206CFC7A1C84 00000000100f6cb0     guideXOS.obj
 0005:00006ce8       __Str_Augest               00000000100f6ce8     guideXOS.obj
 0005:00006d10       __Str_AuraVision_Corporation_E9C3480DE7C32792511D149B4A10ED122DA4FC8D2B544FAD21009BD5200FC6D5 00000000100f6d10     guideXOS.obj
 0005:00006d58       __Str_Aureal_Semiconductor_7F085B7D913F901C504405F5999E02D74D3DB52D22427E2F5A074815DEFE0B92 00000000100f6d58     guideXOS.obj
 0005:00006d98       __Str_Aurora_Technologies_Inc_C0F6C28136D93848C87D154C7E0C9BF316D497A74183E1FC2489457001A7E317 00000000100f6d98     guideXOS.obj
 0005:00006de0       __Str_Auspex_Systems_Inc_92CAAFDF72FFA0AF395EEA8C03963F70108989BAB92114CB2323A19CFC5F248C 00000000100f6de0     guideXOS.obj
 0005:00006e20       __Str_Auto_FS_detect_failed__EBD11FD10D0E825A1DC7DEF7C90C893F2CABA8ABFE58C8C9CA20D46DDE6FFE9C 00000000100f6e20     guideXOS.obj
 0005:00006e68       __Str_Auto_Rotate_Desktop_Background_989A9F67C366ECA7D74D88D2349B3D9F1C8CCEE6A7D9E0FB15D3E54D13DCA383 00000000100f6e68     guideXOS.obj
 0005:00006ec0       __Str_Auto_allow_and_add_to_exceptio_EBEC82937EE277321522FA06FE6593D4A705C9C01BE7640487978AC13853CEA2 00000000100f6ec0     guideXOS.obj
 0005:00006f18       __Str_Autolearn            00000000100f6f18     guideXOS.obj
 0005:00006f40       __Str_Autologic_Inc_61601D4912DDEE2E4BBA62DAFB9DA56634E32B8FBB55E56BD087A11BC4BE28F2 00000000100f6f40     guideXOS.obj
 0005:00006f70       __Str_Automated_Wagering_Internation_6CE40F508FDC4177BA3E85D168D83C9A483A4DD333DA347A479EBDCAD3EC2FA3 00000000100f6f70     guideXOS.obj
 0005:00006fc8       __Str_Available_Applications__ABFF52BEBADE401F4125328647D7C02B6B5958F4A4350A20CC0B3C8771EEF23F 00000000100f6fc8     guideXOS.obj
 0005:00007010       __Str_Available_resolutions__3D40D1AD77C357CFA141AA17FD801F0AACA80EDAAEC9D87D64B16DB7C58B20AB 00000000100f7010     guideXOS.obj
 0005:00007058       __Str_Available__5BB05495E449BF0D0E8C2E0D9AD1D28CCEDE4A7A9C7D85AF5605D3FE0089C579 00000000100f7058     guideXOS.obj
 0005:00007088       __Str_Aval_Nagasaki_Corp_2FA7B87351C6B70E7D56554AE3845608108510999784958F4E3B14CF627E2553 00000000100f7088     guideXOS.obj
 0005:000070c8       __Str_Avance_Logic_Inc_D6E0FC63C8F70481CE59EEB6ECD9E4448B3517F8ECEF31ED69404C1E6DEDEB16 00000000100f70c8     guideXOS.obj
 0005:00007100       __Str_Averna               00000000100f7100     guideXOS.obj
 0005:00007128       __Str_Avg_response_time__EFF5EC260266EDC95768C59A56EAD4FB718EA901125DEE9B4DD871E9AEEB2204 00000000100f7128     guideXOS.obj
 0005:00007168       __Str_Avid_Technology__Inc_6328F8C81970AE7D9139D43EADB3D9CC72673F5A8918BD4251CD3E3A82C522ED 00000000100f7168     guideXOS.obj
 0005:000071a8       __Str_Avlab_Technology_Inc_2E39392D297D62497A41ECB791B466FE18F7E324E4A69121E737F99261F444CF 00000000100f71a8     guideXOS.obj
 0005:000071e8       __Str_Avocent              00000000100f71e8     guideXOS.obj
 0005:00007210       __Str_Avsys_Corporation_D16AD7F6D5888DDEE160335D40D3F900ED49E27EEC4AC6A65537199ACCFF6878 00000000100f7210     guideXOS.obj
 0005:00007248       __Str_Avtec_Systems_Inc_AA94FB54E136659340A03AC19D9919E3E6FFF59533BBFD8AF0920E73F67B7C83 00000000100f7248     guideXOS.obj
 0005:00007280       __Str_Award_Software_Int_l_Inc_C998D27A54558122D3C8270031B63CEFB74B7CE705DBA9AB35D64EFC542A07FC 00000000100f7280     guideXOS.obj
 0005:000072c8       __Str_Axil_Computer_Inc_390975726756A014A3CD9F0F16F62DEC89CE20580ACC1CCA30E45DFAF8B2C931 00000000100f72c8     guideXOS.obj
 0005:00007300       __Str_Axzam_Corporation_C35DC7CDFC73D556C0088837D43EFBD48277B89C5A8940FF7AA2A51B021F8186 00000000100f7300     guideXOS.obj
 0005:00007338       __Str_Aydin_Corp_86772007F9359756E7DD9795ECD675978F9E45A8157C81E71546D003F230DDA0 00000000100f7338     guideXOS.obj
 0005:00007368       __Str_Aztech_System_Ltd_2C13180C130A80416CDAF552CBFFA061E346E5D0A7871A1D627B802584942E64 00000000100f7368     guideXOS.obj
 0005:000073a0       __Str_B_Tree_Systems_Inc_C35FB4BC6F3D38F1FAE2EBE8682431D2C7E501722D9245883248B6A790B81C1F 00000000100f73a0     guideXOS.obj
 0005:000073e0       __Str_B2C2_Inc_3379DF9268AE5644D5BAE6E1E495CD495B28C33C703233D86BEF76DB919A87B2 00000000100f73e0     guideXOS.obj
 0005:00007408       __Str_BAE_SYSTEMS___Manassas_810533FD2262C17CF196B827C8234B8B88B6A440A118637F9E7EE0FB4EB769B0 00000000100f7408     guideXOS.obj
 0005:00007450       __Str_BCM_Advanced_Research_77117F1666C266E9657B562F96CE060F9A4B1AE5EDD34BD578E89DCDD95C8B35 00000000100f7450     guideXOS.obj
 0005:00007490       __Str_BCom_Electronics_Inc_145440EF8CB915D4D00B43B23988C73A814FBF9FBE84071BA6B6CFB309867061 00000000100f7490     guideXOS.obj
 0005:000074d0       __Str_BOUND_RANGE_EXCEEDED_EA2ED3FFA61E3D13C3DA713E014306C71A6459C9370CA56147370268FBDCFD9E 00000000100f74d0     guideXOS.obj
 0005:00007510       __Str_BREA_Technologies_Inc_EEF6C73FD4FCCCC5641AE771A03305433304627CC80C42BCED1DECEEA895ED66 00000000100f7510     guideXOS.obj
 0005:00007550       __Str_BREAKPOINT           00000000100f7550     guideXOS.obj
 0005:00007580       __Str_BUTTON               00000000100f7580     guideXOS.obj
 0005:000075a8       __Str_BVM_Limited_97E8477E43E28F543375A343870F4DC0DE5D9398324996DC6D0ADD924EAA5D4E 00000000100f75a8     guideXOS.obj
 0005:000075d8       __Str_Back                 00000000100f75d8     guideXOS.obj
 0005:000075f8       __Str_Background_Rotation_DACE3D659AE4077320ADF5C6589F89CC3DF7111F455B15DAD16A5FC7DE9174B2 00000000100f75f8     guideXOS.obj
 0005:00007638       __Str_Backgrounds          00000000100f7638     guideXOS.obj
 0005:00007668       __Str_Backgrounds__8111683C6E0C396619DB585BBAC6F91A02EC49B34EB58CE85A06BB6C09A789A1 00000000100f7668     guideXOS.obj
 0005:00007698       __Str_Bad_signature_EDCEA81C0C2A9D7881EA931BD754BCF6C47AD2C9F6411C66D96882E6F2D9F673 00000000100f7698     guideXOS.obj
 0005:000076c8       __Str_Baldor_Electric_Company_0C3AD20E22B040755E88B2D9267FD7ECA1D48457B0DF8086B081D271260EA08A 00000000100f76c8     guideXOS.obj
 0005:00007710       __Str_Baltimore            00000000100f7710     guideXOS.obj
 0005:00007738       __Str_Banctec              00000000100f7738     guideXOS.obj
 0005:00007760       __Str_Banksoft_Canada_Ltd_564B432EB7CD32812A1B9003016FB9E8FF0E824A640424B4938E370DC1885D26 00000000100f7760     guideXOS.obj
 0005:000077a0       __Str_Barco                00000000100f77a0     guideXOS.obj
 0005:000077c0       __Str_Barr_Systems_Inc_D50F6ADC1DB65D1709A41B53FA3191C2D99CCF0A4EBF24031935F444B5EA7540 00000000100f77c0     guideXOS.obj
 0005:000077f8       __Str_Basler_GMBH_9491185A5D8945C30E4171CFC45257CC5880B11C085E150D73077803C4B02F8E 00000000100f77f8     guideXOS.obj
 0005:00007828       __Str_Bayer_Corporation_Agfa_Div_D13D6CA244F7D11B2B09BB74766ED094C5530BB9535614B997CFE6C3F2B9263A 00000000100f7828     guideXOS.obj
 0005:00007878       __Str_Beckhoff_Automation_GmbH_9E864163B9340143297B67C3919D1BF6B8468FF37E4F73A24A41DF513B095BFB 00000000100f7878     guideXOS.obj
 0005:000078c0       __Str_Becton___Dickinson_E21A84E4DE43FFF4F792E810170CEE99A61F7CD8003CD04C0C49D23782ED4BEA 00000000100f78c0     guideXOS.obj
 0005:00007900       __Str_Behavior_Tech_Computer_Corp_BBFD072C573656F9ACA56F9FBF792B22EB834C59184D01EFF62EEDD8B7C7ECDE 00000000100f7900     guideXOS.obj
 0005:00007950       __Str_Bel_Fuse_Inc_C74F5D115F0DABF7E59820771AB14891F2422A026C2C6CFB98686BC392335AC6 00000000100f7950     guideXOS.obj
 0005:00007980       __Str_Bell_Corporation_02EC8FAA352D2EED4E0D55EE63A7266C4972077BCEE79461325FD6307B195F08 00000000100f7980     guideXOS.obj
 0005:000079b8       __Str_Berg_Electronics_89C2CD32BC07E904295C5D4F724A4359BEE5A0D90AB6B969847E43713FF892D6 00000000100f79b8     guideXOS.obj
 0005:000079f0       __Str_Berkshire_Products_F60548076288C62446DA8661BF3048FF7AE065361C0E016DF6A99AAF03775612 00000000100f79f0     guideXOS.obj
 0005:00007a30       __Str_Bernecker___Rainer_0BB3B4474C07188E5711EAF0AA85D9B69E3AA7EDDC1709F20E7427069587925C 00000000100f7a30     guideXOS.obj
 0005:00007a70       __Str_Billionton_Systems_Inc_Cadmus__1FDC6DAFE79FCF214DB7AB37F990C71D29590FB76C725E3983B44F03745F21C2 00000000100f7a70     guideXOS.obj
 0005:00007ad8       __Str_Biostar_Microtech_Intl_Corp_606032B572546228A538ED9C3EDCF00289DCFFE4E8AEE9A330FBAC6C585F53E7 00000000100f7ad8     guideXOS.obj
 0005:00007b28       __Str_Biotronic_SRL_585EFBED77D6FFEB903DD7790E969B3240E95D45732E4BFB4166DB244C521D95 00000000100f7b28     guideXOS.obj
 0005:00007b58       __Str_BitFlow_Inc_FD8C397A36577D2A1A939EE721DC909D81C844515FA0878E5D6A92C143AA17CE 00000000100f7b58     guideXOS.obj
 0005:00007b88       __Str_Bitboys_OY_F8F09114D7FB88016E563B9FD4F295F647B398E69C7376A463F8E33257179072 00000000100f7b88     guideXOS.obj
 0005:00007bb8       __Str_Bitland              00000000100f7bb8     guideXOS.obj
 0005:00007be0       __Str_Bittware__Inc_CA35CDC43E311E71FFF61E2B3077DFD485D0D799CD16DD778C0C1992BEA4066C 00000000100f7be0     guideXOS.obj
 0005:00007c10       __Str_Block_All_87D28070CB7A1669BB0230C6F86F757EE358E26839478E69BD8CF6CF776220E6 00000000100f7c10     guideXOS.obj
 0005:00007c38       __Str_Blocked_by_firewall_5DB9C821AC03EBEBBC901BF38B2F8254F6A032FC524AB4B5028C63D7E75751B0 00000000100f7c38     guideXOS.obj
 0005:00007c78       __Str_Blue_Chip_Technology_Ltd_0521FB17E4F8DD330C3B9F4AAE8A2B58CC6F271272CF4A80992F61D7382CB707 00000000100f7c78     guideXOS.obj
 0005:00007cc0       __Str_Bluesteel_Networks_Inc_A3A10652B5CC3FB33DEBDFD86EB54B18B80AC6F0C834EAC5A46D7E882FF57A97 00000000100f7cc0     guideXOS.obj
 0005:00007d08       __Str_Blur_Cache_Settings_8638F9FF7B1E262D88EE7066D9637DAB9BCAB9F87B17A83C8E2571CCED949975 00000000100f7d08     guideXOS.obj
 0005:00007d48       __Str_Boca_Research_Inc_5D4E5270B43816F71AF295D1A77A332B218FED49979C0389FD9D41E3A740709B 00000000100f7d48     guideXOS.obj
 0005:00007d80       __Str_Boeing___Sunnyvale_12F4179E4AE96112F05756B6EA5862B8A0C6F0E6A762ED36D415789302829D60 00000000100f7d80     guideXOS.obj
 0005:00007dc0       __Str_Bops_Inc_305AD16260FDDBDC3F743334FE8CBB946695E7D04CCD7DBBD3AC8ED433ADA32F 00000000100f7dc0     guideXOS.obj
 0005:00007de8       __Str_Brain_Boxes_Limited_6CE3122D1D1288EAC2E90E3EE230568BF1AACC3B09EF5E3CA5742EB1637B3E3F 00000000100f7de8     guideXOS.obj
 0005:00007e28       __Str_Brains_Co_Ltd_59831DFC6258FFE7599460C2E2646A33A2F05B2FEDB2915B2C7AB51BF18BF277 00000000100f7e28     guideXOS.obj
 0005:00007e58       __Str_Braintech_Inc_6BB7A9C49CBFE578D1241018FD00ECE96CBFB8A93A2FBC800D4899072463934F 00000000100f7e58     guideXOS.obj
 0005:00007e88       __Str_Bridge               00000000100f7e88     guideXOS.obj
 0005:00007eb0       __Str_Bridgeport_Machines_992C48F4CD8580326AF93B3F66E5774FC5C8BC46057EAADC0333C6161C5BF7C9 00000000100f7eb0     guideXOS.obj
 0005:00007ef0       __Str_Broadcom             00000000100f7ef0     guideXOS.obj
 0005:00007f18       __Str_Broadcom___ServerWorks_3332002CCE2E6387FE87612DEA6620A52894A2553B3C9960D77B70A3506764E3 00000000100f7f18     guideXOS.obj
 0005:00007f60       __Str_Broadcom_Corporation_028D00C1E1306498CB4297A1A53BFF96267D60507DDD53F1B4878B864CE4469B 00000000100f7f60     guideXOS.obj
 0005:00007fa0       __Str_Brocade_Communications_Systems_4D5A77BF14CFCE7DCAEAD6F89EFA2FA655450EC964856BEF2AB7E987963387A1 00000000100f7fa0     guideXOS.obj
 0005:00007ff8       __Str_Brooktree_Corporation_6116EFA032EADEB1F2776E744B3221C2529D4515A17806FD6C75CD49094BDCDF 00000000100f7ff8     guideXOS.obj
 0005:00008038       __Str_Brooktrout_Technology_Inc_6C845C7ADB393A9B65D2C8B032AE2CEF72C65B2EDB50BCED7B4E0CAD2BA5A3FA 00000000100f8038     guideXOS.obj
 0005:00008080       __Str_Brown___Sharpe_Mfg_Co_D55C38F42A66C51E6BFE93420C4C0CADF57E99A1F13E46F21DFC7505DD7C422C 00000000100f8080     guideXOS.obj
 0005:000080c0       __Str_Brush                00000000100f80c0     guideXOS.obj
 0005:000080e0       __Str_Bug_Sapporo_Japan_8A1A2AC862473A3057C99B654DAA82BB9552EFFF440F5A1F1F14D308B0A35AEF 00000000100f80e0     guideXOS.obj
 0005:00008118       __Str_Bull_Hn_Information_Systems_E40AD3C0B1DA4B7E216FD283DE390B64AB9B412B69930157660752A72FF07104 00000000100f8118     guideXOS.obj
 0005:00008168       __Str_Burndy_Corporation_25D77770D4D4F6925B3DA471286CDEEB1CA88666536750C565787F6284EB8D9F 00000000100f8168     guideXOS.obj
 0005:000081a8       __Str_Bus_Tech_Inc_181A3AA962EC3077E5D5039554AA9AB0DD073630295EFCDA671EEFA7735380B3 00000000100f81a8     guideXOS.obj
 0005:000081d8       __Str_Bus__C9511BF72058CC11D82AF4993F2C93714ECD6E1AEC2BA34EDA0A07D3A925E213 00000000100f81d8     guideXOS.obj
 0005:000081f8       __Str_Button               00000000100f81f8     guideXOS.obj
 0005:00008220       __Str_Button_Demo_F443651B695EFA4C236E903E583AEB19F3D6D5C643395009F3700D1BED5FB19B 00000000100f8220     guideXOS.obj
 0005:00008250       __Str_Button_Size_Offset__B2B773A1445148658F657CFCC61233B7E2B0E03BFAE19342F64D0089EA621F67 00000000100f8250     guideXOS.obj
 0005:00008290       __Str_Button_Spacing__CFC26EAF13F12DE094F1116CEFBFDC37D4B838585D59063E1E45489800AE1C2D 00000000100f8290     guideXOS.obj
 0005:000082c8       __Str_Bye                  00000000100f82c8     guideXOS.obj
 0005:000082e8       __Str_C                    00000000100f82e8     guideXOS.obj
 0005:00008300       __Str_C_H_Technologies_Inc_00D8D65422089EAF32F6F03A99AE5AA4E9173ABF07C810DEA6E3DF9BB16D085C 00000000100f8300     guideXOS.obj
 0005:00008340       __Str_C_Cube_Microsystems_D1837AEF9A81AC093E55FAA4ECDBDD952736FDC0EDDA5969830304A5A0E3A72A 00000000100f8340     guideXOS.obj
 0005:00008380       __Str_C_Media_Electronics_Inc_A6A03E367486EC08BA97F444EE6A0D6DB1664E24D0AF2754CFDD479656C49AAE 00000000100f8380     guideXOS.obj
 0005:000083c8       __Str_C_Media_Electronics__Inc_16E576F9C7657AA3BEC0DBDD136A2AC3C92A2CA0F8EA3730B6983FD37FF766D6 00000000100f83c8     guideXOS.obj
 0005:00008410       __Str_C_Port_Corporation_2D45C3ADCDF439132DFD1D436DFB5877156DCD3CBC6457039ECCAC53FCF7909F 00000000100f8410     guideXOS.obj
 0005:00008450       __Str_CAPS                 00000000100f8450     guideXOS.obj
 0005:00008470       __Str_CCI_Triad_2E397E444E9C59FFDD4412BD5E14F0122F013372E1451C38AF75C75F51248780 00000000100f8470     guideXOS.obj
 0005:00008498       __Str_CE_Infosys_GMBH_E3A9C7568AC692D1E90D31039309F22631E1D0D796B32561109B817BDF86CE94 00000000100f8498     guideXOS.obj
 0005:000084d0       __Str_CERN_European_Lab_for_Particle_4A8F5E90F11371EB379CAD26BA80A92ECD67964945D2BC052BEB42EADFEE9A41 00000000100f84d0     guideXOS.obj
 0005:00008538       __Str_CF__0__PF__1__AF__2__ZF__3___80BA88F80A0D1824FA778955625B42C0EA1EF752064DE1492C56B0491AF33B94 00000000100f8538     guideXOS.obj
 0005:00008588       __Str_CIFELLI_SYSTEMS_CORPORATION_12339E99447D22181F2359F2DBDB5C4682EFBA3950CD096AE972D1F52ECCFE21 00000000100f8588     guideXOS.obj
 0005:000085d8       __Str_CIS_Technology_Inc_129632CA5A5B2B68F8E8F5323FECDE9F9E8616AEFCE06833FAC0FD9A7A6297C3 00000000100f85d8     guideXOS.obj
 0005:00008618       __Str_CLOSE                00000000100f8618     guideXOS.obj
 0005:00008638       __Str_CMD                  00000000100f8638     guideXOS.obj
 0005:00008658       __Str_CML_Emergency_Services_73D904FD93C2B26400340756FF8240BFF674D971ADAACC0EFC18A597344392D6 00000000100f8658     guideXOS.obj
 0005:000086a0       __Str_CNF_Mobile_Solutions_C6B1F5C3F5917561391DEF352A79A6D243D7ABB2AD7449FE1731B7B6955EC0F9 00000000100f86a0     guideXOS.obj
 0005:000086e0       __Str_CONTROL_PROTECTION_EXCEPTION_2EA3D21D1591E57C8463760983F310B1EA1546F08A1C5967A02FC6B39ED21209 00000000100f86e0     guideXOS.obj
 0005:00008730       __Str_CONTROL_REGISTERS_992581C96CFD7401494300CEC1EF7910D4B0C8E5A234A60D45EA8F90D60788E1 00000000100f8730     guideXOS.obj
 0005:00008768       __Str_COPROCESSOR_SEGMENT_OVERRUN_6E3E5BC4603FB761B1A38451292119C21EFD3A7AB6A09CB92A951FA9A0099588 00000000100f8768     guideXOS.obj
 0005:000087b8       __Str_CP_Technology_Co_Ltd_8D8CECD9E91CAD657863C66EF84CE2470F61AF8C74B5112DCD58D42EEE33C055 00000000100f87b8     guideXOS.obj
 0005:000087f8       __Str_CPU                  00000000100f87f8     guideXOS.obj
 0005:00008818       __Str_CPU_Technology_37051B1D7E41D1F9A4541C719CAF2219E2E07FE7A9EC36F394E28D6A06F4DC6C 00000000100f8818     guideXOS.obj
 0005:00008850       __Str_CPU__57673287A7048BE47F0FD37AD8662494C4A6E4B2714C2145C01001E0378F9E45 00000000100f8850     guideXOS.obj
 0005:00008870       __Str_CPU___0______Time___1__ticks___911D413B8599A65DEDD7D1153350910A71604FCAD24FB1338B5000484F3E8B50 00000000100f8870     guideXOS.obj
 0005:000088e8       __Str_CPU___0___SMP______Ticks___1___5D3677E1613341D220288875D7B4FFECF3D9393D3F19950F2170FBF7DF944672 00000000100f88e8     guideXOS.obj
 0005:00008960       __Str_CR2__Page_Fault_Address___0x_0_0743B573CC3E4B678811DA8C057E2460EE2DA1A4A72E81B628E849D93D4F5BB0 00000000100f8960     guideXOS.obj
 0005:000089c0       __Str_CRISC_Corp_335D2375F33257EA5908712E9277B3D520F4E4840892F63B4CBDBA8F28E9DBA4 00000000100f89c0     guideXOS.obj
 0005:000089f0       __Str_CSPI                 00000000100f89f0     guideXOS.obj
 0005:00008a10       __Str_CSS_Corp_A7B5142706924D5AE2E431C6AA66274F495DB8F643B105B5B4A00E93FFC0CF6D 00000000100f8a10     guideXOS.obj
 0005:00008a38       __Str_Cabletron_Systems_Inc_6E8313C2799DF5845607844E846636E19B983B82869EB5A5AB3F470B8D356D4F 00000000100f8a38     guideXOS.obj
 0005:00008a78       __Str_Cache_Computer_7726AAC1B4D90A03E25626D353ACFF6BAB1AA96DBD0308C52F2DBCCE2E56EF56 00000000100f8a78     guideXOS.obj
 0005:00008ab0       __Str_Cacheflow_Inc_893FF8AB4AD8AC7B28540543ED099917AB49173B9242D1ADF1FD7C8F532ED0A8 00000000100f8ab0     guideXOS.obj
 0005:00008ae0       __Str_Cadence_Design_Systems_D75852540155661EFADCB8913ED9CAD32FF8BD6129C1F6F086ECD3D212171F5B 00000000100f8ae0     guideXOS.obj
 0005:00008b28       __Str_Calculator           00000000100f8b28     guideXOS.obj
 0005:00008b58       __Str_Calculex_Inc_ED3FECDF457FA1BB858DA415B000B751E9DDDDA7378965A77A983C009EA34FBB 00000000100f8b58     guideXOS.obj
 0005:00008b88       __Str_Calloc               00000000100f8b88     guideXOS.obj
 0005:00008bb0       __Str_Cancel               00000000100f8bb0     guideXOS.obj
 0005:00008bd8       __Str_Canon                00000000100f8bd8     guideXOS.obj
 0005:00008bf8       __Str_Canon_Information_Systems_5BCAB568D01331FC81A8642E31A355A11C2ABBEC49978155C04C9CFE9ABC9B1F 00000000100f8bf8     guideXOS.obj
 0005:00008c40       __Str_Canopus_corporation_7B6A6ABA4D5FE552F90E34C8FE81B7E88B5B4722A7C06764F201B04697245A76 00000000100f8c40     guideXOS.obj
 0005:00008c80       __Str_Capacity             00000000100f8c80     guideXOS.obj
 0005:00008ca8       __Str_Capital_Equipment_Corp_859D57F3310220BE58A4DE64401E65655A1AAB3F607564443265FCB5E731B94F 00000000100f8ca8     guideXOS.obj
 0005:00008cf0       __Str_Caps                 00000000100f8cf0     guideXOS.obj
 0005:00008d10       __Str_Carry_Computer_Eng_Co_Ltd_296A7BE57F697885EB0157D3EF1B9B9E66657655E69BAA30AD50AC1B37A920BF 00000000100f8d10     guideXOS.obj
 0005:00008d58       __Str_Casio_Computer_Co_Ltd_31FA68182BEF840884B859F18538210A9B28A3B98E11D6508800D69034231462 00000000100f8d58     guideXOS.obj
 0005:00008d98       __Str_CastleNet_Technology_Inc_24E6D986C1D3BDABD064CB62CE3679E67574D2EC6A1D70295BD72E112D990415 00000000100f8d98     guideXOS.obj
 0005:00008de0       __Str_Catalyst_Enterprises_Inc_2573609F60D811CD390EF4716080E324B7CF818A42E0BF6E04241F12C428A121 00000000100f8de0     guideXOS.obj
 0005:00008e28       __Str_Catapult_Communications_10C3A886906B40B2DFB060A0CC25C0BD59781F41FE475DAABA3E761B1CF6F64F 00000000100f8e28     guideXOS.obj
 0005:00008e70       __Str_Cenatek_Inc_7EF1EE45C955AAC1A79D201A63C27FB3CF06256E7E97D52F67B27F4D071C621C 00000000100f8e70     guideXOS.obj
 0005:00008ea0       __Str_Centillium_Technology_Corp_BB15EB77DB1DFCAE10CDDF4BA4EEADBC5FB08FB479CDA72E07F85E532F0E766F 00000000100f8ea0     guideXOS.obj
 0005:00008ef0       __Str_Central_Data_Corp_B36EB9CAEF49B652D2C36196B24A04B9323E83DBADB614687EA68B8D73115C9E 00000000100f8ef0     guideXOS.obj
 0005:00008f28       __Str_Central_System_Research_Co_Ltd_07640EDFA7F46CB2E61AD501CDB3315F4F85E9A5141917F4456A093E9DB5F0AA 00000000100f8f28     guideXOS.obj
 0005:00008f80       __Str_Centre_f_Dev_of_Adv_Computing_349F6B6651E166B7126060AD15BFD352A1214D14FF725C870A4781C7EBC634AE 00000000100f8f80     guideXOS.obj
 0005:00008fd0       __Str_Century_Systems_Inc_0CB2F70AF8986EBC870F2B5C73B655ED73F09E67CE5A81848860FA5B8000B06E 00000000100f8fd0     guideXOS.obj
 0005:00009010       __Str_ChainTek_Computer_Co_Ltd_B7D5D0DA4DE7BA50521CE10AD3B3B74BE14EF46CF27E055E5710F8616B19B5BF 00000000100f9010     guideXOS.obj
 0005:00009058       __Str_Chameleon_Systems_Inc_C7B80E1CBC4E1F56E43DA864B424EB4CAB27C0605BF633338693A54344813C4B 00000000100f9058     guideXOS.obj
 0005:00009098       __Str_Changed_directory_to___39AFD6E4A83CE842B47313377992954F7C4C4A89A78CF3688CAF41B7BEB51E85 00000000100f9098     guideXOS.obj
 0005:000090e0       __Str_Channels__DB7D39B6765E72A1C652E837588E50BFFF4D19227A7DED04AAFE96E626A6E3AD 00000000100f90e0     guideXOS.obj
 0005:00009108       __Str_Chaparral_Network_Storage_54FC70A9C28ED1AC0C157CAEAD1D6F0C92807C98672853E2B8D4FB9F18A31A24 00000000100f9108     guideXOS.obj
 0005:00009150       __Str_Chaplet_System_Inc_EB758C5BA788D9F85478712AC5FF0D4250686733E841118D82A371554D5AE9DE 00000000100f9150     guideXOS.obj
 0005:00009190       __Str_Chase_Research_PLC_1A9C9287F1DB7228FBDC6B6E6C22EA49ADEE73B07A823A5B7CFA76F153030E98 00000000100f9190     guideXOS.obj
 0005:000091d0       __Str_Check_Font_Before_Render_ADEA57B2A883E1AE3F2161582834D08B145551CCAC5585B682C10CA8832735FA 00000000100f91d0     guideXOS.obj
 0005:00009218       __Str_Check_Framebuffer_Before_Rende_92712E72985482CE8089E16F6D8F422B441BA9624EFAEEFCD5693508B4CC8E9E 00000000100f9218     guideXOS.obj
 0005:00009270       __Str_Chelsio_Communications_B21580930ADF6FE0183A93803FA59E419865B129B2A1EFA596EE9E28A1ECC6EC 00000000100f9270     guideXOS.obj
 0005:000092b8       __Str_Chicony_Electronics_Co_113BDCCDAEFD2BA841E4F090062A3063C68DDB251094BDF61C490959BA41B30E 00000000100f92b8     guideXOS.obj
 0005:00009300       __Str_Chicony_Electronics_Co_Ltd_F7E6DF03605A4DA166456D944C71E294696D960480B250FA3208A64E16FE779B 00000000100f9300     guideXOS.obj
 0005:00009350       __Str_Choose_Color_226D556CEDC6D26103C66576EC0B3C0B1407F632E7B08C5D699CC098E05ABDA6 00000000100f9350     guideXOS.obj
 0005:00009380       __Str_Chori_Joho_System_Co_Ltd_2C550385A9240A01B09CF799F10BB5D33F5C12090DA8983A58A116F7689A5BD3 00000000100f9380     guideXOS.obj
 0005:000093c8       __Str_Chromatic_Research_Inc_5CD36F3E9D33F1C686FE08E8C75770E1A7F1456DF628487A2170B6E13E1B11A8 00000000100f93c8     guideXOS.obj
 0005:00009410       __Str_Chrysalis_ITS_4045CC5D648CBC7F4957E36B037728708B42017DFF6D0E9CA319B29B2C2D1034 00000000100f9410     guideXOS.obj
 0005:00009440       __Str_Cimetrics_Inc_CFDEA821CF7755B68285056361B5FFAA899F3CF21F0488B15B6452BD86B8A137 00000000100f9440     guideXOS.obj
 0005:00009470       __Str_Cincinnati_Milacron_619211338F2E72D7BACDE8B141D07A5D69F2F96E212F911372B2FA0051A66E80 00000000100f9470     guideXOS.obj
 0005:000094b0       __Str_Cipher_Systems_Inc_65BA90BB09D90D0611F31C5ED6F07619495CF3E6079145719487C3A9DAE71F74 00000000100f94b0     guideXOS.obj
 0005:000094f0       __Str_Circle               00000000100f94f0     guideXOS.obj
 0005:00009518       __Str_Circut_Assembly_Corp_259DDB791AF93F2C893A3863387BFCD0E72042FB46D69E6B89BFAF19E97BCD69 00000000100f9518     guideXOS.obj
 0005:00009558       __Str_Cirel_Systems_1573608F9028E81DB10A9FCF4F25251975B4738ED4B6F79C3AC93C60AE9E6C0E 00000000100f9558     guideXOS.obj
 0005:00009588       __Str_Cirrus_Logic_88842AEAC46B4F71259EDBB3AD6D5565B334C78C068C6DF53ED47625FD221B63 00000000100f9588     guideXOS.obj
 0005:000095b8       __Str_Cisco_Systems_Inc_559B0E59B454DB3D287B7CB0233E41DF20C6388EE0587E3BB24D2611AEBAE550 00000000100f95b8     guideXOS.obj
 0005:000095f0       __Str_Citrix_Systems__Inc_6528285C8AD078281D6EB300FDCAD9E14609F2B40150FF4B0BE9C5A0E1AFD6B1 00000000100f95f0     guideXOS.obj
 0005:00009630       __Str_City_Gate_Development_LTD_6C3639585A7F68125C6C120873635512D5ECA7E4F6FAF3B77CA2E8F4291619BF 00000000100f9630     guideXOS.obj
 0005:00009678       __Str_Clarion_Co_Ltd_B7C009FD7AAC79D4C4D4F24B62705444EA42F83F2253527FB997E1B4F186FB7F 00000000100f9678     guideXOS.obj
 0005:000096b0       __Str_Class___211313BA466E26CCC613A2948D17D09F1598AF8EF7C72A5E7B5645977A073861 00000000100f96b0     guideXOS.obj
 0005:000096d8       __Str_Clear                00000000100f96d8     guideXOS.obj
 0005:000096f8       __Str_Clearwater_Networks_12E37D07748FD2624BAC57D8EA8BD888DA627BB0BB8AE807B5D192A76B28EA83 00000000100f96f8     guideXOS.obj
 0005:00009738       __Str_Cleveland_Motion_Controls_08C4D4CEAA6CE4AFD320AADBD9A57FBEAA0BCFBC09A158BB03B5D38EA28EA36A 00000000100f9738     guideXOS.obj
 0005:00009780       __Str_Clevo_Kapok_Computer_D65A58D2C260E5BAD5A332DB59966511AE9792E7B83F1E1C5742D19F7A0ACDE6 00000000100f9780     guideXOS.obj
 0005:000097c0       __Str_Click__Apply__to_save_changes__8FD9957E6675ECDFF82B101BB2A3699C62C08EEE3D4A8ABDDC04439CC1483C10 00000000100f97c0     guideXOS.obj
 0005:00009850       __Str_Click_or_Enter_to_switch___ESC_91568C18A4AAA5CAFCE02A204D1A612A2EE628F7D8A639F9281F62A3C6D35042 00000000100f9850     guideXOS.obj
 0005:00009910       __Str_Click_the_buttons_below__A69975FFBA97EF626EFE714BB4CA9784AB17D2812AA53838E6D07D7CB6EDAAB5 00000000100f9910     guideXOS.obj
 0005:00009958       __Str_Client_accepted___DD1667D30A9532E81F62F156969FE73E77C3027B4F909B450F85F225A50584F1 00000000100f9958     guideXOS.obj
 0005:00009990       __Str_Clock                00000000100f9990     guideXOS.obj
 0005:000099b0       __Str_Close                00000000100f99b0     guideXOS.obj
 0005:000099d0       __Str_Close_Window_6B0EF05FC2DF831692075C1CD9315AC2D89280CE952588112DD0898454A2E1B0 00000000100f99d0     guideXOS.obj
 0005:00009a00       __Str_Cloud                00000000100f9a00     guideXOS.obj
 0005:00009a20       __Str_Co_Time_Computer_Ltd_CDA455C0ED4694F13A334B81B77ADA95C18A718B222B960DC26CA358B832CD45 00000000100f9a20     guideXOS.obj
 0005:00009a60       __Str_CoSystems_Inc_236E105E5E48D1E6FAA533100BEA66B4A9D1F9B9DE504C8C3A4B387F13B241B6 00000000100f9a60     guideXOS.obj
 0005:00009a90       __Str_Cogency_Semiconductor_Inc_0C5BAEAB4D1B59563F4C6F08FE83D08212F88134EEFA6E242DFA05C9E74083C8 00000000100f9a90     guideXOS.obj
 0005:00009ad8       __Str_Cognex               00000000100f9ad8     guideXOS.obj
 0005:00009b00       __Str_Cologne_Chip_Designs_GmbH_023F69251752EE7B32FC6B4C0AE441F29911598B865C0C88B1A189F6E1972722 00000000100f9b00     guideXOS.obj
 0005:00009b48       __Str_Colorgraphic_Communications_Co_84E26AC6434B831CC211BD918490D3C2B78B43115F69C4F9B107EEE117F3F2FE 00000000100f9b48     guideXOS.obj
 0005:00009ba0       __Str_Comartsystem_Korea_907E818EFB50DC3E8240EFE7CF0E63A272B1AC078EE211AA014A58E518D72C4B 00000000100f9ba0     guideXOS.obj
 0005:00009be0       __Str_Combox_Ltd_D2DA7FEC223F3FB42A17F56712F3BE07E62F2E95C24B02E69E0F957D02BFF049 00000000100f9be0     guideXOS.obj
 0005:00009c10       __Str_Commands__help__pwd__ls__ll__c_9A286687EA6E4FEB0FED2CAC0CC9D5D5DD6B43693AC1CB645A0D15C901079610 00000000100f9c10     guideXOS.obj
 0005:00009f00       __Str_Commtech__Inc_6A946A9D609DD530E452CABA40028B4000440B9A7B2C8D1C7CEA88BAE7BEBED2 00000000100f9f00     guideXOS.obj
 0005:00009f30       __Str_Communication_controller_5F60BEE8F6D6D54F479E11E5535BBB24AB8AF9BD14F5227E8861FD2C3AE048B9 00000000100f9f30     guideXOS.obj
 0005:00009f78       __Str_CompCore_Multimedia_Inc_DD63F55C50ABD8A6D6AC112F209D8F381274B19837C1C4E1E700812BE28282C6 00000000100f9f78     guideXOS.obj
 0005:00009fc0       __Str_Compal_Electronics__Inc_1A7953F2EFD813AE66502FE2563FB8573AEE6FD6D8CAD8FFCEB028FAAD3226E1 00000000100f9fc0     guideXOS.obj
 0005:0000a008       __Str_Compaq_Computer_Corp_CB09C8BB9A6F37E04F0FD60A4CE0B4E7C36270D9A47E4F911C78A9EDAE8BDF9F 00000000100fa008     guideXOS.obj
 0005:0000a048       __Str_Compression_Labs_Inc_02337C0018900CE28F9EDA463470E5EC35E7727BEA95A5908B362870A576C203 00000000100fa048     guideXOS.obj
 0005:0000a088       __Str_Compumaster_SRL_CE1847802402D672634062CABE723751B132C2752415CCE391360411CF33A7AF 00000000100fa088     guideXOS.obj
 0005:0000a0c0       __Str_Computer_Files_96AD91D90D4A75A126DA80D87617150BC295005D6FD5B36242E1D929E793AA70 00000000100fa0c0     guideXOS.obj
 0005:0000a0f8       __Str_Computer_Files____F515072A7EB021F07FF4E774B53C3980DE01F9508195448205C7E4799716722D 00000000100fa0f8     guideXOS.obj
 0005:0000a130       __Str_ComputerBoards       00000000100fa130     guideXOS.obj
 0005:0000a168       __Str_ComputerFiles        00000000100fa168     guideXOS.obj
 0005:0000a198       __Str_Computerm_Corp_76F24DE9587ED5B8A989EC6006A703F807CE3CA4AE9657716E5B9F532E06EBF8 00000000100fa198     guideXOS.obj
 0005:0000a1d0       __Str_Computervision       00000000100fa1d0     guideXOS.obj
 0005:0000a208       __Str_Computex_Co_Ltd_55358C8D83655556401657E4E257BC39D8D37256F530E5CB45C84F3AD6AE6975 00000000100fa208     guideXOS.obj
 0005:0000a240       __Str_Computing_Devices_Intl_DAE16844DD24E27825FB3ADBA1D92572296A1526A324282399215F7ECA2BD167 00000000100fa240     guideXOS.obj
 0005:0000a288       __Str_Computone_Corporation_5157206532DFB01507F8B0E61374601A80429BDA76067387AEF70F9261ED487F 00000000100fa288     guideXOS.obj
 0005:0000a2c8       __Str_Computrend           00000000100fa2c8     guideXOS.obj
 0005:0000a2f8       __Str_Comstream            00000000100fa2f8     guideXOS.obj
 0005:0000a320       __Str_Comtrol_Corp_9B1B16F385D86E7B8CE641D4E7FE3AE3B410E0D40CB72306697C1C55A2971F0C 00000000100fa320     guideXOS.obj
 0005:0000a350       __Str_Concept_Development_Inc_924B7D6B1DCBD02B85B1790C8700FC7E6FEED9126799CB02F1B0968565A8929B 00000000100fa350     guideXOS.obj
 0005:0000a398       __Str_Concurrent_Technologies_Inc_3F9B2915BA66056AFE01B91769460381BA3EA73D4FA854AC842AACF2CC380AF2 00000000100fa398     guideXOS.obj
 0005:0000a3e8       __Str_Conexant             00000000100fa3e8     guideXOS.obj
 0005:0000a410       __Str_Configure            00000000100fa410     guideXOS.obj
 0005:0000a438       __Str_Confirm_Shutdown_07361814253028D7D6E1D7940A09234C82CC107B185BE3D8B28D8237B9A749D8 00000000100fa438     guideXOS.obj
 0005:0000a470       __Str_Connect              00000000100fa470     guideXOS.obj
 0005:0000a498       __Str_Connect_Components__Ltd_605F9302D2593C478820926A7BD04E1A67F1CD2330E74226ACD2CFB61A3282DD 00000000100fa498     guideXOS.obj
 0005:0000a4e0       __Str_Connect_Tech_Inc_2B28BA21625F918E7A14B76AE2A9FF761F61AE84387B5919D6CBA3D3ED9C1398 00000000100fa4e0     guideXOS.obj
 0005:0000a518       __Str_Connect_timeout_116D254546AC515A94E70A9109992035A954E4FB289787BF926EB770406791AC 00000000100fa518     guideXOS.obj
 0005:0000a550       __Str_Connected            00000000100fa550     guideXOS.obj
 0005:0000a578       __Str_Connected_USB_Mass_Storage__464989A24D33FBD6AAD8CC164234BD716881A6241F50D1BB5475B1EA10B68535 00000000100fa578     guideXOS.obj
 0005:0000a5c8       __Str_Connecting____C4D13E342C7E1383B154B56FE6583AE8191D3A826E2F3B5407632C33CC4345CF 00000000100fa5c8     guideXOS.obj
 0005:0000a5f8       __Str_Connection           00000000100fa5f8     guideXOS.obj
 0005:0000a628       __Str_Connection_Established__0252720322F1A3315F0A67428AE8A68DF6EAF2794810E5C0A4FC2C75A08D09A5 00000000100fa628     guideXOS.obj
 0005:0000a670       __Str_Connectware_Inc_39920F70A20830A9925D912A53DF12231FD172599C3F5AE91949DAC154172E31 00000000100fa670     guideXOS.obj
 0005:0000a6a8       __Str_Console              00000000100fa6a8     guideXOS.obj
 0005:0000a6d0       __Str_Console_____D375A68CF90FDC4D85C84171C233E5A1EE02496531BFB15A34257DF0FD1868AF 00000000100fa6d0     guideXOS.obj
 0005:0000a700       __Str_Contec_Microelectronics_Europe_D7FDC0268B12245593970B296D61D29502C5F42CA4D1E476356E1F129117C44D 00000000100fa700     guideXOS.obj
 0005:0000a758       __Str_Contemporary_Controls_6BB8FE3B732C4DE81521FA518412D990E474E54459784B1CA479AE7E1F6691FF 00000000100fa758     guideXOS.obj
 0005:0000a798       __Str_Content_Length_10627CCBE77120E4DD1354CF079BE3CFC961A373BA32033A1DF0A1A87D7D9D76 00000000100fa798     guideXOS.obj
 0005:0000a7d0       __Str_Content_Length__5D2CC77D1E4D13F2C3C7F62CCB071163F3B3D6FEB032C15A41C4F6297BD55BB7 00000000100fa7d0     guideXOS.obj
 0005:0000a808       __Str_Content_Type_C546411CDE4BBCFCA1AA6EB8D9F74E18FED14EEF1FCCC98A688E9A9F1DCE31CB 00000000100fa808     guideXOS.obj
 0005:0000a838       __Str_Control_register_info_unavaila_4105FAC182A91746E5D648D0307C522B22F71A1CE47F9410E4C2F7EA1CEF62C3 00000000100fa838     guideXOS.obj
 0005:0000a890       __Str_Coprocessor          00000000100fa890     guideXOS.obj
 0005:0000a8c0       __Str_Coreco_Inc_D58E64C22831FE459B051E17F4FCC8C93EE6F2914450A2C23641AEEC43690098 00000000100fa8c0     guideXOS.obj
 0005:0000a8f0       __Str_Cornerstone_Technology_16FCE7B884C8C5CDD567D4B278B49977CF3F36F66F62030D0120B39AC628B9BC 00000000100fa8f0     guideXOS.obj
 0005:0000a938       __Str_Corollary_Inc_55EAFFD8070E4C7906E790E7F4C71C12B282621BA678351A9645DB78F731DCF6 00000000100fa938     guideXOS.obj
 0005:0000a968       __Str_Coyote_Technologies_LLC_FAACA481485942666FEF82A74F1DEBEFF7442577C9C7EC153D28D24A1A976A5F 00000000100fa968     guideXOS.obj
 0005:0000a9b0       __Str_Cray__Inc_D4135B9D59C2CFC44D7D8F99177FE420B247C8E7CF94B3E7C4884D879FBA8607 00000000100fa9b0     guideXOS.obj
 0005:0000a9d8       __Str_Creamware_GmbH_D7235B2CEB02F974FBA18A580EB0BD27BBC306F9F1FA279483CC8E091D3E26C2 00000000100fa9d8     guideXOS.obj
 0005:0000aa10       __Str_Create_Test_Window_749D983460D046DE8BCD70E3108CAE5EF9C529C4B080A98A7067C7E1571D7DDF 00000000100faa10     guideXOS.obj
 0005:0000aa50       __Str_Create_partition__largest_free_D9116158AA9DDE3A539303B3549A3375B7DFE5877F62BE9C3834435743BE3FC4 00000000100faa50     guideXOS.obj
 0005:0000aaa8       __Str_Creative_Electronic_Systems_SA_647745EDE8816DCDAB3907068ACFA8663FDD58300EE0D857D4C90C5C600DE7CE 00000000100faaa8     guideXOS.obj
 0005:0000ab00       __Str_Creative_Technology_LTD_338937889A086827E9BAB453E6F2A6DABB288315B49D569DC346927B7AEBAC4D 00000000100fab00     guideXOS.obj
 0005:0000ab48       __Str_Crest_Microsystem_Inc_8D65DC2C3C2692684E00C6F221C4B8DFE74E95C926BB84BF08CCF401AA956C71 00000000100fab48     guideXOS.obj
 0005:0000ab88       __Str_Critical_error_in_main_loop_9740B725EFF8876D2CA77ED960A9AF2DEF2CAD6CA39BC1E81D9378C4F08976F8 00000000100fab88     guideXOS.obj
 0005:0000abd8       __Str_Crosfield_Electronics_Ltd_918C9D72C2F137727379BFB0A94A9018BDA7CCF60F62ED911BF746321DAEB3F8 00000000100fabd8     guideXOS.obj
 0005:0000ac20       __Str_Crosspoint_Solutions_Inc_49FD00031F5B20EEE67D8B475442B014F7437EA4676A8858EA404905BFCF96A2 00000000100fac20     guideXOS.obj
 0005:0000ac68       __Str_Cryptek              00000000100fac68     guideXOS.obj
 0005:0000ac90       __Str_Crystal_Group_Inc_C83F407304DA54211C8C852302898C41E0683C6403372EB7D0E08F763AC0ED0E 00000000100fac90     guideXOS.obj
 0005:0000acc8       __Str_Current_Pages_in_Use__1949B19DF9507E912AA48383423DCC73C09F250AC8008A988BC4A3E301F6EAD9 00000000100facc8     guideXOS.obj
 0005:0000ad08       __Str_Current___65757E90C99230DA2577C948EF17EFB0FB014052105E135C34CC251761153687 00000000100fad08     guideXOS.obj
 0005:0000ad30       __Str_Curtiss_Wright_Controls_Electr_DB890332E26A3683CEBB5293F9B6FCF8EB1B7FDC9196175A13A50F69BD302B23 00000000100fad30     guideXOS.obj
 0005:0000ada0       __Str_Curtiss_Wright_Controls_Electr_BFD39866ACB6D65C79474DB293C0AA4E026E5268A98A2F88D877514B21B35D2A 00000000100fada0     guideXOS.obj
 0005:0000ae10       __Str_Curtiss_Wright_Controls_Embedd_DF77DDCBDC595D916AB21BE69396C676BFAC221609E2FBAC454796CC34B39F74 00000000100fae10     guideXOS.obj
 0005:0000ae80       __Str_Cyberdyne_Inc_3FCE5670C9B95B9442C2EFBB0F072B39D4C2C8013DB5F59414F835D28534ABC2 00000000100fae80     guideXOS.obj
 0005:0000aeb0       __Str_Cyberfirm_Inc_5F5235C29179423863E34A3CF3EEE7CE02639762AFC81CE417E379F5C8361852 00000000100faeb0     guideXOS.obj
 0005:0000aee0       __Str_Cybernetics_Technology_Co_Ltd_282D6C38DCE3B47C64186087D53F199B78D64142FA00E2E1C4D50FEB08D4CC80 00000000100faee0     guideXOS.obj
 0005:0000af30       __Str_Cyclades_Corporation_A93BDFCD8002D8E59A393EBF8B9B854DF9D2F7A1AE82509D42C8CE0408C16BF6 00000000100faf30     guideXOS.obj
 0005:0000af70       __Str_Cyclone_Microsystems_Inc_6132F632416B7256FEE0E65D93B56D4A83C9D68EB200CCC1B80C8826276D651A 00000000100faf70     guideXOS.obj
 0005:0000afb8       __Str_Cylink               00000000100fafb8     guideXOS.obj
 0005:0000afe0       __Str_Cypress_Semiconductor_98603700CF5C10ECB46D0CF96B5A8FEB1347B0558512D16B9B53B81C2ED37CD3 00000000100fafe0     guideXOS.obj
 0005:0000b020       __Str_Cyrix_Corporation_75E1C9F377A9E29158F1207CDE83D3B47200E51E4D84A1C93E4B291046E5A39F 00000000100fb020     guideXOS.obj
 0005:0000b058       __Str_Cytec_Corporation_74AE665D9EF1E2C2E666BAC9936B30CD0CD7BF8D039FC3B8D08C91814D0B16B4 00000000100fb058     guideXOS.obj
 0005:0000b090       __Str_D_Link_Corporation_205FF0AE30CDC4D4E0C55DB05406713A7A0FCFED450AF241644856641471ED04 00000000100fb090     guideXOS.obj
 0005:0000b0d0       __Str_D_Link_System_Inc_8D9666101E033E4A5FD9289A5F2011B51B62BDD86C96190A66708CFC7BEFF3B2 00000000100fb0d0     guideXOS.obj
 0005:0000b108       __Str_D_MAX_6E213982A44681D862A76BBB755140B591CD50650F07F0EA4D72E68552C660B1 00000000100fb108     guideXOS.obj
 0005:0000b128       __Str_DAQDATA_GmbH_BA24ED6288C5166D17757777D08E52C29602146CC01053086F8B46F956891D8F 00000000100fb128     guideXOS.obj
 0005:0000b158       __Str_DCM_Data_Systems_B4E78F6C4DE17B209FAA1020E5AC7AB426C0BF122476686865EB76F0C7CDCB88 00000000100fb158     guideXOS.obj
 0005:0000b190       __Str_DCM_Technologies_Ltd_AD173249DCEB0E02EA6D83D4C68B1B2870A5624EF6FC292641933AF5AB63D3A9 00000000100fb190     guideXOS.obj
 0005:0000b1d0       __Str_DDK_Electronics_Inc_A2A9EEB330ABEA8EEE23838241D8D5F7224A4FC30D536B7F6AB466AC97C3AF28 00000000100fb1d0     guideXOS.obj
 0005:0000b210       __Str_DDRdrive_LLC_6A779D815A7CAFC435862D4B83338A1D4B1F9CD0F77A6E715FBE17ABBCA190B7 00000000100fb210     guideXOS.obj
 0005:0000b240       __Str_DEBUG___SINGLE_STEP_A82273842CF6A0917CF4C1A2B78D5DDB4468F37E944C7A6B8D07C885106845CE 00000000100fb240     guideXOS.obj
 0005:0000b280       __Str_DEVICE_NOT_AVAILABLE_CFED29FA53A1ABE7839AE9918E03034B92B8C8159C724119CF1848B20D83AA11 00000000100fb280     guideXOS.obj
 0005:0000b2c0       __Str_DFI_Inc_E7A961C05113CDE59260224B2643DB2DC8B39C010FE3BC42DD08BE24093A8109 00000000100fb2c0     guideXOS.obj
 0005:0000b2e8       __Str_DH_electronics_GmbH___Sabrent_89A6D130F547F69ADD307FCA7242610F0BFA4D30CD953B10B71421556565AE3F 00000000100fb2e8     guideXOS.obj
 0005:0000b338       __Str_DIVIDE_BY_ZERO_35A15510F680DC765661E0D29DFAD7145E1665F9617FC031C21ECB78DB53A063 00000000100fb338     guideXOS.obj
 0005:0000b370       __Str_DLoG_Gesellschaft_f_r_elektron_FB167874471EE01087CE3394AF93B8B506E221239B9E9D44F49DDB578DC301C9 00000000100fb370     guideXOS.obj
 0005:0000b3f0       __Str_DNS_error_E3D239F440820F397C09E130A101C45B9449F6328B935C72E5A9B38B56B53FA2 00000000100fb3f0     guideXOS.obj
 0005:0000b418       __Str_DNS_failed_38133480EA56DE6C629E456BAC2C3AE4584D9DF48CE51EC6161E688EBD2937B2 00000000100fb418     guideXOS.obj
 0005:0000b448       __Str_DOUBLE_FAULT_D7745D19D21BED4FCAE5949B361E7C3770F0F6F00771FC35E0C922926FC4F820 00000000100fb448     guideXOS.obj
 0005:0000b478       __Str_DROPDOWN             00000000100fb478     guideXOS.obj
 0005:0000b4a0       __Str_DSC_Communications_FB98387705ED8240B1B2D706FD4017D3F6A6ABB94BA02E5D58C70DD917D85C00 00000000100fb4a0     guideXOS.obj
 0005:0000b4e0       __Str_DSP_Research_Inc_01DF1921B156ECF68093AFA42E6B6BE5E355D8FE6ACC68943F65AFCE6AA831CD 00000000100fb4e0     guideXOS.obj
 0005:0000b518       __Str_DTC_Technology_Corp_D0C115E6DE03EEF15832BD4D47161C2AA42E11719CD6644B0D4A6C0E35B08894 00000000100fb518     guideXOS.obj
 0005:0000b558       __Str_DTK_Computer_B16E0809556F88B648C2855C0BBCEF9A8E397891F1507E4368F23CCBC7794AE6 00000000100fb558     guideXOS.obj
 0005:0000b588       __Str_Daewoo_Telecom_Ltd_BCADCF17418474AEF764DEF1EE650A6E149E7CF12A1007091783D0201DE91A5E 00000000100fb588     guideXOS.obj
 0005:0000b5c8       __Str_Dainippon_Screen_Mfg_Co_0D172685807961C3A663D4BB8A44B936BF834F5F04FD34F2BF4499B12EA8353A 00000000100fb5c8     guideXOS.obj
 0005:0000b610       __Str_Dallas_Semiconductor_E1BBDA5B471FAE147CAD36462175E0FE95981BE6FFEE07CF44CE5AA8B62110E3 00000000100fb610     guideXOS.obj
 0005:0000b650       __Str_Dapha_Electronics_Corporation_F6568CB494C025942D96E63ED7133212586AE50CBAA8E316E54C6BAD961FB5BD 00000000100fb650     guideXOS.obj
 0005:0000b6a0       __Str_Data_General_Corporation_B05357BB42C658D2DDC7B258ACF020A6D7BF0545686DE30776B6225FB4C0FC05 00000000100fb6a0     guideXOS.obj
 0005:0000b6e8       __Str_Data_Kinesis_Inc_0EB8781ACAA6C7E35BC1CDF578978F252EC812D3C166B3AF634413DBC8CDB5F2 00000000100fb6e8     guideXOS.obj
 0005:0000b720       __Str_Data_Race_Inc_CF3DFC7EF6F6A0D22DBFC7A46107385323C371F03F52EBDC6789A9DA526C3E2F 00000000100fb720     guideXOS.obj
 0005:0000b750       __Str_Data_Technology_Corporation_C5629D40BC5457B98BA0FE4DF936B8D6904AB1AF81885654459F2FD44839C86D 00000000100fb750     guideXOS.obj
 0005:0000b7a0       __Str_Data_Translation__Inc_D6764C1B6811EC294EB69ACA6D2B5D9121F46451BA3DBB4D3D743592A379AFAC 00000000100fb7a0     guideXOS.obj
 0005:0000b7e0       __Str_Databook_Inc_5F3C0E31CFCCF6E69958D69BB35153C6F592F6A16DA0CD089C247C37992A9E07 00000000100fb7e0     guideXOS.obj
 0005:0000b810       __Str_Datacube_Inc_BCE46DDBA07361263390F5DAC4AEAC2F5AEACFFF4DE726FFCBD1F31F8888B546 00000000100fb810     guideXOS.obj
 0005:0000b840       __Str_Dataexpert_Corporation_DEE4F76463189DBC0F5A823E36013C8A5D59AA26001FA8319F181C97F965A475 00000000100fb840     guideXOS.obj
 0005:0000b888       __Str_Datakinetics_Ltd_0EE5ADDDB3842AC474C7CF514283469F1DA58CE8BA84AFEF9F0BC6240EB19388 00000000100fb888     guideXOS.obj
 0005:0000b8c0       __Str_Datalex_Communcations_38D4CAD5D5AB7E88A56B0951E48E27F12076D1845D38D2F2F5E694E9DAC7FC83 00000000100fb8c0     guideXOS.obj
 0005:0000b900       __Str_Datavoice__Pty__Ltd_E07C1BA3FE3CCCE4CD8C6511FE2B8B8D5BA9D8A2B76ADB2D78FA7A67BCDACF06 00000000100fb900     guideXOS.obj
 0005:0000b940       __Str_Dataworld            00000000100fb940     guideXOS.obj
 0005:0000b968       __Str_Datel_Inc_CBBC6ED21BA5FF2CEDD5326DDA8CD97606D250D7715B2593FFA0AA36F8E98565 00000000100fb968     guideXOS.obj
 0005:0000b990       __Str_Datum_Inc_Bancomm_Timing_Divis_3A4F80CE9D44917BCD020D931F26C48010D7F419C478FD8B5AC54E2A53ED5874 00000000100fb990     guideXOS.obj
 0005:0000b9e8       __Str_Davicom_Semiconductor_Inc_DF9DDCBCD1F5E29062C025AB0A74B757CE612879774E3C46A7DB1D6D96A2A2DC 00000000100fb9e8     guideXOS.obj
 0005:0000ba30       __Str_Dawicontrol          00000000100fba30     guideXOS.obj
 0005:0000ba60       __Str_Dazzle_Multimedia_Inc_91F1F7EC8AC67383E8AB13E34476FAE00BF5B7BA7BF1EEC4A2320FEE097FD635 00000000100fba60     guideXOS.obj
 0005:0000baa0       __Str_DebugWrite           00000000100fbaa0     guideXOS.obj
 0005:0000bad0       __Str_DebugWriteLine       00000000100fbad0     guideXOS.obj
 0005:0000bb08       __Str_December             00000000100fbb08     guideXOS.obj
 0005:0000bb30       __Str_Decision_Computer_Internationa_B1CFBB100B7B0871C487C645DB166195990F2910DFEFDA9037D6159303580128 00000000100fbb30     guideXOS.obj
 0005:0000bb90       __Str_Decros___SICZ_as_0BF4B9911B45299A9682EB2D41B22322D3354F7431CF038F4009B5071DBA980E 00000000100fbb90     guideXOS.obj
 0005:0000bbc8       __Str_Default_Refresh_Rate__0D48A784C0CF7EAABF53DA361D8A87ED3D40FE1ED24B86436FF4D51BBC7ED2DF 00000000100fbbc8     guideXOS.obj
 0005:0000bc08       __Str_Default_gateway__A51C0B57D910422CDCCA47A68A68708ABFEBB6D192A5D6FE0AD728FDF60E5E57 00000000100fbc08     guideXOS.obj
 0005:0000bc40       __Str_Dell_Inc_85EC5932B450212AB21DB0422EC8A083142A404AC81C2B44E224992E9555829D 00000000100fbc40     guideXOS.obj
 0005:0000bc68       __Str_Delphax              00000000100fbc68     guideXOS.obj
 0005:0000bc90       __Str_Delta_Electronics_Inc_7E7BFFF4AF025E98B2523074FEFD4103E6A347D56B16DAB000BA419AE568034A 00000000100fbc90     guideXOS.obj
 0005:0000bcd0       __Str_Demo_window_will_appear__1_sec_BB2F40FBA11458CA7A66C9B12D371BD4C99B508CB7942AD410EAC995B67B3942 00000000100fbcd0     guideXOS.obj
 0005:0000bd48       __Str_Densan_Co_Ltd_3B3CB13BC388D6AE5E7E6500D6084E517E7D97C1DD82E8A824F3CEDA72ABA10F 00000000100fbd48     guideXOS.obj
 0005:0000bd78       __Str_Deny                 00000000100fbd78     guideXOS.obj
 0005:0000bd98       __Str_Department_Of_Defense_253D3258A03C17AF91A30106664B813F350C4C3C1F7FFC690587D62070AE9E78 00000000100fbd98     guideXOS.obj
 0005:0000bdd8       __Str_Desana_Systems_8AA8FC5D1C58EA1CC71AA8DA3674E7858CFA98D5340E8E00D437D8F1065467D2 00000000100fbdd8     guideXOS.obj
 0005:0000be10       __Str_Desktop              00000000100fbe10     guideXOS.obj
 0005:0000be38       __Str_Desktop_background_changed_to__9186A9E4EE1EAB1AA916AC06834291160A6C6853BF48553EBA69CFD1E7B4E858 00000000100fbe38     guideXOS.obj
 0005:0000be90       __Str_Detect_media_F9D623D3AE3853710018272CDCEDEC6CE4251ABA0A94D596BB4BDD251D42DC73 00000000100fbe90     guideXOS.obj
 0005:0000bec0       __Str_Detected             00000000100fbec0     guideXOS.obj
 0005:0000bee8       __Str_Detected_PCI_Devices_06434AC855370B4FA4202B00F2B9279FD418DE3273534CE968724A9B5DD167B3 00000000100fbee8     guideXOS.obj
 0005:0000bf28       __Str_Deuretzbacher_GmbH___Co_Eng_KG_D7365ADE4E122B220EF627DC6C9535F2317FC7DFC3C17E7847722E2A6FAFA7D9 00000000100fbf28     guideXOS.obj
 0005:0000bf80       __Str_Device_Located___F8CFC9E60868ED15B1780B94E0B265DEF23923F5EFD42B74A3785D815329ABE2 00000000100fbf80     guideXOS.obj
 0005:0000bfb8       __Str_Devices              00000000100fbfb8     guideXOS.obj
 0005:0000bfe0       __Str_Dialogic_Corp_67DB692BA8169288EF4E2C1D96F0737366809A2FDF15A4A164AF1B1B521ECF08 00000000100fbfe0     guideXOS.obj
 0005:0000c010       __Str_Diamond_Computer_Systems_82F07403D10CBB8D9CC69D488CBE31CC3A1D9F1049FF7FE88EB3C953A0B30D26 00000000100fc010     guideXOS.obj
 0005:0000c058       __Str_Diatrend_Corporation_F48A7F4E86E947496CFEBFC2F60184714ADC6AA200F9BF4E1032FAEDC6A1AC08 00000000100fc058     guideXOS.obj
 0005:0000c098       __Str_Digalog_Systems_Inc_CC6783A63E1231FF01ED7BF3A516B0B090E1CBC403D9D8E4914C564F43552E54 00000000100fc098     guideXOS.obj
 0005:0000c0d8       __Str_Digi_International_FA9069972F8673745CCB3E5086F63A2FD361B185B618D2C3CC1AE660CA21730F 00000000100fc0d8     guideXOS.obj
 0005:0000c118       __Str_Digicom              00000000100fc118     guideXOS.obj
 0005:0000c140       __Str_Digicom_Systems_Inc_E73CB270FFD5A7793DD30E6076276E6BC50C860B72FE62382559B35F092718B7 00000000100fc140     guideXOS.obj
 0005:0000c180       __Str_Digigram             00000000100fc180     guideXOS.obj
 0005:0000c1a8       __Str_Digital_Audio_Labs_Inc_46E6D1243AEDCBBDC1594B575D14CDC62E1F5B971A844D7E9B32E44FD6B11833 00000000100fc1a8     guideXOS.obj
 0005:0000c1f0       __Str_Digital_Equipment_Corporation_AB2A9681069DD0F78A691A38336C38C35638C988850B9B01D9DB9D9FF238FE00 00000000100fc1f0     guideXOS.obj
 0005:0000c240       __Str_Digital_First_3DB4F831DFB1368305EB6B049F218E266690E55F5DD343CFE21BA63096EC7D7C 00000000100fc240     guideXOS.obj
 0005:0000c270       __Str_Digital_Processing_Systems_Inc_243B878D874CF31198547DD31D40ED74450CD6819B2C26E662A2F9A8EBA0C5AB 00000000100fc270     guideXOS.obj
 0005:0000c2c8       __Str_Digital_Receiver_Technology_In_2E566517E9CBE41F9AF1A93C4B2F064159242F5AB523852A528984E51D560262 00000000100fc2c8     guideXOS.obj
 0005:0000c320       __Str_Digitmedia_Corp_08ECA5B0AE961D01622540BB5320D268267A7A2E2297B23CC7DBE03850CF3967 00000000100fc320     guideXOS.obj
 0005:0000c358       __Str_Dipix_Technologies_Inc_2566DF1AB1B111869180C0B38B8AD04B906C84A7AAF6F4E584B7B5464CFB45C6 00000000100fc358     guideXOS.obj
 0005:0000c3a0       __Str_Disabled             00000000100fc3a0     guideXOS.obj
 0005:0000c3c8       __Str_Disconnected         00000000100fc3c8     guideXOS.obj
 0005:0000c3f8       __Str_Disconnected__017AC0EC4906320F386161DB00E04C883510DFEA1AED5C0407B05F9E7AC155A7 00000000100fc3f8     guideXOS.obj
 0005:0000c428       __Str_Disk                 00000000100fc428     guideXOS.obj
 0005:0000c448       __Str_Disk__51EE25875FA444C3F502E5548754A4603BE2A03F73778665D4BEC16C3E2D220F 00000000100fc448     guideXOS.obj
 0005:0000c468       __Str_Disk_0__System__FBDAA7E442F94DEDDF644A5BE12CFC39EEF072AAD1AE3439023F9C5C27978D7A 00000000100fc468     guideXOS.obj
 0005:0000c4a0       __Str_Disk_Management_B7BE43EAAC3C98CAB89CB2F10D9F682A4E3B546C7A4CB0846303B6507B3EFF9E 00000000100fc4a0     guideXOS.obj
 0005:0000c4d8       __Str_Disk_Manager_A3214D99D360BF9D7822ABC04208AF3EEFA8BA91BB6E9190D6A39D4CF99CC57A 00000000100fc4d8     guideXOS.obj
 0005:0000c508       __Str_Disk_info_unavailable_01166D84B67A3D91B0CF8318E36B1662246BBCDFCB9BC04B5E70D115F6B2D1CF 00000000100fc508     guideXOS.obj
 0005:0000c548       __Str_Disk_size_unavailable_8BA925D385A793337B56C597E94E4C5D76ECFEDD0BB835CCDCA0B0239212F914 00000000100fc548     guideXOS.obj
 0005:0000c588       __Str_Disk_too_small_DB24D9FF2CFAE1029A1DE0B53D25903FC073E120A3EBE6EA83DB70F9890E6D2C 00000000100fc588     guideXOS.obj
 0005:0000c5c0       __Str_Disk__73C429ECB1568D63AF7310CE1841476E68F73BE679CE470926C5F2767B07C443 00000000100fc5c0     guideXOS.obj
 0005:0000c5e0       __Str_DiskManager          00000000100fc5e0     guideXOS.obj
 0005:0000c610       __Str_Disks                00000000100fc610     guideXOS.obj
 0005:0000c630       __Str_Display_Options_37E3B462F05BD34F6B1B9CA0367D05A1B4041E3CD36E9E26CEBF292AB300A10C 00000000100fc630     guideXOS.obj
 0005:0000c668       __Str_Display_controller_2AB0112D09C2DF772BE7424FC0DEA80D8FF45FC0E01AE94843BB1ECC2A1554E3 00000000100fc668     guideXOS.obj
 0005:0000c6a8       __Str_DisplayOptions       00000000100fc6a8     guideXOS.obj
 0005:0000c6e0       __Str_Dispose_Cache_When_Hiding_Wind_940F090BB5BC1F38FE422545240901D50CD9D3C215D56B310A21FC2D37D3981B 00000000100fc6e0     guideXOS.obj
 0005:0000c738       __Str_Distributed_Processing_Tech_83CD494490DD6B839D56120B86BC4B360DF6A76AA2C91C197A219A01DCD3612E 00000000100fc738     guideXOS.obj
 0005:0000c788       __Str_Ditect_Coop_3C916798932A48E3CA451B558AB38052AC355E4C5A8B0DB5EB7649ABAD108CB3 00000000100fc788     guideXOS.obj
 0005:0000c7b8       __Str_Diva_Systems_Corp_BAACD83FCAB7E8A94A950613FA64337CEBF62ED1AC64D601F89582B6EACB2188 00000000100fc7b8     guideXOS.obj
 0005:0000c7f0       __Str_Diversified_Technology_EC84F2AB1070D3D27F45A66B629DC9B878988520326410C742A0A7338D47F61D 00000000100fc7f0     guideXOS.obj
 0005:0000c838       __Str_Do_you_want_to_save_changes__4567F4941B7DBA568C5593934B38F9EB8D3215E437EE52F4E7A05420A819B971 00000000100fc838     guideXOS.obj
 0005:0000c888       __Str_Dock                 00000000100fc888     guideXOS.obj
 0005:0000c8a8       __Str_Docking_station_AFC491B5DBBBB1DB7A195B3F75F3A7438D68F11E2AD6B44F1FEB286BF3B1FCB3 00000000100fc8a8     guideXOS.obj
 0005:0000c8e0       __Str_Document_Technologies_Ind_42F8EB62BFFEBAEFA33AFF9560D83A4EE9F6510582C43A59E0535F3BEF53DDE4 00000000100fc8e0     guideXOS.obj
 0005:0000c928       __Str_Dolphin_Interconnect_Solutions_85F05B94E5FD0E7E0A7238237D4715AF5A55C7C0A5A136150DD99F7AF4F67277 00000000100fc928     guideXOS.obj
 0005:0000c980       __Str_Dome_Imaging_Systems_Inc_64EEDBDD5A3231B99C1358468496D89C670D449006A732DFFEC79DFA847E3EB5 00000000100fc980     guideXOS.obj
 0005:0000c9c8       __Str_Don_t_Save_9EB66F3D31EAEC7F84F0747CAAEDBCF664B7BFF395D8CD7E74A3EAEF08D91875 00000000100fc9c8     guideXOS.obj
 0005:0000c9f8       __Str_Doug_Carson___Associates_9F20DC8368786AAEF062E9896798AE70E39E8D8EDC6BA43FA9973E8DE1281148 00000000100fc9f8     guideXOS.obj
 0005:0000ca40       __Str_Draw_Start_29B992A700D47D181424259841E86B873EF2C85E49FDB944C86F5AB031000AAA 00000000100fca40     guideXOS.obj
 0005:0000ca70       __Str_DrawImage            00000000100fca70     guideXOS.obj
 0005:0000ca98       __Str_DrawPoint            00000000100fca98     guideXOS.obj
 0005:0000cac0       __Str_Drawing_error_occurred_1BEFB100F65ED8213F415232755F589351E111A3E560B515478A4ACEF7561923 00000000100fcac0     guideXOS.obj
 0005:0000cb08       __Str_Drawing_operation_failed_E1A602F58F118D2ED402BDE7EBA4EE5D0430D9F4326BE86692C7F5FE6EB6F8B9 00000000100fcb08     guideXOS.obj
 0005:0000cb50       __Str_Dreamtech_Co_Ltd_513CD4C225EA12DA5408E1BD1F1ADDE1170EA8DA91B6C69697C826C52CF25169 00000000100fcb50     guideXOS.obj
 0005:0000cb88       __Str_Drive__3D73D64573ACD9DB4D257A9672FB0A1E937FDF678CCB3D4E1C5932ADCE0F1420 00000000100fcb88     guideXOS.obj
 0005:0000cbb0       __Str_Driver___F214C895A705518A8685FF8AC32635088BE5556EBE195FDA87FB8267ABDFEB7D 00000000100fcbb0     guideXOS.obj
 0005:0000cbd8       __Str_Drsearch_GMBH_1A2B1272BE0D42526EAF41E57288D259F9EAEDF6110FD63D6CBC4DA056F11755 00000000100fcbd8     guideXOS.obj
 0005:0000cc08       __Str_Dual_Technology_Corporation_C985D2FA1B445991FF51A0658577FFC9FEE42328453F2E147716024BB2EE0D4F 00000000100fcc08     guideXOS.obj
 0005:0000cc58       __Str_Dunti_Corp_995C2CDA28FEBA228EAD0A463B2A41A602E56474FC36D44B59A198FA4F2F9989 00000000100fcc58     guideXOS.obj
 0005:0000cc88       __Str_Dynachip_Corporation_E68360CF40A48FA1721869DEF4FD1FDBC8225936ADAF833DC186217E133EA1DD 00000000100fcc88     guideXOS.obj
 0005:0000ccc8       __Str_Dynamic_Pictures_Inc_71D6B75882A99095DF9F79E58850111710CC02EE62007A11DFF304E0A0B345C1 00000000100fccc8     guideXOS.obj
 0005:0000cd08       __Str_Dynarc_Inc_B210AA24FD8D4959E073DDF1134FF45121310D5315EB23557D6FB96CF055BD10 00000000100fcd08     guideXOS.obj
 0005:0000cd38       __Str_E_Tech_Inc_328D7157CD1FE70DCA5D802B152680E365A4A142E4AED463DBD9C5527FD748DD 00000000100fcd38     guideXOS.obj
 0005:0000cd68       __Str_EFA_Corporation_Of_America_E73FC03DB0BF7789667E2AF0B50BFAAC6AA55533F1A6B2662CBC79B83237152A 00000000100fcd68     guideXOS.obj
 0005:0000cdb8       __Str_EKF_Elektronik_GMBH_268F1EC416635B2D62863DF60BF27170953D17CED09FBDF24F9DA3A23D0C5F17 00000000100fcdb8     guideXOS.obj
 0005:0000cdf8       __Str_ELSA_GmbH_9A0FF92A9FD4AE526A6F6498F9EDED89E2275B4AAAB1BA88620C7DA77FF44727 00000000100fcdf8     guideXOS.obj
 0005:0000ce20       __Str_EMC_Corp_660742B8E749C319EE0C4063356AFB632F3A77DEFE0ECAB21056EA625BC78D24 00000000100fce20     guideXOS.obj
 0005:0000ce48       __Str_ENE_Technology_Inc_11134AD7CD3A028BD1503FFE661AF20C918EF0BD2FDEF1CD646D87917B7C4110 00000000100fce48     guideXOS.obj
 0005:0000ce88       __Str_EPoX_Computer_Co__Ltd_3C71B0AA8F5EDF137284BF798E58F630B6B05A69DE910983587E90B0A020541B 00000000100fce88     guideXOS.obj
 0005:0000cec8       __Str_ES_Computer_Co_Ltd_20F6E5C5803CABAE6AC41088675CB1DC9427D9D1D319831EAD8BF2293DAC72C5 00000000100fcec8     guideXOS.obj
 0005:0000cf08       __Str_ESS_Technology_E6EA65F0FC606E7F78610B87AAB50E32FA1A8A66056A3B14937D7A1229A28D18 00000000100fcf08     guideXOS.obj
 0005:0000cf40       __Str_EVSX_Inc_D2E4EF7683EAE974699B5B643645537DF28BF00A826327C04E27814D41A43D0D 00000000100fcf40     guideXOS.obj
 0005:0000cf68       __Str_EXCEPTION_DETAILS_4B3168C0C53BCD7E6DAB68E1F06097D62A4798E5B5FFE6AFA36D81B4BB450783 00000000100fcf68     guideXOS.obj
 0005:0000cfa0       __Str_EXCEPTION___0___Vector_0x_1_X2_13470FF63F5CBC8532B506B9D8BBEB899D2C8402690BC2B70330FA6EC4DB899F 00000000100fcfa0     guideXOS.obj
 0005:0000cff8       __Str_EXT2                 00000000100fcff8     guideXOS.obj
 0005:0000d018       __Str_EXT2__Creating_new_files_is_no_4694C5E47AFFA9C97FC602CFF116DF73402EC2FA43C58E0570C0AA911E3A661E 00000000100fd018     guideXOS.obj
 0005:0000d088       __Str_EXT2__Format_not_supported_0039D2B61E4BA6AE2B0432B801BA8D31FACE5220633E5A0638B7ACC5119648FE 00000000100fd088     guideXOS.obj
 0005:0000d0d8       __Str_EXT2__Invalid_superblock_magic_1B89D75611C775B596950653C6A0D01149A488B6B9478F0356ADA94BC67EB224 00000000100fd0d8     guideXOS.obj
 0005:0000d130       __Str_EXT2__Not_a_regular_file_8EECA109FC30F1B94807ED47642DA952712494F3A31EFE7A9E6986310BC0A08F 00000000100fd130     guideXOS.obj
 0005:0000d178       __Str_EXT2__Not_enough_allocated_spa_3532ACDB0E39AF628595494678A84C37F425351FF8947BC024182F3B8BCA1975 00000000100fd178     guideXOS.obj
 0005:0000d1e8       __Str_Each_demo_window_shows_differe_ED516D0A1BCC864CAE62A668558B503683106B87251EA62A6881E7856FF3F7EC 00000000100fd1e8     guideXOS.obj
 0005:0000d260       __Str_Eagle_Technology_23C664804169DA5266A41BFE30880D00B27189D8F232BB83F774186B08B34036 00000000100fd260     guideXOS.obj
 0005:0000d298       __Str_Eastman_Kodak_52019B0BD62C01A43E6B8FCA7669F6D0C9F061D00077F5D556336BFDDC0B7CAB 00000000100fd298     guideXOS.obj
 0005:0000d2c8       __Str_Echelon_Corporation_C6800493C53F9995383CE2403D785F376D553D1461296FDD77A0D8F9EAA34E6E 00000000100fd2c8     guideXOS.obj
 0005:0000d308       __Str_Echo_Digital_Audio_Corporation_061F0AA7B89D9571532060C792B03BAA842DE4C87765855AD31F53692D1F6CF1 00000000100fd308     guideXOS.obj
 0005:0000d360       __Str_Echostar_Data_Networks_37A818FDA95A65D9B6E5066D6F45C3B29A76376412099FC6E0FFFF7D1473152A 00000000100fd360     guideXOS.obj
 0005:0000d3a8       __Str_Echotek_Corporation_01C47E273E728CC9C37FD52438625A53766ABB78F447D04B52E088AC1FCA9A71 00000000100fd3a8     guideXOS.obj
 0005:0000d3e8       __Str_Edax_Inc_72757C4945811675C26C862ADCCA5A60B00C567F87FA5B77F7BA11AFC4283FE9 00000000100fd3e8     guideXOS.obj
 0005:0000d410       __Str_Edec_Co_Ltd_58450C46C6222ED89BFB44F051A0E1E9E0980236CAE548D7F4A1156EFDC3A13F 00000000100fd410     guideXOS.obj
 0005:0000d440       __Str_Efficent_Networks_BB1167D187F2A748F7CD0C44BD67B949B009B6940377E0D2B38E9FD422A7890B 00000000100fd440     guideXOS.obj
 0005:0000d478       __Str_Egenera__Inc_EAAE0BF33F1DE441F07661100824BBB940CFB79BCDD5066FAA043A4E00160E2E 00000000100fd478     guideXOS.obj
 0005:0000d4a8       __Str_Egosys__Inc_1A5F1AC6D489BDEC234C994AE9D19209EB45EA98D7F7D66CEBD362810E51423A 00000000100fd4a8     guideXOS.obj
 0005:0000d4d8       __Str_Eicon_Networks_Corporation_347370B846A7BF957F4BE810598A31793D1505962B1D1CDBCEEF33357D781284 00000000100fd4d8     guideXOS.obj
 0005:0000d528       __Str_Elan_Digital_Systems_Ltd_98012FF4573393B79B1B993C11AA37E4FE8D73B5840747ABF2BAAD119CC2D979 00000000100fd528     guideXOS.obj
 0005:0000d570       __Str_Electronic_Design_GmbH_956224E25F47EA7DED98A40C88F59B945230009A24D865C4B7E68897A15F8274 00000000100fd570     guideXOS.obj
 0005:0000d5b8       __Str_Electronics___Telecommunicatio_3ED60D7921E6F8DFC6AFAAE4BDFD04B28D51B6AAB54D05DE448BE9B28D9CC1C0 00000000100fd5b8     guideXOS.obj
 0005:0000d618       __Str_Electronics_for_Imaging_E4543C86C3F560E5D89AB1D1D87AADE487A9A1A75228B8C73A429A5BF348465E 00000000100fd618     guideXOS.obj
 0005:0000d660       __Str_Elitegroup_Computer_System_79B4CF695BCA1C87CCA4075B927E9004C46D843AC1A2CA8AFB347EAE1B75D009 00000000100fd660     guideXOS.obj
 0005:0000d6b0       __Str_Elmec_Inc_Ltd_10EFC0F92D8BB6BA3D2C1A2CA34CD983E06204E8318E2581398D2DF8829E31F2 00000000100fd6b0     guideXOS.obj
 0005:0000d6e0       __Str_Elsag_Bailey_FC42AAD3AC29360E48414D0EE4EA2414770D343B4E35BD33325605F9B7F8B6EC 00000000100fd6e0     guideXOS.obj
 0005:0000d710       __Str_Eltec_Elektronik_AG_77020268F2E08041BBF037628512439DF90460C8623B8791249362EA74634EE1 00000000100fd710     guideXOS.obj
 0005:0000d750       __Str_Emachines_Inc_006122CE67E9A40102022EE597D16EC6B4041B143E3A88B42DB7D8BC25CACE1D 00000000100fd750     guideXOS.obj
 0005:0000d780       __Str_Empty                00000000100fd780     guideXOS.obj
 0005:0000d7a0       __Str_Emulex_Corporation_76538A082AD56CAF6F8C65E7441A628ABF287108FC87D6B01819A1C35F8ADE1F 00000000100fd7a0     guideXOS.obj
 0005:0000d7e0       __Str_Enable_Animation_Position_Upda_F6BF3AF2FC18F74F50770412B5F868E57C61D7E0EA2D2EE673C162E69B8F4BA7 00000000100fd7e0     guideXOS.obj
 0005:0000d838       __Str_Enable_Background_Fade_Transit_43F80C2B43EAD1E9072840EDEE1433FF00BA3397A83841A36A8DF9EE890FD5F4 00000000100fd838     guideXOS.obj
 0005:0000d890       __Str_Enable_Blur_Caching_70128C4385F8C33E149403DAA41D36E3EE50A0F9391072E0B25E67604A5DE555 00000000100fd890     guideXOS.obj
 0005:0000d8d0       __Str_Enable_Blurred_Title_Bars__Aer_A061A65EEE4C264FC331CA462786117B5269AF63423E12DC6BB7C7D55FFB5E01 00000000100fd8d0     guideXOS.obj
 0005:0000d938       __Str_Enable_Button_Backgrounds_663B51D1F526B69A9854599F3D3364E732A4D61B4E0DE760127EE2ECFEB58642 00000000100fd938     guideXOS.obj
 0005:0000d980       __Str_Enable_Button_Borders_E672E4FBDB76EB50962AE0CF40F8DEC2E49952FF8331BFB44566C1574F5AD2D3 00000000100fd980     guideXOS.obj
 0005:0000d9c0       __Str_Enable_Button_Hover_Effects_B53087ECDD24726F59A7EEF2DB43E9A9ED351934AF512A9D7A0A8E596EEAFC18 00000000100fd9c0     guideXOS.obj
 0005:0000da10       __Str_Enable_Button_Icons_CC0E4F22BC083973C342D75C82114228AC8C92B61A3D786A411575C42AD618D2 00000000100fda10     guideXOS.obj
 0005:0000da50       __Str_Enable_Cache_Invalidation_on_M_CD8E28822B32BC4AFADAA02DFE436F9752FDF056F1D80D1DBA314F139B24E111 00000000100fda50     guideXOS.obj
 0005:0000dab8       __Str_Enable_Draw_Call_Caching_01FFC9CA272860187F046E4F4BFC4304E94CD37BF6BB032C97C67C4C070BCF09 00000000100fdab8     guideXOS.obj
 0005:0000db00       __Str_Enable_Early_Return_Optimizati_F453BA9A5A513DEB32680DA425E9BAC1974E042DCD3DEB1105A64588B9C8B06C 00000000100fdb00     guideXOS.obj
 0005:0000db58       __Str_Enable_Fade_Animations_915DC74F3383CC38700D0FC14AF12EAB7BEF954A69DFEFF6342DFF25A249A939 00000000100fdb58     guideXOS.obj
 0005:0000dba0       __Str_Enable_Fade_Overlay_B1173AA5B6FC347149C5EBE147531BD9A3064E390F5C70DC3AB107BEA1DC3358 00000000100fdba0     guideXOS.obj
 0005:0000dbe0       __Str_Enable_Geometry_Batching_C9985CB09ED52B070C84A7BE2E058658C894F2B2BAFADCA88103E5EC2110A19F 00000000100fdbe0     guideXOS.obj
 0005:0000dc28       __Str_Enable_Resize_Grip_Visual_B7E51118D48E04E87481C5DA27014D1F2A3775B81C57D471067A3B1AFB9A4C67 00000000100fdc28     guideXOS.obj
 0005:0000dc70       __Str_Enable_Rounded_Corners__WARNIN_FC8E962B0537C4674DC5FBCA09015EDA26FFEE751D6BF3786BF760FBF02ACAA1 00000000100fdc70     guideXOS.obj
 0005:0000dce0       __Str_Enable_Taskbar_Icons_5D0BC6279D6B75035F4954DE1442DE68D51FA5D385FE573C976454CB75ACE699 00000000100fdce0     guideXOS.obj
 0005:0000dd20       __Str_Enable_Title_Bar_Background_AAB293CEFA8EBD6589E53BAF2FD48C267DC843116EE9711710D3B00D91FFBFCC 00000000100fdd20     guideXOS.obj
 0005:0000dd70       __Str_Enable_Title_Bar_Buttons_5F3E8D70A13D6167FA44A09903B73CA0AA514EC469E3DBA1113AD03B85A21376 00000000100fdd70     guideXOS.obj
 0005:0000ddb8       __Str_Enable_Transparent_Windows_56938E6845DF7133FBD7BF60F39C2D29DC51F2FEFA91942C66A90557C1948AA0 00000000100fddb8     guideXOS.obj
 0005:0000de08       __Str_Enable_Widget_Borders_7D4DC99746480C19878F8EB493D491299AD99E4013B9F8320A60D0E5460ED831 00000000100fde08     guideXOS.obj
 0005:0000de48       __Str_Enable_Widget_Fade_Animations_54F869C7FA3AB67B518556614AB35EAD172DA4C511E4683E4FBB062E53D68802 00000000100fde48     guideXOS.obj
 0005:0000de98       __Str_Enable_Widget_Hover_Animations_FA30B0243169D7E60D6966E177A175E016BE07AB20B4EAD3D63E2BC0410950C2 00000000100fde98     guideXOS.obj
 0005:0000def0       __Str_Enable_Widget_Rendering_042101BCF19187657BB85434228CAE15EE26337275F78ED005B293CEA54140A6 00000000100fdef0     guideXOS.obj
 0005:0000df38       __Str_Enable_Widget_Shadows_00B57463C73E6493D300077F3DDBD7BF07E5118F5551352D9A2BDA1C8CE0C947 00000000100fdf38     guideXOS.obj
 0005:0000df78       __Str_Enable_Widget_Transparency_CA94CB7621FD79478597E370D3F9CD8D89CCB2EB49C7A56A659613374D1B1FA6 00000000100fdf78     guideXOS.obj
 0005:0000dfc8       __Str_Enable_Window_Borders_32E52B9663FDA0E2EA1906265E9B401C4AE0FE96EE3236943787BB8E6F507411 00000000100fdfc8     guideXOS.obj
 0005:0000e008       __Str_Enable_Window_Content_Backgrou_C9B303A432AF190B172E61C0E1EABB7C4D2914DBA7EA02207263D4C6F42DAF2C 00000000100fe008     guideXOS.obj
 0005:0000e060       __Str_Enable_Window_Glow_Shadow_C50EF47348D04EBCF754F5FC05AB6315EC2B68C1E594855CA6733115E4F22284 00000000100fe060     guideXOS.obj
 0005:0000e0a8       __Str_Enable_Window_Slide_Animations_F3B1CDF24014E99E08F046BDF40D593B7D4AA778A49C5B7619D9A2277B05A8CA 00000000100fe0a8     guideXOS.obj
 0005:0000e100       __Str_Enable_Window_Titles_098637EFE2F057C9F6595FE7F5A7920886ADE930723AD134DD4956726FBAC535 00000000100fe100     guideXOS.obj
 0005:0000e140       __Str_Encore_Computer_Corporation_0EE4BA28260B488C11AD47B5600305A38A6A811C75AEBF7A37C0D326F17BC572 00000000100fe140     guideXOS.obj
 0005:0000e190       __Str_Encryption_controller_2CEF5C77FC3216B9B387996BC95C2A7D21E8C70AE0FE835213818F1614FDA204 00000000100fe190     guideXOS.obj
 0005:0000e1d0       __Str_End_Task_133EEABDD2A3C8A3DC2087AEB424B7F7C38C3F6E59D4E1236905A2E8A6CC68C1 00000000100fe1d0     guideXOS.obj
 0005:0000e1f8       __Str_End_Tombstoned_App_6FEEBF70C2DDE60E65AF15B64FBD01DFDDA1CC2C1CAE858E9BA68A0A9159DFC9 00000000100fe1f8     guideXOS.obj
 0005:0000e238       __Str_Endace_Measurement_Systems_Ltd_03B657D7FC5011388A20365D7339B6860D5E042DD580549E687582635AA37D52 00000000100fe238     guideXOS.obj
 0005:0000e290       __Str_Engineering_Design_Team_Inc_461AA47D90B22B50301DE744A31AD8EBE5C8A35F87C895DB6CFF9B2B94A566E0 00000000100fe290     guideXOS.obj
 0005:0000e2e0       __Str_Enludo               00000000100fe2e0     guideXOS.obj
 0005:0000e308       __Str_Ennyah_Technologies_Corp_68EBBDC384853A52709545904F14C379CB472DAE9BAD7B07077A7105A94C98E9 00000000100fe308     guideXOS.obj
 0005:0000e350       __Str_Ensoniq              00000000100fe350     guideXOS.obj
 0005:0000e378       __Str_Enter                00000000100fe378     guideXOS.obj
 0005:0000e398       __Str_Entridia_Corporation_7D14811845EA43F0568F40BCEA53E77FF22C791215FA5253F7A87CE5B222F4C3 00000000100fe398     guideXOS.obj
 0005:0000e3d8       __Str_Epix_Inc_B05F2A6D51CD96EF3529C838F628C1B71C00C5043EE8FF3BB0AED6BCB49541D5 00000000100fe3d8     guideXOS.obj
 0005:0000e400       __Str_Epson                00000000100fe400     guideXOS.obj
 0005:0000e420       __Str_Equator_Technologies_8F4741EC1E8AEBDADD3943298F45E68012131ED4C201DB0306A2EDD62DB1250D 00000000100fe420     guideXOS.obj
 0005:0000e460       __Str_Equinox_Systems_F7C751B841162E2E1EAACE5542CDE99E48E2E988511B33855D8B0BCC427A1176 00000000100fe460     guideXOS.obj
 0005:0000e498       __Str_Equus_Computer_Systems_Inc_9CD153E5BD40692EAE54B7F04C3288A0CD979E5033B364F74C5F6E80FBEC1EE9 00000000100fe498     guideXOS.obj
 0005:0000e4e8       __Str_Eraser               00000000100fe4e8     guideXOS.obj
 0005:0000e510       __Str_Erma___Electronic_GMBH_A0DBD627415D3B7993EC7C6348141B1FD2707876C4AE3DE734D717EE2FB11D17 00000000100fe510     guideXOS.obj
 0005:0000e558       __Str_Error                00000000100fe558     guideXOS.obj
 0005:0000e578       __Str_Error_Code__0x_0_X16__C7538242F8249C1D6E42E266D757A685F6B49ECE20B693EA4013557846DAE61A 00000000100fe578     guideXOS.obj
 0005:0000e5b8       __Str_Error_executing_script___2397EDE308AA6B6BB789DD984046EC102D3EF6011AF697F73F542D22B7026516 00000000100fe5b8     guideXOS.obj
 0005:0000e600       __Str_Error___ECE8064537F12FE2E9EE783DEEE95989C26BA807871B3F630BEEA7E80E8F3C35 00000000100fe600     guideXOS.obj
 0005:0000e628       __Str_Error__Bootstrap_CPU_is_not_CP_8E5BB52DA59971F05AFE6E2E4C038E56CFC7C306A2CFEDBBA2D7ED35CCCF76D3 00000000100fe628     guideXOS.obj
 0005:0000e680       __Str_Error__Failed_to_load_file_F3BE781CD646FD56DCCF0D4A93851B15BE6D680B997DA571B34251A186DD4C21 00000000100fe680     guideXOS.obj
 0005:0000e6d0       __Str_Error__Failed_to_load_file__38153DFB9598B63287B44ED83AC4B6585E147729437FF5577AC83CC605FADF1F 00000000100fe6d0     guideXOS.obj
 0005:0000e720       __Str_Error__Failed_to_load_script__3F682763942BE442B062752C2B3001C4F11061E5B0F6DD0A52FDFE4D24DD3FB9 00000000100fe720     guideXOS.obj
 0005:0000e770       __Str_Error__Failed_to_save_file_BBC86DDEBD2D3F6B8B675685A70B6C15C79EAAF2F21715129C6EEF63FA3FF43E 00000000100fe770     guideXOS.obj
 0005:0000e7c0       __Str_Error__Failed_to_save_file__6473DD569A8EA468E06BF321FE6F79EC8F7C4CCFA88A74ACDF20068147D5B863 00000000100fe7c0     guideXOS.obj
 0005:0000e810       __Str_Error__File__A951881E244C62B3A9D47E33C31E3EEDB53BF67B386E60E1811ED8276D454761 00000000100fe810     guideXOS.obj
 0005:0000e840       __Str_Error__File_is_empty_or_not_fo_35CE7F898A7979E7DB9118C891F520E306F10ED6CE8DB6F48B6AF1BD8BB99D5A 00000000100fe840     guideXOS.obj
 0005:0000e898       __Str_Error__No_filename_specified_0A2E3EC804F4B33B81C66B84A516C59FEE2A791277197BD7E46AD4A6235E032F 00000000100fe898     guideXOS.obj
 0005:0000e8e8       __Str_Error__No_script_filename_spec_7E717164D549F1069EB42AA7BC470E73384C39C0973ECA418CA10B5DA50364B3 00000000100fe8e8     guideXOS.obj
 0005:0000e948       __Str_Error__Please_provide_an_IP_ad_E30CF99645E9BEA0E5188CF36AA1029F73189AE09B8A0B924C0F7B1F73D3170F 00000000100fe948     guideXOS.obj
 0005:0000e9c8       __Str_Error__Script_file__D6BC07CB5E5EEA08048FB0C6CA1044C409588E4C4B797FA7A256BD59B20EC0A4 00000000100fe9c8     guideXOS.obj
 0005:0000ea08       __Str_Error__Unable_to_read_script_f_A24EA457A7E9D3CCA138D16FAF20C3523D6A1ADABB283F77CB48EF7D56B088E6 00000000100fea08     guideXOS.obj
 0005:0000ea68       __Str_Esec_SA_21098DAC3B75B60AF87077809B12F7B149867A2B56CE0266A8AF89D8A074D0C6 00000000100fea68     guideXOS.obj
 0005:0000ea90       __Str_Essential_Communications_B8D7CE4C6CF90C91579EB25523C1B59FB1CF56520948640D3AB7AAA293E56FB4 00000000100fea90     guideXOS.obj
 0005:0000ead8       __Str_Etron                00000000100fead8     guideXOS.obj
 0005:0000eaf8       __Str_Eumitcom_Technology_Inc_FBBDF7B099C38A4028EF8A204962497B8CB67BC6DD9E2917EE42F8EBA28AF12F 00000000100feaf8     guideXOS.obj
 0005:0000eb40       __Str_Eurocore_Vigra_3798BB5C362987270DEED2956212C7A8DC4C172E2476A6458DA0CEE9CB7C0714 00000000100feb40     guideXOS.obj
 0005:0000eb78       __Str_Europop_AG_64C4028C3C80812D3F5C2E54E7C14F4366A17AA7904BAA33574AA45C1DA52AEA 00000000100feb78     guideXOS.obj
 0005:0000eba8       __Str_Eurosoft__UK__EA1DECBBDB5542C2F06DD5BF2A8F1236EF634D43EB56E8082B5E1EB1BFC01828 00000000100feba8     guideXOS.obj
 0005:0000ebd8       __Str_Evans___Sutherland_9DD54E8C694F7CA50DC82E3F9C8746CFB02E7EB04A530BEE9BBE64FEAA08D48A 00000000100febd8     guideXOS.obj
 0005:0000ec18       __Str_Everex_Systems_Inc_5EA17B060417C8FE2D1093DB3B352AF042B9B1E5A2CF0B5CD598AB8062002AEB 00000000100fec18     guideXOS.obj
 0005:0000ec58       __Str_Evergreen_Technologies_Inc_299132823C3F4EA12CC9EE6123297D762DF6E44D7ADE10AA75E2C31F57723130 00000000100fec58     guideXOS.obj
 0005:0000eca8       __Str_Example__ping_8_8_8_8_5E9B3F90E4F426CAC246C3849D1AE4F331D59B02B008C2D944B352FF06ECF3A8 00000000100feca8     guideXOS.obj
 0005:0000ece8       __Str_Exar_Corp_35D76E399C0E0424229D0B55A852C4D75488206461C1A98CF585015D2627E82C 00000000100fece8     guideXOS.obj
 0005:0000ed10       __Str_Excel_Switching_Corp_B9B832FF3F8FF7CC7347709C3315C5FDD7BDAD56CCA699D44E915BED13CB05C9 00000000100fed10     guideXOS.obj
 0005:0000ed50       __Str_Excellent_Design_Inc_33E716DC6BCF8CE6391B800D9C3961FD097B71E30DB82E74382BFA82D0242543 00000000100fed50     guideXOS.obj
 0005:0000ed90       __Str_Executable_too_small_1F30669AE84F9C7F73F9C10B46A510E462EC66B6E26948DBEDCA3A2714DB021A 00000000100fed90     guideXOS.obj
 0005:0000edd0       __Str_Expected_Devices_6A0BA72819E19A50DC000BF9B908A6113156EE68125C9F2C3A031912F6CE78EA 00000000100fedd0     guideXOS.obj
 0005:0000ee08       __Str_Extreme_Packet_Device_Inc_55B15181BAB577FA87933D26FEC151417A8530C10F3D22FE3F0676751D1DDFFC 00000000100fee08     guideXOS.obj
 0005:0000ee50       __Str_F5_Networks_Inc_8116F8929D331C48E5E5B463DF3CDBEAA4AB6743EA25B12E3AEDB3E9DFD9701D 00000000100fee50     guideXOS.obj
 0005:0000ee88       __Str_FALSE                00000000100fee88     guideXOS.obj
 0005:0000eea8       __Str_FAT                  00000000100feea8     guideXOS.obj
 0005:0000eec8       __Str_FAT__boot_sector__CD3230F1B1D885C15FD374E3B47A42661D98292467DBCE867BFB7DAD64267A60 00000000100feec8     guideXOS.obj
 0005:0000ef00       __Str_FAT__Format_not_implemented_ye_A6B759B48FB661971F9A47325E0FBF3F6485FD267DD0BEACBFC92A813F825758 00000000100fef00     guideXOS.obj
 0005:0000ef58       __Str_FAT__No_free_cluster_for_dir_g_120C7074C1EED32981639EAB9E257C1C409CEBB60AFC4B8763CBC9855F646422 00000000100fef58     guideXOS.obj
 0005:0000efb8       __Str_FAT__No_free_clusters_38724EFABFEF18E25E20C09BB8163203F04F03A10AC8EE711342BA6A10BE89F6 00000000100fefb8     guideXOS.obj
 0005:0000eff8       __Str_FAT__Root_directory_full_3D4FF179935E9150F3B32AC5EC5F6D105E0B36E0B1DCA1F04E554A04485A1750 00000000100feff8     guideXOS.obj
 0005:0000f040       __Str_FATFS                00000000100ff040     guideXOS.obj
 0005:0000f060       __Str_FERMA                00000000100ff060     guideXOS.obj
 0005:0000f080       __Str_FIC__First_International_Compu_881D4E2E2C8DA4A6644C7AE2AE2E7C6976B8E7949CF85E081F222016681C300A 00000000100ff080     guideXOS.obj
 0005:0000f0e8       __Str_FORE_Systems_E7F4C0AFAB5BB750518C32522F1BECA7B1840178699DCF5BAF283FE8F05BFEA4 00000000100ff0e8     guideXOS.obj
 0005:0000f118       __Str_FWB_Inc_25DBDC846CE02C4B48177A71537740E8EA8EA0BF28392334BAE2A416FE4318A3 00000000100ff118     guideXOS.obj
 0005:0000f140       __Str_Failed__Invalid_Ptr___8F5218093B2F037C5EE8257A24D77AE7DA5ECF114AAA8445E30C68C483206AE6 00000000100ff140     guideXOS.obj
 0005:0000f180       __Str_Failed__No_Pages___D383D40D434B036AB8B82D2BAE02DB97628A47F45B71B971B7A46FFAA136219E 00000000100ff180     guideXOS.obj
 0005:0000f1c0       __Str_Failed_to_apply_font_453075C4EA21EAD829B0598B4DB7FDBA9A420A9226F15D7E9D35647D28FECF25 00000000100ff1c0     guideXOS.obj
 0005:0000f200       __Str_Failed_to_initialize_Paint_3F96763E51C76D9D1CFD4CD2888274D45400BA588CEC752A9DD8657191C2511D 00000000100ff200     guideXOS.obj
 0005:0000f250       __Str_Failed_to_load_background_990B7ACA882CEDF7C3A98E5881C3276EA098766778B357ED165874F0B6537BCD 00000000100ff250     guideXOS.obj
 0005:0000f298       __Str_Failed_to_load_font_file_A074D681358D7C090071B42A2A69DA931AE6157296F9387E266D7979440CD0ED 00000000100ff298     guideXOS.obj
 0005:0000f2e0       __Str_Failed_to_load_image_77E8F8A0628502EDB0EB42BC157BD14A748121CC7413F2C4A78F248F1D64B055 00000000100ff2e0     guideXOS.obj
 0005:0000f320       __Str_Failed_to_revert_resolution_65C8F7B3C736C67BB535CAB9106D6C94C37338D62BFEEA32328467D2CFB894F8 00000000100ff320     guideXOS.obj
 0005:0000f370       __Str_Failed_to_run_executable_BAB2E7F9735CA3AD339F0FE64ACF0E6C2463D3D5ED06BBACDEDE5FB5C85894B5 00000000100ff370     guideXOS.obj
 0005:0000f3b8       __Str_Failed_to_set_resolution_CCD95A91A94B86F8E78C5C1207E3D7008612DE9B31E098CBC319EB4147714409 00000000100ff3b8     guideXOS.obj
 0005:0000f400       __Str_Failed_to_write_MBR_63CA162B433C87D339A0A3A8D644F6172DF54600EFFF55C1A44911F642F4DE2F 00000000100ff400     guideXOS.obj
 0005:0000f440       __Str_Failed___8995E3D29C0849BBD34861E3DF33DBCE1ACCD42AB17DC87FA1B929CA986CF5D7 00000000100ff440     guideXOS.obj
 0005:0000f468       __Str_Fairchild_Semiconductor_C87E760A4207169D4C14730D0037E10E6EF726C006A834FC41EAC53909092613 00000000100ff468     guideXOS.obj
 0005:0000f4b0       __Str_False                00000000100ff4b0     guideXOS.obj
 0005:0000f4d0       __Str_Fanuc_Co_Ltd_D07605609A3315DA555A02ECEEDB79C5FD42C645506384786ED7CC9D49189298 00000000100ff4d0     guideXOS.obj
 0005:0000f500       __Str_FarSite_Communications_Limited_803A0A8CC38B6F6556BB5EEC1E3F3D3F7988163D4828FE06EA1DAEB4F9A1F458 00000000100ff500     guideXOS.obj
 0005:0000f558       __Str_Faraday_Technology_Corp_C81EE8375D3785DC802C104DCD3C61181167AC0FCF0AACAC0C675B6EAA706B3B 00000000100ff558     guideXOS.obj
 0005:0000f5a0       __Str_Fast_Corporation_D68EBC9794596D37BC15EFFB27C900097EF7EA490CF2FAFA67C05349834504B9 00000000100ff5a0     guideXOS.obj
 0005:0000f5d8       __Str_Fast_Electronic_GmbH_7B17BE47E20464CAFF34C2BCA42EB7F11B1FFD0C9E0BD6B44759487DADD96737 00000000100ff5d8     guideXOS.obj
 0005:0000f618       __Str_Fastfame_Technology_Co_Ltd_020601763DE6891048317F073CAD0EE01A1A8A177331D3A1A2EC580573406993 00000000100ff618     guideXOS.obj
 0005:0000f668       __Str_Fastpoint_Technologies_Inc_30F960F55ECADF2D8BA5F756D11F5193AE1C5A149E62036224DE6AA7A5094798 00000000100ff668     guideXOS.obj
 0005:0000f6b8       __Str_Faulting_Address__0x_0_X16__B6F875F419CEB9B90FB29D68FE3142E4274BABADFC6C7D7FF52C541102F65698 00000000100ff6b8     guideXOS.obj
 0005:0000f708       __Str_February             00000000100ff708     guideXOS.obj
 0005:0000f730       __Str_Feedback_Instruments_Ltd_7C512D69DEB37529B0DE312D5B6D81B61DE34A4E38658FBDC3F1751F9D5E390D 00000000100ff730     guideXOS.obj
 0005:0000f778       __Str_Filanet_Corporation_77B7756176D97663D4717ECECA7ED9461FB985F20C1F0C5B8F0F9C8842A106FD 00000000100ff778     guideXOS.obj
 0005:0000f7b8       __Str_Filco                00000000100ff7b8     guideXOS.obj
 0005:0000f7d8       __Str_File_loaded___2D501627B8DA269A1E724D58EA3DBC7287074C0EB51898DC82F5959236E2F515 00000000100ff7d8     guideXOS.obj
 0005:0000f808       __Str_File_name__237A22A00874F0EC6EFBE8C9E8376C7372CF8D22561FEF3233556C7DA03223DE 00000000100ff808     guideXOS.obj
 0005:0000f838       __Str_File_not_found___DB229FE04808FC732527F1EF15B749388C1515571295234B4ECD0B5F9589B653 00000000100ff838     guideXOS.obj
 0005:0000f870       __Str_File_saved___68DD311573CD10A287FDCF264700B5E26F8EF3AE4DD4C4BF685F1B1103ABEE95 00000000100ff870     guideXOS.obj
 0005:0000f8a0       __Str_Fill                 00000000100ff8a0     guideXOS.obj
 0005:0000f8c0       __Str_Firewall             00000000100ff8c0     guideXOS.obj
 0005:0000f8e8       __Str_Firewall_mode___B3C7676B7DA9093C5732FA0560809B217D1F63E6E3B14C3700F99B33D0549A07 00000000100ff8e8     guideXOS.obj
 0005:0000f920       __Str_Firmworks            00000000100ff920     guideXOS.obj
 0005:0000f948       __Str_First_International_Computer_I_7FE9CDC3FC93AB6FAB94B64D5F724D9C26F79627D17F13F5633A95912E241D6F 00000000100ff948     guideXOS.obj
 0005:0000f9a0       __Str_First_Virtual_Corp_E7F801DE2AB1C75638C3651666CD24B18333934CD664C13A05A728867E01A11E 00000000100ff9a0     guideXOS.obj
 0005:0000f9e0       __Str_Fishcamp_Engineering_52EE8A76E4D758D961658D5EC0DE7ABD5ADB1E11554E992775BFE6593924FCBE 00000000100ff9e0     guideXOS.obj
 0005:0000fa20       __Str_Flytech_Technology_Co_Ltd_EB9E1EE5573C8F39A7B50D72204C1E119FA853CF1C9A9B43B5A79A3237A5FF28 00000000100ffa20     guideXOS.obj
 0005:0000fa68       __Str_Folsom_Research_Inc_1C57747736EA3441FAA5B068EA08BE0CAE257857657873F71CCE82B8EAA01C63 00000000100ffa68     guideXOS.obj
 0005:0000faa8       __Str_Font_Size__C7F2C24721879DA84B1F3FB5112C425339232AFA1023B817F5BAE5F5251544AB 00000000100ffaa8     guideXOS.obj
 0005:0000fad8       __Str_Font_applied_successfully_2007BE779A1FFA7CEA294701780F33F2EE48BB92E4A2BE8C054C01626CD14979 00000000100ffad8     guideXOS.obj
 0005:0000fb20       __Str_Fonts                00000000100ffb20     guideXOS.obj
 0005:0000fb40       __Str_Fonts__A84F9B92897C29BEBB230F158197961914921E85ABD8EF2C45D7EF82BBECBA24 00000000100ffb40     guideXOS.obj
 0005:0000fb68       __Str_Fonts_enludo_btf_3E4AB3907690685A5E264D904F2AC248C9318D8CCE9182CA0ADDFA2F84C0399A 00000000100ffb68     guideXOS.obj
 0005:0000fba0       __Str_Fonts_roboto_roboto_12pt_regul_6DB8E7E9D5F7DA1228F88F66D01F797737771E824AA7B153E1B9D2347934FFD7 00000000100ffba0     guideXOS.obj
 0005:0000fc00       __Str_Force_Computers_DB9855B1E54FF998EE2BAA55729FF2A658617064E3E1CFA3CB4F9A629C5844E0 00000000100ffc00     guideXOS.obj
 0005:0000fc38       __Str_Forex_Computer_Corporation_6A26E0382C930CFCDF12B3AB567054A3707D862D77163793C52F93645480AB6C 00000000100ffc38     guideXOS.obj
 0005:0000fc88       __Str_Forks                00000000100ffc88     guideXOS.obj
 0005:0000fca8       __Str_Forks_Inc_1A7BCCED460E91CFADF956AFF04DD21D614FE20765396BD702C88C87FD1849B2 00000000100ffca8     guideXOS.obj
 0005:0000fcd0       __Str_Format_RAM_as_exFAT_7F5D244F4B09FDAC839A44F715A4515AB2E161DE98DA1B80EC090A68C97681B6 00000000100ffcd0     guideXOS.obj
 0005:0000fd10       __Str_Format_failed__6D4C24D141B32D0AE2036A63ED65FE5A0004B24F3C6F61F740D301DB69864600 00000000100ffd10     guideXOS.obj
 0005:0000fd48       __Str_Formation__Inc_89EE54B033BE2C2042AB0E1B298CAB4C1EFB06C87EDC159C41355724B03B58B1 00000000100ffd48     guideXOS.obj
 0005:0000fd80       __Str_Forte_Media_D7C92A017ED00D11963800038BDC9B893FDB414C412B1BB4C37358F62C07BFC9 00000000100ffd80     guideXOS.obj
 0005:0000fdb0       __Str_Forward              00000000100ffdb0     guideXOS.obj
 0005:0000fdd8       __Str_Fountain_Technology_471D3645F4A27DA02511DB63367BD1518088A7738A8D202D4178BE2BA993039F 00000000100ffdd8     guideXOS.obj
 0005:0000fe18       __Str_FourFold_Technologies_89894C86F5972FD1F03058FF41BFA9FA9E182B2383F70466EDB0E401F787AB32 00000000100ffe18     guideXOS.obj
 0005:0000fe58       __Str_Framebuffer___0_x_1__pixels_0D3E2642AA8D0106DD1E24E1AB16EDDA4BE6B3430576BB317A73B22FC0BCB95F 00000000100ffe58     guideXOS.obj
 0005:0000fea8       __Str_Frames_since_build___0__30_9D214AE04D4171865EB668A596431DB015F60714F398291673CEC1DFD1087293 00000000100ffea8     guideXOS.obj
 0005:0000fef8       __Str_Free                 00000000100ffef8     guideXOS.obj
 0005:0000ff18       __Str_Free_Space_DEA4A92CF3B037FDE64D633082F1CD51A8D880EC257BFD37451757A6B1C6ED84 00000000100fff18     guideXOS.obj
 0005:0000ff48       __Str_Free_Alloc_Ratio__2ABC4FD7DF931B1216D34231DF615173D73D60F09CC944FBFD7D979FE7942156 00000000100fff48     guideXOS.obj
 0005:0000ff80       __Str_Freed_Pages__1DE370C4C15376E484663A33C8A7B8F47786CC746263FC9B453F634B71393434 00000000100fff80     guideXOS.obj
 0005:0000ffb0       __Str_Fresco_Logic_Inc_F72534EDAED5BEC10149CCEA5815DBF9326E58CB960CDF157F745D33E53D3AD2 00000000100fffb0     guideXOS.obj
 0005:0000ffe8       __Str_Fuji_Xerox_Co_Ltd_F7B413ED91DB0DD226A593262CAF9D56B6868BF854651725B9CC98C553D13BB6 00000000100fffe8     guideXOS.obj
 0005:00010020       __Str_Fujifilm             0000000010100020     guideXOS.obj
 0005:00010048       __Str_Fujifilm_Microdevices_96B259B0745FDFD058D86743C98002EEFCC9F9731D5E6C03A83F206F1E0A3192 0000000010100048     guideXOS.obj
 0005:00010088       __Str_Fujikura_Ltd_9A40C3C946D408C8D437AC8F50CA17A8BF50245DFE4BD7FD71493C87013B03BC 0000000010100088     guideXOS.obj
 0005:000100b8       __Str_Fujitsu_Computer_Products_Of_A_846DB319718FE44F57AB5FB1667654FB1047299011B91EBCF95A269859D9B89E 00000000101000b8     guideXOS.obj
 0005:00010118       __Str_Fujitsu_ICL_Computers_391CA6AFE89222A8BD287A6551F56DEDEED3086D006C6E9AAF43067D9EFCFA7E 0000000010100118     guideXOS.obj
 0005:00010158       __Str_Fujitsu_Ltd_DFCB76B9157ECF8FA2BC977EF4A5D02836846D24B5CD2691628C5226242A7F18 0000000010100158     guideXOS.obj
 0005:00010188       __Str_Fujitsu_Microelectronics_Ltd_96312B0C119D65B9D731B22E2C8CB748BF20B79A63F21E90503D9D3C9544B0B1 0000000010100188     guideXOS.obj
 0005:000101d8       __Str_Fujitsu_Siemens_1B32222FFAD5C77F39A88F4864B4452ADC3A664C92DAD30305AA5A89683724DB 00000000101001d8     guideXOS.obj
 0005:00010210       __Str_Fujitsu_Siemens_Computers_GmbH_385A20B3E60A728C9342D562937D7D3AAC4BBF4152D078D22E176C85548A2738 0000000010100210     guideXOS.obj
 0005:00010268       __Str_Fundamental_Software_Inc_B7C7A03883CE107885E7B86E6DC420E25AF4145A1624D70ECC9BA03354F10A0A 0000000010100268     guideXOS.obj
 0005:000102b0       __Str_Futronic             00000000101002b0     guideXOS.obj
 0005:000102d8       __Str_Future_Domain_E9536502C249AA96909F1B315D385E4CAA9459679CC4E070DE6652B9440CBAF6 00000000101002d8     guideXOS.obj
 0005:00010308       __Str_Future_Tel_Inc_D24EB7196C00D8B8D02CCFE551F3B84B3E74482FF428AA15B81551E9FEBAAD52 0000000010100308     guideXOS.obj
 0005:00010340       __Str_Future__Systems_8702D1C9155F2BBE06A1A4D8B639952E72235D01406ED955FAD6F9433C639329 0000000010100340     guideXOS.obj
 0005:00010378       __Str_G_Force_Co_Ltd_62BAC8791DC0CB193F582CDDACBCCDA61697068B4E23B78F688484EFD6A26D2A 0000000010100378     guideXOS.obj
 0005:000103b0       __Str_G2_Networks_Inc_67B581E7058F9F60C9E7828F447DDD12FB2DD4A0DE75DD23C15BD2A5FEB721FD 00000000101003b0     guideXOS.obj
 0005:000103e8       __Str_GDE_Systems_Inc_7F7DF3C10B142ED658A1C606A1F03DB9101EFE62015659D2B0419B1744AAB99B 00000000101003e8     guideXOS.obj
 0005:00010420       __Str_GDT                  0000000010100420     guideXOS.obj
 0005:00010440       __Str_GDTR__Base_0x_0_X16___Limit_0x_E0F93D6670985476F510D9DE81946F88C3B2752260592C52C43EEED953EADC09 0000000010100440     guideXOS.obj
 0005:000104a0       __Str_GE_Spacenet_7370E284522CAE488BBB8EAFCC20A0EF7FE2FD248A8AFBF4E392C61AC7CA02C6 00000000101004a0     guideXOS.obj
 0005:000104d0       __Str_GENERAL_PROTECTION_FAULT_357F68A0673E006F6A8E2EEDFC6F66CAAF0B24EEC3420D597110E49BF922BBBB 00000000101004d0     guideXOS.obj
 0005:00010518       __Str_GET                  0000000010100518     guideXOS.obj
 0005:00010538       __Str_GET__85AA24E1802E27DE685710704968282E0621CF7609D1D483FEC8B5E19CA69FA0 0000000010100538     guideXOS.obj
 0005:00010558       __Str_GET_Engineering_Corp_8C47E4D2BDAF5BF7F69A645C341989F817D3C5A2C2D090BD2EEA56BD650412A3 0000000010100558     guideXOS.obj
 0005:00010598       __Str_GETTEXT              0000000010100598     guideXOS.obj
 0005:000105c0       __Str_GIT_Co_Ltd_3B88BEAA28CCB08C9B3FDAA6384AE47799BBF2A42BED2B997F404BFFB59AE226 00000000101005c0     guideXOS.obj
 0005:000105f0       __Str_GMM_Research_Corp_0C3EE88CFB92716CA98C1840498D63E675C6C56BC13CC659C119561001E24968 00000000101005f0     guideXOS.obj
 0005:00010628       __Str_GUISamples           0000000010100628     guideXOS.obj
 0005:00010658       __Str_GVC_Corporation_E36F3A43D77C59615339F7FBD3F3271A96864EB78B9541B9E972164943EB7302 0000000010100658     guideXOS.obj
 0005:00010690       __Str_GVC_BCM_Advanced_Research_1CD4291BDDAA26A0E90F61D10501E365CC972FB514C978309943D5117B703CF1 0000000010100690     guideXOS.obj
 0005:000106d8       __Str_GW_Instruments_C34BAB6A5300FEF6A46318F6BB470BFD1E97816A407B63857A5FB1A4271CAEAA 00000000101006d8     guideXOS.obj
 0005:00010710       __Str_GXM_GUI_Samples_8A45907EC46B76789F7BCA6F5F57C63899C55F0F45D9D9A7C010D6345EED8779 0000000010100710     guideXOS.obj
 0005:00010748       __Str_GXM_GUI_Scripting_Samples_C3C738446DDB9E65A326989615A2A1ECE516515C5EC35FBFB63E78A6772D8BC4 0000000010100748     guideXOS.obj
 0005:00010790       __Str_Gage_Applied_Technologies_B8353761204B0CD2A11E76CAEC0F629BA12EEA4B623CB4AB311651B2C930360B 0000000010100790     guideXOS.obj
 0005:000107d8       __Str_Gainbery_Computer_Products_Inc_F0EA2A6357B5ED106CD4168D54989B5AABDCF7E3D9B82E762D64505D2DF0FDB2 00000000101007d8     guideXOS.obj
 0005:00010830       __Str_Gainward_GmbH_BEE468DC3B19101E66B89C7ACACD743045B0CD27065C92B5E68988C084A4BF5D 0000000010100830     guideXOS.obj
 0005:00010860       __Str_Galea_Network_Security_674DF5A3EB3FB477F48F8F88F47A94AF87806DEC99B4558D3A8B5457080AACFB 0000000010100860     guideXOS.obj
 0005:000108a8       __Str_GammaLink            00000000101008a8     guideXOS.obj
 0005:000108d0       __Str_Gammagraphx_Inc_4727038CD7ED4C4FAF9F025C6A1D44F22121DE9F825664AD2BBE177B301A80D0 00000000101008d0     guideXOS.obj
 0005:00010908       __Str_Gatec                0000000010100908     guideXOS.obj
 0005:00010928       __Str_Gateway_2000_67008035DDE72E03E67C0786A6BBA3144E21CDCD7DDDB00515BC1FD798B3F584 0000000010100928     guideXOS.obj
 0005:00010958       __Str_Gateway___0___1___2___3__43A5CD2D229E4EFFD8C73E82A7F2E4AFBA197321F3A1740C5F4AA4AF11A0FF7E 0000000010100958     guideXOS.obj
 0005:000109a0       __Str_Gec_Plessey_Semi_Inc_9D41B628A8B7A82183D96444749DB73A455573447BE73E68D799B9C1E69D3B80 00000000101009a0     guideXOS.obj
 0005:000109e0       __Str_Gemflex_Networks_1B02FED7C2AB1DF51428728B331EECB466FA2D8C8C977DC4DF82032B66735F03 00000000101009e0     guideXOS.obj
 0005:00010a18       __Str_Gemlight_Computer_Ltd_69725A948156D61C5F75F0DA9B106C39E8A03216517BC53034997E6475809A86 0000000010100a18     guideXOS.obj
 0005:00010a58       __Str_General_Dynamics_2B301561D05BC9E54819629FFFA11EA790075601EB6EC762559AC5EF8B6ED487 0000000010100a58     guideXOS.obj
 0005:00010a90       __Str_General_Dynamics_Canada_A306224A20D7093D8C457B6B5B92476E0BB78E27DA35B100DF417F55804367A1 0000000010100a90     guideXOS.obj
 0005:00010ad8       __Str_General_Electric_8A6A6B2928895F157FA9DEA019829CA3DF48947FBCD1E6C1700EF603852B1346 0000000010100ad8     guideXOS.obj
 0005:00010b10       __Str_General_Instrument_9552A453574A45769BAB4D839B84BA1999520E5BD05E652826501E00769E9A0D 0000000010100b10     guideXOS.obj
 0005:00010b50       __Str_General_Signal_Networks_56576B56D23056C9873D8D35880AD0FF405E90098F9041852219EC80B6AB07F8 0000000010100b50     guideXOS.obj
 0005:00010b98       __Str_Generic_system_peripheral_F5A2A8D00322A4A76D2530D793FBAC15DD860EE1B1108A654DB3A495D44DD3A9 0000000010100b98     guideXOS.obj
 0005:00010be0       __Str_Genoa_Systems_Corp_07E79FA9CD38601163C8DA2F4E4BF58FF5310BE6C9ABEAAAC3B1D8C0A6F7DC67 0000000010100be0     guideXOS.obj
 0005:00010c20       __Str_Genrad_Inc_191BED4EF3469C60EEAA6D947F4C9E2F97CDFA4C8B54288E4EF9F0E5DF8A2DA8 0000000010100c20     guideXOS.obj
 0005:00010c50       __Str_Genroco_Inc_7942BE393EE3E2BDC681BCD8754856C5293FADD503BA5A4869C769804A7AB942 0000000010100c50     guideXOS.obj
 0005:00010c80       __Str_Geocast_Network_Systems_Inc_BF34DCDD2B07D28F7CA64D12D7203A856CAFFDE518E647645DE1C00D271FA686 0000000010100c80     guideXOS.obj
 0005:00010cd0       __Str_Gespac               0000000010100cd0     guideXOS.obj
 0005:00010cf8       __Str_Gesytec_GmbH_7590E390E902390775FBD8AAA6237AC11AE0233F1942543AF552FF3454BE8371 0000000010100cf8     guideXOS.obj
 0005:00010d28       __Str_GetTick              0000000010100d28     guideXOS.obj
 0005:00010d50       __Str_GetTime              0000000010100d50     guideXOS.obj
 0005:00010d78       __Str_Giga_Byte_Technologies_A17A47384A44E0EDA81C8E2020767A64044CE64567018E1B83A92BFE904D2E31 0000000010100d78     guideXOS.obj
 0005:00010dc0       __Str_Giganet_Inc_21B0A5A32EA90EB9AD2B11F910A9158466CE0BA3A71C9052B49F5C9779B29811 0000000010100dc0     guideXOS.obj
 0005:00010df0       __Str_Gigapixel_Corp_E01B0B9993C7605FC2CC73A77925CB3AA67E8F29B7A6F97755BB731678604E21 0000000010100df0     guideXOS.obj
 0005:00010e28       __Str_Gigi_Operations_00763D80295D4A15D3EA78A6C05E2587159DB08581704849158CD7A4E15421CA 0000000010100e28     guideXOS.obj
 0005:00010e60       __Str_Gilbarco_Inc_2E9386ED20ED9FC122DCD1A125DDEC4867164503E6862C12053E88F2BB9F822A 0000000010100e60     guideXOS.obj
 0005:00010e90       __Str_Global_Brands_Manufacture_Ltd_3C9DAD1D606E5E8B5645E0A57B67D0266375D89D8E13F9AC76D013968FA579E3 0000000010100e90     guideXOS.obj
 0005:00010ee0       __Str_Globe_Manufacturing_Sales_2F2C3E632AAC55A0F7453D603CD9B6296915DD0243F7F22A43CE090B1C96790A 0000000010100ee0     guideXOS.obj
 0005:00010f28       __Str_Globetek_Inc_F70E07523B73B6CB6E0CF660F4AB1C886B22E37A51E48E59F26C609DFC4293E5 0000000010100f28     guideXOS.obj
 0005:00010f58       __Str_Glotrex_Co_Ltd_89DD6A8EF2004E5E3BFF7F2A9ADC1CCBE6ADA0AC088F467FF05654A42DF97132 0000000010100f58     guideXOS.obj
 0005:00010f90       __Str_Goldstar_Co_Ltd_331D27E3D2A690191D1127D9223B2E72E762A1004D278051579FA49DFE6E18B5 0000000010100f90     guideXOS.obj
 0005:00010fc8       __Str_Gradients            0000000010100fc8     guideXOS.obj
 0005:00010ff0       __Str_Granite_Microsystems_D0C63D9E3181A3547C1A1896739BD88DF82CA2EBFB82ABA2503713C14B56E309 0000000010100ff0     guideXOS.obj
 0005:00011030       __Str_Granite_Systems_Inc_D90C57FB486F20068BB71B62BF4E17122F7D7ECDF726D42E33387D1059D83CEF 0000000010101030     guideXOS.obj
 0005:00011070       __Str_Graphics_Microsystems_Inc_CD50AFF2F6A8C1812377B64FC7CA5B5EEE7CD1713998A7675673194F4693DE3A 0000000010101070     guideXOS.obj
 0005:000110b8       __Str_Graphics___0_x_1__DE82167C487A37EED06FAADE878090298ACC571E2C13ADC8036A24090A277886 00000000101010b8     guideXOS.obj
 0005:000110f0       __Str_Graphin_Co__LTD_25DD54E23F04B4C1612305D6AE537EE504596E2871B70ABA2C3502AAFDC9B4CF 00000000101010f0     guideXOS.obj
 0005:00011128       __Str_Green_Logic_27B32B0CB008645E42A851C08F18EC68D6AA3B5A69DD23B62882FECEC13D27DE 0000000010101128     guideXOS.obj
 0005:00011158       __Str_Growth_Networks_3FB42821D410623014750540033428EF7FD38B10BD60DD690945BAFA0C697DAD 0000000010101158     guideXOS.obj
 0005:00011190       __Str_Guzik_Technical_Enterprises_4D2235A5029932F2D3471613E40BBDD5FE32477AA42A76FEB3EE12E40AD20709 0000000010101190     guideXOS.obj
 0005:000111e0       __Str_HAL_Computer_Systems_Inc_DFFAA5C1DF26208EA6591C9F419F28862734A90151B77F387D188BE0C7E8C873 00000000101011e0     guideXOS.obj
 0005:00011228       __Str_HI_FN_Inc_6B50519DF5882732827FC3D6E663348FD97774DE940DE984100C2509BB912CDF 0000000010101228     guideXOS.obj
 0005:00011250       __Str_Hajime_Industries_Ltd_688C1326E3632A9997B55CC623F5738D52BDBA58D2D704BABF3248579E0D5F68 0000000010101250     guideXOS.obj
 0005:00011290       __Str_Hamamatsu_Photonics_KK_73D9D410872D182471785B4FA1FF1071013926CE63B7DCEE3403D7A95DEFE598 0000000010101290     guideXOS.obj
 0005:000112d8       __Str_Handshake_sent_0BEE98027CA0C9BE107A5AB0FD4DD6E6E2FA2A6DDA9283F7AE2A4976DB596282 00000000101012d8     guideXOS.obj
 0005:00011310       __Str_Hard_Disk_F36B4C0751F3B21C6391D5D606FF05B5A7EA4EC1147971ADB0C989EA07D8118B 0000000010101310     guideXOS.obj
 0005:00011338       __Str_Hardware_Inventory_B2C7B805F980D44A0848213097D8104BB80C388CCFDCC71910CBDC023A99B47F 0000000010101338     guideXOS.obj
 0005:00011378       __Str_Harlequin_Ltd_A6A9A4B4C88EFC625CFE813EA4176A34BDE7C158A5798861D0E6068AF609BD75 0000000010101378     guideXOS.obj
 0005:000113a8       __Str_Harris_Corp_5F9E8F133C4455EFF0DB3AA9B0B9D18B07F93B9CBEF682A2FB97D65DDA48A3F8 00000000101013a8     guideXOS.obj
 0005:000113d8       __Str_Hauppauge_Computer_Works_Inc_F56E1B2905D41BFC8D3415E17FEF21A6ACAF9DD30337966B6E6FA92ADED11051 00000000101013d8     guideXOS.obj
 0005:00011428       __Str_Healthy              0000000010101428     guideXOS.obj
 0005:00011450       __Str_Healthy__Active__340DD8BEF12DB168420464974D82F8192122326DC1B462DC9F2C1C42599091FD 0000000010101450     guideXOS.obj
 0005:00011488       __Str_Heap_Free__FE6B8EA9BE100DE3B2DD942437EEB910879AA5B246CD3AAEFCC00BE525CDA62F 0000000010101488     guideXOS.obj
 0005:000114b8       __Str_Heap_In_Use__B1EE648F79FF2529DD811A4E0C170CFCB8162E39DC8E03C9DFCA94561EF0BD9F 00000000101014b8     guideXOS.obj
 0005:000114e8       __Str_Heap_Utilization__FED28C92FC37D767CD41DD2423CD91F1E47540AEE4D4919A9B11B73B3D4C399D 00000000101014e8     guideXOS.obj
 0005:00011520       __Str_Heidelberg_Digital_LLC_6C496F87AED4B33EA41659AF9007D240D1E5BF8CDD85616F58E1C58C20BF35B0 0000000010101520     guideXOS.obj
 0005:00011568       __Str_Height               0000000010101568     guideXOS.obj
 0005:00011590       __Str_Hello_Demo_97D4F12F3A3D21E0D405327B4FFF99B18C27996194ED0A19F2FA96A8BE8852C6 0000000010101590     guideXOS.obj
 0005:000115c0       __Str_Hello_from_GXM_scripting__3107A1201AE6D3D4AD01B08B250A1E903CFFCBC4C6CDDB3D0C0AE0ABAEBD6410 00000000101015c0     guideXOS.obj
 0005:00011608       __Str_Hello_from_exe__1F7CE0FD93E65615A080617D357E4CF78B774C91E634F739EC761B02253D5E92 0000000010101608     guideXOS.obj
 0005:00011640       __Str_Hercules             0000000010101640     guideXOS.obj
 0005:00011668       __Str_Hercules_Computer_Technology_294607D5F61C6D1300BA2A0621158DC898977FA8CC0A8637B74C191CA8C4C344 0000000010101668     guideXOS.obj
 0005:000116b8       __Str_Hermes_Electronics_Co_Ltd_DA3F2283E3980E1BD40A90921872395FF72C13E1B808734AC94AF10DF6A6B5D3 00000000101016b8     guideXOS.obj
 0005:00011700       __Str_Hermstedt_AG_0D6C31A333669DAA00AEDADC902B129CF94E3B41414DD7EC5CF418E1E9C38819 0000000010101700     guideXOS.obj
 0005:00011730       __Str_Hertz_Systemtechnik_GMBH_5B9F1756311B9F746AC2C52BFBC08E5674E8CDFE657F13E5246E1AF4B676608B 0000000010101730     guideXOS.obj
 0005:00011778       __Str_Hewlett_Packard_DE3363686FBE49CDEFD99C212FEABEE84BAE2E23D3601629362BF3DD03B32787 0000000010101778     guideXOS.obj
 0005:000117b0       __Str_Hewlett_Packard_B4755DFD2A4EA28E51F96E588273A7B2D477851DEE8B9AADD93BAC694AA6314A 00000000101017b0     guideXOS.obj
 0005:000117e8       __Str_Hide_All_Demos_8253E139468804800D21F8AB75423FB08671AAB1F60310789041B0BCB57CF00B 00000000101017e8     guideXOS.obj
 0005:00011820       __Str_High_Street_Consultants_BA9D1510C457B7DA4282FA07EDE815BFE8295F175893363958DCEDBF1CAAFC28 0000000010101820     guideXOS.obj
 0005:00011868       __Str_High_Tech_Computer_Corp__HTC__87ED2631BB82B9E396AC0C381C47B2E6B4B2FD10C942D2749D6FB0D6AEEE4335 0000000010101868     guideXOS.obj
 0005:000118b8       __Str_HighPoint_Technologies__Inc_5B6F707F4FD4B334C23157C5CEBCC0CBC5477CB8AB86FBACCA2F7C9A1E4406CC 00000000101018b8     guideXOS.obj
 0005:00011908       __Str_Highland_Technology__Inc_E015A62801E997AE0B2943DC156832E016257C778F940B6ABC65C8AE6EE4F35E 0000000010101908     guideXOS.obj
 0005:00011950       __Str_Hightech_Information_Systems___174C7C5FE587F92B476327E0636B91E8BCFF3FC27F63AD22EFD58B87219EA8A1 0000000010101950     guideXOS.obj
 0005:000119a8       __Str_Highwater_Designs_Ltd_016E358A60A7B9A6BA25AD1EF4CBEE1D21AE45364F18719193EFDB1C7F216BC2 00000000101019a8     guideXOS.obj
 0005:000119e8       __Str_Hilevel_Technology_D8C8183EC99182DA2F7B9B3047A00D8026CC646E4F16B81C9A80FDD20E900D4A 00000000101019e8     guideXOS.obj
 0005:00011a28       __Str_Hilscher_GMBH_8B86F2A141C12988A71C71A14BDC12425505A2769B540FCBCDE9D107785FB842 0000000010101a28     guideXOS.obj
 0005:00011a58       __Str_Hint_Corp_427415C7AE41AD7B880729275F0B0DF2F664616977E2524B7AB76E51A2AF6A07 0000000010101a58     guideXOS.obj
 0005:00011a80       __Str_Hirakawa_Hewtech_Corp_B02A6856709C8FE45DD5B5EB5DF81301EE25E194D832F37F90B5B35BC6B0A021 0000000010101a80     guideXOS.obj
 0005:00011ac0       __Str_Hitachi_Computer_Electronics_C2D7603619987EA039C28600C15A322500A49499D7639B3B482BF05618C2E93C 0000000010101ac0     guideXOS.obj
 0005:00011b10       __Str_Hitachi_Information_Technology_5E3DD1DBE557B23E50E896A3909A97F6AE103BFBF466E7565BF947B0AEE3C73A 0000000010101b10     guideXOS.obj
 0005:00011b70       __Str_Hitachi_Ltd_DC08D72CF88F4B36E21D43E3DCD92E52A2A32E0016E32831DDF1FA21170F0E85 0000000010101b70     guideXOS.obj
 0005:00011ba0       __Str_Hitachi_Micro_Systems_Inc_D705AA1B6647115DCABA70F709A915A748BEF8C9F0C13E680A4A492D0FB5BE26 0000000010101ba0     guideXOS.obj
 0005:00011be8       __Str_Hitachi_Microcomputer_System_L_5E1EF2FA43840994AAC52FB2F497C92F02BBE20C025F550F62ED99919074D705 0000000010101be8     guideXOS.obj
 0005:00011c40       __Str_Hitachi_Semiconductor___Device_F1E7B156DD2171E14B2DC69E139C7F018B8D8FB9238BAAA2BB7575273D09BA31 0000000010101c40     guideXOS.obj
 0005:00011ca8       __Str_Hitachi_Zosen_Corporation_7B881C77594FA3BC5317C627F530283DB4250E6DFE23DD143201C70EB6CC5B06 0000000010101ca8     guideXOS.obj
 0005:00011cf0       __Str_Hitt                 0000000010101cf0     guideXOS.obj
 0005:00011d10       __Str_Hivertec_Inc_34129C94404E2015386FECB0384A3C7E39ED2F36DE8938F4C614F4E70825E8C6 0000000010101d10     guideXOS.obj
 0005:00011d40       __Str_Holtek               0000000010101d40     guideXOS.obj
 0005:00011d68       __Str_Holtek_Microelectronics_Inc_C0E8F35B8FA80DA04AFB62F7B7229988EB868C5F4A299E1E9B04B889D1F7F055 0000000010101d68     guideXOS.obj
 0005:00011db8       __Str_Honeywell_IASD_400FCD924C7A3A4137D390F046919653BBEB5A8D8AD279167F96C2D417A6D364 0000000010101db8     guideXOS.obj
 0005:00011df0       __Str_Hopf_Elektronik_GMBH_BC237BC797384A2344808A1EDB473F5F6930C7A63FE0593779FD5D5F735F8609 0000000010101df0     guideXOS.obj
 0005:00011e30       __Str_Host                 0000000010101e30     guideXOS.obj
 0005:00011e50       __Str_Hotrail_Inc_B9A352D807C9B60F789078FC62EF62FD6DFA6D5965802BC3705782CAE0113B3E 0000000010101e50     guideXOS.obj
 0005:00011e80       __Str_Hsing_Tech_Enterprise_Co_Ltd_ECF33D8B1F37DA5A64442B8BDF6EC3342F8EEEFDFF9D34141D4DCF53B0F5F264 0000000010101e80     guideXOS.obj
 0005:00011ed0       __Str_Htec_Ltd_B95293A810713AF30D65476589CF46EA66E6D15A0B01275983E688946CF44CB6 0000000010101ed0     guideXOS.obj
 0005:00011ef8       __Str_Hualon_Microelectronics_95BB9D106822A2E99E7FAE01E463169E5608969EF098D4648B743C91431C915B 0000000010101ef8     guideXOS.obj
 0005:00011f40       __Str_Huawei_Technologies_Co__Ltd_F181426EF66724911C2179EEFC0CA8E8D3906E689B99B606B2D4EF99D861580A 0000000010101f40     guideXOS.obj
 0005:00011f90       __Str_Hudson_Soft_Co_Ltd_0B452B3873F56A1F501096457206CBCB62CF65C235B93C3309F61F236170315F 0000000010101f90     guideXOS.obj
 0005:00011fd0       __Str_Hughes_Network_Systems_64B837F03CE4B20BED2BD70BC5F0A98826ECA12E355020099D2EFC8CEB488A81 0000000010101fd0     guideXOS.obj
 0005:00012018       __Str_Humusoft_SRO_D8B4C112FDF78ACD4781C28EA025EBB3169B988ADE2233A26703ACF2CF5F9BBC 0000000010102018     guideXOS.obj
 0005:00012048       __Str_Hybricon_Corp_1464BDC34B3E2C71F35F90C0CB8329041CE0A8BFD6315F2A1961AB29BE292BDF 0000000010102048     guideXOS.obj
 0005:00012078       __Str_Hypercope_Corp_AF7A5B608F8D8621AA7A3B4A01CFC52105DB9FE2D17CB4114D5EEFE43FCF40FD 0000000010102078     guideXOS.obj
 0005:000120b0       __Str_Hyperparallel_Technologies_5B766BC0113B7EF9A3E771DA623A77B25AE3D2ABCD5E2CE5AE151288B11D44F9 00000000101020b0     guideXOS.obj
 0005:00012100       __Str_Hypertec_Pty_Ltd_5715AC06B67A71DA71E46370A79582FFBFB446DC4FFBC78134E69E088E9C521C 0000000010102100     guideXOS.obj
 0005:00012138       __Str_Hytec_Electronics_Ltd_3CD8D7B9E2BFEE60DCF7E2CD34A5C351D9F1620E7B0AB630B369DB76C4E4AB16 0000000010102138     guideXOS.obj
 0005:00012178       __Str_Hyundai_Electronics_America_058F5C27A98467BB6E886D085EF6F7786AEE8543C39A7181C4FDAC6DF24078A6 0000000010102178     guideXOS.obj
 0005:000121c8       __Str_Hyundai_MultiCAV_Computer_Co_L_4F055C18081412B9EBFB4CBDE1D4C548CBC97FE77E4139ED9034ADBD95EA3C48 00000000101021c8     guideXOS.obj
 0005:00012220       __Str_Hyunju_Computer_Co_Ltd_A56BD3FA49767BCB0485026F97357A13E9352AF2198638E46B1CDAA8BAD0D4A0 0000000010102220     guideXOS.obj
 0005:00012268       __Str_I_Bus_B89A5D28957C7B61D1A94E4424F5A15FF94BE3707A96A207357E8762B323E8CE 0000000010102268     guideXOS.obj
 0005:00012288       __Str_I_Cube_Inc_23A8FF1ACE62E676D18D1CA29608B9F5230C0F0958261230E3E7DB09E30370C9 0000000010102288     guideXOS.obj
 0005:000122b8       __Str_I_Data_International_A_S_B2357AA5DFB3B623A72F39DA6D9BB860BD4576B7B886B0851B0AF29F9615B62F 00000000101022b8     guideXOS.obj
 0005:00012300       __Str_I_O_Data_Device_Inc_FFA2545BA20D14EB05D4D66DA2A15BBA26AFEFA86C7B65B77EE967106F34D3E7 0000000010102300     guideXOS.obj
 0005:00012340       __Str_IBM                  0000000010102340     guideXOS.obj
 0005:00012360       __Str_IC_Corporation_2C59D6A68335127B75EC9FC831A03ABD6FC1787DB8D31AE48D7CB8AA55F63794 0000000010102360     guideXOS.obj
 0005:00012398       __Str_IC_Ensemble__Inc_C3B590697ABF59C2B4FC4EB619AF197E90E955BE5D079CB1642E9C9027BF9332 0000000010102398     guideXOS.obj
 0005:000123d0       __Str_IC_Plus_Corporation_AAB6E4BEE435A4E7C42807152D761100770C26660B97D6C48DE63166EA7C897E 00000000101023d0     guideXOS.obj
 0005:00012410       __Str_ICL                  0000000010102410     guideXOS.obj
 0005:00012430       __Str_ICM_Corp_Ltd_FE81B2E995E32FF0A690F7C6B512707480286F979D3FD8F3A3C5CA14D5F2CC05 0000000010102430     guideXOS.obj
 0005:00012460       __Str_ICP_vortex_Computersysteme_Gmb_57FA5847C35EE4B77BFCF02F4DF0B44F66DF529221366BB8ED64A78AFC3C542A 0000000010102460     guideXOS.obj
 0005:000124b8       __Str_ICS_Advent_C76C8D93A43DD69F39D9D0D90B561B44CFF022F09046E6ECAA2AE3958E855E04 00000000101024b8     guideXOS.obj
 0005:000124e8       __Str_IDE_bad_status_A4340D590FA84CCD8C75301D057B2E518ABCEA7EA8522D4B3D5C33ABEBBDC062 00000000101024e8     guideXOS.obj
 0005:00012520       __Str_IDT                  0000000010102520     guideXOS.obj
 0005:00012540       __Str_IDTR__Base_0x_0_X16___Limit_0x_D3D7247E69BA9549799C493A7D229077D1CBC7AC09EDD53AF0FFAA7B6E863A6C 0000000010102540     guideXOS.obj
 0005:000125a0       __Str_IIX_Consulting_6ECC0056AA1EEF41C51C2F61A9D5EE1E78A75034EC1A9EFA80A35717FA8966B0 00000000101025a0     guideXOS.obj
 0005:000125d8       __Str_ILC_Data_Device_Corp_66F1D92B735E84B83AFDCCF9BC34E465F118A1C27D74A9584E9BE7830F82FACC 00000000101025d8     guideXOS.obj
 0005:00012618       __Str_IN_Win_Development_Inc_BDA15120DD70508B3820186CBB6D377C9E77412C687AB7E8886E73E47CF3F2D4 0000000010102618     guideXOS.obj
 0005:00012660       __Str_INH_Semiconductor_2B6CBF0E796075B50A6728B0E3ECC21D08390BBF120F9A7A94395200E06D90DE 0000000010102660     guideXOS.obj
 0005:00012698       __Str_INPROCOMM            0000000010102698     guideXOS.obj
 0005:000126c0       __Str_INSERT               00000000101026c0     guideXOS.obj
 0005:000126e8       __Str_INVALID_OPCODE_54C9591B5203C421C322A7A77E8C2F0AE28E0F9288BC942670E066AC6B19994B 00000000101026e8     guideXOS.obj
 0005:00012720       __Str_INVALID_TSS_C62F37B994D6314510E6F050579212502983A0D22E662A0176CBB15DABFE9B12 0000000010102720     guideXOS.obj
 0005:00012750       __Str_IOI_Technology_Corp_16182D15FDBFACEDEE0D40381F774512CA0C36D378F9C595D4E71634866BAA39 0000000010102750     guideXOS.obj
 0005:00012790       __Str_IP_address_has_been_released_08AE2DEEA131E4AFD96DD941AD9C22FF236A7678E54BA48568514C83413878F4 0000000010102790     guideXOS.obj
 0005:000127e0       __Str_IP_address__0D73FFD7F6A145514F518354F73B6DC69F1F73F6817A29FBC1437F2B867C1DF4 00000000101027e0     guideXOS.obj
 0005:00012810       __Str_IP_settings__37BC1E2AE5ED89EB41965F76E41E279D484B1FA391234B7B3645DFDF7B1FA914 0000000010102810     guideXOS.obj
 0005:00012840       __Str_IP___0___1___2___3__E3F6C5D2F2E28217AB88A4D01E6BDA5F604AC45BFCA1AA35458D81EA607E15DB 0000000010102840     guideXOS.obj
 0005:00012880       __Str_IPC_Corporation_LTD_0129102F068F83B176FCA9AAB2BC013773AEA1919030DB53FC3F67D0D8CE3A65 0000000010102880     guideXOS.obj
 0005:000128c0       __Str_IRC_Networks_77EB7074A640A00785B7BE7D8555FC539B033741E6BE6D509999B0D434CE8F1C 00000000101028c0     guideXOS.obj
 0005:000128f0       __Str_IRCNetworks          00000000101028f0     guideXOS.obj
 0005:00012920       __Str_ISS_Inc_94477F915B9ECC7735CB5485D22BAB38C036F5FEF395ECB56D679534E7683FE7 0000000010102920     guideXOS.obj
 0005:00012948       __Str_ITEC_Co_Ltd_66F78E35AD164B3D0C9D33CC93C2B096FBF07257F0DD81FD5C25DBCD7170D469 0000000010102948     guideXOS.obj
 0005:00012978       __Str_ITT_Aerospace_Communications_D_016FDF992E3D105F6698285F4F642CEB36789F4EAC481C794E71EF071FC5EFAF 0000000010102978     guideXOS.obj
 0005:000129d8       __Str_Icon_Size__6E2D44A2C6613D01B0C4CA305B59C59079253C674E4B0CA88E25CD21127B08D1 00000000101029d8     guideXOS.obj
 0005:00012a08       __Str_Image_Access_032835B698BB1811ECBBA5C89E16E9B23F411F0A93AF0D7A3F8C73908F450F55 0000000010102a08     guideXOS.obj
 0005:00012a38       __Str_Image_Technologies_Development_0C1C393CC01A7639063FCD0035871B63FEAE5053F190BD29016E220727575FDD 0000000010102a38     guideXOS.obj
 0005:00012a90       __Str_ImageViewer          0000000010102a90     guideXOS.obj
 0005:00012ac0       __Str_Imagenation_Corp_B72B75EEBEB57D900A6F3D1A49F4EE63D70ACDEC34827212746CAB8952D88488 0000000010102ac0     guideXOS.obj
 0005:00012af8       __Str_Images_Banner_png_D65648DCB25465A71819AA95FE8BE5190647EA988FE8A207514EF2959BA89CB0 0000000010102af8     guideXOS.obj
 0005:00012b30       __Str_Images_BlueVelvet_16_down_png_2DF24705F8AD45C1B970BC7E4A92BC94532D4EE4D3726489AB609B8AA1B4B649 0000000010102b30     guideXOS.obj
 0005:00012b80       __Str_Images_BlueVelvet_16_image_png_64983EE6F3230C7998DE5829B30D097A8C05A34E78D6ECB9187CF9CBE358AA6A 0000000010102b80     guideXOS.obj
 0005:00012bd8       __Str_Images_BlueVelvet__0__CEF8499CDE400536F1E1705B6BC5A3F62678EE058551D60E1319C9D059D29648 0000000010102bd8     guideXOS.obj
 0005:00012c18       __Str_Images_BlueVelvet__0__applicat_454F70318E8A884CB89DF144A3B8C4C091C585803D8ABC4D39A6BA27E6418249 0000000010102c18     guideXOS.obj
 0005:00012c80       __Str_Images_BlueVelvet__0__calculat_8E664ABDE0B5AC7506FC7832217C5FA2C6535DB10280877D0F6D8B8D42C6737E 0000000010102c80     guideXOS.obj
 0005:00012ce0       __Str_Images_BlueVelvet__0__calendar_34BE089697584E6600BE100F58A358F4E8B3742431403A034D841F7AA99DF646 0000000010102ce0     guideXOS.obj
 0005:00012d40       __Str_Images_BlueVelvet__0__chat_png_4B096FF583A41AD4843485803D4B9BEEE413D361A3D8A4BE163066A1AF16D091 0000000010102d40     guideXOS.obj
 0005:00012d98       __Str_Images_BlueVelvet__0__configur_BB37DC18A02C068CF9855297909128D7817E276ACFBD7D2818F7CAE0F4E3B369 0000000010102d98     guideXOS.obj
 0005:00012df8       __Str_Images_BlueVelvet__0__document_FAAB269067923C6A3D0305F8F9E35DCE0C63715BACD640C0B2661A470D800713 0000000010102df8     guideXOS.obj
 0005:00012e58       __Str_Images_BlueVelvet__0__edit_png_2253F96088ED48E0F602050AB4E200E7C2B32657515D57ABDD01B9B851C45D5A 0000000010102e58     guideXOS.obj
 0005:00012eb0       __Str_Images_BlueVelvet__0__folder_p_78A0A5FD54F95744E185B11F4971E45DE887A99A50D2CC82EFCB80757264A0A6 0000000010102eb0     guideXOS.obj
 0005:00012f08       __Str_Images_BlueVelvet__0__image_pn_98F8DF0650898431E8E24BB89904FF0D0DFA8060EF27BA8E015B465D2C8D242F 0000000010102f08     guideXOS.obj
 0005:00012f60       __Str_Images_BlueVelvet__0__lock_png_64BB191EF3A767501FDEBDF073DCA4F05A56D787BAE63B8E01292FBE7E390B0D 0000000010102f60     guideXOS.obj
 0005:00012fb8       __Str_Images_BlueVelvet__0__music_pn_6566A710C0B7925F2EDD7DEF85E766396CAD6E4704D40673B4EB1EEFD0F803B0 0000000010102fb8     guideXOS.obj
 0005:00013010       __Str_Images_BlueVelvet__0__network__2AD97E6F88A98832ED7293F88F466B1859E1F4CFDE13E961B0782E8B07405F2E 0000000010103010     guideXOS.obj
 0005:00013068       __Str_Images_BlueVelvet__0__notepad__547B0A45B60D63D9800B0AE1F67E1F9B6ABAD850DA6E63EB7A2AFAD86055C1E6 0000000010103068     guideXOS.obj
 0005:000130c0       __Str_Images_BlueVelvet__0__pause_pn_C4C1120FCA5415B190DAB7C530FCBBA763304A3E4640CDE81224F3BCBB1BD917 00000000101030c0     guideXOS.obj
 0005:00013118       __Str_Images_BlueVelvet__0__play_png_922852AA88857B6D2AB3F57238C90C482283EB7DCBEB068CC5B948E9AB7F35DD 0000000010103118     guideXOS.obj
 0005:00013170       __Str_Images_Busy_png_6752F43043ED63FFD302BD0468B27D257314710170D466BC000D559C9923C47D 0000000010103170     guideXOS.obj
 0005:000131a8       __Str_Images_Close_png_E83BA82A5884CB22A3CCB427F09381AEA4C0483E53EFAD12DAFA935558F9D65A 00000000101031a8     guideXOS.obj
 0005:000131e0       __Str_Images_Cursor_png_AC506033248495AC481F454E27FA40045B5573223CDC2A42EA4F26851E86782B 00000000101031e0     guideXOS.obj
 0005:00013218       __Str_Images_Grab_png_8F484418E4D181663A730C2B76026CE3F684AC0645CDC8E26049E26AE7F2B9ED 0000000010103218     guideXOS.obj
 0005:00013250       __Str_Images_Yahei128_png_76A2CBEC77C5D986807BC1880DF83C4C461D690EEDC26E89134B4DF7CB9674CA 0000000010103250     guideXOS.obj
 0005:00013290       __Str_Images_startmenubutton_png_3CE027CECA207A20B30D6AD8952F77AB0B72E0A77CDE8C70FB0E9A07431E6D6E 0000000010103290     guideXOS.obj
 0005:000132e0       __Str_Images_startmenubutton_over_pn_85A1781EFA99FB0B601CB1A0A64B2F850AEB86723F8AC9EBEA6D20F77BFCFA98 00000000101032e0     guideXOS.obj
 0005:00013338       __Str_Images_teamnexgenlink_png_E971834CD58DA7F6E244C5FF2E7857818E02FC43D9305A39E9B2ADBD086768BB 0000000010103338     guideXOS.obj
 0005:00013380       __Str_Images_tnlogo_png_5F007545BCD041E857A2E5C1E7A402CBE376423AD9072B3207D0D98FC5FBFE86 0000000010103380     guideXOS.obj
 0005:000133b8       __Str_Imaginant            00000000101033b8     guideXOS.obj
 0005:000133e0       __Str_Imagraph_Corporation_CBCF49C078EC6C246AB023AD28DE4FA416B75255049F799CA4F9A726E2A28C6A 00000000101033e0     guideXOS.obj
 0005:00013420       __Str_Imation_Corp___Medical_Imaging_B53C65CE63524972812D58857755443035F872EA36A36CCF6A5654A90840BA27 0000000010103420     guideXOS.obj
 0005:00013480       __Str_Imodl_Inc_1F8D88A29E0F207922E2DD4A2B2BC64C228C9D37E4A9091AA97316E1CF385428 0000000010103480     guideXOS.obj
 0005:000134a8       __Str_Impacct_Technology_Corp_58C1D52CC8137B059B5F510D5B549B02C5754E2BF90770C0417D1D1018C1A591 00000000101034a8     guideXOS.obj
 0005:000134f0       __Str_Impact_Technologies_103F566D4CF6EB9EDCFE250A4A1A6C578867F380E9E883E0AB11A938A1DDAA36 00000000101034f0     guideXOS.obj
 0005:00013530       __Str_In_use__D5EC98226E7B2DBE9BFAC5D66B9E1654641F59FD7DDD87E7E8DFA706147B426C 0000000010103530     guideXOS.obj
 0005:00013558       __Str_Inari_Inc_04E3EA3EAC9DE45E19295DFC23721B652AEF01D4E15693C3097329CB0B1121BC 0000000010103558     guideXOS.obj
 0005:00013580       __Str_Index_Out_Of_Range_Exception_0108F3A5E7999B46899A5F2F4A926D277374A00B9411092F771E427BD0366012 0000000010103580     guideXOS.obj
 0005:000135d0       __Str_Indigita_Corporation_DCACB98FE9AD28697A5C293E18642BE4B41623AB4D5C104EF8F3DD34ABEB6ABF 00000000101035d0     guideXOS.obj
 0005:00013610       __Str_Inet_Technologies_Inc_3DAB47C43518B4ECCE289BE8C7950E6A706851125915A7C269E77E67E538727D 0000000010103610     guideXOS.obj
 0005:00013650       __Str_Infimed              0000000010103650     guideXOS.obj
 0005:00013678       __Str_Infineon_Technologies_AG_3AEDDA8E97408706FEF101E975780A07B26F1A015BDF4A4A907CA671B5D730E1 0000000010103678     guideXOS.obj
 0005:000136c0       __Str_InfiniCon_Systems__Inc_15FFD8B9F2EBB82B1730CE97F3A2B5036B90E2B0170099A1A639D4D67ECB12DB 00000000101036c0     guideXOS.obj
 0005:00013708       __Str_Info_Tek_Corp_35CEBC9F40622BCDE5219C1811F53A24EC56B0EEE857CE1F0A7E9C9E5B7F507E 0000000010103708     guideXOS.obj
 0005:00013738       __Str_Infomedia            0000000010103738     guideXOS.obj
 0005:00013760       __Str_Information_Technology_Inst_51A4DD57AA9C7B88F274A6438AE3D17ECEACD7F514E4F33E37F7461AFDA4915A 0000000010103760     guideXOS.obj
 0005:000137b0       __Str_Infortrend_Technology_Inc_076897263212B3F900CFEEF3B1D36ABB39348314B5BD2DBEAE9C865775FFD926 00000000101037b0     guideXOS.obj
 0005:000137f8       __Str_Infotronic_America_Inc_D07C46AEB6254006C17061AB876A5CF2DA29E14CC7FC4659153665A0C17EA1DA 00000000101037f8     guideXOS.obj
 0005:00013840       __Str_Initialized          0000000010103840     guideXOS.obj
 0005:00013870       __Str_Initio_Corporation_78A4C84FEF0D2A2C781B4120854BC1785A0337B6DFF523881BAC4CA42090CCDC 0000000010103870     guideXOS.obj
 0005:000138b0       __Str_InnoSys_Inc_21AF7B5DD004DE8D302373D6E1C483D0F4BA0E4213AD01E8D3EAFFCF168463B5 00000000101038b0     guideXOS.obj
 0005:000138e0       __Str_Innomedia_Inc_1CC4E47A93D0263772CC724139C21E3BF12EDF2E8420C82A095E01B3D6A8007E 00000000101038e0     guideXOS.obj
 0005:00013910       __Str_Innomedialogic_Inc_7DD16E97EA05C8526001935B130DCB802E872DB01818302C3E2E4AAFBB99832B 0000000010103910     guideXOS.obj
 0005:00013950       __Str_Innovative_Integration_96DACF461542EB83DC501EB68D529F4B7DDEA8A58FA383D0DE05510B146B848F 0000000010103950     guideXOS.obj
 0005:00013998       __Str_Input_device_controller_2DC0271626A35EE4D244058CF95E053D3ADD0A35744222F472628921328A37CA 0000000010103998     guideXOS.obj
 0005:000139e0       __Str_Input_handling_error_8D7DFA68567D5EACE872F809F6E0AF6A5A5B99A43799D98B64D3759294C5EB6E 00000000101039e0     guideXOS.obj
 0005:00013a20       __Str_Instruction_Pointer__0x_0_X16__AB073B4A2700299BB4540574188A945A6B878C71BF9D7916E299413C654C5A6B 0000000010103a20     guideXOS.obj
 0005:00013a98       __Str_Insyde_Software_Corp_24AE12B87FE534D1E0238F53CBD5DB1655D1819C2CBFA3D40A9A6B70F70C35EF 0000000010103a98     guideXOS.obj
 0005:00013ad8       __Str_Int_Labs_5E3B860E24278D8BDCA258387E6BEAE8775E32C7DFBBB82042BBD2F3570ED52A 0000000010103ad8     guideXOS.obj
 0005:00013b00       __Str_Intec_GMBH_21F81FC8AA68990960D1C27D5AE738544BB4801389E86EAD2CFFE0BD3AAA224E 0000000010103b00     guideXOS.obj
 0005:00013b30       __Str_Integral_Technologies_281A645650FA8C86483FB84501CF987EFF3416FD029845B4088E714CC896F74D 0000000010103b30     guideXOS.obj
 0005:00013b70       __Str_Integrated_Circuit_Systems_DDEBF6323BF5915237EC7552D4929613001FF9ADF3B6ECF4875397C2822BA9FB 0000000010103b70     guideXOS.obj
 0005:00013bc0       __Str_Integrated_Computing_Engines___3D94FC986DD8A391FE1AB0C6BEA1D89DEF927720F25BF8E957581C169FC9DCB9 0000000010103bc0     guideXOS.obj
 0005:00013c18       __Str_Integrated_Device_Technology_I_93496EFCAE1330B104A6F79AE50FA98B196E71AF6B03D9F5AE20E09B3F7211A0 0000000010103c18     guideXOS.obj
 0005:00013c70       __Str_Integrated_Telecom_A03E60959BF6DC44F28A686EFB938A886B86FE99CBA0AAD17C22514795B0A285 0000000010103c70     guideXOS.obj
 0005:00013cb0       __Str_Integrated_Telecom_Express_Inc_527A34E528CC360CDCAA5D6E4863B1D3A2DDFC0E81D9FEBDC80E978AC4A9B659 0000000010103cb0     guideXOS.obj
 0005:00013d08       __Str_Intel                0000000010103d08     guideXOS.obj
 0005:00013d28       __Str_Intel_Corporation_6F8B852A4DDFDC8AC6277AC38CF3399CE9854C17A400B714659F63DF4D0061BF 0000000010103d28     guideXOS.obj
 0005:00013d60       __Str_Intelligent_Paradigm_Inc_EB849DF5A313C98564635DCD65E06439534102304687C1168EA2AF1EE09262AA 0000000010103d60     guideXOS.obj
 0005:00013da8       __Str_Intelligent_Resources_577A03CE29D26E106BB736BCE71EC63C15015D4A353704BA8B7236C33B32BDAC 0000000010103da8     guideXOS.obj
 0005:00013de8       __Str_Intelligent_controller_5A8B8BDE14EF112DAF874B33E7ABDE34D99AD5AE518F401C7EA5D27E72FB2954 0000000010103de8     guideXOS.obj
 0005:00013e30       __Str_Intelliworxx_Inc_84441AA0468D0FD645BC00C89796CD7D06EA6DCC686D4833BEDB1FB3269DF216 0000000010103e30     guideXOS.obj
 0005:00013e68       __Str_Intellon_Corporation_D0D51BC595CBC1A42AE90D499A564E1A47C120F327424B68A2475981968D5566 0000000010103e68     guideXOS.obj
 0005:00013ea8       __Str_Interact_with_controls_to_test_9DEDC48B37AC74035510560C603978277A319E7348BBD039701E15DACE6917CC 0000000010103ea8     guideXOS.obj
 0005:00013f28       __Str_Interactive_Circuits___Systems_2A06B8CECD146DFF5379AA535819149CC2614C6B94014E91F4152916FECE8557 0000000010103f28     guideXOS.obj
 0005:00013f88       __Str_Interactive_Computer_Products__723A3485593ED76EEF359D2C31D996D405F0D3FEFA78F2E9366950C056FFBAE7 0000000010103f88     guideXOS.obj
 0005:00013fe0       __Str_Interactive_Images_5B76E7D5D1A301565D96B898E24373D086B2ADB9577BD8EB04C559BB40D3F9B4 0000000010103fe0     guideXOS.obj
 0005:00014020       __Str_Interagon_AS_632CF20B858029480009114B573754D5251AE7853D8B279F99745BDCC27232F3 0000000010104020     guideXOS.obj
 0005:00014050       __Str_Intercom_Inc_398DAA927D04DCEAF50940C224D776FA569481B9767484B7A9EA888EA620C828 0000000010104050     guideXOS.obj
 0005:00014080       __Str_Interconnect_Systems_Solutions_7BA7A95CCACC1CA8F78270583E543F76779C687CDA5FF428230E9CE478D3C93B 0000000010104080     guideXOS.obj
 0005:000140d8       __Str_Interface_Corp_EB2372C7511C969B51C333CACA4F1B0C6A09A5B4102DC0D84608B4FB0E26FD22 00000000101040d8     guideXOS.obj
 0005:00014110       __Str_Interface_Corp_Ltd_698FADBB160B0E48FE2EB169575945C93B0327FBCCE84B8A2A6DC436EAEDBE0D 0000000010104110     guideXOS.obj
 0005:00014150       __Str_Intergraph_Corporation_42BFFCFDE090BCE468CBA656F7F76BEFA47DE9552764ED75DE01FA7EDB286CE6 0000000010104150     guideXOS.obj
 0005:00014198       __Str_International_Business_Machine_BD0857D282F7C90FFAEF95AECF4551CC7EE79402C132565EACE3085AE1EBC57D 0000000010104198     guideXOS.obj
 0005:000141f8       __Str_International_Microcircuits_In_B184CC2264E2A743A42E5CC719792A5DFF409E2969EEA0B55DD2DCB076FA0762 00000000101041f8     guideXOS.obj
 0005:00014250       __Str_Internet_Machines_Corp_71A7FED690A6150324035D9A2A8685A492609295532A105E5592CC756543E754 0000000010104250     guideXOS.obj
 0005:00014298       __Str_Internet_Protocol_Version_4__T_163362E66822A9F961BD7A72EABECCD2B66741E44E3495CB9DC9208805D4279B 0000000010104298     guideXOS.obj
 0005:00014310       __Str_Internix_Inc_AE8FD08D3ED3D0EF8CA959FC01C32A741619192725C121BC23201CAFC2F6BACE 0000000010104310     guideXOS.obj
 0005:00014340       __Str_Interrupts___E877B41AAE2ACA27BB428F65ADC7882A1405EB09F107DFEE450D0B8159AB4DF8 0000000010104340     guideXOS.obj
 0005:00014370       __Str_Intersil_Corporation_33ADA9DF6171AB3FDCAA9070746C5DC878566D536C2A52257C189D3DAF3CF70A 0000000010104370     guideXOS.obj
 0005:000143b0       __Str_Intervoice_Inc_8BA1D1CF7656DEEF842970CD4EF3D9C2FDCC36CD216E256DE049EDB35F81431D 00000000101043b0     guideXOS.obj
 0005:000143e8       __Str_Interware_Co_Ltd_479A96BA2C8A2FB6D124A43AB4FC2D146AB563CA56D114CC0EB854BCB557134A 00000000101043e8     guideXOS.obj
 0005:00014420       __Str_Intraserver_Technology_Inc_A7F91BF6BCDA7DC4374951FF2656C062D0FF728C2D5A7B4CCC850AD22B7D47EB 0000000010104420     guideXOS.obj
 0005:00014470       __Str_Invalid_address_7AC5EA86BEB9120D370C3BAD3E7ED36E4C71A46767A05393B7FF8E4872782BE0 0000000010104470     guideXOS.obj
 0005:000144a8       __Str_Invalid_buf_546BA989310B58551F339E33C980220B401F2B6065830A24E9934AA7443B9761 00000000101044a8     guideXOS.obj
 0005:000144d8       __Str_Invalid_header_763C92B10394727C430865E831B08A724DFA3E9C21BADB02714E1633F52891E2 00000000101044d8     guideXOS.obj
 0005:00014510       __Str_Inventec_Corporation_A633F68ED4B36CC655B0B9349A793A44128F6301972E438057EAACF6E10FF561 0000000010104510     guideXOS.obj
 0005:00014550       __Str_Iotech_Inc_93497498BF852E740345BE668856D29DE5DF3E9D1610744488BACA1BBC2E7D0C 0000000010104550     guideXOS.obj
 0005:00014580       __Str_Ishoni_Networks_0AFF329B93BEA2B3B5C012373DB149AE56B518D47E985FF389E0F1F0F7CAD715 0000000010104580     guideXOS.obj
 0005:000145b8       __Str_Isytec___Integrierte_Systemtec_7DF93D9E85B04C078143D7AD9087DDF474527307A2D0B59565D0B17156092B3A 00000000101045b8     guideXOS.obj
 0005:00014620       __Str_Italtel              0000000010104620     guideXOS.obj
 0005:00014648       __Str_Iwasaki_Information_Systems_Co_5B712FF92FE6904EA97F4A790B5B66AF07416CD9B60F72AD36507757D4709656 0000000010104648     guideXOS.obj
 0005:000146a8       __Str_Iwatsu_Electric_Co_Ltd_324D71F6AEB5E1F6236CCAF49547EEFDD9F43DB9777C57D77B02F3232463FCEF 00000000101046a8     guideXOS.obj
 0005:000146f0       __Str_Iwill_Corporation_EF15680E58BA2C1C29E1DF3B66A3AAD69A6CEA852DE6328B42CF884D24ABB0D9 00000000101046f0     guideXOS.obj
 0005:00014728       __Str_J_Bond_Computer_Systems_6004C98A5D25B1F92BF14D2348D6E938F2812D1B10280FDAE40AAE275055AC16 0000000010104728     guideXOS.obj
 0005:00014770       __Str_JAE_Electronics_Inc_02F9DB8121844AA000D838086B3802DCC839849C00040DE420D99E40EF5F6D05 0000000010104770     guideXOS.obj
 0005:000147b0       __Str_JMicron_Technology_Corp_4CC68AEBB678F42649DB789B126F83151AF16999228E9EE60A00A03E623AEF81 00000000101047b0     guideXOS.obj
 0005:000147f8       __Str_JNI_Corporation_3ADDEA8F61D6D5D9CD495F96F060939FF618A9BA1B69F3FCFB59C39DD76D5ECB 00000000101047f8     guideXOS.obj
 0005:00014830       __Str_JOIN__A02775B5CF3D48003D1F0690C1EDBD07721DEDC9E3B07AB647FE0081D42786BA 0000000010104830     guideXOS.obj
 0005:00014850       __Str_Jabil_Circuit_Inc_F1D73CEEBCDE598E42B2E1CBCE2C5F3EF00A0FFC40F52652F8F46C8AB0201ECC 0000000010104850     guideXOS.obj
 0005:00014888       __Str_Jace_Tech_Inc_5EF4C844EE588AE32EAE646B1BE58782EB02ABE7FFEC5E42586E7ED8533DBD49 0000000010104888     guideXOS.obj
 0005:000148b8       __Str_January              00000000101048b8     guideXOS.obj
 0005:000148e0       __Str_Janz_Computer_AG_2FBE89D618095A1AF088AE3E6BC450399789CAF6EB0D7CF8E138EDEA728C6BC6 00000000101048e0     guideXOS.obj
 0005:00014918       __Str_Japan_Elecronics_Ind_Inc_83A074E1F20BBD175A5A9D51366F895264D359D5F00A3E718EDECDAB8ABA51DB 0000000010104918     guideXOS.obj
 0005:00014960       __Str_Jato_Technologies_Inc_41F083E4004FCE3FDB1C5553F02704C43FDE066330A87156D2BC0F9ECD94E2D0 0000000010104960     guideXOS.obj
 0005:000149a0       __Str_Jaton_Corporation_USA_3ED9C452C9FBD060D3982DA65665CA266A9D7CA4681C81C481BBD162F1345543 00000000101049a0     guideXOS.obj
 0005:000149e0       __Str_Jazz_Multimedia_005D3E9AC807A5EDB5F0349F815EE8AD03ACD29FFBC6804DFAC5D98C217293C2 00000000101049e0     guideXOS.obj
 0005:00014a18       __Str_Jean_Company_Ltd_C1C36ABC50C4C34C46DAECE12729184D53DF4A06DA06BA4A9459676108D820CB 0000000010104a18     guideXOS.obj
 0005:00014a50       __Str_Jet_Propulsion_Laboratory_3E087B98F210362B66D000CDF1838A052733BD3E603F075B792F21E7CAFF6DB7 0000000010104a50     guideXOS.obj
 0005:00014a98       __Str_Jetway_Information_Co__Ltd_B5CB04CC571A9BC85B035370B5922299E0DDB43C89E8113917E91E39C5F3FA4B 0000000010104a98     guideXOS.obj
 0005:00014ae8       __Str_Joining__1813A252D5BE89D699EFC6E4072507C3AB601A05E45A223A02E202DBE958E160 0000000010104ae8     guideXOS.obj
 0005:00014b10       __Str_Jorge_Scientific_Corp_AE15042039F447EBBB80FCD1F755ACD82856C9B46D73A3FEC43EF06CD2824D16 0000000010104b10     guideXOS.obj
 0005:00014b50       __Str_Joytech_Computer_Co_Ltd_5EBC4383B0A697F64B04AA9C7A101C88861C0ABE79F34F4FEE0F971D3ABE6142 0000000010104b50     guideXOS.obj
 0005:00014b98       __Str_Juko_Electronics_Inc_Ltd_23C4F0C94F2A4614A94AABCF0484C4EC247143C25AE63DE9987C1880B7C58410 0000000010104b98     guideXOS.obj
 0005:00014be0       __Str_July                 0000000010104be0     guideXOS.obj
 0005:00014c00       __Str_June                 0000000010104c00     guideXOS.obj
 0005:00014c20       __Str_Jungsoft             0000000010104c20     guideXOS.obj
 0005:00014c48       __Str_Juniper_Networks_Inc_0DAB7DA0374C83E5ACBAE3E7DC03C4488EC22992EC23C8862346AC7A4180EEF9 0000000010104c48     guideXOS.obj
 0005:00014c88       __Str_Jupiter_Systems_88CA764154FBA485894648600BDD2ECD13EA7D00CD9B28D4F8CC199E75BCB431 0000000010104c88     guideXOS.obj
 0005:00014cc0       __Str_KDS_Innotech_Corp_42DA558CBE26F2B8D8A584B5C18D604DA5E5CBE2617F0F1F0A611C211F007B0A 0000000010104cc0     guideXOS.obj
 0005:00014cf8       __Str_KERNEL               0000000010104cf8     guideXOS.obj
 0005:00014d20       __Str_KI_Technology_Co_Ltd_646521F905ADD98CCF9CAF7B534B9E5231759BA42186404B411BBE98AC57FD25 0000000010104d20     guideXOS.obj
 0005:00014d60       __Str_KRF_Tech_Ltd_28A1F71F247D53E9BEAF670D90EAFF8EB761532553DEBC26430810FABC7AC8B1 0000000010104d60     guideXOS.obj
 0005:00014d90       __Str_KUKA_Roboter_GmbH_C1902F1D9293F1765D40ECFDC7E697CBFB9D0FEC0BE8F29CCBA91B32C5F1A5CA 0000000010104d90     guideXOS.obj
 0005:00014dc8       __Str_KYE_Systems_Corp___Pixart_Imag_BE37354A8B85739517E4446C056DD6B3C4C0EB8998047AB8AC5D7EA3CDB70B7D 0000000010104dc8     guideXOS.obj
 0005:00014e20       __Str_KYE_Systems_Corporation_2CB1C7A54E39DF66A81F5B448AE859776C0750820D916DB611BA0A8FAAD5E383 0000000010104e20     guideXOS.obj
 0005:00014e68       __Str_Kaiser_Electronics_EAEEA948C5C0328370A3454892F6E1581977FC090B4F4D7C6A21DC864E07EEC6 0000000010104e68     guideXOS.obj
 0005:00014ea8       __Str_Kasan_Electronics_Co_Ltd_77B51D245352F5D8B59AE05FF82A8D0F69BF08C30AD9010EA2B06EBAE89D16DA 0000000010104ea8     guideXOS.obj
 0005:00014ef0       __Str_Kasten_Chase_Applied_Research_FEBFC6FD2481C39A2659C108FE520EAF75294D0739F2811D7ACDC70923E5F9B6 0000000010104ef0     guideXOS.obj
 0005:00014f40       __Str_Kawasaki_Heavy_Industries_Ltd_D985729E47D4DCAF20079920259E26099252DE799E21C55435F691CCD3D97B38 0000000010104f40     guideXOS.obj
 0005:00014f90       __Str_Kawasaki_LSI_USA_Inc_190AC6FEBED904A9FF64EDAE6A22C6938627348CACB847FDA8C8DA33CD1F6EE7 0000000010104f90     guideXOS.obj
 0005:00014fd0       __Str_Kawasaki_Steel_Corporation_4D72F03C955864B7AC71E038BD205004D8DE68A3CE4BA10BB5A97D44B69744D5 0000000010104fd0     guideXOS.obj
 0005:00015020       __Str_Keep                 0000000010105020     guideXOS.obj
 0005:00015040       __Str_Keep_this_resolution__Revertin_F1047C8E269E52D7599D64B833E9AF1EE2C5E5580F5C2CEF75C4CB2EAAA73020 0000000010105040     guideXOS.obj
 0005:000150a0       __Str_Keithley_Instruments__Inc_89967E163BB466EDBC603DEAAED46559FD440143F6307F301C2A6937035ABCDC 00000000101050a0     guideXOS.obj
 0005:000150e8       __Str_Kinetic_Systems_Corporation_2FF227DAE46634485FB6FE442FA99AE80B5432B282C20EDA1BF0EA03D6BEB8BB 00000000101050e8     guideXOS.obj
 0005:00015138       __Str_Kingmax_Technology_Inc_43D5D0F6C7B15BBE545F2EEC072BAFB12968D0A9F2F1A5216DD5735DB3412D57 0000000010105138     guideXOS.obj
 0005:00015180       __Str_Kingston_Technology_Co_B7112F45A044903D1EF64CDCB5F888626DD1910EEA7E12CC9D7054DE54B24B60 0000000010105180     guideXOS.obj
 0005:000151c8       __Str_Kinpo_Electronics_Inc_241E722796B76C20A7E06926D49C987685CE35BB9C861CE7502001ECD45E45A9 00000000101051c8     guideXOS.obj
 0005:00015208       __Str_Knowledge_Technology_Laborator_0F7AEDBFA69A498F716FDAA162E08E92282A42E918177897AA7E9E3D980B1F7A 0000000010105208     guideXOS.obj
 0005:00015260       __Str_Kofax_Image_Products_3BA018E16E7336B705FF14E8DAD9B6E9D78B6D85F15E0C99337585DA0269DB9E 0000000010105260     guideXOS.obj
 0005:000152a0       __Str_Koga_Electronics_Co_5E6F54A5CAEE00ADEDDDCF567395651B00FE75A5AED55091E843CBCFDADDE7B9 00000000101052a0     guideXOS.obj
 0005:000152e0       __Str_Kollmorgen_Servotronix_C42A8B3E5CC70673036933B07A178DE9235F734978D773D34A199E637DE9DF18 00000000101052e0     guideXOS.obj
 0005:00015328       __Str_Kolter_Electronic___Germany_D9453AF93BD3CD242067D96CB6C3F09430045DDAAE37ACF37738DBC48C5D3753 0000000010105328     guideXOS.obj
 0005:00015378       __Str_Komatsu_Ltd_62DB7BF2957EC2C3CEAC3F88007AE2996D5F9862BFA70A36975CC80CDBF67FC6 0000000010105378     guideXOS.obj
 0005:000153a8       __Str_Kondo_Kagaku_9E89A7A58F3355D6B7A2259D254DEA42EBF4D8904D61FE79A76D531351EC6C5C 00000000101053a8     guideXOS.obj
 0005:000153d8       __Str_Kongsberg_Spacetec_as_999C7DD6737BF14BDA40B694CFF02F9A8D9C55A0993280E89E4151761B3A8B32 00000000101053d8     guideXOS.obj
 0005:00015418       __Str_Konica_Corporation_5B21E236AF4D434D2A90E4BAD94DE569452E5C919EB334DCAB3B2E9809087F1C 0000000010105418     guideXOS.obj
 0005:00015458       __Str_Kontron_Canada_847C102F3DBB8D57052D0A1429BEE261B36BDE75E05CD29E8551F4D697BF381B 0000000010105458     guideXOS.obj
 0005:00015490       __Str_Kontron_Modular_Computers_GmbH_3F1798F929EAB4508CC0755A70A1149465B8DD462EF24BED2FE632EC9E853915 0000000010105490     guideXOS.obj
 0005:00015520       __Str_Korg                 0000000010105520     guideXOS.obj
 0005:00015540       __Str_Kyoei_Sangyo_Co_Ltd_D57F4D4A70E1D96B0974E0C709929A3595805CAB857BEA380CFB6787787C148B 0000000010105540     guideXOS.obj
 0005:00015580       __Str_Kyopal_Co_Ltd_B5564FEC106246D302240C04FE9BC3BA1BFFC9AC4F73DC12A1DF1BC1637AED6F 0000000010105580     guideXOS.obj
 0005:000155b0       __Str_Kyushu_Electronics_Systems_Inc_6AAC28F6694C0859DA017551D9FDBCFF18036E591660B64336CD8AD7BCF1FE40 00000000101055b0     guideXOS.obj
 0005:00015608       __Str_L3_Communications_F4E8B887F8B25E3E2A3A281F011B844117C476634AADFC03C01C0463B256504F 0000000010105608     guideXOS.obj
 0005:00015640       __Str_LABEL                0000000010105640     guideXOS.obj
 0005:00015660       __Str_LDT                  0000000010105660     guideXOS.obj
 0005:00015680       __Str_LG__Lucky_Goldstar__Electronic_4FAC516EBEF37BE9EC04BD7E973C1E7B355B5DE76792C864796A4FFD1B6D4FCD 0000000010105680     guideXOS.obj
 0005:000156e0       __Str_LG_Industrial_Systems_Co_Ltd_0E3D9A12603C05DE06633F99395A450D6DE85D67D72DB8A2453AA0DFD90B7706 00000000101056e0     guideXOS.obj
 0005:00015730       __Str_LIST                 0000000010105730     guideXOS.obj
 0005:00015750       __Str_LOADFILE             0000000010105750     guideXOS.obj
 0005:00015778       __Str_LOADSCRIPT           0000000010105778     guideXOS.obj
 0005:000157a8       __Str_LOADTEXT             00000000101057a8     guideXOS.obj
 0005:000157d0       __Str_LSI                  00000000101057d0     guideXOS.obj
 0005:000157f0       __Str_LSI_Corporation_607AA779C0ED1FD0C473C52AB0571394F4490477EF4BAA290B484EE8109BA1B9 00000000101057f0     guideXOS.obj
 0005:00015828       __Str_LSI_Logic_4DD9E67F12733DB94B44CF9B782A4723C88F6EC4BB09B46C8628D9E5264BD715 0000000010105828     guideXOS.obj
 0005:00015850       __Str_LSI_Logic_Headland_Division_59B03266AEF49A44E2587E4923D25DCABECF17920EFB58CABCE258E26DFE47BA 0000000010105850     guideXOS.obj
 0005:000158a0       __Str_LSI_Systems_Inc_11113363BE8A9DA7E3E37A5363779DF796F699BA6A8628FE17156D15974072F0 00000000101058a0     guideXOS.obj
 0005:000158d8       __Str_Labway_Coporation_74A5BB1B31E3F30A5BFB72C3D2F211A054E36B21F0D28E5C4602F572376D8204 00000000101058d8     guideXOS.obj
 0005:00015910       __Str_Lambda_Systems_Inc_5610E9E8BF89473AD8970D533074719F8577A59899D0108468EFD41B4904B672 0000000010105910     guideXOS.obj
 0005:00015950       __Str_Lancast_Inc_233E46ED1FF1903962ECAD49B628A24227EFD8D11F6930E3320DAB6067A949EC 0000000010105950     guideXOS.obj
 0005:00015980       __Str_Land_Win_Electronic_Corp_CEB0D2C855444D2D039F1CB45DAE368A2D0322060C45566C8527330712B29F91 0000000010105980     guideXOS.obj
 0005:000159c8       __Str_Lara_Technology_Inc_B345108F8D663BA5ADCBA4A43DFEDD40CA230249CA380D6C847D24CDE73E0B0C 00000000101059c8     guideXOS.obj
 0005:00015a08       __Str_LaserLinc_Inc_B61FE81BA37C5F234CD9203874C6CA3CBE5403135123160CD60DF5685624842D 0000000010105a08     guideXOS.obj
 0005:00015a38       __Str_Lattice___Vantis_8D8780EBC3529BB8744080EF137F84924108238880AA50EAA4D4FC6E00D082B4 0000000010105a38     guideXOS.obj
 0005:00015a70       __Str_Lattice_Semiconductor_Corp_83D80C18EBAA80746E9F51A4F0C7FEDB62BB1C0275F5343D35CDD9C5141E323D 0000000010105a70     guideXOS.obj
 0005:00015ac0       __Str_Launching__0C2B5F467DB15C6FFACE856843716CA95C478FAA06F118236586B4CAE0165296 0000000010105ac0     guideXOS.obj
 0005:00015af0       __Str_Launching_nexIRC____4F0B62893DD47C0845682FBE982E7B9CC0078CEAA1D45B5AF0C7BFE8331064BE 0000000010105af0     guideXOS.obj
 0005:00015b30       __Str_Lava_Computer_MFG_Inc_CC6B07D3C7ADBB0F45737DC919D5D202B78BFC857B573A9D123E5074D915C73E 0000000010105b30     guideXOS.obj
 0005:00015b70       __Str_Lava_Semiconductor_Manufacturi_FA978C57DB1C0C9B60A9DC76F42C92367E48003732AAF21570FA08DB58274482 0000000010105b70     guideXOS.obj
 0005:00015bd0       __Str_Layout               0000000010105bd0     guideXOS.obj
 0005:00015bf8       __Str_Leading_Edge_Products_Inc_C56B095BB0D5263F3E05F11D49E12C9420636F00B37EF1EDA439AE3A00A261C3 0000000010105bf8     guideXOS.obj
 0005:00015c40       __Str_Leadtek_Research_37CB16A63F65BBBF308915B35FB1937FC6B0C53EDD7D6D520AB929AD02AA6E21 0000000010105c40     guideXOS.obj
 0005:00015c78       __Str_Leak_Exists__CDE4329E66C4BFDCB173D1C39D1411852C895B5F66677272DA7ED9C55B6D398A 0000000010105c78     guideXOS.obj
 0005:00015ca8       __Str_Lecroy_Corporation_45881E56052EEB674A4640DCF130F4D3D85A970448E92110490EDF0AC1EBC741 0000000010105ca8     guideXOS.obj
 0005:00015ce8       __Str_Lectron_Co_Ltd_DCDDB02484C7808E34501ED6141195FA3BF8A4141C9797D423140076F2EC046B 0000000010105ce8     guideXOS.obj
 0005:00015d20       __Str_Legend_Ltd__Beijing__FBD7BA670EFEAA5D1F603264EA139B126339E95A878FAE37E34E824A2CB31092 0000000010105d20     guideXOS.obj
 0005:00015d60       __Str_Leitch_Technology_Internationa_7BD1145A8C0664CF058E5F7642E170DE08DEC5754BF775DA957E5E9C0DC384B9 0000000010105d60     guideXOS.obj
 0005:00015db8       __Str_Leutron_Vision_AG_55201712B121BA2B8CD399CC63411D6AE59946DA366A4C379637BCA5E7DBA04B 0000000010105db8     guideXOS.obj
 0005:00015df0       __Str_Level_One_Communications_6F96FF3C11769FBD3924D9438D8D56779569803F4AE293E5DEFC8129706F43C1 0000000010105df0     guideXOS.obj
 0005:00015e38       __Str_Lexmark_International_Inc_27BD4E36B61D8071A0C8614A1633D6EB172187C49E7BFC98446E22C49A05988B 0000000010105e38     guideXOS.obj
 0005:00015e80       __Str_LiPPERT_Embedded_Computers_Gmb_B0FAB082B766D93B0F17CDB8CDAC69C5B6B7B9FA13ECECD7B3469FE9E9BA0014 0000000010105e80     guideXOS.obj
 0005:00015ed8       __Str_Libera               0000000010105ed8     guideXOS.obj
 0005:00015f00       __Str_Lightwell_Co_Ltd___Zax_Divisio_8DCB5B344E4EC826189709C29AE5A4770B87EECFAD956C3D0CDDA837508EC3FF 0000000010105f00     guideXOS.obj
 0005:00015f58       __Str_Line                 0000000010105f58     guideXOS.obj
 0005:00015f78       __Str_Linear_Systems_Ltd_90E19B764F2C8D5AF32B2F3A2CD7AB5D210DFA3CD2FA79FD2FAC9746134DB099 0000000010105f78     guideXOS.obj
 0005:00015fb8       __Str_LinkSys              0000000010105fb8     guideXOS.obj
 0005:00015fe0       __Str_Linux_Networx_26F8316F515ACB5A4FB7AD75A0C97D7D86FC00F763086C3E3258263455DFC3BB 0000000010105fe0     guideXOS.obj
 0005:00016010       __Str_Lite_On_Technology_Corp_F882A2920B57C4165E3574FE322AF3B1560063A33CFB0F7775773776ED58498A 0000000010106010     guideXOS.obj
 0005:00016058       __Str_Litronic_Inc_05E93008087210E3EFA330A45CBDF8F8DD49A1F33206DA5AB288A7FDEAA10FFD 0000000010106058     guideXOS.obj
 0005:00016088       __Str_Loading_App___71605982CB929B15E58F671BDD0C017D6EC94ABBAE4BEC8562B65AF5957FF41C 0000000010106088     guideXOS.obj
 0005:000160b8       __Str_Loading_fonts____517F249661F5983C3FA5D77220F846B0AE388B5FC3E2ADC0923A9BE299424FB4 00000000101060b8     guideXOS.obj
 0005:000160f0       __Str_Loads_and_executes_a_GXM_GUI_s_9695731FC10726E3F3A62F68889A206FCB2AEA4CE6FAA978B49BE0E3B11060C1 00000000101060f0     guideXOS.obj
 0005:00016170       __Str_Lock                 0000000010106170     guideXOS.obj
 0005:00016190       __Str_Log_Off_9C74FAFEF1174BDC40021B1BFE337A03428BBA7A74EB2416090F9182308F5E7E 0000000010106190     guideXOS.obj
 0005:000161b8       __Str_Log_cleared_E8C65D9CB7C2AD2ABFCC0BB0E4E99833C27AEF3908BD3CB96F09308F5062B490 00000000101061b8     guideXOS.obj
 0005:000161e8       __Str_Logged_out__394B1C6371C0AEEE20E8554A0A21FC9D378FC50A4B377E70B650B6C8D4F596E3 00000000101061e8     guideXOS.obj
 0005:00016218       __Str_Logic_Modeling_1A6C7AE2B42A0596F948279456E5244D5E79080607911982EC548AB305DA77C8 0000000010106218     guideXOS.obj
 0005:00016250       __Str_Logical_Co_Ltd_83E4B74EC82EF6E8997235C436402EFA9CBA21ABA0479E5FE9C49216BD6DCC4D 0000000010106250     guideXOS.obj
 0005:00016288       __Str_Login_OK__Token__B801D95B89DB2B2B93AAA1ADEB9E7E8377E26F4EA5E5EA1527AD5F7708864E00 0000000010106288     guideXOS.obj
 0005:000162c0       __Str_Login_failed___2520626259825EBC4AE6CC2144901AE614793E6E7B505CCBE74A9E1C8E8ACF5B 00000000101062c0     guideXOS.obj
 0005:000162f8       __Str_Login_unsuccessful_5623B510FA67CCEA64EA8A5D1DE8B4D48B53C8410B5555B4DC2B1859A6280F3E 00000000101062f8     guideXOS.obj
 0005:00016338       __Str_Logitec_Corp_2A0474E5DABB56BB477A589559E76CE27867E32C79D1288E7C1A56562D064033 0000000010106338     guideXOS.obj
 0005:00016368       __Str_Logitech_Inc_99AFF6F07AE5707470F022E3A361A32B5CF2260BD2E5BF609415A5B6D269BC26 0000000010106368     guideXOS.obj
 0005:00016398       __Str_Loopback_not_supported_77C30C93A33BFBEB33C0A98E2B2FC77459AB2E8176144A434C5CA6DBB4655773 0000000010106398     guideXOS.obj
 0005:000163e0       __Str_Loronix_Information_Systems__I_EF91FE4F4B9F97269756B2B2856289A7546B2D68DD196F7F73CA545C0C09A0B9 00000000101063e0     guideXOS.obj
 0005:00016438       __Str_Lucent_Technologies_AMR_7225A7D12957CBB29D094EF98E164219AECD0A4EFAEFA8995B16728B618008D0 0000000010106438     guideXOS.obj
 0005:00016480       __Str_Luminex_Software__Inc_0F08EC8E35FD1C9A5F70BA39509C5C2679862D88C0CFE9DC0DFED82EBED69CFD 0000000010106480     guideXOS.obj
 0005:000164c0       __Str_Lung_Hwa_Electronics_F6CA0EC0B0E709946D92EC18C76D8FA335DB2962F8B34071376D87D0A3973CBF 00000000101064c0     guideXOS.obj
 0005:00016500       __Str_LuxSonor_Inc_BD0873F3AE08BB45AE6ACA00E40A090786040AD32BCECC8BEC84841A5572A8D2 0000000010106500     guideXOS.obj
 0005:00016530       __Str_Lynx_Studio_Technology_Inc_BC59C01CC88CE2A5C8F6EFD2ACDCA8F0798006E14EC815C7F197B68903BDE22C 0000000010106530     guideXOS.obj
 0005:00016580       __Str_M_Systems_Flash_Disk_Pioneers__41252DFE7AD369E357CDCC52664E23E5F66274B8C993698ACA52F467A9996894 0000000010106580     guideXOS.obj
 0005:000165d8       __Str_MAC_System_Co_Ltd_D87AB65205CC84B5E1B3E1D5E0BC8FC965B114883B90822D015D312453109B3E 00000000101065d8     guideXOS.obj
 0005:00016610       __Str_MAC___0_x2___1_x2___2_x2___3_x_06E90E1C4CC84FF4B8042AA69D7567A157BC7112E7EAE1DD1F60F5A94340D5C6 0000000010106610     guideXOS.obj
 0005:00016688       __Str_MACHINE_CHECK_8789D3D38485377864BD0CB95844A958953A320E493A706CF11C4A14A679C724 0000000010106688     guideXOS.obj
 0005:000166b8       __Str_MAGMA                00000000101066b8     guideXOS.obj
 0005:000166d8       __Str_MAXIMIZE             00000000101066d8     guideXOS.obj
 0005:00016700       __Str_MAZeT_GmbH_BD92310289AC0CBE458D1A116FA4D154640894527D68705020EF94CED79920E2 0000000010106700     guideXOS.obj
 0005:00016730       __Str_MINIMIZE             0000000010106730     guideXOS.obj
 0005:00016758       __Str_MIPS_Technologies__Inc_2C306F8379EDD7A86906BEDAA9B93E5F0FEF41524DD63124E3E5464B12B07CEC 0000000010106758     guideXOS.obj
 0005:000167a0       __Str_MKNet_Corporation_FE064C4F244FB3EEB747FB8A9BA18E6C8377156E8E55A8428014A2F288862895 00000000101067a0     guideXOS.obj
 0005:000167d8       __Str_MOST_Corp_F8C54BCAFDF06F875268A3A27C5DCEFBE784BF173D8683BA8E036948A35389B4 00000000101067d8     guideXOS.obj
 0005:00016800       __Str_MSG                  0000000010106800     guideXOS.obj
 0005:00016820       __Str_MULTIDATA_GmbH_91CD555FB3C8D2E898583746FACF0B988FA9C805826224372C8EAD770FDE3BE6 0000000010106820     guideXOS.obj
 0005:00016858       __Str_Machine_time__3CDA93CEE597D853C3DD555FCAE5D5A4C20D9120D4280A283BFDD2E2B24A5EFD 0000000010106858     guideXOS.obj
 0005:00016888       __Str_Macraigor_Systems_LLC_43B8CD2A132A561167C303FA2B643A4BCD5267429DB92C25F69C05056DCE3EFF 0000000010106888     guideXOS.obj
 0005:000168c8       __Str_Macrolink_Inc_65535C24276D86383958AE45561A4AB93C8DB298F6662074FB0ACE368E7693BE 00000000101068c8     guideXOS.obj
 0005:000168f8       __Str_Macronix_International_Co_Ltd_50A25F45CAE26497715C1D0D832B3A9936F2D216BB61CD5163AD60A9E250A23E 00000000101068f8     guideXOS.obj
 0005:00016948       __Str_Madge_Networks_76353CBE43A9DD784C89F08184B3DF3351C61E23DBAF64547865A2E90010C228 0000000010106948     guideXOS.obj
 0005:00016980       __Str_Maestro_Digital_Communications_77927F56E86B89FB174E4EAF129A8256DA68C0F5A684E77AC6ADC580BB362332 0000000010106980     guideXOS.obj
 0005:000169d8       __Str_Mainpine_Limited_7341134D3216F4EDEAB3C4B912759AD42EB612F0E070A433D9BB139B92485664 00000000101069d8     guideXOS.obj
 0005:00016a10       __Str_Maker_Communications_6077D2772F384DD4787A867FCF20520C047EDEAC25AC34EA38595E649B8DE3E1 0000000010106a10     guideXOS.obj
 0005:00016a50       __Str_Malleable_Technologies_Inc_A798450BD4EC8E8F98A393F56CF87A57DA6E80C95023B1CAB777D3E1FD53551E 0000000010106a50     guideXOS.obj
 0005:00016aa0       __Str_Management_Graphics_Inc_0A17408BAA66A16AC55EDB2D1C0F0169EA24EB9088351A0D401CCE3CE43C783F 0000000010106aa0     guideXOS.obj
 0005:00016ae8       __Str_Mapletree_Networks_Inc_4D4D5EC7874082C6665CD709657E5FC4720522F67FE5CE2E1607314B03431D14 0000000010106ae8     guideXOS.obj
 0005:00016b30       __Str_Marathon_Technologies_Corp_FAF844C5E71A704572FAADE92E35A1FDBE8DB82EA26D8D9EC7A3CDD32363EBC1 0000000010106b30     guideXOS.obj
 0005:00016b80       __Str_March                0000000010106b80     guideXOS.obj
 0005:00016ba0       __Str_Marconi_Commerce_Systems_SRL_DEF3778328A1F7803414027A47430E5B2A5CF8912C27F41CB33C2B3B36937BDC 0000000010106ba0     guideXOS.obj
 0005:00016bf0       __Str_Margi_Systems_Inc_594F154C8FDCAB7011DE1A18B269F60F10BD790932AE83B6064C6CECD52AD997 0000000010106bf0     guideXOS.obj
 0005:00016c28       __Str_Marian___Electronic___Software_9246C5D5C0DF8C020CC724A9415B4AD8EEEFC4A8B50D844CBD30DC9A89CF6645 0000000010106c28     guideXOS.obj
 0005:00016c80       __Str_Mark_Of_The_Unicorn_Inc_9CC85FCA37473719495C92F45C849DB479B023F023CEA6D0FE2026649221CA7E 0000000010106c80     guideXOS.obj
 0005:00016cc8       __Str_Marvell_Semiconductor_9027B552B222722C0ADD6E90003D54BF8A239DE26E8200977E85EB92D46D70E9 0000000010106cc8     guideXOS.obj
 0005:00016d08       __Str_Marvell_Semiconductor_Germany__D77D0BE3CDFF6F65BF55003577E8E77DB1B960CA142B292D7F02F775777F1235 0000000010106d08     guideXOS.obj
 0005:00016d68       __Str_Mask___0___1___2___3__AA0BBF21D61313ED8A7F11DBB81889B07094A276470CFAC90EA54FD0A1F1D94C 0000000010106d68     guideXOS.obj
 0005:00016da8       __Str_Maspar_Computer_Corp_431533D57E202FD91B826DB59BD27270EC9B00A04A4CCD19ADD38221C08B0B88 0000000010106da8     guideXOS.obj
 0005:00016de8       __Str_Mass_storage_controller_CAAD88EC05406BEF6DE46B59D3DA0C0B1DD28FCD29F413D5240AC39083528C9E 0000000010106de8     guideXOS.obj
 0005:00016e30       __Str_Matrix_Corp_AA863D82964D8AB7F514037FB2C7B5AFB49430E6F1E81ADF3FE2E74E9436FB93 0000000010106e30     guideXOS.obj
 0005:00016e60       __Str_Matrox_Electronic_Systems_Ltd_FE0DF5C583DA0360AB8FB06A16E285A4283D97CBD11C0DCE7282BC30C8BFCCD8 0000000010106e60     guideXOS.obj
 0005:00016eb0       __Str_Matsushita_Electric_Industrial_ECDA6DB8ADE42BD487E01DCA7F0ED9CF5FE610A37885311B6458323A1702EBF2 0000000010106eb0     guideXOS.obj
 0005:00016f10       __Str_Matsushita_Electric_Works_Ltd_663ACA6E6546752BCAF0BD61D99F6E41CB9A72A247886DE4FF6A563030BBE21D 0000000010106f10     guideXOS.obj
 0005:00016f60       __Str_Matsushita_Electronics_9188C8DC2345314EF5471F12B22AD5CA11DA7AEF9E085B3F08A39BA64F2A615E 0000000010106f60     guideXOS.obj
 0005:00016fa8       __Str_Matsushita_Kotobuki_Electronic_73F96A91C2D11E59C9C783347FAF054B5E447DC2E653153A70959ECE66D02A84 0000000010106fa8     guideXOS.obj
 0005:00017008       __Str_Max_Technologies_Inc_245A501A845AF24004D0C2A39A0C843313FA81759D7FA8AF0B650AF353BAFEDA 0000000010107008     guideXOS.obj
 0005:00017048       __Str_Maxtor_Corporation_CC261267BBA556599EF11A18A8BE6AAA16FDEA9C40A96B87BBB9DB5F810DD168 0000000010107048     guideXOS.obj
 0005:00017088       __Str_May                  0000000010107088     guideXOS.obj
 0005:000170a8       __Str_MeasureX_Corp_0BF0623D021B1638D7EF1CA721C2DB866E28E6B9AD92F1B71498C050ADA9C65B 00000000101070a8     guideXOS.obj
 0005:000170d8       __Str_Med_Associates_Inc_EFB6D852A5FAA93B805E4113D57EF0FA3BB8E015553A9DE3647043AD3D13F892 00000000101070d8     guideXOS.obj
 0005:00017118       __Str_Media_Reality_Technology_BA8A70E4E523100DF1996EF7EA237EFD6BF1168DE1F66F01F52381AFBC06BC29 0000000010107118     guideXOS.obj
 0005:00017160       __Str_MediaTek_Inc_180714EAE7C7772DB6277795AA0E65F6E8ADEC8923E73B1808ED57121B8C593E 0000000010107160     guideXOS.obj
 0005:00017190       __Str_Mediamatics          0000000010107190     guideXOS.obj
 0005:000171c0       __Str_Mediaq_Inc_704CBA1F27600BC6390043082361619D7D9DFAB094D182E4931D8218F019D019 00000000101071c0     guideXOS.obj
 0005:000171f0       __Str_Mediastar_Co_Ltd_458E3CB36354398512CF8AC544CB125BD9EDC92F4F09C789E3CCDF9914C01EA5 00000000101071f0     guideXOS.obj
 0005:00017228       __Str_Megachips_Corporation_5A62F8AA5EE91CCF368CF107AABB0C461422DB40E822595320827E87EC68E722 0000000010107228     guideXOS.obj
 0005:00017268       __Str_Megasoft_Inc_E9E2EF357591606587958D4E86DD568D528C2135599D14984DFF07DB1D821B59 0000000010107268     guideXOS.obj
 0005:00017298       __Str_Megatel              0000000010107298     guideXOS.obj
 0005:000172c0       __Str_Meidensha_Corporation_E15194EF358B7EA9264EAEDCD048584EF907131901FA5EE1662E342F46FC2061 00000000101072c0     guideXOS.obj
 0005:00017300       __Str_Meilhaus_Electronic_GmbH_Germa_8183FD2906B79C7821560217D5CF9A507F028BFFCF0E353F4BAAA4F9F81AB32C 0000000010107300     guideXOS.obj
 0005:00017358       __Str_Meinberg_Funkuhren_GmbH___Co_K_0B8BA73D218E89A9EE356A95966E9B610B14ECED5429895F509891A762202497 0000000010107358     guideXOS.obj
 0005:000173b0       __Str_Melco_Inc_BE434BCEDFFFEA1D19882898085273BA8618179CAA81DCE2E8EAAA0F359D5C6C 00000000101073b0     guideXOS.obj
 0005:000173d8       __Str_Melec_Inc_79853C57FE9F4CC8E269B86EA1E07D87C547E63567062DE68DCD3A0397295C2B 00000000101073d8     guideXOS.obj
 0005:00017400       __Str_Mellanox_Technology_F8C020519986BEB2E5B2A0E7360AF5AF45BE63828DECFDAD7C8E46FAC09F1AAB 0000000010107400     guideXOS.obj
 0005:00017440       __Str_MeltDown_Systems_LLC_76B0F981A3C89960EE501C6216358CA10AC4A1628FDE058095F6BC83BDA8E689 0000000010107440     guideXOS.obj
 0005:00017480       __Str_Memec_Design_Services_7E3CCAD3824DF39A0D77F56205BEDACBBCDB7204FB98D73B2F3F2F9ED1198906 0000000010107480     guideXOS.obj
 0005:000174c0       __Str_Memory               00000000101074c0     guideXOS.obj
 0005:000174e8       __Str_Memory_Details_AB04CB9E028D2BAAD320DEF1A8A684A61573FDD89A28A764403DAA5D0760F81C 00000000101074e8     guideXOS.obj
 0005:00017520       __Str_Memory_controller_191058670AD0F45547E9C208471546B782AAA2E7E73139194B3FD03D1D625FF5 0000000010107520     guideXOS.obj
 0005:00017558       __Str_Memory_request_too_large__size_BE4F2546773008D05AF353053EB4B54B46251B3B97A71DF1387C444EB609F39B 0000000010107558     guideXOS.obj
 0005:000175b0       __Str_Mentec_Ltd_C40C8A8AFD326EBE4978AC2394871664E01A92643EF31BEC3CB2D65009CB6E1D 00000000101075b0     guideXOS.obj
 0005:000175e0       __Str_Mentor_Graphics_Corp_A82C846216797684500D33A9EBEAA0F0D994F0403584265EF3CD0B5A1FD92A3B 00000000101075e0     guideXOS.obj
 0005:00017620       __Str_Mercury_Computer_Systems_Inc_9AB49658CDCD3A99C45731D2A5306CC54648424A3C2324BC4F04872135894815 0000000010107620     guideXOS.obj
 0005:00017670       __Str_MessageBox           0000000010107670     guideXOS.obj
 0005:000176a0       __Str_Metheus_Corporation_0AD688AEC4B7742DD42780C7EC24725EF90DF9C90C7DBB43DCC3CAADAACD4E9D 00000000101076a0     guideXOS.obj
 0005:000176e0       __Str_MiB                  00000000101076e0     guideXOS.obj
 0005:00017700       __Str_Michels___Kleberhoff_Computer__1AC81D1CDFBCEE920787604104D82608ADCA690FD7A67A861DCF5234959F88B5 0000000010107700     guideXOS.obj
 0005:00017760       __Str_Micrel_Inc_DF5BC9EE4D97F244D726A7F4EC6ADB81B195C75AA2DC26D5B797F1EB4A054D80 0000000010107760     guideXOS.obj
 0005:00017790       __Str_Micro_Computer_Systems_Inc_2F6F9BAD9E1FA2B497E1A208EB0A2D825359E9C830F812FA088FEEF6AEB63D02 0000000010107790     guideXOS.obj
 0005:000177e0       __Str_Micro_Industries_Corporation_36FBAFB7E8E0FB2CAD06BDD9E44011E617EBC552C687C23C1282CBB8AB1E9B1A 00000000101077e0     guideXOS.obj
 0005:00017830       __Str_Micro_Science_Inc_1BBF762FE64F6B8F6F454A9159E6374F9845A8B5B0B9BFFCB3D9C3C04453E1B8 0000000010107830     guideXOS.obj
 0005:00017868       __Str_Micro_Star_International_Co_Lt_40AB5813EF6121CCE85123D140F06FD737DD804992FCBBB5D5A525715F0618AC 0000000010107868     guideXOS.obj
 0005:000178c0       __Str_Micro_Technology_Co_Ltd_E26FAB7695FB8565EADCE5AC62FE4998B9807EB8DC1F3548005FAD7A27367850 00000000101078c0     guideXOS.obj
 0005:00017908       __Str_MicroUnity_Systems_Engineering_258965A6799BA99A76A07C6FFD27ED877F7503E6945E48A9B38BFEF82B3AA552 0000000010107908     guideXOS.obj
 0005:00017968       __Str_Microcomputer_Systems__M__Son_659C6C27D876695BAD2F645AFFD2F4F7B15857F655D4554373F1F868285BF3BF 0000000010107968     guideXOS.obj
 0005:000179b8       __Str_Microdia_Ltd_6F18D1BD8A18F3F040F914250607D17A0DEA986F295001A97F84FF4E266D775E 00000000101079b8     guideXOS.obj
 0005:000179e8       __Str_Microdyne_Corp_6FFDBE7C6885EEAEFCF1418787B710DF34BE6375CD28C6BDE74FFEA6196050D2 00000000101079e8     guideXOS.obj
 0005:00017a20       __Str_Microgate_Corp_1E08BB86C316F4236C07EE16CB650E94D4C1E5BFD2E0E7973B3BBCDF1472BEC1 0000000010107a20     guideXOS.obj
 0005:00017a58       __Str_Micron_Technology__Inc_066DEBF2D08DADE01348EB8A494B6B4FAB68546688B1CB4EA61C44C58B068721 0000000010107a58     guideXOS.obj
 0005:00017aa0       __Str_Micron_Crucial_Technology_DA8E147E3D00D3E18FF643ED118F40089BB7FE1E9C7A7388770F58F453EC57D5 0000000010107aa0     guideXOS.obj
 0005:00017ae8       __Str_Micronics_Computers_Inc_1EA9138ADEF6CDB391946CEB2C099D4B81D4FCC17DD1328F1F4638B994A1893E 0000000010107ae8     guideXOS.obj
 0005:00017b30       __Str_Microscan_Systems_Inc_0B528C36AB6DC6AFA3619C261112B31D880F76AB725A8A83F02DC5AEA11EEAFA 0000000010107b30     guideXOS.obj
 0005:00017b70       __Str_Microtechnica_Co_Ltd_862ECD643A88EB6A6511DB8FAD7555583D60F06DAFA600AE4F2DB80A3AD47AAA 0000000010107b70     guideXOS.obj
 0005:00017bb0       __Str_Middle_Digital__Inc_FF3DB3560E192C5ADF323311FECA8826DC177DF5683834E62E856640033617DF 0000000010107bb0     guideXOS.obj
 0005:00017bf0       __Str_Mikrotik             0000000010107bf0     guideXOS.obj
 0005:00017c18       __Str_Millennium_Engineering_Inc_04EEB72515A3AE4B87520EAB9EE7D7318BFB2C0FEC2C469BDD95EC2F8C3ABCE4 0000000010107c18     guideXOS.obj
 0005:00017c68       __Str_Millogic_Ltd_5D5EF9888A840410D4F3BBB8F33512B6ED8FA2C61C577FB8D31CBA879A672E90 0000000010107c68     guideXOS.obj
 0005:00017c98       __Str_Mind_Share_Inc_FAB3C875E43A42CCA5645D96BA1B8ECF82F0A0F59A7B8B5059BAAFA8DEBF7287 0000000010107c98     guideXOS.obj
 0005:00017cd0       __Str_Mindstream_Computing_23CD3E095485CAFFF9FE1DA8CEB037C9E7AB005386911FC731A39B9A7AAD8AE8 0000000010107cd0     guideXOS.obj
 0005:00017d10       __Str_Mini_Max_Technology_Inc_91503288AF852E9207E472431CB5C2FC48C6A24A037F13105B55E8C8081239F9 0000000010107d10     guideXOS.obj
 0005:00017d58       __Str_Minimal_Demo_83B1893592CBFE9B8CAB22A9BC6658832F0CDAABF57D4EB67E481B2803CF4210 0000000010107d58     guideXOS.obj
 0005:00017d88       __Str_Minolta_Co_Ltd_A92D53434DC866F137D05BCB0C2648A56586C386EEBD418B267EE9EBB75D075A 0000000010107d88     guideXOS.obj
 0005:00017dc0       __Str_Minton_Optic_Industry_Co_Ltd_A0B474D74852B63F356DEFC94FE349391991931EEA4DE0CFFEB84A2CEE295482 0000000010107dc0     guideXOS.obj
 0005:00017e10       __Str_Miranda_Technologies_Ltd_D7A156739ED63528A70D5E80A30A68CE27B48DB124ABDECCA4D9F9F50D95261F 0000000010107e10     guideXOS.obj
 0005:00017e58       __Str_Mitac                0000000010107e58     guideXOS.obj
 0005:00017e78       __Str_Mitani_Corp_545ADD980D2B2EF89FC31F769828293DA515B5B812220A79840F6CE98A280D9B 0000000010107e78     guideXOS.obj
 0005:00017ea8       __Str_Mitel_Corp_1E48DC8FD3F9FF06326F9FEC9B434DC123C44B85CBE4116A5B5C735A69C0C7F9 0000000010107ea8     guideXOS.obj
 0005:00017ed8       __Str_Mitron_Computer_Inc_00C798B4EF57D4A29C76778C9FA06AD6FCAB3B82946654D60930D8DA82930262 0000000010107ed8     guideXOS.obj
 0005:00017f18       __Str_Mitsubishi_Electric_Logistics__D6B6D743EEE762F568F029C87FBA483ED68FFBA5C9FFDE0873F00FAC0220E12E 0000000010107f18     guideXOS.obj
 0005:00017f80       __Str_Mitsubishi_Electric_Microcompu_CEE8D0FB7D8CF5F36EE24F079E826FBF31213D63578B21927CD710F97DD00639 0000000010107f80     guideXOS.obj
 0005:00017fd8       __Str_Mitsubishi_Electronics_53EEFA9C1AD3187DD92C7F075C006F6FDAD7A1E0016C542D361FF2117EDDBA32 0000000010107fd8     guideXOS.obj
 0005:00018020       __Str_Mitsubishi_Electronics_Corp_A1EA5C54A2EC553AA1EFD8229A0585344B8E929DD115C70EA17E0119BEBD64D3 0000000010108020     guideXOS.obj
 0005:00018070       __Str_Mitsui_Zosen_System_Research_B63C995268995A0F35B0630786F4118CC2DA609433EB42F9A3675F764D02D1C2 0000000010108070     guideXOS.obj
 0005:000180c0       __Str_Mitutoyo_Corporation_153CCB68EAF3D5B44FABE4FBB38333B630DEFF975C25B9D2E645EEDC29352A7C 00000000101080c0     guideXOS.obj
 0005:00018100       __Str_Mobham_chip_3552E2111782100825A660B5DD2DBED31643AEEFA81BFE5A21E11DE146D1BEBB 0000000010108100     guideXOS.obj
 0005:00018130       __Str_Mobilian_Israel_Ltd_E6DC45D336BA97E36596E6CD64F162C48ECB3A7E30EEE0B5A87E76C58C6FE370 0000000010108130     guideXOS.obj
 0005:00018170       __Str_Mobility_Electronics__Inc_A6EB5CAF03406B8D40A0FB2E76FD6CB5AA5C4993592441B0C978E464AC1CE4AA 0000000010108170     guideXOS.obj
 0005:000181b8       __Str_Mode___7A3C9EAECCAB9683ACEA23986C3D46A797C5350E4BF78511381A5B12A501E4BD 00000000101081b8     guideXOS.obj
 0005:000181e0       __Str_Modular_Technology_Ltd_CC70E17FD47848C260E52C6B3931C9F7BFE966E7CAF2BD85DF2383398A16FA67 00000000101081e0     guideXOS.obj
 0005:00018228       __Str_Molex_Incorporated_0173CD7DE4C54C6AF63A7AFA2F6DD2D4792DBE147CE700EE97D5EA29173527ED 0000000010108228     guideXOS.obj
 0005:00018268       __Str_Momentum_Data_Systems_E947B83B388E0A5D099429867DA1A911C95F2BB3B56E5F1C79FA3419BF1FB017 0000000010108268     guideXOS.obj
 0005:000182a8       __Str_Monarch_Innovative_Technologie_86A9D215B0A86378F6204E703F9B02EA1E84F1CCA6F01C68F0CCB1C7DDE28D04 00000000101082a8     guideXOS.obj
 0005:00018310       __Str_Monitor              0000000010108310     guideXOS.obj
 0005:00018338       __Str_Moreton_Bay_F80068FD7EDF49968403BAB98DB4DAD38DF823CBBA77C1926157AE5AAB724E3B 0000000010108338     guideXOS.obj
 0005:00018368       __Str_MosChip_Semiconductor_Technolo_49CA48C9529CC4DC6CF74CD0697B603AC22A1CA891FCC977B81B0F40EC62CECB 0000000010108368     guideXOS.obj
 0005:000183c0       __Str_Mosaid_Technologies_Inc_1563F8E5566922C8C5F3DBE6A75FF7D98A8A65B326796FEF4DE3AB9685E6695B 00000000101083c0     guideXOS.obj
 0005:00018408       __Str_Motion_Engineering_Inc_CB57FC0E33DFCD153F3125652BD9D12DA6B769A2515AB6E2004D3C1DA56BBE5D 0000000010108408     guideXOS.obj
 0005:00018450       __Str_Motorola             0000000010108450     guideXOS.obj
 0005:00018478       __Str_Mounted              0000000010108478     guideXOS.obj
 0005:000184a0       __Str_Moved_back_E0C7777DD049CEAD8508C1ED90861DD9EA5DF2ECEDFC711CDD7DF9AB2A664B49 00000000101084a0     guideXOS.obj
 0005:000184d0       __Str_Movita               00000000101084d0     guideXOS.obj
 0005:000184f8       __Str_Moxa_Technologies_Co_Ltd_631CA30633EE938E3DF731081EEA79C627B8C16EC01B69A4BE1CA846900CDA14 00000000101084f8     guideXOS.obj
 0005:00018540       __Str_Multimedia_controller_FB819CF3E8FC540A605736429A12B25C6DEAF0E588F97A2D860BFEC36E902612 0000000010108540     guideXOS.obj
 0005:00018580       __Str_Multiply__C936E7AC7B3AEC83F1B9EBA6447FBEC31F112EE9DF21D1558D6AAD223F16B876 0000000010108580     guideXOS.obj
 0005:000185a8       __Str_Music_Semiconductors_A54678CE7D80E1CE781FB56DF5B956505B202C12E6BBB526F32F27F10915ABEF 00000000101085a8     guideXOS.obj
 0005:000185e8       __Str_Mutech               00000000101085e8     guideXOS.obj
 0005:00018610       __Str_Mutoh_Industries_Inc_1DB2789BEF3556556933416C5F708D6B6A357CD359ADC9BE3F3E5F4BCCDAAA8D 0000000010108610     guideXOS.obj
 0005:00018650       __Str_MyName_Technologies__Inc_6059B7954AFEA64E78FB7812BE1F99FB8CEF1B5D9E0ABE1F71F8D981CE13C61E 0000000010108650     guideXOS.obj
 0005:00018698       __Str_Mycom_Inc_A1D4FBB5F446E419EA9E1CBD18FC149663E0FFAFFC6BE7D275F1D8EF37931C7A 0000000010108698     guideXOS.obj
 0005:000186c0       __Str_Mylex___Buslogic_E7C6AB0CBC042E8E9D173A0B5B4B3FE69B7C1220489A3626F9A7964D1B3CBB62 00000000101086c0     guideXOS.obj
 0005:000186f8       __Str_Myricom_Inc_3C3850E0588F80B51F1001DADF3653401F85E232FB79FAC51B81E95B1B8B4E43 00000000101086f8     guideXOS.obj
 0005:00018728       __Str_Myson_Technology_Inc_500C1FBA98606751FA51659340F459F1907814B3B7DFB90D5982D04C7739A411 0000000010108728     guideXOS.obj
 0005:00018768       __Str_N_CubedNet_A6F1D092320F7973DD96980A9FDCB6879DAFBE5F5BDBB6F67CBCFDD6F6EA1098 0000000010108768     guideXOS.obj
 0005:00018798       __Str_N_A_CA3CA2A601FF3FD6A3FD3337F86591AE19F65EC8EDE444D4C985B6F3E3B147D6 0000000010108798     guideXOS.obj
 0005:000187b8       __Str_NCR_Corporation_3E0D2C2CCF127A1BD1AA5298502153A7D0CD1AAF97E0901091F26642CF4197AE 00000000101087b8     guideXOS.obj
 0005:000187f0       __Str_NCS_Computer_Italia_E28B75887BEE2C3B2326B576ACB4CF6F209E0EA138809A1AAE02D812314C451E 00000000101087f0     guideXOS.obj
 0005:00018830       __Str_NDS_Technologies_Israel_Ltd_80EC01651E24DA17FC1D8908443B990F6A5A747FE7A19593CEE95A1944347F37 0000000010108830     guideXOS.obj
 0005:00018880       __Str_NEC_Computer_International_4881A2BDA6A935F1F4B85C52E21CF6400221322FC4B1783D7430F8422B616E66 0000000010108880     guideXOS.obj
 0005:000188d0       __Str_NEC_Corp_0DEE06AFBF6B0B13F3D4118E9CFDC741F54F381B7A32C4520D9C1892B6E61C6C 00000000101088d0     guideXOS.obj
 0005:000188f8       __Str_NEC_Electronics_BF0B0C386ADFDB1B25B2BD7BCF614C0AE98948AE33CD76CA4EF37BF3EFE685F8 00000000101088f8     guideXOS.obj
 0005:00018930       __Str_NICE_Systems_Inc_529F4F381E792131DC87B2DBFE12ACACB4485F766B94CE4C769DDA75BC7A5D14 0000000010108930     guideXOS.obj
 0005:00018968       __Str_NICK__270AC15BB55ABE345453E5E569C9DF56076F3E6469E7073D527C9ADC3865C60E 0000000010108968     guideXOS.obj
 0005:00018988       __Str_NKK_Corporation_45A132F82CF9AABEC55DAA95DCD32630436DE1E661FC7990D44756FBF1A42198 0000000010108988     guideXOS.obj
 0005:000189c0       __Str_NMI_Electronics_Ltd_350A509D6FEECA26FA414F95E7A388BA56EAF3BABE7BBAD68E2E29088BC18857 00000000101089c0     guideXOS.obj
 0005:00018a00       __Str_NON_MASKABLE_INTERRUPT_160F80DF6CA2C70505D67BC8F1C2E0729B206F0FE3B4063575B32320B7CC9C2A 0000000010108a00     guideXOS.obj
 0005:00018a48       __Str_NSI                  0000000010108a48     guideXOS.obj
 0005:00018a68       __Str_NTT_Advanced_Technology_Corp_63AEEE142FC13D96B8CB20EC4C02128452C59BED5E2AB4C319F8F1CEAD1FE07E 0000000010108a68     guideXOS.obj
 0005:00018ab8       __Str_NTT_Electronics_Corp_EE4D3CAEC71C6F150511D7DBDE40936A8E2224BF3CF40C84A9C79400425B2B3E 0000000010108ab8     guideXOS.obj
 0005:00018af8       __Str_NVIDIA               0000000010108af8     guideXOS.obj
 0005:00018b20       __Str_NXP_Semiconductors_NV_2BDACFCA092FA98FD3EB25A177C1D01DE344E4A26998423946B84085082F8C8B 0000000010108b20     guideXOS.obj
 0005:00018b60       __Str_Nallatech            0000000010108b60     guideXOS.obj
 0005:00018b88       __Str_Name                 0000000010108b88     guideXOS.obj
 0005:00018ba8       __Str_Napatech_A_S_191F3A0EB8A33C93AA6BF56218FDBD5D4F80C6D8DD47D082828A51F78DBA6769 0000000010108ba8     guideXOS.obj
 0005:00018bd8       __Str_National_Datacomm_Corp_659374591CAF30958069CA02E5F9C435F0749FDAD6C3C83C35D7DA73C1403077 0000000010108bd8     guideXOS.obj
 0005:00018c20       __Str_National_Instruments_C36ED1B3B68BAC6094672D9EFEDC4D10295EEA02CAAFDBA97473B057F48EC319 0000000010108c20     guideXOS.obj
 0005:00018c60       __Str_National_Semiconductors_F8EDC8EF4A49AAEB340B9DEA5DB20EBF4313CF8DE88F26E214A308F5652F8B01 0000000010108c60     guideXOS.obj
 0005:00018ca8       __Str_Nature_Worldwide_Technology_Co_74F3021ABE043CF918DA703B07F27883B48B5DF4F03C83EC85CD9302265C37B1 0000000010108ca8     guideXOS.obj
 0005:00018d00       __Str_Ncube                0000000010108d00     guideXOS.obj
 0005:00018d20       __Str_Neomagic_Corporation_C5BD3CDE53CAA2516F5667C28F0087D77DA80C90270200E7A31EBEBCB9534D7F 0000000010108d20     guideXOS.obj
 0005:00018d60       __Str_Nest_Inc_6F1F7EE676EF7EFD7BCEE812A0818CDBE201903EC7FBE7153BC0929D6FEC5260 0000000010108d60     guideXOS.obj
 0005:00018d88       __Str_Net_Growth__Alloc___Free___5F0CBD33628738ECE85C14430F185FCAC1767EE0CEAE055EFA873C183CC6C868 0000000010108d88     guideXOS.obj
 0005:00018dd8       __Str_Net_Insight_80F1591918EF9BAC212664618AC858867B4CC70D122B212C942696B607DF6135 0000000010108dd8     guideXOS.obj
 0005:00018e08       __Str_NetChip              0000000010108e08     guideXOS.obj
 0005:00018e30       __Str_NetContinuum__Inc_1D25F7D34DB448264F1E8D7F573B3464348A53CECCD392A50359183E603470B4 0000000010108e30     guideXOS.obj
 0005:00018e68       __Str_NetOctave_Inc_457EF111CE850021F094485C7C8023677CBA02A7748A4BB0C09BE220FCE07076 0000000010108e68     guideXOS.obj
 0005:00018e98       __Str_Netboost_Corporation_D78CA4AD1E5496E4407E5E7E3A547D99E81F2B9914A57FA4B1FE2176C3E8B27F 0000000010108e98     guideXOS.obj
 0005:00018ed8       __Str_Neterion_Inc_67DF1C691AA5C7F24BADD93DAD9F0A829E2AFFD4F90A86FA65D5E7453F4FA63B 0000000010108ed8     guideXOS.obj
 0005:00018f08       __Str_Netframe_Systems_Inc_DC9469F692C3D1E1562FAECAE83F0FBB618B1CD862E5BB05037F66DA0C1AD42B 0000000010108f08     guideXOS.obj
 0005:00018f48       __Str_Netgame_Ltd_2EEBE345F3D5274E208FEEBEF8EA90B229599D7B311C1FB61382B0FF868608D5 0000000010108f48     guideXOS.obj
 0005:00018f78       __Str_Netgear              0000000010108f78     guideXOS.obj
 0005:00018fa0       __Str_Netpower_Inc_A1CD988A5C714B1797B31FDF0862502488B384ED83123FF4FE228CD5D4A267B7 0000000010108fa0     guideXOS.obj
 0005:00018fd0       __Str_Netspeed_Inc_BE6D99FC7FCBF3384F2772EC6626F05AA5E4D1CB6DEF0635426D171AE23CC81D 0000000010108fd0     guideXOS.obj
 0005:00019000       __Str_Network              0000000010109000     guideXOS.obj
 0005:00019028       __Str_Network_Appliance_57290BA128DB6CA9333CBAF1CB22EB3361B13AE724F3430F5EEF9A6816C75474 0000000010109028     guideXOS.obj
 0005:00019060       __Str_Network_Computing_Devices_0777AE6C422C655E15FF4BE40F8822DA12736B62B785541C1E3900498637D4C0 0000000010109060     guideXOS.obj
 0005:000190a8       __Str_Network_General_Corp_219420E2301F1AF8B7F5394B6E3541541FF516020BB5A2AC0579E6DFAEB3BEFB 00000000101090a8     guideXOS.obj
 0005:000190e8       __Str_Network_Peripherals_Inc_9B6F74B1020835526517853D36581FE4292E398D0EBFC4BED3667008E3D651A8 00000000101090e8     guideXOS.obj
 0005:00019130       __Str_Network_Security_Technologies__99BF39EDE061569A3AC464C9D2D9DAA43D8E0A928F58E67CCC8CAC7F66957CC1 0000000010109130     guideXOS.obj
 0005:000191a0       __Str_Network_controller_A76E2A0BAA343927207A71311E7F1114A44F3449A710D2CC0592B655E82EFC56 00000000101091a0     guideXOS.obj
 0005:000191e0       __Str_Network_not_initialized_6BC3358D9F5223D07523FBC9C5BEA2598A17BDE624512F2E1AF8837FFFA6587E 00000000101091e0     guideXOS.obj
 0005:00019228       __Str_Network_not_initialized__Run___4FA3DFA862A1A38E1E13098E40FB04DED0E21241B38CF215F0A424A9039A0653 0000000010109228     guideXOS.obj
 0005:00019298       __Str_Network__C3B50E2704C04ED43F452BF53B0C58F3965E20A0BFFB3B63D105DA2E829B980C 0000000010109298     guideXOS.obj
 0005:000192c0       __Str_Network__Intel_825xx_DA13CA499838CDDCF47725DB774264AADEABE96CF762DA5685141A99717BF04D 00000000101092c0     guideXOS.obj
 0005:00019300       __Str_Network__Realtek_8111_8168_686D4505111DDFA085D304D8867EF31F8F4BF36AA3DBC259BB6CF3A0F94BAE64 0000000010109300     guideXOS.obj
 0005:00019350       __Str_Networks             0000000010109350     guideXOS.obj
 0005:00019378       __Str_Networth_Technologies_Inc_5AE90C18350E3E018A6837A3DCF8BFF7CE2F2C749B1D109D407312616D840F46 0000000010109378     guideXOS.obj
 0005:000193c0       __Str_Networth_controls_5E8F90DB9B87BA9F9A711A74196F564A5DBCD8C62238CC10907EBF6C5CC9F2BE 00000000101093c0     guideXOS.obj
 0005:000193f8       __Str_New_Tab_E1D4E2E8188215ABDF46B18F20B0AB0C0930C6F7F1166414A83E8D5AFEDEF15D 00000000101093f8     guideXOS.obj
 0005:00019420       __Str_NewGen_Systems_Corp_E3506CBA8742F515A25D9C3F4E10B28C8DB7C6FC30775A3DEDA6DE5248A6DF86 0000000010109420     guideXOS.obj
 0005:00019460       __Str_NewNet               0000000010109460     guideXOS.obj
 0005:00019488       __Str_Newer_Technology_Inc_A47B00885BF72D4309234DAE7ACBC19B3240BFF2FBEEC0FC21E9946B8ED5A482 0000000010109488     guideXOS.obj
 0005:000194c8       __Str_News_Datacom_8D6BAE7B0FDDA503867198E6C2F223A93543FB9060FCA33A2C2AD55F043DB999 00000000101094c8     guideXOS.obj
 0005:000194f8       __Str_Nexgen_Microsystems_2B3ECE83699E584E062F133353DECB47D48E3330997EEF4395E1E42D2473D07D 00000000101094f8     guideXOS.obj
 0005:00019538       __Str_Nextcom_KK_02CC96B2B10E3FD8ADF277CBFBEF6427DB74052F8AB0647C0BC0241FFA7C9439 0000000010109538     guideXOS.obj
 0005:00019568       __Str_Nick                 0000000010109568     guideXOS.obj
 0005:00019588       __Str_Nick_set_to__EC0FBD1D593F04AD7776234923E5B9BF43F64BC68E5C9EA709795FDD1D56094C 0000000010109588     guideXOS.obj
 0005:000195b8       __Str_Nicolet_Technologies_BV_D0C37A2A56F345ED0B9BDF31CD67BED4D5A2B92472F843F3DE7E67B8690746A2 00000000101095b8     guideXOS.obj
 0005:00019600       __Str_Nihon_Unisys_Ltd_1C4292673E262C256FA99F7AD2A8EE36E9AB5DB2953E2EECBB2CE429694F8026 0000000010109600     guideXOS.obj
 0005:00019638       __Str_Nikon_Systems_Inc_03AB346B769768E80771158F1F07E1200C444964EF51FE8706AF3C3F040AC3B4 0000000010109638     guideXOS.obj
 0005:00019670       __Str_Ningbo_Harrison_Electronics_Co_6E35089723DE2901D8725E69AAED1AABD5EDAB253911205D10BE9A558BEDCBC3 0000000010109670     guideXOS.obj
 0005:000196d0       __Str_Nintendo_Co_Ltd_F01D8F1A560AA19C4D543B07FFEFCEB5E0F747E8497A43DEF37E318AC613D12D 00000000101096d0     guideXOS.obj
 0005:00019708       __Str_Nippon_Systemware_Co_Ltd_84C9B3C6A69E0424AED80AB0001EE22437BE3AC1258D97E13EA4511CD0DF7659 0000000010109708     guideXOS.obj
 0005:00019750       __Str_Nippon_Texa_Co_Ltd_D28D262DF5F564067F9AC3F94108B9A61CD69AA04D1F4F7A0F1BECDD35F7250A 0000000010109750     guideXOS.obj
 0005:00019790       __Str_Nippon_Unisoft_Corp_CC50296638EB7017C2CAFDEADA3C232A94DE5DE4666FE0EB2E97E0E79F97F92A 0000000010109790     guideXOS.obj
 0005:000197d0       __Str_Nissin_Inc_Co_361A58B3EB7707249E0B7ABA98AF82F62E86C4C828E0BFC8A2F5638ABFF70026 00000000101097d0     guideXOS.obj
 0005:00019800       __Str_Nitsuko_Corporation_48D5F42F3C874282ABD487303E51CC3B6A04287D64C2F693776CBEAD04E22E27 0000000010109800     guideXOS.obj
 0005:00019840       __Str_No                   0000000010109840     guideXOS.obj
 0005:00019860       __Str_No_application_can_open_this_f_EF2E53B752B2F7D3971E742848D13DE99FE49F50B5ABB6B4416A9212DE1E0BDF 0000000010109860     guideXOS.obj
 0005:000198c0       __Str_No_fonts_found_in__Fonts_direc_F81E3D56AE508B5FA65E2F423171EF1C8E6E747C7A81BF024F73563C179C7040 00000000101098c0     guideXOS.obj
 0005:00019920       __Str_No_free_MBR_slots_B39FB457F11A311BE32C0F77CC2F11015ADA6AEE1A52B77BDCD0BF1E062E84B1 0000000010109920     guideXOS.obj
 0005:00019958       __Str_No_images_found_in__Background_6A837E1B542508BD9DDC126BE105F75A587E016866568B1ED781EC13442CBD32 0000000010109958     guideXOS.obj
 0005:000199c0       __Str_No_resolutions_available_D6652A9B344A63EE28B5BC356AA63D66DEB6A2CD5A1E5F71D6439DD33234D477 00000000101099c0     guideXOS.obj
 0005:00019a08       __Str_No_response_43B27C933D8F067983505C273BDF1C1C8E85094EBBF18902B54C65BF4E70C5BA 0000000010109a08     guideXOS.obj
 0005:00019a38       __Str_No_such_command____0E6EFDFE70B9935488CA0AA8977C0A4CD4B6579C3BAB8A642124B3A3794FEB27 0000000010109a38     guideXOS.obj
 0005:00019a78       __Str_No_sufficient_free_space_35390D82456A977C3B541D3625C5CB3AE2E3C57027005AE9DEA4D0C22C7D2E36 0000000010109a78     guideXOS.obj
 0005:00019ac0       __Str_NoWrap               0000000010109ac0     guideXOS.obj
 0005:00019ae8       __Str_Nokia_Home_Communications_11ACA342FF93C0CAF7447028C4072CBF6AE50475F69E6D906D21FB99F06B2AF2 0000000010109ae8     guideXOS.obj
 0005:00019b30       __Str_Nokia_Telecommunications_OY_7AA04B1868575E09E1F95ADE910507F2A1ADC650AFDA51A7CC7A13FE04F271B6 0000000010109b30     guideXOS.obj
 0005:00019b80       __Str_Nokia_Wireless_Business_Commun_0EC91059712BA82473EA9BAF25C47E86A2D0C53DCDCB35F41262728FB046A3AE 0000000010109b80     guideXOS.obj
 0005:00019be8       __Str_Non_Essential_Instrumentation_092D60ACFC5125763F2053793A3846EF2C8DB8D372DA0D2DAD420504CFDB64D8 0000000010109be8     guideXOS.obj
 0005:00019c38       __Str_None                 0000000010109c38     guideXOS.obj
 0005:00019c58       __Str_Normal_Mode_7925D64EC9959AC30CF2D2BD28DC3BD79631B3C5D8B0999291DAB3308166DB7D 0000000010109c58     guideXOS.obj
 0005:00019c88       __Str_Norpak_Corporation_DFFF8C353FF938EA7D1EDD4FF4984D6763D44E6C06FFF61797C0A027E16C78B9 0000000010109c88     guideXOS.obj
 0005:00019cc8       __Str_Norsk_Elektro_Optikk_A_S_87FA14FB8675EF6F8A0884DAD1002E61E0C828B3498BEE20BA436B8B0F0778FD 0000000010109cc8     guideXOS.obj
 0005:00019d10       __Str_Nortel_Networks___BWA_Division_6F214F436A799AD152203843B99675B8FC7135B11C6AA38B45FBED3B785B10B2 0000000010109d10     guideXOS.obj
 0005:00019d68       __Str_Nortel_Networks_Corp_609B68CC2C1ADE8EDE33761E48038702BC698A27272F15F213CAD9D6728FFAC2 0000000010109d68     guideXOS.obj
 0005:00019da8       __Str_North_Atlantic_Instruments_1FA5A60D036F9E72FDA4E05EC842C165E2E6D321B87E285B8384C442698C841B 0000000010109da8     guideXOS.obj
 0005:00019df8       __Str_Northrop_Grumman___Canada_Ltd_B217403AFF33737AA47CB3441CC4C589444EE5B14E79B02D2F0B9B64873FD68A 0000000010109df8     guideXOS.obj
 0005:00019e48       __Str_Not_Initialized_D74F1428C41BD961BC58F1464C9B46CC4A204B5FE6E3D71A2A6BDCF4FB851892 0000000010109e48     guideXOS.obj
 0005:00019e80       __Str_Not_Ready_2A762E63B75FCA8A418463384135821CE7EB73A624052AA37023C8B7F2E46473 0000000010109e80     guideXOS.obj
 0005:00019ea8       __Str_Not_connected__4141979C48EC85BF0DBD3BEA21FAADD0A91D933B9762DD0DAB50F9500118B007 0000000010109ea8     guideXOS.obj
 0005:00019ee0       __Str_Not_found_08060E6C74CCC9BC76B5901EA9A520F149BC4AA5689C4FBD4399091259807DF8 0000000010109ee0     guideXOS.obj
 0005:00019f08       __Str_Not_present_CE9F1C852B04002CFEE35BDFAC33DEA4EF2B416D0FE67C1A29C8BBE1C44BF723 0000000010109f08     guideXOS.obj
 0005:00019f38       __Str_Note__Use__dns__hostname___to__B537302747418307FA7286824FAE3EB3797A8BB8730290F686EC0591ABA792D8 0000000010109f38     guideXOS.obj
 0005:00019fb8       __Str_Notepad              0000000010109fb8     guideXOS.obj
 0005:00019fe0       __Str_Notepad____FEBF91402CB2E4C378833F57F3E33EBF16FF87D34BD49C2765700B8618C1817A 0000000010109fe0     guideXOS.obj
 0005:0001a010       __Str_NotepadModule        000000001010a010     guideXOS.obj
 0005:0001a040       __Str_Novell               000000001010a040     guideXOS.obj
 0005:0001a068       __Str_November             000000001010a068     guideXOS.obj
 0005:0001a090       __Str_Number_Nine_Visual_Technology_A2175B8642AF1AE1BC6285BD4E152F039334B6F3E561E0E9977BE872B9157ABE 000000001010a090     guideXOS.obj
 0005:0001a0e0       __Str_O2Micro_Inc_B667760B5B194F8144A176FCE3FE6FD4FCA2B23416D27E779A822A00C5FF1D61 000000001010a0e0     guideXOS.obj
 0005:0001a110       __Str_OA_Laboratory_Co_Ltd_F842EB4EEA8CF30AA6C8BF4A9B20F7FB130E88E9D9122DAF8082ACF19E355012 000000001010a110     guideXOS.obj
 0005:0001a150       __Str_OCE___Industries_SA_13861F1F36451071DAFCB16E345BA410FF29D858612A50A0B02AD4F4881BC70F 000000001010a150     guideXOS.obj
 0005:0001a190       __Str_OEC_Medical_Systems_Inc_8C848EF457753548B21B92655F710476BDD96412CDD2A802759E65078E0E43FB 000000001010a190     guideXOS.obj
 0005:0001a1d8       __Str_OF__0__IOPL__1__NT__2__RF__3___3FD5AAAA2ED0105F97773B3317953B48E6CABA718388FFFECFBD91ED85118FE2 000000001010a1d8     guideXOS.obj
 0005:0001a230       __Str_OFTC                 000000001010a230     guideXOS.obj
 0005:0001a250       __Str_OK                   000000001010a250     guideXOS.obj
 0005:0001a270       __Str_ON_Electric_Co_Ltd_D969C05F95597C05B766F8BECCF5826B37D8B5798732603381ED6DF5F4EBF6C2 000000001010a270     guideXOS.obj
 0005:0001a2b0       __Str_ONCHANGE             000000001010a2b0     guideXOS.obj
 0005:0001a2d8       __Str_ONCLICK              000000001010a2d8     guideXOS.obj
 0005:0001a300       __Str_ONO_Sokki_24D69E2F3E9872CE04383A329B244FC1F1C6712D22A0F6DA72D533272AB62859 000000001010a300     guideXOS.obj
 0005:0001a328       __Str_ONTEXTCHANGE         000000001010a328     guideXOS.obj
 0005:0001a358       __Str_OOM                  000000001010a358     guideXOS.obj
 0005:0001a378       __Str_OOM_stack_F64F26EBFA16657D073939D3A49EFC080508F0B00AA021760AD15552F1B66B0D 000000001010a378     guideXOS.obj
 0005:0001a3a0       __Str_OPENAPP              000000001010a3a0     guideXOS.obj
 0005:0001a3c8       __Str_OPENDIALOG           000000001010a3c8     guideXOS.obj
 0005:0001a3f8       __Str_OPTi_Inc_60781C21EB68CE833C8DD4BCC14CC465197EACBCE9E04B13C6566F9EBF2D5061 000000001010a3f8     guideXOS.obj
 0005:0001a420       __Str_OSI_Plus_Corporation_8F12889C95FE801A7696F526ECFD06385D94FD92EF0C8184A35D05912EF6DDFA 000000001010a420     guideXOS.obj
 0005:0001a460       __Str_OVERFLOW             000000001010a460     guideXOS.obj
 0005:0001a488       __Str_Oak_Technology_75029A7292BD448B0B4BA3AC894C73C4B66684B64960C0D718706A5EB4F1F03A 000000001010a488     guideXOS.obj
 0005:0001a4c0       __Str_Oakleigh_Systems_Inc_D785608F855353C41C6FAB05954887CDCF2763D13FA5FB9B8445FCBAC62F6549 000000001010a4c0     guideXOS.obj
 0005:0001a500       __Str_Obtain_DNS_server_address_auto_395E31DA8812F016E9F1D598CACB74EB14EADEA0164C6CF6C80E419057826E01 000000001010a500     guideXOS.obj
 0005:0001a568       __Str_Obtain_an_IP_address_automatic_53195CDB4635D740B7854DF0FEFE90055BAB4EC98B87B1E7C661E2240C5FB049 000000001010a568     guideXOS.obj
 0005:0001a5c8       __Str_Oce_Print_Logics_Technologies__92A72EFF98ADA1EB5E4C55B6E80A23FFFE6F7E503E3311EA8C8627AF8310ED5C 000000001010a5c8     guideXOS.obj
 0005:0001a620       __Str_Ocean_Office_Automation_3F2B4E7C16E8EC8702E22717DFC7F6FE9096112C60ADA38F55E2AC5AFDD13EBE 000000001010a620     guideXOS.obj
 0005:0001a668       __Str_Octave_Communications_Ind_5DDC6C601FD7FB3F202CBB0B1369E33F117B94F0D4A0385663A0A44F9DA580A7 000000001010a668     guideXOS.obj
 0005:0001a6b0       __Str_October              000000001010a6b0     guideXOS.obj
 0005:0001a6d8       __Str_Odin_Telesystems_Inc_BE4745B86350B05DFCD81CA6B50C9E9027FCB2515DF88386C3A82F00597B369B 000000001010a6d8     guideXOS.obj
 0005:0001a718       __Str_Oki_Electric_Industry_2462222A0BDDC7417A936DB1CE39AD55248206574F24CCDAF7B8D62033242C93 000000001010a718     guideXOS.obj
 0005:0001a758       __Str_Olicom               000000001010a758     guideXOS.obj
 0005:0001a780       __Str_Olivetti_Advanced_Technology_9EA7F655C9AA41BA5B224E268760880C50868D4F95B56DFDC67284C966F9FE3E 000000001010a780     guideXOS.obj
 0005:0001a7d0       __Str_Olympus_Optical_Co_Ltd_9485BBC8B299C79BEF615FF6D7E00DF3192DB772396A33C3DA5D3EE21A16CDE7 000000001010a7d0     guideXOS.obj
 0005:0001a818       __Str_Omega_Micro_Inc_0FC5C09E4F8F36FD984783167CBD2CFB9F53D28B37CB98641912EC2991E75146 000000001010a818     guideXOS.obj
 0005:0001a850       __Str_Omni_Media_Technology_Inc_08488DEF90F73A0FB6A654C02E91F248F05944B3473FA5505ED644211C0468E5 000000001010a850     guideXOS.obj
 0005:0001a898       __Str_Omron_Corp_5DE304FA61E8D004B197D5E4C66AD4006B424859765651803D9408BFAF066D29 000000001010a898     guideXOS.obj
 0005:0001a8c8       __Str_Omron_Corporation_B5A89116C11CFE5178D1E8EF3483757313AC8B19F9B940A9B5D899BEF3E083E6 000000001010a8c8     guideXOS.obj
 0005:0001a900       __Str_On_Screen_Keyboard_757CB2BF631CA776297047B46DCBF50E69A5046009369A14024EC3BBE3739433 000000001010a900     guideXOS.obj
 0005:0001a940       __Str_OnScreenKeyboard     000000001010a940     guideXOS.obj
 0005:0001a978       __Str_One_Stop_Systems__Inc_2A8FFA6920B53F9ACDA7903F6A2B2C24E0AF708207DDC920BA0A5DAEFD48475F 000000001010a978     guideXOS.obj
 0005:0001a9b8       __Str_Onkyo_Corp_91C1BF9391217954AEF8970CD7D4FF72DB1D8FCA4BE735C6A2681C8D7B76EC10 000000001010a9b8     guideXOS.obj
 0005:0001a9e8       __Str_Only_http____supported_88EB6DF14ED25EBC05152D633537A8E87DB23B85A8CE736721CB46F4B611DBF0 000000001010a9e8     guideXOS.obj
 0005:0001aa30       __Str_Only_support_24bit_or_32bit_bi_984E25FAF83A38D5E57070929DCC7CBC85BA94FF70C3BDC698DA775197E0C8C1 000000001010aa30     guideXOS.obj
 0005:0001aa90       __Str_Open                 000000001010aa90     guideXOS.obj
 0005:0001aab0       __Str_Open_Network_Co_Ltd_7F8CB79084758160C19C2AE8D6574F7F1C755BF52C647B6D0E65A9A14926F161 000000001010aab0     guideXOS.obj
 0005:0001aaf0       __Str_Optibase_Ltd_8A8237E9E7EB98C61EE6B70DCA6092EBB0958DE4D9BF50CBD2FCF8B0274CD80F 000000001010aaf0     guideXOS.obj
 0005:0001ab20       __Str_Option_NV_E9274052E34568F2DA12E9B17B88EEDFC624EDF3F18CB2D3EC3CDE14DB476E1C 000000001010ab20     guideXOS.obj
 0005:0001ab48       __Str_Optivision_Inc_E3B03502636D45C791CC1B7060078426786040BFD02B91F64F18F9C6086C189C 000000001010ab48     guideXOS.obj
 0005:0001ab80       __Str_Opto_22_241B57CDB39DBD754AFA09F3528EEE8F3A1CC4F163AF3F5826ACB634DEA9C04A 000000001010ab80     guideXOS.obj
 0005:0001aba8       __Str_Oracle_Corporation___InnoTek_S_BA0624C7E60ED8CBF4A4964D0D811F9996CB9AEBA83516F10159B28BFCE5F4D2 000000001010aba8     guideXOS.obj
 0005:0001ac20       __Str_Orange_Micro__Inc_10BDF63960E93CDB6DF47E45E798F63FECC07B5C8C76D81F4DD207F45AA4DF77 000000001010ac20     guideXOS.obj
 0005:0001ac58       __Str_Oregon_Micro_Systems_Inc_E07CBE1DEDFF434AD55F32FC9B44F4A42EB3DC0FB77E86694C923974A79DF22C 000000001010ac58     guideXOS.obj
 0005:0001aca0       __Str_Osicom_Technologies_Inc_FCC39AFB5A29080D616895C4CA48B403EEA21A4AA225DB81D91FEAA252F15058 000000001010aca0     guideXOS.obj
 0005:0001ace8       __Str_Otis_Elevator_Company_D3E2A10CE272FB7C2C8D008C9BEFE354C09DA03FDBC5140756027B2B5EA38749 000000001010ace8     guideXOS.obj
 0005:0001ad28       __Str_Out_of_memory__no_free_pages___1C9E401B9D1491E765B8BEB91B7F0E4AE44AACC7B39F89097866A2E4CD769CDE 000000001010ad28     guideXOS.obj
 0005:0001ad88       __Str_Overflow_Exception_17237AF782D07A92022A4D5580D2801A70B34EB55F2A9A808C4A85755371880F 000000001010ad88     guideXOS.obj
 0005:0001adc8       __Str_Oxford_Semiconductor_Ltd___now_55078A26B5B67AAE3C342722A67F75A3F9D0944C8BE76FCC43B61647D9748848 000000001010adc8     guideXOS.obj
 0005:0001ae48       __Str_PAGE_FAULT_AC0C9BB7DF0A800C1DAAE3D0672B6A1CC78305DCE93C4796332016D0426511AF 000000001010ae48     guideXOS.obj
 0005:0001ae78       __Str_PAN_International_Industrial_C_9E636674693EED6914DC767C52C9E65F1318CA25DA9D689769557AD63C862D44 000000001010ae78     guideXOS.obj
 0005:0001aed0       __Str_PANIC___18B9166B01C111C4C7D12C937E9C010FAC0A3B1BA35AA56F1A4A9DC62B7F3624 000000001010aed0     guideXOS.obj
 0005:0001aef8       __Str_PC_Direct_509E517DE3E36F641F00408D0E31333398DB38DA91CCD5FE8A1D85FE0461C3CF 000000001010aef8     guideXOS.obj
 0005:0001af20       __Str_PC_Partner_Limited_91FDE4E85EDFE6B64B188DB6345313A7B4AE76F9D5490979DFFDA5C08D25E13B 000000001010af20     guideXOS.obj
 0005:0001af60       __Str_PCTEL_Inc_971904C7EAEFDFBC03963D0BA464E959E2D638192CE80D5D8DA57D0432FF6E55 000000001010af60     guideXOS.obj
 0005:0001af88       __Str_PFU_Ltd_C3AFBE7BA1F96AC1BFF8551D83DE46EE1C494140B64C12AB5CDFD8FBAED7AD37 000000001010af88     guideXOS.obj
 0005:0001afb0       __Str_PINE_Technology__Ltd_102895491967AD089FF5A5328A68F57BD937AFE9B87C36E9A6BA652A5DD4F6E8 000000001010afb0     guideXOS.obj
 0005:0001aff0       __Str_PING__7A251078D695F88863C3CBDD07A512994F3BA70B77B7BA31600DF0998275F7E9 000000001010aff0     guideXOS.obj
 0005:0001b010       __Str_PLDA                 000000001010b010     guideXOS.obj
 0005:0001b030       __Str_PLX_Technology_Inc_26A55268CCDF266F7579A74A2F28F239CB62E706062ADC132AD4A709CFEF9C52 000000001010b030     guideXOS.obj
 0005:0001b070       __Str_PMC_Sierra_Inc_32C159E77F417A2F2B214ED771466EDB0596784B56B8E5735199342E8EDAFD62 000000001010b070     guideXOS.obj
 0005:0001b0a8       __Str_PONG__E66039F9F26E46D3AD1FFCAE3C3C8DBBCF2C5BC075480F5B0D488A51BE7174A6 000000001010b0a8     guideXOS.obj
 0005:0001b0c8       __Str_POST                 000000001010b0c8     guideXOS.obj
 0005:0001b0e8       __Str_PPT_Vision_0F66683FE68E052EE78A21373159E644FA080654AB69ADF1C947D740E0C9A3A8 000000001010b0e8     guideXOS.obj
 0005:0001b118       __Str_PRIVMSG__54DA30C469639D8D6D89D53BA03452F444139304B1566EEF45E98CBB9CDF1800 000000001010b118     guideXOS.obj
 0005:0001b140       __Str_PX_Instruments_Technology_Ltd_DB0CBCD6C731F15AA2B6239C5ED9294B0023453C6C4E852F29144B10696042AC 000000001010b140     guideXOS.obj
 0005:0001b190       __Str_Pacific_Broadband_Communicatio_08FBD76E305918F3D8FCD1E9FACDA9A50F76463BC6CFFE3D160AB9BBF1D8305D 000000001010b190     guideXOS.obj
 0005:0001b1e8       __Str_Pacific_Digital_Corp_DBAFF23EED4BA882251F45662F6C97E95069278FF159FFD2ADADF17796A6B926 000000001010b1e8     guideXOS.obj
 0005:0001b228       __Str_Packard_Bell_ED15B9729671ABF48A972DE637C8665399C831C02169828475A623B9AEF1D64E 000000001010b228     guideXOS.obj
 0005:0001b258       __Str_Packet_Engines__Inc_E6759A2A20B4751DC5E07B60BB550E74FAD997AFFD134F6EB5FD11250E00FB6E 000000001010b258     guideXOS.obj
 0005:0001b298       __Str_Paint                000000001010b298     guideXOS.obj
 0005:0001b2b8       __Str_Paint___Initialization_Error_677AF6A035946D0533008FAB35383EDE491D855365E037ADE3C8CD72B35F5033 000000001010b2b8     guideXOS.obj
 0005:0001b308       __Str_Paint_not_properly_initialized_B9D4524338935EE45599821AE17D87920FF1A20E7F1AB307E47BF1C32E7D71AF 000000001010b308     guideXOS.obj
 0005:0001b360       __Str_Pairgain_Technologies_BC2A2C568F5F83433FDF1A96CB0F4A7C9E9295BC96D9063FA3405ACBB1FD9558 000000001010b360     guideXOS.obj
 0005:0001b3a0       __Str_Palit_Microsystems_Inc_FB122F85C617D33A397DF577105A86BED2F000F0ABBA631F46F7372486D34FBE 000000001010b3a0     guideXOS.obj
 0005:0001b3e8       __Str_Panacom_Technology_Corporation_450165E7DD1975024B956A4300220572816C4E59EF628A08B0E9BEF38CD227AC 000000001010b3e8     guideXOS.obj
 0005:0001b440       __Str_Panda_Platinum_1F94E460BF03F8312C7FF6DE0DAA483FF2DC4BD09196FCA43ED0E5BF1D255CB1 000000001010b440     guideXOS.obj
 0005:0001b478       __Str_Parador              000000001010b478     guideXOS.obj
 0005:0001b4a0       __Str_Paradyne_Corp_E2DACA2B50CEE326A77AA5EC78BD390E9CC3A990BF1AC09557B49F82E3A967CF 000000001010b4a0     guideXOS.obj
 0005:0001b4d0       __Str_Parallax_Graphics_D23D7E04B067C12BB1E51DFB115067E741BD2D9A39787A972D5C07961B3ECE27 000000001010b4d0     guideXOS.obj
 0005:0001b508       __Str_Parent_directory_not_found_F2F2A864AF0F929C9BA900E0591EAAD862AB05C4A72C9441F3FCCF229F7803E6 000000001010b508     guideXOS.obj
 0005:0001b558       __Str_Parsytec_GmbH_1EE08BB9EDD7746BC2BFC176BF00C8B51A6308989D8764032E17029DBD7A067B 000000001010b558     guideXOS.obj
 0005:0001b588       __Str_Partition_created__Refresh_to__E1EAF8A25F1A02CE47ED5E40BD5178917D3C797D890A24364C656F8A35127706 000000001010b588     guideXOS.obj
 0005:0001b5e8       __Str_Partitioning_supported_only_on_88DBBB0D86E72927A7306E49C754D1C9B4650A28014E2BB252056523135FC809 000000001010b5e8     guideXOS.obj
 0005:0001b658       __Str_Patapsco_Designs_Inc_78B70D36B09F72CFE8DF4B7AD3121B00C62EF2654EE4EE65530E29209A9D3B77 000000001010b658     guideXOS.obj
 0005:0001b698       __Str_Path_refers_to_a_directory_79DC08CB02E3A8A7822A8039D35B0F7667C9B771D280FE87A9472D2BE9C7E79C 000000001010b698     guideXOS.obj
 0005:0001b6e8       __Str_Pathlight_Technology_Inc_4963761E0C5A3DC8162171F4C48602808357866A59B78C40017007AD75EE66ED 000000001010b6e8     guideXOS.obj
 0005:0001b730       __Str_Patriot_Scientific_Corp_134C6462222A24D2944F314ECA1D382A3928E79018CC6763CAF2EF21805769B1 000000001010b730     guideXOS.obj
 0005:0001b778       __Str_Peer_Protocols_Inc_52DD121B528475C807A219CAB65C18F0245F97630668D6ADE470532325C48D30 000000001010b778     guideXOS.obj
 0005:0001b7b8       __Str_Pelago_Networks_2A2596AD8EFF3F3809AACE12082F5DA7B9F61BED40DC095A54159718C964A83B 000000001010b7b8     guideXOS.obj
 0005:0001b7f0       __Str_Pencil               000000001010b7f0     guideXOS.obj
 0005:0001b818       __Str_Penta_Media_Co_Ltd_587C874765A3D2527B6C686803388C0D1AC292F28B27DF41C8D0E264645B615A 000000001010b818     guideXOS.obj
 0005:0001b858       __Str_Pentek               000000001010b858     guideXOS.obj
 0005:0001b880       __Str_Pentland_Systems_Ltd_B5D0E33222204F5D8DA663EB60D084F2884D70F7209F263FFA7FA26E75ABC83A 000000001010b880     guideXOS.obj
 0005:0001b8c0       __Str_Peppercon_AG_7A0278BFA714EE296FCD8B996BE36B0FBD07B73CEED059BB085830505212FE77 000000001010b8c0     guideXOS.obj
 0005:0001b8f0       __Str_Perceptive_Solutions_Inc_29A5268B8094A12C6CC310862F1F5E67A62E6C9512E15D5BFF4D751201E3CB2B 000000001010b8f0     guideXOS.obj
 0005:0001b938       __Str_Performance          000000001010b938     guideXOS.obj
 0005:0001b968       __Str_Performance_Optimization_Setti_D7995AC45F2C2A7CF93DE2D4F571F74C6C47B5FEA64A31CABE3137BD9BDA8997 000000001010b968     guideXOS.obj
 0005:0001b9c0       __Str_Performance_Technologies_Inc_E7F52A29A92B622F6BEB47A4FADC4ABECE4E758B6958D822A3DD8BFBC37D3D75 000000001010b9c0     guideXOS.obj
 0005:0001ba10       __Str_Performance_Widget_2F20D209730CDFC5CB144FE9081E5C2B0A709AF230E15A55EC0E6F4906664305 000000001010ba10     guideXOS.obj
 0005:0001ba50       __Str_Pericom_Semiconductor_9F1BE433E85714C63C46777380953D07ED95AF66777F36574D8A82E8A09085F7 000000001010ba50     guideXOS.obj
 0005:0001ba90       __Str_Periscope_Engineering_584D05949A41BFBF25C76523F4B3B9020566E29D29D084E0828684F2341853A3 000000001010ba90     guideXOS.obj
 0005:0001bad0       __Str_Perle_Systems_Limited_AC2AA8E88C5C6E3EA1CD4B8095B5AB967A32827B44A18626CE4AABBC6E42FE44 000000001010bad0     guideXOS.obj
 0005:0001bb10       __Str_Philips___Crypto_40B997D9861DE95DBD52490526F6D013E3EF3EBCAC80B2F7273B2FB319C8F09B 000000001010bb10     guideXOS.obj
 0005:0001bb48       __Str_Philips_Business_Electronics_B_4246CC29D51104A71FFA46BF6E4DD469479D9AF544AAD060D546DFAF36F2B955 000000001010bb48     guideXOS.obj
 0005:0001bba0       __Str_Philips_Healthcare_1B9544B9FC78BCD7AC98DFA1D02BCA465177C57277BF8FFB34029FF22A5680D7 000000001010bba0     guideXOS.obj
 0005:0001bbe0       __Str_Philips_Semiconductors_12E4FD6A6C5C115A1DA31B3F3F46E119931297B4A97CB57AB648FF118799F237 000000001010bbe0     guideXOS.obj
 0005:0001bc28       __Str_Phillips_Components_B00A70C50A998A12659B049AEBDB1DAC8AFD0C84692F14F346FE81467B05E9DF 000000001010bc28     guideXOS.obj
 0005:0001bc68       __Str_Phobos_Corporation_51883516A86BC4C8480476D381BB15AFA0C54C12B4D4339C9AB116E7503A192D 000000001010bc68     guideXOS.obj
 0005:0001bca8       __Str_Phoenix_Technologies_Ltd_F6EBCECB9ABF957C4F2120BABF44C9349FFEC8358311848557957FBEBB564F8E 000000001010bca8     guideXOS.obj
 0005:0001bcf0       __Str_Photoscript_Group_Ltd_D757DB638B4577EAAF9FF69FD81DA6787A64D15881D3A0812690C83908DCC546 000000001010bcf0     guideXOS.obj
 0005:0001bd30       __Str_Photron_Ltd_3EBA193C81172BABB292053E1B3D5E21EBA8C05CBC29A10C448355426DD29D1F 000000001010bd30     guideXOS.obj
 0005:0001bd60       __Str_Picopower_Technology_43A63679E868A60217312960C071CC95B66DE52488B175E371A64D02ED630268 000000001010bd60     guideXOS.obj
 0005:0001bda0       __Str_Picture_Elements_Inc_E0B2B6B6AEA10F5B6E1EEB2E96BC5A590AE4A7EBF3328C682CD579E938EB5E16 000000001010bda0     guideXOS.obj
 0005:0001bde0       __Str_Picture_Tel_Japan_KK_D90083FAA7B2F2A0072431C0D885F98045887D21776F80645E9D70B3D3990080 000000001010bde0     guideXOS.obj
 0005:0001be20       __Str_PictureTel_Corp_1AA3ED8C8EBD7DD433A83E931EC6E6F02D10BE52C943BC1EAF5FEAB38768A7DF 000000001010be20     guideXOS.obj
 0005:0001be58       __Str_Pine_Technology_Ltd_B4DE6B47E6DB09BCF52EE15763A6929D229C940E788263DD2965AED949DF8FB8 000000001010be58     guideXOS.obj
 0005:0001be98       __Str_Ping_already_in_progress__plea_882C4D78D5E0BC83050AF5CB3AB02C9EF522A42F84E317D0FB4DCD07C575B515 000000001010be98     guideXOS.obj
 0005:0001bf00       __Str_Ping_failed__network_error__68B397D623701B0BD05B25BBD73ABF5F4158F4504AAB07C9428275DF55660A46 000000001010bf00     guideXOS.obj
 0005:0001bf50       __Str_Ping_timeout_F601BAC12765CAE1A72771AF5804CA7CFCF3531FD45657EA2FB490111509FBA1 000000001010bf50     guideXOS.obj
 0005:0001bf80       __Str_Pinging__0___1___2___3__with___3C778A29DE167ACA644FECDBEF24B4198FCFEB254BADFA3333346B8635E9AF99 000000001010bf80     guideXOS.obj
 0005:0001bff8       __Str_Pinnacle_system_78A643B642AD4409E53BD689238D98253A3883150182BC115DBC484AD4737540 000000001010bff8     guideXOS.obj
 0005:0001c030       __Str_Pioneer_Electronic_Corporation_AB53688D0869CC0F4650205882DEA09ED2CBB7320E94497B64A0C44F2E98A247 000000001010c030     guideXOS.obj
 0005:0001c088       __Str_Pixera_Corp_3752A1E491BD690B9E3CDC1450F75987DFD7546AC3715C1D386A21A8C7BDE39A 000000001010c088     guideXOS.obj
 0005:0001c0b8       __Str_Pixstream_Inc_442B10FC987FAADBC1C5D2CE89DC25B97E96215ED1F06AEF340665EC6CB22A48 000000001010c0b8     guideXOS.obj
 0005:0001c0e8       __Str_Planex_Communications__Inc_910BA443A82DEF5ADD62BD69F358ABC680BBED36D246E12960B45C73459285A2 000000001010c0e8     guideXOS.obj
 0005:0001c138       __Str_Plant_Equipment_Inc_0D12A83C804D8CC88E5EC681388AEF06FABC99339003A9AF7CD23C902AA539F0 000000001010c138     guideXOS.obj
 0005:0001c178       __Str_Platform_Technologies_Inc_F97819099E54A317E5AF39EF4ADE696093176826DFFF65BE6B53AF58B07805E9 000000001010c178     guideXOS.obj
 0005:0001c1c0       __Str_Playing___14AEC08E8DC91D73BE51B9C962FDF20C9B37C67B9945CF01643FFC01942F827A 000000001010c1c0     guideXOS.obj
 0005:0001c1e8       __Str_Please_save_this_information_a_5DD8B285C539F360E95BB50E5CDDBCF8C977C3446A17EF59583FFA286C1FFA2F 000000001010c1e8     guideXOS.obj
 0005:0001c278       __Str_Please_select_a_font_36B802AD6B2E8CD270B2F5ED05C207EB4DBDDDE336B42746C3AE5EEBCFB84610 000000001010c278     guideXOS.obj
 0005:0001c2b8       __Str_Pluto_Technologies_Internation_A744AF0D0383835E713FFFABB03223CCCD12A5F7018AD4C8B9F0C75628CD2B84 000000001010c2b8     guideXOS.obj
 0005:0001c310       __Str_Point_Multimedia_Systems_B5635E84FD7FFE54400212FED0CD5C6FCFCAF63F35DD2A73B875EF8FCD192E6B 000000001010c310     guideXOS.obj
 0005:0001c358       __Str_Port                 000000001010c358     guideXOS.obj
 0005:0001c378       __Str_Portwell_Inc_99820425709A9C103B0C1351F5C78088FC62CCD39FF68BB5B8461BC1C3776CC6 000000001010c378     guideXOS.obj
 0005:0001c3a8       __Str_Power_Computing_Corp_1391EF29A32AB06139436EFB3699CF9F44B3326FD584F2639B18B8BCFF7E300A 000000001010c3a8     guideXOS.obj
 0005:0001c3e8       __Str_Power_I_O_Inc_D47307FC05772FBEB90159BDD98C93B36FD20251FEDFF611F6AE4D1EE6CC8738 000000001010c3e8     guideXOS.obj
 0005:0001c418       __Str_Power_Micro_Research_B05D3BC762F0FBF23599EF91D5D4D7D35AF95B0B48BE623859B200A500DB17FD 000000001010c418     guideXOS.obj
 0005:0001c458       __Str_Powermatic_Data_Systems_Ltd_7464C1FBB0CA8DEAA2DF0D1A3DC9419DCCBAFC20E7A3CF4F87842BC722727223 000000001010c458     guideXOS.obj
 0005:0001c4a8       __Str_Precision_Digital_Images_F0952804EF5E7DA7CE141808128A863A536C6529D22E877C4CD2BD33E01C3990 000000001010c4a8     guideXOS.obj
 0005:0001c4f0       __Str_Preferred_DNS_server__3184FAED352ED774DA9F06FCFC4C7B0FCEEA6DB013170E8FEECD03838C13883A 000000001010c4f0     guideXOS.obj
 0005:0001c530       __Str_Present              000000001010c530     guideXOS.obj
 0005:0001c558       __Str_Press_Esc_to_close__Double_cli_87354344FCB3B6DC4F734240928D76FAEEAD8FFEAAEDC6D76824BA8BAC2EB19C 000000001010c558     guideXOS.obj
 0005:0001c5e0       __Str_Press_RESET_button_or_power_cy_763BF6A9E46241E834936B0A50DBD2379028B3B12368126EA4A0E27837CC9D85 000000001010c5e0     guideXOS.obj
 0005:0001c668       __Str_Press_W_or_Up_Arrow_to_unlock_3D98A364B179911418DD1FCB3A6D92AF94DF8A37D23EE0BF7406BF94DE8C6423 000000001010c668     guideXOS.obj
 0005:0001c6b8       __Str_Primagraphics_Ltd_E87CE5391A76ECF8DBD0392C04632658C0950946D9A718AE4F56D2E8B144328C 000000001010c6b8     guideXOS.obj
 0005:0001c6f0       __Str_Primary_Rate_Inc_8179425528818A9B0576EB5405DEEA71F94041572A3EB1E8959FA3CBA615FCC8 000000001010c6f0     guideXOS.obj
 0005:0001c728       __Str_Primex_Aerospace_Co_51EB86127DAEF57D505698861897423E40E73A55DFC22D22E8AE8DAA9ECA8C61 000000001010c728     guideXOS.obj
 0005:0001c768       __Str_Prisa_Networks_63932DC182B11A4CA85D20606F9D1EB157B2DDA4756B49E01EF90A4710E9A1DD 000000001010c768     guideXOS.obj
 0005:0001c7a0       __Str_Privilege_Level__Ring__0___1__9BE10ADC87417631D2309B06B84AC2EE20AD5BCF093FBB5C9EF3A267C29679B8 000000001010c7a0     guideXOS.obj
 0005:0001c7f0       __Str_Processes            000000001010c7f0     guideXOS.obj
 0005:0001c818       __Str_Processes__3F50B82D6B42E127C0D2DE5D184F533C045BCE149D4726465BC1356DB205EC35 000000001010c818     guideXOS.obj
 0005:0001c848       __Str_Processing_accelerators_74B60FC4FD0F94701A0A213F310212D0B30D4625F7F2265AE2D81102608D1DB5 000000001010c848     guideXOS.obj
 0005:0001c890       __Str_Processor            000000001010c890     guideXOS.obj
 0005:0001c8b8       __Str_Procomp_Informatics_Ltd_0896422A76CE7808FA48D5969AC13910C677F7140451BEAEC95534CFA2EA203A 000000001010c8b8     guideXOS.obj
 0005:0001c900       __Str_Programs_hello_gxm_4603ABD3C528269C73B391B884318ABC85926E98ECA363837DCC3AFC2CDEC08E 000000001010c900     guideXOS.obj
 0005:0001c940       __Str_Programs_minimal_gxm_30FDFF27E9AF61217939490BC3D0F10B03B6C9E0AD406515E4772E2B5C3D343A 000000001010c940     guideXOS.obj
 0005:0001c980       __Str_Prolific_Technology_Inc_3F16A5C513019E9504BE979010352C26C931ABCBE074290A5AD32A8A3EDC36CD 000000001010c980     guideXOS.obj
 0005:0001c9c8       __Str_Prolink_Microsystems_Corp_22C861F4E85DA3BEBC1B64EEF3D94E156887BC3DA7479022B3DA108DE42135B7 000000001010c9c8     guideXOS.obj
 0005:0001ca10       __Str_Promax_Systems_Inc_83E9BFFC14D591130298DE27AE2021A71593F82C8A38A71B1C9B04A3F5E87013 000000001010ca10     guideXOS.obj
 0005:0001ca50       __Str_Promise_Technology_3F1440AABD793E967249F3FFDE671CE0554D28131ECF86A2D5B40BD8307D8F18 000000001010ca50     guideXOS.obj
 0005:0001ca90       __Str_Prophet_Systems_Inc_7099497A51A71FB42EF59A8C5A32B269BF81D28F0A01FEFCB068AAC6C927BC28 000000001010ca90     guideXOS.obj
 0005:0001cad0       __Str_Prosys_TEC_Inc_ADA75385ECDAF4A4C7BA42BF00B8DD3B9C89F27C9E379EE230C4845DFE5F4F18 000000001010cad0     guideXOS.obj
 0005:0001cb08       __Str_Protac_International_Corp_D04BFB3A7DA2D0635F8065CD2776CF22195A8C144D9A8E07A23E90A46774F765 000000001010cb08     guideXOS.obj
 0005:0001cb50       __Str_Proteon_Inc_8E755B752DAD9311527A63AD28594105C932E83BE456893BF6640B9B3223BE13 000000001010cb50     guideXOS.obj
 0005:0001cb80       __Str_Provideo_Multimedia_Co_Ltd_653627DD020D4097CF40D3593854D245AE8DD9E61F7C63FFBCF0C47D2A3CC1FC 000000001010cb80     guideXOS.obj
 0005:0001cbd0       __Str_Proxim_Inc_1EB95DCB425CA0900D5E77B11B0024010F3624001E5BEF8BA527AE8733B71E39 000000001010cbd0     guideXOS.obj
 0005:0001cc00       __Str_Psion_Dacom_PLC_B293DB36D6EF878467305CB16D8EE5F2F25A5674FCA3F70EB5446102594E7718 000000001010cc00     guideXOS.obj
 0005:0001cc38       __Str_Pure_Data_FC55F022D0C6D961F62C19B5ABF30B7DC9F54EAB7576FA5011E1DF739BF59274 000000001010cc38     guideXOS.obj
 0005:0001cc60       __Str_Purup_Eskofot_A_S_C277555CBD6FB38C7A90B7E427C4C4A9D09D1B16C12B8EA72DE87906C4589B09 000000001010cc60     guideXOS.obj
 0005:0001cc98       __Str_Pyramid_Technology_508253E747B4DAF3567F483609E845CA497F7B55732C6B74930EEDBC0143128C 000000001010cc98     guideXOS.obj
 0005:0001ccd8       __Str_QLogic_Corporation_A321B8A0905C9EE11012F969CF970EEF155480FAF1EC02FD47FE79873A71EB0E 000000001010ccd8     guideXOS.obj
 0005:0001cd18       __Str_QUIT___B7FE3DB639277082FF945E71A37D21861E67D7368B254D9B3F05A286ABAD2EC9 000000001010cd18     guideXOS.obj
 0005:0001cd40       __Str_QWERTYUIOP____3C4DCE0B4D151B9E8D6DC85681FECF3D94626EE65B65C0ABA11681B5CF36BA0B 000000001010cd40     guideXOS.obj
 0005:0001cd70       __Str_Quadrics_Ltd_36A1475B84F2996606923F5E8D5F0EAFED2541A110BF084FE0E45F6E7042F950 000000001010cd70     guideXOS.obj
 0005:0001cda0       __Str_Qualcomm_Inc_USA_DCDA21B92C4AA93DD1587A7007C356C7E44EAA85BCCFB2F274C85872B67C1897 000000001010cda0     guideXOS.obj
 0005:0001cdd8       __Str_Quanta_Computer_Inc_82DB575EA48152BC268B9800A1003DE855152154E82F6D9EDEA799F10F7D8486 000000001010cdd8     guideXOS.obj
 0005:0001ce18       __Str_Quantel              000000001010ce18     guideXOS.obj
 0005:0001ce40       __Str_Quantum_Corporation_8CCEC303A50A902E850B753579984804569030ED7D9072CC037C8D3065839A10 000000001010ce40     guideXOS.obj
 0005:0001ce80       __Str_Quantum_Data_Corp_49EC29320DBC8A6F1230B811B80155C57ED127DA149415E950817E563F919939 000000001010ce80     guideXOS.obj
 0005:0001ceb8       __Str_Quantum_Designs__HK__Inc_0C8EACB5F74182B21B3BAEB2D2373B7E69DBE9471069C0CCA77B3232F7C8A28B 000000001010ceb8     guideXOS.obj
 0005:0001cf00       __Str_Quantum_Designs_Ltd_B67667E3FF081269504A253B7A80CAF20566B2595D20AA0131538E60A60E2211 000000001010cf00     guideXOS.obj
 0005:0001cf40       __Str_Quatech_Inc_394B453E9F2CC698763E89AC989B4269191FE9792F2958C5FA445581D31AD5B0 000000001010cf40     guideXOS.obj
 0005:0001cf70       __Str_Questra_Corp_782352F56AE377A5B5674BB53B243A670EA9B3F89852B1548C33BC83451F7634 000000001010cf70     guideXOS.obj
 0005:0001cfa0       __Str_Quick_Test_Window_F946A03C99747ACD671368086BE49BA7623143500599BDA35D3D1073445E70E4 000000001010cfa0     guideXOS.obj
 0005:0001cfd8       __Str_Quick_Serv_Computer_Co_Ltd_02C16A493DAE440844D2F90FA21E40D958477CB5EAFE6CB5006DD35230E8C666 000000001010cfd8     guideXOS.obj
 0005:0001d028       __Str_Quicklogic_Corp_3CC9BCF3F30FFB32C69888BD1A61D850B6AB738E2C3754EA394B8096C98F01C8 000000001010d028     guideXOS.obj
 0005:0001d060       __Str_Quicknet_Technologies_Inc_72C0713A19084B53990C39E675FA5D0D68064FCFC0E98D26A8EA2EBD62C906D4 000000001010d060     guideXOS.obj
 0005:0001d0a8       __Str_Quickturn_Design_Systems_66EB5CD568E3882D0EDB205109E4B237B2504EAEDE72B3CDE980B655F756EC5F 000000001010d0a8     guideXOS.obj
 0005:0001d0f0       __Str_R10__0x_0_X16__8A335F6B61B6803C0196E3E6965E48DEABFA178CBFF9297204CF49937B742D8D 000000001010d0f0     guideXOS.obj
 0005:0001d128       __Str_R11__0x_0_X16__1880A14E973784117630329168536C678E8CBD8EF9563E537E1C4798FC7093A6 000000001010d128     guideXOS.obj
 0005:0001d160       __Str_R12__0x_0_X16__C022A79CF6DEB9C77451D7D445D1A572C934FCF1D567F8EF4753D7FED75CE0A4 000000001010d160     guideXOS.obj
 0005:0001d198       __Str_R13__0x_0_X16__1805397FBA4CD584DEC3F97E2C87CF14FB5C127F32E4BAD1DA2C90731BF902F9 000000001010d198     guideXOS.obj
 0005:0001d1d0       __Str_R14__0x_0_X16__FE3C8CFB8E99D82A3158EFBB237B7813603CFCAA77B9D0C0BAB90F9DC9A5BA56 000000001010d1d0     guideXOS.obj
 0005:0001d208       __Str_R15__0x_0_X16__CDA420A1DDC4E0E2789D189903B1234F4706CE37935C1339172CEFE75500EA06 000000001010d208     guideXOS.obj
 0005:0001d240       __Str_R8___0x_0_X16__0E8FF38F301C646441F13BD4A977E0E1C96D6CF804243BA2BA46E44D06F5BB27 000000001010d240     guideXOS.obj
 0005:0001d278       __Str_R9___0x_0_X16__A0D2C9AD5C0FE9B11BAA00952EF846115F2472910070EE84838E0F42AE4451FC 000000001010d278     guideXOS.obj
 0005:0001d2b0       __Str_RAM                  000000001010d2b0     guideXOS.obj
 0005:0001d2d0       __Str_RAX__0x_0_X16__ADD27531EDB123F284325A39D62B41B4784B65E70640AEE7954AA8B9867C3E22 000000001010d2d0     guideXOS.obj
 0005:0001d308       __Str_RBP___not_saved__A55E84F37B5F6C851276685F21335A93EC3AFA4E422E76FBA45EC079576F2869 000000001010d308     guideXOS.obj
 0005:0001d340       __Str_RBX__0x_0_X16__1DE5875FDFD5B6454014C9A978133CAF331049F2D0E8C1ECAFA214DFBB1795E9 000000001010d340     guideXOS.obj
 0005:0001d378       __Str_RCX__0x_0_X16__3F2D7B9ECBD6CBE6A91446C8B4F30DEFE3928064A8BC9A8E712A258945C0B727 000000001010d378     guideXOS.obj
 0005:0001d3b0       __Str_RDC_Semiconductor_Co__Ltd_137649B488236DE7DE094345808183FCEE2A964C7FC1BAA7349AAF0F57CAD4C9 000000001010d3b0     guideXOS.obj
 0005:0001d3f8       __Str_RDI__0x_0_X16__1A75E5D01DB4E0E1A00EA6C009E0E4AFEEC9DF6CCE0FAC60ED38B0C00078CB05 000000001010d3f8     guideXOS.obj
 0005:0001d430       __Str_RDX__0x_0_X16__47E128CFB0CC23840ACD785CEF9A2257EA9A085AAEDE85733A4F658290A323AA 000000001010d430     guideXOS.obj
 0005:0001d468       __Str_READ                 000000001010d468     guideXOS.obj
 0005:0001d488       __Str_REGISTER_DUMP_AF5C65A260869A03427980D6CA747BBC7E39BEB166239A51A61F2237CC7A979E 000000001010d488     guideXOS.obj
 0005:0001d4b8       __Str_RESIZABLE            000000001010d4b8     guideXOS.obj
 0005:0001d4e0       __Str_RFLAGS__0x_0_X16__11A29B65EDE17575EAC44F98727ABB2E6410CA9A5A59FF7706880E2938CC90D5 000000001010d4e0     guideXOS.obj
 0005:0001d518       __Str_RSI__0x_0_X16__D8DF2103960AC7C9A214BF1A1B96357F512641E39DA3B1058BE60E6A94EDEA76 000000001010d518     guideXOS.obj
 0005:0001d550       __Str_RSP__0x_0_X16__7092395D4C80909784475C7230F43B8C7500DD74E533CDB34941CFBDA5A7896D 000000001010d550     guideXOS.obj
 0005:0001d588       __Str_RTD_Embedded_Technologies__Inc_70C054791DC286B33B520348C4C9FD389BCD0209BFB941169D992EE1152F1ADA 000000001010d588     guideXOS.obj
 0005:0001d5e0       __Str_Racal_Interlan_5419DBF4EE116BCE3FD80471F2685ADD6C30B558F0E5C73B2258C1D631DF1598 000000001010d5e0     guideXOS.obj
 0005:0001d618       __Str_Racore_Computer_Products_00009C3CEEB7D4FD987784C412D9DEBBF6A4BC50A9BD2835A3BF07729EED443D 000000001010d618     guideXOS.obj
 0005:0001d660       __Str_RadiSys_Corporation_9C1BF19FC7F6F9D114085838D6DECDC3F4E8306B8C7F8C075D7961C315552EB0 000000001010d660     guideXOS.obj
 0005:0001d6a0       __Str_Radiolan             000000001010d6a0     guideXOS.obj
 0005:0001d6c8       __Str_Radius_Inc_7C2C1DA07C812DB51A5600AC157D81BBC20EF7CBCC3E452CBBBA17CA49A78B61 000000001010d6c8     guideXOS.obj
 0005:0001d6f8       __Str_Radstone_Technology_Ltd_3AF9AC93EACF37C85A525C55E833AD98CA824AF8FEBC8F15DE8DBFB638ACE9F6 000000001010d6f8     guideXOS.obj
 0005:0001d740       __Str_Rainbow_Technologies_4699DF18D0DA12A65E3678AEA83362643ED47AD56D6077B2BCA3EEE3E5F0B860 000000001010d740     guideXOS.obj
 0005:0001d780       __Str_Ralink_Technology__Corp_3EA16B416D833CE72ABECF76639181C7ADA852F061549A131AB08B0947801A8B 000000001010d780     guideXOS.obj
 0005:0001d7c8       __Str_Rambus_Inc_25369DF47B6BBB520CB2F4DD5E721EC3CEF808B606093E25066657F342305575 000000001010d7c8     guideXOS.obj
 0005:0001d7f8       __Str_Ramix_Inc_BA642C616129EB44313BCD99F866EED7056E2A62FE591EC745D20792C007AE94 000000001010d7f8     guideXOS.obj
 0005:0001d820       __Str_Rapidstream_Inc_17E4D53871CC8C10CF4FA21AF2472F66970F558D9CE6DAE0A6E86E9594307CBD 000000001010d820     guideXOS.obj
 0005:0001d858       __Str_Rascom_Inc_99767D91772670BDE536365087FB01F3A0181C042CF136C49255159AAB196CAE 000000001010d858     guideXOS.obj
 0005:0001d888       __Str_Rasterops            000000001010d888     guideXOS.obj
 0005:0001d8b0       __Str_Ratoc_System_Inc_5AF3085FA47E2259D8DACE796013EAF696DF881F550F220614A90B7247C46CBF 000000001010d8b0     guideXOS.obj
 0005:0001d8e8       __Str_Ravicad              000000001010d8e8     guideXOS.obj
 0005:0001d910       __Str_Raychem              000000001010d910     guideXOS.obj
 0005:0001d938       __Str_Raytheon_Company_DB6506319722137F24F084F393D2B8996F4344E22AD8E334A25F1664AE710F18 000000001010d938     guideXOS.obj
 0005:0001d970       __Str_ReFLEX_CES_0EABE9623AB376422448E7DD932D11D43FA0E5D8353A9CEA6D456019B01FA398 000000001010d970     guideXOS.obj
 0005:0001d9a0       __Str_Read_speed__F1997AC18A824ACBB50C65B6F426AA35CAC09CD005912FB1F6A6B7AF42BA2374 000000001010d9a0     guideXOS.obj
 0005:0001d9d0       __Str_ReadAllBytes         000000001010d9d0     guideXOS.obj
 0005:0001da00       __Str_Real                 000000001010da00     guideXOS.obj
 0005:0001da20       __Str_Real_Name_FD982EE9E911D0BB8E3325A5E342F7D498023FB724106DFE00E49307C3B74AA0 000000001010da20     guideXOS.obj
 0005:0001da48       __Str_Real_Time_Digital_Inc_B2CD6FFEA1861F6AC849195DFE97B4A24F4163CF298FE8AF23BBB64C918B8010 000000001010da48     guideXOS.obj
 0005:0001da88       __Str_Reallocate           000000001010da88     guideXOS.obj
 0005:0001dab8       __Str_Realtek_Semiconductor_Corp_63D8791F4A4FC24AB9E1BDFA70E63FF2BB752E9B30D47D575346DFF17A88FCA2 000000001010dab8     guideXOS.obj
 0005:0001db08       __Str_Rearden_Steel_BFF5AEBB3E87FB8A59D3C1EB1D6AF1E828843E2F7F90206ABD281C3763ECC6FB 000000001010db08     guideXOS.obj
 0005:0001db38       __Str_Reason__Instruction_fetch_from_DF243A31D8FBC5433B6A41AA35CF376E0091AFB32BF7A567D22EA7074FC8F4FE 000000001010db38     guideXOS.obj
 0005:0001dbb8       __Str_Reason__Reserved_bit_violation_5D0BB635CE1CD36C9E0EF42E677F135E94E38350BA558CBB7E4C790FA446BD65 000000001010dbb8     guideXOS.obj
 0005:0001dc10       __Str_Reboot               000000001010dc10     guideXOS.obj
 0005:0001dc38       __Str_Receive__2F79C72FB02734D9407EFDD898B6C396B8E16099AEDC3F4A2D4C0B1A8C548F0E 000000001010dc38     guideXOS.obj
 0005:0001dc60       __Str_Received_bytes__6D4147DF05EB13A06021DEBE236E7E54F68087B5612C604D2AD4AE054196EB89 000000001010dc60     guideXOS.obj
 0005:0001dc98       __Str_Recent_Documents_252F310649EFFC8D6820E293C0CCE9CE0E4F325A04BF8F2A6808A5B7C1D2DC94 000000001010dc98     guideXOS.obj
 0005:0001dcd0       __Str_Rect                 000000001010dcd0     guideXOS.obj
 0005:0001dcf0       __Str_Refresh              000000001010dcf0     guideXOS.obj
 0005:0001dd18       __Str_Register_OK__Now_run_authlogin_FCC76EE2546706AFDCA5D5170F0FA94C187E78C4B8A6E4C6493B0159F10F1E59 000000001010dd18     guideXOS.obj
 0005:0001dd70       __Str_Register_failed___533C7CBEA5B5C1E583DEE05B00BD2655FA84CC42881041588AFE6D754C90B210 000000001010dd70     guideXOS.obj
 0005:0001dda8       __Str_Registration_failed_B4692F972AD2E1767C355F99AF79FC0A52D0C9E0E3FAAC4AF5510AE1877512FD 000000001010dda8     guideXOS.obj
 0005:0001dde8       __Str_Releasing_IP_configuration____14B33226A7C880CEE496477D47164B008B91AE41577AD1DF84E69BD0E06DC8B2 000000001010dde8     guideXOS.obj
 0005:0001de38       __Str_Reload_All_Demos_555D385D384C387E2F47EBE1533112D6113AB3E0115E4ED03AC2A9E048F643B1 000000001010de38     guideXOS.obj
 0005:0001de70       __Str_Remove               000000001010de70     guideXOS.obj
 0005:0001de98       __Str_Rendering            000000001010de98     guideXOS.obj
 0005:0001dec0       __Str_Rendering____88E63B709A61F844E6E30A8BF66EA8C33F58FB8CC7887AAC962B95A13DD9A294 000000001010dec0     guideXOS.obj
 0005:0001def0       __Str_Renesas_Electronics_44056ECCAACF3FA426B591EAC77EAA167A535B19001959BD00F33DCED2677277 000000001010def0     guideXOS.obj
 0005:0001df30       __Str_Renishaw_PLC_6207C28E752A9C08F47B896E1BF032F688FA0A8C110CA778E16D2A180FEC794F 000000001010df30     guideXOS.obj
 0005:0001df60       __Str_Reply_Group_FD03D73B181CDFEE6E01356ED9C3957D00747A955011607E29805AD37D0C2F37 000000001010df60     guideXOS.obj
 0005:0001df90       __Str_Reply_from__0___1___2___3___by_168ED48C3EC73B8C9D96D7697734934059E1635270C1E1269F9C2CFA9578C99F 000000001010df90     guideXOS.obj
 0005:0001e018       __Str_Reprosoft_Co_Ltd_492609842539EF36F1B592E38D7F6EA4007CC7234B293469F2D2446EDB55F600 000000001010e018     guideXOS.obj
 0005:0001e050       __Str_Request_timed_out__8BC5600A5457DC813E99ABC78D0ACEB1A438439D7480D1E7671748D961F3B485 000000001010e050     guideXOS.obj
 0005:0001e090       __Str_Requesting____AE1A744F33EC25276064B8A8FB040209BB026E359AF5B74E3FF1776F976129F2 000000001010e090     guideXOS.obj
 0005:0001e0c0       __Str_Reset                000000001010e0c0     guideXOS.obj
 0005:0001e0e0       __Str_Resilience_Corporation_37D156EFCEBBC0837454690AF6A431029E0179628CCB5290C8D69F48BCA54E4B 000000001010e0e0     guideXOS.obj
 0005:0001e128       __Str_Resolution           000000001010e128     guideXOS.obj
 0005:0001e158       __Str_Resolved___0___1___2___3__CCAE72FA426B57E9A2C232F2BF8A4F22FF09797CBE7F07FABCC9F8EFBB39BF00 000000001010e158     guideXOS.obj
 0005:0001e1a0       __Str_Resolving_irc_libera_chat_DDB3806FD863AB896462B615EA8401404253F40CA5B902450915905F79F4F7DD 000000001010e1a0     guideXOS.obj
 0005:0001e1e8       __Str_Resolving_irc_oftc_net_1CAE7F98C8829C32452D7BEF46FD1E3E4E1359AD8849AEBC102680B5740A18ED 000000001010e1e8     guideXOS.obj
 0005:0001e230       __Str_Restore              000000001010e230     guideXOS.obj
 0005:0001e258       __Str_Retix_Corp_0929877960EDD1A3D5FE42E57EF63EE2439DB08C5F33A3C3E0F68E8AF1A2C705 000000001010e258     guideXOS.obj
 0005:0001e288       __Str_Revert               000000001010e288     guideXOS.obj
 0005:0001e2b0       __Str_Rhetorex_Inc_9275CAC06725F4DF272B8F12AFD0E4094ABAC95851CB16F36C517839D9CDFDE3 000000001010e2b0     guideXOS.obj
 0005:0001e2e0       __Str_RicohCompany_Ltd_34F55C245517F2BDAE9BAF376697ED32AEAAD0FD1217F94602EF0CBFD1A79843 000000001010e2e0     guideXOS.obj
 0005:0001e318       __Str_Ritmo                000000001010e318     guideXOS.obj
 0005:0001e338       __Str_Road_Corporation_E8492351F4E5143CE76868F40190FD1BBB7FFD5C7A35C67F53634B5D9698DCB8 000000001010e338     guideXOS.obj
 0005:0001e370       __Str_Rockwell_Collins_Inc_9C32F98670333935B2CF94BABE297CC1D0E9B6D73BF8548FC055B74394BEAB47 000000001010e370     guideXOS.obj
 0005:0001e3b0       __Str_Rohde___Schwarz_GMBH___Co_KG_90EAC25431852C6BD75A270901C05A618BFF680AD7891C1EDA5935F66E4ABB89 000000001010e3b0     guideXOS.obj
 0005:0001e400       __Str_Rohm_Research_87121A6CC0500147B1B84BCBB0D357162BCB9DE5FAE9BD59D6B6AC57F61AB39C 000000001010e400     guideXOS.obj
 0005:0001e430       __Str_Root                 000000001010e430     guideXOS.obj
 0005:0001e450       __Str_Ross_Technology_9C1170CFA85B416C132553237BC107604F86C0900296682D112DC2F77A300356 000000001010e450     guideXOS.obj
 0005:0001e488       __Str_Rosun_Technologies_Inc_F4793EC378996471DAFF9B8BF0AD283C48F04FEF8257163A929EBEFC54B2AA15 000000001010e488     guideXOS.obj
 0005:0001e4d0       __Str_Ruby_Tech_Corp_E06C59D80CCF7793C24AF8E84F7A01CBC33D38FEC1F7AD66A9F689D57202E99E 000000001010e4d0     guideXOS.obj
 0005:0001e508       __Str_S_S_Technologies_FAC418914136EE8225BD1720A07B4E115704C457FD920AFE59B9B61C8569FEB4 000000001010e508     guideXOS.obj
 0005:0001e540       __Str_S_Mos_Systems_95BFCC2307F939968A39D148C1EC514361A547E3E0B3B4E78E8CFB7CDC915887 000000001010e540     guideXOS.obj
 0005:0001e570       __Str_S2io_Inc_AA7A4DEF5C8FC3D600C62E523383F6F6C4629905CE0B3CF512C1C3D50A5FAB88 000000001010e570     guideXOS.obj
 0005:0001e598       __Str_S3_Graphics_Co__Ltd_245CC2C29FFC4A550B680CC324A36845F7ED3B2E5B033C53B78E0E6464BDA264 000000001010e598     guideXOS.obj
 0005:0001e5d8       __Str_SA_Telecommunications_30FB01D60DDD33D0C73C89156274AF72D40FFFED1D64082600ECF5362278649E 000000001010e5d8     guideXOS.obj
 0005:0001e618       __Str_SAVEDIALOG           000000001010e618     guideXOS.obj
 0005:0001e648       __Str_SAVEFILE             000000001010e648     guideXOS.obj
 0005:0001e670       __Str_SAVETEXT             000000001010e670     guideXOS.obj
 0005:0001e698       __Str_SBE                  000000001010e698     guideXOS.obj
 0005:0001e6b8       __Str_SBS_Operations_BE839A29576EC6DBADE9619507F84D993505F2D61253D26A0831ECAF4702DD55 000000001010e6b8     guideXOS.obj
 0005:0001e6f0       __Str_SBS_Technologies_Inc_7E1D5DB19CB76EA7D960BFDBB4343E30E7F128E5045D10EC91E3E0F52C06A6B8 000000001010e6f0     guideXOS.obj
 0005:0001e730       __Str_SBS_OR_Industrial_Computers_10949DD6C37C3383424143C11103F008F76F46F2B70DD95171FF28BD27268DA1 000000001010e730     guideXOS.obj
 0005:0001e780       __Str_SCM_Microsystems_F58B7AAC39885F6DFFCF77B581CF4DE40AD8FF2CAA1ADABD95C7CDD61ADA53A0 000000001010e780     guideXOS.obj
 0005:0001e7b8       __Str_SDL_Communications_Inc_AD9C55F8437105E606BAB38501DBE4197B97C93CC44E218131543FF17FEE969D 000000001010e7b8     guideXOS.obj
 0005:0001e800       __Str_SEGMENT_NOT_PRESENT_DC73157D4C4415584B819DA8391D37A2B71B9B90D096521087B88B00FD56C722 000000001010e800     guideXOS.obj
 0005:0001e840       __Str_SEH_Computertechnik_GMBH_262C91228AFFBE20BCF9C90CF147CB520ED19F6AAA661B3D7400C7127C34757D 000000001010e840     guideXOS.obj
 0005:0001e888       __Str_SF__0__TF__1__IF__2__DF__3__DA58C017DA437080917BCD53D49BDCB6FA12FCC55083E9D5EE4B03131FA5E3BE 000000001010e888     guideXOS.obj
 0005:0001e8d8       __Str_SHIFT                000000001010e8d8     guideXOS.obj
 0005:0001e8f8       __Str_SI_Logic_Ltd_2829E60599E8E9988A390B51B28AF3A0C4C893C45CD3AE18D51EB80C3C058E1D 000000001010e8f8     guideXOS.obj
 0005:0001e928       __Str_SIIG                 000000001010e928     guideXOS.obj
 0005:0001e948       __Str_SIIG__Inc_F5B35629FC6124339C6E27CF8D49D1CDC4093084445A7A0FC8872DB2C8F86909 000000001010e948     guideXOS.obj
 0005:0001e970       __Str_SIMD_FLOATING_POINT_EXCEPTION_B7220E8F1DD071A92377FE1A1F2379594E2A36964E1B73094DD457F696F8BFBA 000000001010e970     guideXOS.obj
 0005:0001e9c0       __Str_SK___Electronics_Co__Ltd_39D5D27C2F02DEBE29888983C01EC34E583E19B9A67CF0770F06A5F4BFD601C6 000000001010e9c0     guideXOS.obj
 0005:0001ea08       __Str_SMA_Technologie_AG_3724E7275B768F7431BA076825D3FE447AE882FB9A2D49BA8CB192181DB6E415 000000001010ea08     guideXOS.obj
 0005:0001ea48       __Str_SMBIOS_not_found__6DDA1F79F54C38C116C63A93DDECD475F598BCDB2E61A26AE933C7E4C1B960BA 000000001010ea48     guideXOS.obj
 0005:0001ea80       __Str_SP3D_Chip_Design_GMBH_76E7CB5186BE284FBBCD6436E033993AF3CE07B715CA46984EAFE4AE5CE2C391 000000001010ea80     guideXOS.obj
 0005:0001eac0       __Str_SPOT_Imaging_Solutions_a_divis_95791CB2CF574E5AB381955EADBA0836242D8BDB4FFA2C6E257CED04337F83CA 000000001010eac0     guideXOS.obj
 0005:0001eb58       __Str_SSE_Telecom_Inc_9AC5BFE88E8AE2B037D1A1D144C2769432EFE952687E149BFB98C71D47753B75 000000001010eb58     guideXOS.obj
 0005:0001eb90       __Str_STACK_SEGMENT_FAULT_EE1BDD18FC0EB8200996B084F934E89B0BF179E5DB5749B201BFBF7CE84ACA63 000000001010eb90     guideXOS.obj
 0005:0001ebd0       __Str_STACK_TRACE__Last_16_values__B931F31B3659E1176026395461B983B343BD150F840C29D7DC66566AC6692214 000000001010ebd0     guideXOS.obj
 0005:0001ec20       __Str_STARTMENU            000000001010ec20     guideXOS.obj
 0005:0001ec48       __Str_STB_Systems_4E69250CDF3ECD1B44AAC3821D1C3BECD9BE574EC141992B4063AB339ED941FE 000000001010ec48     guideXOS.obj
 0005:0001ec78       __Str_STMicroelectronics   000000001010ec78     guideXOS.obj
 0005:0001ecb8       __Str_SUNIX_Co__Ltd_6143AECAED9727BDC85572E52DB67C9AB390495ABE53637D4CC520B8B1F5ACEE 000000001010ecb8     guideXOS.obj
 0005:0001ece8       __Str_SUYIN_Corporation_578EF6020B5E83D8465EC91A9AC78815CF71E8979E4780463B73EB7434C0D45D 000000001010ece8     guideXOS.obj
 0005:0001ed20       __Str_SYSTEM_INFORMATION_BADC1A07F93883B1366CCFD619A85727365407040E64184A44B6AE4CB72C39F7 000000001010ed20     guideXOS.obj
 0005:0001ed60       __Str_SafeNet_Inc_6E37493DA6AE8589759A58936E6A4972B54642EE0AF64CAF981375B3CD8A832A 000000001010ed60     guideXOS.obj
 0005:0001ed90       __Str_Salient_Systems_Corp_CE2BA942B5B0248687FD050A06C815FF9A9BD7377CF602149702669D0D800844 000000001010ed90     guideXOS.obj
 0005:0001edd0       __Str_Samsung_Electronics_Co_Ltd_4D81BD5C2DED21537D38122C0EB0BEDB766B5F7B674C1DC518962ECF401B4844 000000001010edd0     guideXOS.obj
 0005:0001ee20       __Str_Samsung_Information_Systems_Am_226CE0D52D0A55D8EE903B889DD9B5FEABC331E322720CD03FB859EA1A0E8191 000000001010ee20     guideXOS.obj
 0005:0001ee80       __Str_Samsung_Semiconductors_9DBB0413408822E65362B464F2F08CEDBBF49398A309D7403CD64D97538CDA6C 000000001010ee80     guideXOS.obj
 0005:0001eec8       __Str_Samsung_T10_MP3_Player_CCDA021F72B5054E1C109DED0D35644BF6962FC8993EB0A5FE485FB0B2598F58 000000001010eec8     guideXOS.obj
 0005:0001ef10       __Str_Samsung_Windows_Portable_Devic_5F46D343B9E0B4909BF7CC2AEE15735A910B6D549B3BF908A179D339CB811DFF 000000001010ef10     guideXOS.obj
 0005:0001ef68       __Str_San_Valley_Systems__Inc_1A093E5737F7F12547310EB7B173AA1C50C0C3596EE4960DADE5FC5E9AAD2177 000000001010ef68     guideXOS.obj
 0005:0001efb0       __Str_Sand_Microelectronics_A826023E328AE1BDE884251759346BA35AD9D42F0DC01F7237E27C453F84427F 000000001010efb0     guideXOS.obj
 0005:0001eff0       __Str_Sandisk_Corp_88F51FBD95424508E8A27B2291739BC3042A1E4E40CE9DCB44B946319C6928B3 000000001010eff0     guideXOS.obj
 0005:0001f020       __Str_Sanritz_Automation_Co_LTC_9B7B8F61DA1888A2FB8E9078519D8D243212AE0D43A001B8787F25A4C56A8E55 000000001010f020     guideXOS.obj
 0005:0001f068       __Str_Sanyo_Electric_Co_865858075437C51D016C77EC1E7DEBBF50189B90F176A2B4A6A76F88C24280A7 000000001010f068     guideXOS.obj
 0005:0001f0a0       __Str_Satellite_communications_contr_757E2F6258689FC7535152DF4EA75F2B382EF0B89E036CE46BD44555E90EE02F 000000001010f0a0     guideXOS.obj
 0005:0001f100       __Str_Save                 000000001010f100     guideXOS.obj
 0005:0001f120       __Str_Save_As_48014F6E7B3916E033452FA05B5807B9E2F77B97E958E00297D2988A8F7FFC04 000000001010f120     guideXOS.obj
 0005:0001f148       __Str_Saved___8F0D2E95A1707B87CC3D438F0CB61DDFD3D242BFAAF5670A95C016A8DA999BB9 000000001010f148     guideXOS.obj
 0005:0001f170       __Str_SayHello             000000001010f170     guideXOS.obj
 0005:0001f198       __Str_Scalable_Networks_Inc_B3FEF6C123047957FC491011A76A8FACFADD9F4AACDBAC0F750A6ED10AAD5A3D 000000001010f198     guideXOS.obj
 0005:0001f1d8       __Str_Schneider_Automation_Inc_84086D42FE9168A1881A119DB5FD42E7A68A9FB8733F4027EA90B229618838FF 000000001010f1d8     guideXOS.obj
 0005:0001f220       __Str_Sci_Systems_Inc_8573295977F18DD2019BFD165975A406EF7750974EFAD0F40CCD0DD57157D7A4 000000001010f220     guideXOS.obj
 0005:0001f258       __Str_Sciemetric_Instruments_Inc_B425FBD35D71CB8778FB9A4D152555716891D8F053EF2E6C659A73C3AF25F428 000000001010f258     guideXOS.obj
 0005:0001f2a8       __Str_Scientific_Atlanta_AA37CDF1CA39B794DFCC0A2E164EBF8C547FCE74EB8E839F75BC052A6B1ED2E1 000000001010f2a8     guideXOS.obj
 0005:0001f2e8       __Str_Scion_Corp_373B22D7EC22E6F64804A36B6A4FE4E77A5EA173DF26BF2D2B0CC4C426148994 000000001010f2e8     guideXOS.obj
 0005:0001f318       __Str_Scitex_Corporation_Ltd_D67B609B9F8FA238FD6D0CEDB2BD55B499AC981FC0D4140D333EE1E0037FC075 000000001010f318     guideXOS.obj
 0005:0001f360       __Str_Script               000000001010f360     guideXOS.obj
 0005:0001f388       __Str_Script_loaded___3560E15A6A3BB372CA3A862453D522872333FF574DA712A79C1F59728113F6F2 000000001010f388     guideXOS.obj
 0005:0001f3c0       __Str_Seachange_International_707A7532BD721D3EFBA0266E9CE2EE29DEA95C0C40492BCE2C5C5276AE9B8CFB 000000001010f3c0     guideXOS.obj
 0005:0001f408       __Str_Sealevel_Systems_Inc_46BC15FC4FEE064DC27C4CA15D99D4684FA2C15751B7FFFBB251DC463C3927F1 000000001010f408     guideXOS.obj
 0005:0001f448       __Str_Seanix_Technology_Inc_C4A9311F1E9F012A00ABEF95C9D57230190EEC66D21D083E49E3F7180B4E4C15 000000001010f448     guideXOS.obj
 0005:0001f488       __Str_Search               000000001010f488     guideXOS.obj
 0005:0001f4b0       __Str_Seaway_Networks_DCC0D25F816F9A2C8D4F8AFBDA0774322B73B981DF9ECE57A08761A9506FDBF2 000000001010f4b0     guideXOS.obj
 0005:0001f4e8       __Str_Sebring_Systems_Inc_9AF4163CFC3CF7A2F6B7A0CD9B29C40F3D9877EDBC94F8F881A475BED2C62662 000000001010f4e8     guideXOS.obj
 0005:0001f528       __Str_Second_Wave_Inc_053FB626A879F9ADD73840296E26E3AE7DE6520719B7A84A3C53734D54554365 000000001010f528     guideXOS.obj
 0005:0001f560       __Str_Seeq_Technology_Inc_49D1E41972ECFF24C8544E24998A7941CF72FD6CA9C82B20569E8A3BBB6FCDD6 000000001010f560     guideXOS.obj
 0005:0001f5a0       __Str_Sega_Enterprises_Ltd_265940E4531F840F19D1E863A35AB3F194127BA333CCCE58C91D61A3B18FC890 000000001010f5a0     guideXOS.obj
 0005:0001f5e0       __Str_Segment___0___1_______External_8E02CD46D491EF97F201EC698F8B4F69A57AB0884B56A8814CD6A949A10E046C 000000001010f5e0     guideXOS.obj
 0005:0001f640       __Str_Seiko_Epson_Corporation_A456B23C413FF67C7A92B52AF5908C5C9FDF5F4E7A62953F0903F664A4CD9CD0 000000001010f640     guideXOS.obj
 0005:0001f688       __Str_Seiko_Instruments_Inc_51CA32795FF3794DB6947C33ADE4AA613B755F2088AA3D7AAF27E6C259277EE6 000000001010f688     guideXOS.obj
 0005:0001f6c8       __Str_Sejin_Computerland_Co_Ltd_C316B1E529DB363D04945EBFB8FC441E404CD76AEDC97BA28C89B1EC3B4098FD 000000001010f6c8     guideXOS.obj
 0005:0001f710       __Str_Select_Background_69A2C51444DD9CC746283310F193366CD3B0A77D8FFA4146CB122C8E9886EF22 000000001010f710     guideXOS.obj
 0005:0001f748       __Str_Select_a_background_from_the_g_35939C7A8982B2993A76A99663146F956B673AA5541C45CA80A2770BFC908407 000000001010f748     guideXOS.obj
 0005:0001f7a8       __Str_Select_a_font_and_size__3D30DEDE8D0D284B4567733695319EBFFAA2C54E609D9302E6E731BE019AD416 000000001010f7a8     guideXOS.obj
 0005:0001f7f0       __Str_Select_a_gradient__8996186EC1FE32B8A54644ACD5A8F4B224B23D95ABE94CCA5DA849DA446E6549 000000001010f7f0     guideXOS.obj
 0005:0001f830       __Str_Select_a_network_252E067A831E4B3B59D50A4393861880598D3240E3E886EE14AEC39FCB9A9A77 000000001010f830     guideXOS.obj
 0005:0001f868       __Str_Select_or_add_a_network_195F8050CE82CBE26F842DE1D2DDC6C02F265065D320BD559A7D7FE3CE2B8182 000000001010f868     guideXOS.obj
 0005:0001f8b0       __Str_Selected___VALUE_4D37C0C482E5283D8FF3CF9B5C79120C3CE9A31E467028991F0D1142FC3E25C1 000000001010f8b0     guideXOS.obj
 0005:0001f8e8       __Str_Self_connect_not_supported_F8C3910FE851502D5980C704917FF65141B2DF35C415B44E4754C12EEE96C517 000000001010f8e8     guideXOS.obj
 0005:0001f938       __Str_Semtech_Corporation_645E08D18BEA9EA2172780F72ABECB39E38CC7DCCD497AFFEE4FCE3571A84DF8 000000001010f938     guideXOS.obj
 0005:0001f978       __Str_Send__43B89C9C5987B866FE0C54C2D5053883405F99672C452A3A3B2B3E0CE0544D2B 000000001010f978     guideXOS.obj
 0005:0001f998       __Str_SensoMotoric_Instruments_GmbH_51F831222E1B68E1B203D30B8C919969F3AFF5AEB2E2DD86E7D59E1AF9FAB5ED 000000001010f998     guideXOS.obj
 0005:0001f9e8       __Str_Sent_bytes__58A0E66CCA0331830A82C2AD4B5FBD69BA014E1F0C14D99ECFC4FF04CD378A2E 000000001010f9e8     guideXOS.obj
 0005:0001fa18       __Str_September            000000001010fa18     guideXOS.obj
 0005:0001fa40       __Str_Sequent_Computer_Systems_998857ABDE2CA6ADA9410E0807D6983CABCC045F17985E56E8C58A9AA141D8D2 000000001010fa40     guideXOS.obj
 0005:0001fa88       __Str_Serial_bus_controller_D61FB11409B1A2257FC0C849B041BFA7EF85E380CBEB226A05940211455886FF 000000001010fa88     guideXOS.obj
 0005:0001fac8       __Str_Serome_Technology_Inc_E9F4424D16099D0785FC56F3C64038FD00C2B6722F661E5DB07A72DDDC066C87 000000001010fac8     guideXOS.obj
 0005:0001fb08       __Str_ServerEngines        000000001010fb08     guideXOS.obj
 0005:0001fb38       __Str_ServiceBaseUrl_set_to___0D2D139A8AE4002D6953B26E3AF434DA252F89C1F10B229A15DA04ABE0930DD6 000000001010fb38     guideXOS.obj
 0005:0001fb80       __Str_Servotest_Ltd_401B97462FBC975FC9192C5C17B400564356A1F24276D72C69B5534D3397AB12 000000001010fb80     guideXOS.obj
 0005:0001fbb0       __Str_Set_FS__Auto_86125D7D87EFBC0DA7338E7605531D816C7C9298E881EDFEEB183E55FEDF1CEC 000000001010fbb0     guideXOS.obj
 0005:0001fbe0       __Str_Set_FS__EXT2_136F98E80368F00BC5004745281BB77B03398247D2E5C465B7DF64DC1B78BDB7 000000001010fbe0     guideXOS.obj
 0005:0001fc10       __Str_Set_FS__FAT_702FA3116058D953D5A2327A3CD6394783CAA6C36302F1761E378F518C2DFA17 000000001010fc10     guideXOS.obj
 0005:0001fc40       __Str_Set_FS__TarFS_A563F6B17CC8FE1B4F9C16E91343A24724C62EFE1B8E01FEDC6FF4642C7BA154 000000001010fc40     guideXOS.obj
 0005:0001fc70       __Str_Settings_applied_successfully_48888D96D57ECFC8F0A997BBDDD857D6288B93F27B9304DD8DFE260EAD65991A 000000001010fc70     guideXOS.obj
 0005:0001fcc0       __Str_Settings_reset_to_defaults_09A2D82D6B8B96CC034B938F2BCDA22BA1DE4C434CC214951BE9749B5A19B5FC 000000001010fcc0     guideXOS.obj
 0005:0001fd10       __Str_Shade_Ltd_2A4C11BCBD68AC12DF2E087F0E14E4B0AAF0E1B02DC78ADD60490CD9A476BF69 000000001010fd10     guideXOS.obj
 0005:0001fd38       __Str_Shanghai_Bell_Company_Limited_B5D7DBEF8B818964387C808E4D189E1F3239C2F6160B379925B33207C4247CE3 000000001010fd38     guideXOS.obj
 0005:0001fd88       __Str_Shanghai_Communications_Techno_E1A1E39C3EAE000674C64C83A900F2A5C1CE96D9D758ED3E9A426BA6E24BC775 000000001010fd88     guideXOS.obj
 0005:0001fdf0       __Str_Sharewave_Inc_B9BD9FF0A87E8B3315DC4A6213CA055B3B2133C2395D8DC4713DD43267CB4F16 000000001010fdf0     guideXOS.obj
 0005:0001fe20       __Str_Sharp_Corporation_AA0373E623970D2A68112D9873BDD36DFCD3B0531D100FBB8DF60F5C0B9149D0 000000001010fe20     guideXOS.obj
 0005:0001fe58       __Str_Shiba_Denshi_Systems_Inc_CC100DFF03A3D6B2F7C33F870E4591F898B68AC67D4723F8668B10CE41ABAAD6 000000001010fe58     guideXOS.obj
 0005:0001fea0       __Str_Shift                000000001010fea0     guideXOS.obj
 0005:0001fec0       __Str_Shima_Seiki_Manufacturing_Ltd_9165569327B7FF2AA1C781C34415B9B1FC0911EDE64FEFFDB9A32C840F1D8032 000000001010fec0     guideXOS.obj
 0005:0001ff10       __Str_Shiva_Corporatin_41763CE2B68E64DE4D4C4F228B6B25F92EEB0C6ECDA423A638AE04F1BFB835C9 000000001010ff10     guideXOS.obj
 0005:0001ff48       __Str_Shiva_Europe_Ltd_58D34330498EFCCDE0D7F74E3C2AB0BC706913913E82404DA0DCDD4A8EFE1056 000000001010ff48     guideXOS.obj
 0005:0001ff80       __Str_Show_Alert_D2860B59CC8D5B551C742C28A893B62D2C2315F1872DCD4D48D3E7C984114E1D 000000001010ff80     guideXOS.obj
 0005:0001ffb0       __Str_Show_All_Demos_766052802A144B80EBFF1CA5D649937BA1490D768042256E1EEB6A4D8FADD3C8 000000001010ffb0     guideXOS.obj
 0005:0001ffe8       __Str_Show_Message_D2DBA7AB084D3253146619227914D6EDCAC6D7D94BC6981E28C6DD9B633E2593 000000001010ffe8     guideXOS.obj
 0005:00020018       __Str_Shutdown             0000000010110018     guideXOS.obj
 0005:00020040       __Str_Shuttle_Computer_B9B7297C7498D68EA2D33DAE4CCC3898385DB13FE96B1EA5723393C960956431 0000000010110040     guideXOS.obj
 0005:00020078       __Str_Sibyte_Inc_1B6839BFE76750CD99A0D0B0D7EBF4184E0AB0D39596FF28A3C2BF7C4124062A 0000000010110078     guideXOS.obj
 0005:000200a8       __Str_Siemens_AG_24075905CD7DF5B542C83469FE06EC8014B4BF1B2169D52CACA3D967C3E969EE 00000000101100a8     guideXOS.obj
 0005:000200d8       __Str_Siemens_Healthcare_15215AB44603E1373B7DA5217581D00C20D23962AF6C7E488F05A67BFDA079CB 00000000101100d8     guideXOS.obj
 0005:00020118       __Str_Sierra_Research_and_Technology_74105D9547A457644C8987BE60EEA1E9D50631B54C9D51DE35380A0E342CE933 0000000010110118     guideXOS.obj
 0005:00020170       __Str_Sierra_Semiconductor_ED7BF67407C14EC22A614AAC73E3B54CF57F7AE61076EFEE13F45D78326217E9 0000000010110170     guideXOS.obj
 0005:000201b0       __Str_Sigma_Designs_Inc_23EA2C227B7655125A8BB85D081D47C39EFFF52E75015C0484EB03F530C9FBB4 00000000101101b0     guideXOS.obj
 0005:000201e8       __Str_Sigma_Designs__Inc_487FB17166650108D9D08E0FBE9B3BFFEE16CB38ACE609C508CDB726F326C10F 00000000101101e8     guideXOS.obj
 0005:00020228       __Str_Sigmacom_Co_Ltd_E7F5530C4905A8B6C1874A50FBCE0AC819F919F2E68FE2D2DFEDCDE595E116D7 0000000010110228     guideXOS.obj
 0005:00020260       __Str_Sigmatel_Inc_DCB270BB2B4E1273642F13A2592ABEC0D9C51DF34951AB5F4BCAA5DBD54EE393 0000000010110260     guideXOS.obj
 0005:00020290       __Str_Signal_processing_controller_E93AB9F903563BE1967F83310C752D463D105EB3A14C735C4780CAAD9D49AA2C 0000000010110290     guideXOS.obj
 0005:000202e0       __Str_Signature___035885F107B1D82D19C11F2C0BD24D84244F8B94B2279BFEA59997D3D6ECC99F 00000000101102e0     guideXOS.obj
 0005:00020310       __Str_Silex_Technology_Inc_330E21644866B0E3EF55C670F4EA39F0E00AE0F6867997FB7F31B15E116DA31A 0000000010110310     guideXOS.obj
 0005:00020350       __Str_Silicon_Engineering_B75124145F9C2D22C79A843F024871F0841A915B9A2450A8DB7B5D40341AE6F6 0000000010110350     guideXOS.obj
 0005:00020390       __Str_Silicon_Graphics_2FC029A0E891C7DBFAF7194CFC13DE6E5944037EB55F9EFB084303ADDE3BFE85 0000000010110390     guideXOS.obj
 0005:000203c8       __Str_Silicon_Image__Inc_2448F54DFFB7D75FF12A746348DC045746AC79F5FACE7D6382EF732040A582FD 00000000101103c8     guideXOS.obj
 0005:00020408       __Str_Silicon_Integrated_Systems_1A97BAC2EB73C991F0BD950029417049234197932366541A8CE3571B397260E7 0000000010110408     guideXOS.obj
 0005:00020458       __Str_Silicon_Laboratories_E3353D0A920C5F4FCB40A2359A38497D412919E4EF938DFD487B9B25D91FBF81 0000000010110458     guideXOS.obj
 0005:00020498       __Str_Silicon_Magic_A40EB406953A0764E3CC66F5C404ED02D9C43416FF8C475DF88EDCEF63E84ADE 0000000010110498     guideXOS.obj
 0005:000204c8       __Str_Silicon_Motion_5DDA2B1917AF07A7B53900CD8EEAC49FE3DE7893E401B1E00A3E5B78DDFC4986 00000000101104c8     guideXOS.obj
 0005:00020500       __Str_Silicon_Spice_Inc_B0B0ACC0C91D287961FEE8141D28949D057F7B3289EBD41C3C249F357583883D 0000000010110500     guideXOS.obj
 0005:00020538       __Str_Simpact_Inc_34BB3C590852A34A81B259FA922791613FAAB3B6AD6FA797C8DA1E7BBA9D72B2 0000000010110538     guideXOS.obj
 0005:00020568       __Str_Simple               0000000010110568     guideXOS.obj
 0005:00020590       __Str_Sitecom              0000000010110590     guideXOS.obj
 0005:000205b8       __Str_Size___549671492C0BFD5ED0D2EA280E3FB7C734D55FDA1E4EE5B2A47A1AEE6199E2A3 00000000101105b8     guideXOS.obj
 0005:000205e0       __Str_Skip_Invisible_Window_Renderin_5A70D958139E20516BE92E43493C00DEA0BF88E1DB9542EA884B24321544FC45 00000000101105e0     guideXOS.obj
 0005:00020638       __Str_Skip_Minimized_Window_Renderin_0AA0856C581B82A2F83E088CD2B86F9F99190C60F7BDFBBC9424E0790E5FD8F9 0000000010110638     guideXOS.obj
 0005:00020690       __Str_Skip_Off_screen_Window_Renderi_3D32EEDB9068FF4F56F8FC122A780EE376845E698289FE06F647F6C037802EE3 0000000010110690     guideXOS.obj
 0005:000206e8       __Str_Sky_Computers_Inc_5E4DD95FE005D21A610648655B2675A4F448381C207727BE8713984C5DB19645 00000000101106e8     guideXOS.obj
 0005:00020720       __Str_Skyware_Corporation_EC5FC2FB9E0479396632C6E36CE07FD8D3C8496E05D66B35E42225F046A366D3 0000000010110720     guideXOS.obj
 0005:00020760       __Str_Sleep                0000000010110760     guideXOS.obj
 0005:00020780       __Str_Smart_Electronic_Development_G_76A9A5FF1C1550DE3222C1ADA11F4D0267E738FADC1B363C8285FED246064159 0000000010110780     guideXOS.obj
 0005:000207d8       __Str_SndWrite             00000000101107d8     guideXOS.obj
 0005:00020800       __Str_Softing_AG_DCE0447DCA5EEE0EF9A58E38F7E648A179C3B31CF9AC848A3FEF72AB5F2770E5 0000000010110800     guideXOS.obj
 0005:00020830       __Str_Sola_Electronics_6D5DFA41A19044D17671766C4BA0D89D2183F0443710FCD8C23E40391A10426D 0000000010110830     guideXOS.obj
 0005:00020868       __Str_Solectron            0000000010110868     guideXOS.obj
 0005:00020890       __Str_Solidum_Systems_Corp_F9D0ADBD3A277A83B7A03E1086FFB99FE4AB7F1619C20DCF35E7D198D9D3143A 0000000010110890     guideXOS.obj
 0005:000208d0       __Str_Soliton_Systems_KK_62ED8299DDE88073B145DAFE1CD1437A782E1D5173A4297A28EC67765F6F6B3C 00000000101108d0     guideXOS.obj
 0005:00020910       __Str_Solitron_Technologies_Inc_82D4D41B680D65AECFCAAC8A28C799D6D06A775E1DF674A451ED04B8C292D1D7 0000000010110910     guideXOS.obj
 0005:00020958       __Str_Solliday_Engineering_626C63D8646244B011255A7A48C5C822B34F8C9AFC889F1BA28F848287AF4AFD 0000000010110958     guideXOS.obj
 0005:00020998       __Str_Sonic_Solutions_BBFD1FA8FBF53750E6161711CD45A12374E697E241B1B1A427D343C096CB4B48 0000000010110998     guideXOS.obj
 0005:000209d0       __Str_Sonicwall_Inc_B4F768B7069513C2E13E79E34019FBBBB7E01893036D234C19384571A6255863 00000000101109d0     guideXOS.obj
 0005:00020a00       __Str_Sonnet_Technologies__Inc_DE2993FB5B395C257A9EA0F110E91D3B365978325DBDD005AD9A55CB3F0EFA90 0000000010110a00     guideXOS.obj
 0005:00020a48       __Str_Sony                 0000000010110a48     guideXOS.obj
 0005:00020a68       __Str_Sony_Corporation_2C79D0A142B0C6667D507D83379351C4653A966F02302F4B2B074DD9912C00A0 0000000010110a68     guideXOS.obj
 0005:00020aa0       __Str_Sopac_Ltd_1788A52641C54C3B8D423474E97616CB6A9BACD874D6991EF8A96EECC9CD8EB5 0000000010110aa0     guideXOS.obj
 0005:00020ac8       __Str_Sord_Computer_Corp_C8B84DE5135FDD0C3254CB51BE9F0B43DE58639F5A6FFEE737002CE0AA11CF58 0000000010110ac8     guideXOS.obj
 0005:00020b08       __Str_Sorenson_Vision_Inc_A4104ED83A98902278F4F773366A4055E1C44CF566940FC5EFB93B4C3284B9B0 0000000010110b08     guideXOS.obj
 0005:00020b48       __Str_Source_Technology_Inc_9D3C5B8841A0CB38C9BC3A51F0CA14E8DC179E19BE89F9E5E2FC0A6617661588 0000000010110b48     guideXOS.obj
 0005:00020b88       __Str_Soyo_Technology_Corp_Ltd_69A426A83A7ABC9D4F987B321D75D79E2B4E9257CBE1341F2CCD19CCA539D6EC 0000000010110b88     guideXOS.obj
 0005:00020bd0       __Str_Space                0000000010110bd0     guideXOS.obj
 0005:00020bf0       __Str_Spea_Software_AG_1FD6B9A8E093C010C4641838ED34FA6C0FD9805B49A9D32E584437BF5548217B 0000000010110bf0     guideXOS.obj
 0005:00020c28       __Str_Specialix_International_Ltd_A5419EB4E1DCA6EC437AC9DACE24141DAA63DD44EF26226787D8138BF2570EE6 0000000010110c28     guideXOS.obj
 0005:00020c78       __Str_Specialvideo_Engineering_SRL_49F98DD9E7B553F19E8600FFC40EF45FBDF8D57C23C8D730FB80FE7AD0512359 0000000010110c78     guideXOS.obj
 0005:00020cc8       __Str_Spectracom_Corporation_303D59ADD1FA1D8D78263CCCF203717D4C5FD8E8484D2250A58058323FB1783D 0000000010110cc8     guideXOS.obj
 0005:00020d10       __Str_Spectrum_Digital_Inc_18AB95576C28A632A9D91057A25535BEAA3684649E28670F432F50BE69E28392 0000000010110d10     guideXOS.obj
 0005:00020d50       __Str_Spectrum_Signal_Processing_9E68B129941614A21A94F57F432031330C9F285E02E4760FE863CDCB1D2193FF 0000000010110d50     guideXOS.obj
 0005:00020da0       __Str_Spectrum_Systementwicklung_Mic_7B98767484CCCD4FC652B8976F0A3F57998584919EED8C7531FC8D92385B765F 0000000010110da0     guideXOS.obj
 0005:00020e18       __Str_Speed__E17095DA24B059C48A8B77BEA02D44F6B7DA0626129CC49C7C424CE8E2F79AEA 0000000010110e18     guideXOS.obj
 0005:00020e40       __Str_Spellcaster_Telecommunications_A426A1F617D28BD21CB4C8B2FF028589BA4FB63D9FEDE4DA788B800F4B1CDA2A 0000000010110e40     guideXOS.obj
 0005:00020ea0       __Str_Splash_Technology_Inc_FF381CC292B70AFEF9BF3BC0C615DCE3CDC5F1A67E9AFF5B1AAAA59C735E29F0 0000000010110ea0     guideXOS.obj
 0005:00020ee0       __Str_Square_Wave_Technology_0DDF31699416C72F9C369E0CB7E46883EE3E1964A4453E9488B8966F61EBACA7 0000000010110ee0     guideXOS.obj
 0005:00020f28       __Str_Stack_Pointer__0x_0_X16____SS__732315A33D1808AB8087E8774928EFE793B545F63C1E7E39B541306FCF41ACA7 0000000010110f28     guideXOS.obj
 0005:00020f90       __Str_Stallion_Technologies_7F8747DB1319B9CF9EE2725A003A5A6AF00C41E86532C0FEB5062DCBE62ABCF1 0000000010110f90     guideXOS.obj
 0005:00020fd0       __Str_Standard_Microsystems_Corp_F284E9D529A7251A2E1B7A025DB51C737229858F618922048264F832743F4E69 0000000010110fd0     guideXOS.obj
 0005:00021020       __Str_Standard_Microsystems_Corporat_52D0537877E47DB24AB65CC3CEA863980FDAFE6EDF526675FCC60FB1979F3108 0000000010111020     guideXOS.obj
 0005:00021078       __Str_Star_Multimedia_Corp_CB2A97C20CC157E4FACBAB607E009088C9B38217BF7FA81EB17407D713E1AB04 0000000010111078     guideXOS.obj
 0005:000210b8       __Str_StarGen__Inc_2DFF5A7063F3F765D8DCFA6023F18DCE723004B874AEDE1BEBEAA2FF242FC60E 00000000101110b8     guideXOS.obj
 0005:000210e8       __Str_Start                00000000101110e8     guideXOS.obj
 0005:00021108       __Str_Start_Network_Technology_Co__L_88E3A06C17337A2F2987E86F9D6D78C6EF6CA92D030D7F25D9630FE18135B506 0000000010111108     guideXOS.obj
 0005:00021160       __Str_StartThread          0000000010111160     guideXOS.obj
 0005:00021190       __Str_Status               0000000010111190     guideXOS.obj
 0005:000211b8       __Str_Stelar               00000000101111b8     guideXOS.obj
 0005:000211e0       __Str_Stellar_Semiconductor_Inc_EDD1CD321C1BEE4A1E90631531B92F76E931BB5647BE70AE8E2DBA7F1F0C892B 00000000101111e0     guideXOS.obj
 0005:00021228       __Str_Steps_to_renew__31FDAC3007BD58F117DA4BBAB7EB3349C80C3FF1E00A743C554D4A955D5D8343 0000000010111228     guideXOS.obj
 0005:00021260       __Str_Stratabeam_Technology_C5075468F3C22ABF68F504FDE692512052C4391F0EA0E1DB2973BAE75C9D7C20 0000000010111260     guideXOS.obj
 0005:000212a0       __Str_Stratus_Computer_C6D87A65B637BED83478B5E88A093A3979A3017D879B629563AC980A4DDD85AB 00000000101112a0     guideXOS.obj
 0005:000212d8       __Str_Stratus_Computer_Systems_F065E37939B0442B64ACD1319090BC2EFBCCA73EE161BF8D213FA68F7C769872 00000000101112d8     guideXOS.obj
 0005:00021320       __Str_Studio_Audio___Video_Ltd_4B377267BA985CBD10BEAF587A69C5BAE0630082955EF9171822A5B9D067B91E 0000000010111320     guideXOS.obj
 0005:00021368       __Str_Subnet_mask__D93E922CB2F2CB228D186AA4582B4F26B8928DA7ADF7105C5171085568BE20B7 0000000010111368     guideXOS.obj
 0005:00021398       __Str_Subtract__15B3820C5D4669331C00916F587EF98768DB77DA736EAE905C4C6EC84726CE02 0000000010111398     guideXOS.obj
 0005:000213c0       __Str_Successful_Frees__7B19E88C863335349B82312F71CB002E55C55760599DF03342C7F99B216C8CF3 00000000101113c0     guideXOS.obj
 0005:000213f8       __Str_Sumitomo_Metal_Industries_Ltd_F013A80B32CD8CCD2BCAF406CD5F110F6AE308297A86EB64185874D5EECEDD07 00000000101113f8     guideXOS.obj
 0005:00021448       __Str_Sun_Microsystems_C3A8EE42758C9B92A0CA522EAD787553ECF43CA339CA5A322ACB568B5D79E62A 0000000010111448     guideXOS.obj
 0005:00021480       __Str_Sunlight_Ultrasound_Technologi_2628BB3D7A7D22D4805E9DA3EB9510F5035B6CADD6883BEA7A526E6F60438378 0000000010111480     guideXOS.obj
 0005:000214e0       __Str_Super_Micro_Computer_Inc_70F2D3BAE0FD6555659775A2DD5DC3AA0D3D88F83447CF1EA1CAD58C60925860 00000000101114e0     guideXOS.obj
 0005:00021528       __Str_Supernet_Inc_5D5184291AD193B27A8289593BA698125973ED64C0AAC4081900EA6B584D6C42 0000000010111528     guideXOS.obj
 0005:00021558       __Str_Surecom_Technology_BB32FAC0EB94531ACA995072C223E8BD47FF21A79C02C65B7F03C78506C4A23E 0000000010111558     guideXOS.obj
 0005:00021598       __Str_Switch_to_EXT2_failed__E99EAB23A4C039C7501056A66FC5452E9CD019091C2381898FF093FBABE82EFF 0000000010111598     guideXOS.obj
 0005:000215e0       __Str_Switch_to_FAT_failed__1DFC573401A21014660E610170D76A8B31F1CFFACC9A62EB8959D37004178B24 00000000101115e0     guideXOS.obj
 0005:00021620       __Str_Switch_to_TAR_failed__F680AE0AFA2B9D46B7109C53126E8D45AB8845819F10AF3851FE16E363AEB914 0000000010111620     guideXOS.obj
 0005:00021660       __Str_SwitchToConsoleMode  0000000010111660     guideXOS.obj
 0005:000216a0       __Str_Switched_Network_Technologies__4D3802EDCB1802EFCCD13C18C8A7DFFE5AD6755F708CA477911E61ABE6137B1B 00000000101116a0     guideXOS.obj
 0005:000216f8       __Str_Syba_Tech_Ltd_A7EAA9A64DBBC08E351E1DBF43CE98C7646F92329B62AD72C2CBB96D7AB6F692 00000000101116f8     guideXOS.obj
 0005:00021728       __Str_Symbol_Technologies__Inc_AE40DD7CFD5988C036F7A8CA8A9AEF9C9FC1177863D2F5534BF4EC46E88138BD 0000000010111728     guideXOS.obj
 0005:00021770       __Str_Symicron_Computer_Communicatio_FC3315C908A43905F68C28E0F6F5536F6A672C678760B7A2BEF5147968254792 0000000010111770     guideXOS.obj
 0005:000217d0       __Str_Synaptel             00000000101117d0     guideXOS.obj
 0005:000217f8       __Str_Systech_Corp_4F033A17D350784692CEFF4160239B10F518E5E59C347271EDC55F2F6618D435 00000000101117f8     guideXOS.obj
 0005:00021828       __Str_System_Craft_Inc_D002221A19B2266A193855AC3ACCD3FF03B3239F3A0A5ABE8E313B04E373F78C 0000000010111828     guideXOS.obj
 0005:00021860       __Str_System_Monitor_D2AFF69D938C837616BB3C3FEA9A8C1A57C3DD724979BC0BBF86AE52E45B490A 0000000010111860     guideXOS.obj
 0005:00021898       __Str_System_call___009125376AA49C1C5CF5E3CA8B94E69486ABC302702CAC060355A2A577A44A4C 0000000010111898     guideXOS.obj
 0005:000218c8       __Str_System_information_unavailable_BA5E979A13DD97AA90E43DD8E5ECC4B2D7A522F97943EE9BDE3A22217514A751 00000000101118c8     guideXOS.obj
 0005:00021920       __Str_System_Object_A3D7A9E140E282A7AD0B2E72214B725A2CA1CD93944A74183E50C98A769333D8 0000000010111920     guideXOS.obj
 0005:00021950       __Str_Systemax             0000000010111950     guideXOS.obj
 0005:00021978       __Str_Systemsoft_Corporation_49B6FD4B7EA526B731270EBB66B076D138CB1E84F50B857F3AB056BF30A4BAC2 0000000010111978     guideXOS.obj
 0005:000219c0       __Str_T_Square_Design_Inc_524BCCD9E0765ABBADC4FF49963B74A34542B5EBD07490EE0800DE0A15AB0272 00000000101119c0     guideXOS.obj
 0005:00021a00       __Str_T_R_Systems_87B75BA9A2753993944622D4F3047F86038C6EC564FEB02A146794529776D308 0000000010111a00     guideXOS.obj
 0005:00021a30       __Str_TAR__initrd__D47627110BCF1670BC4AABE686426A421A596184DF073E43D56BB17D94688328 0000000010111a30     guideXOS.obj
 0005:00021a60       __Str_TASKBAR              0000000010111a60     guideXOS.obj
 0005:00021a88       __Str_TBS_Voyetra_Technologies_5BA5B0A05F9667854B3AF244A7D408B5E84D22930C7FC0E91C8945228874951D 0000000010111a88     guideXOS.obj
 0005:00021ad0       __Str_TC_Labs_Pty_Ltd_32B7DC1D059363ACC44BCCD550D27A74AA9867DAD53D53CB82FBD0D9B04B2C25 0000000010111ad0     guideXOS.obj
 0005:00021b08       __Str_TDK_Semiconductor_Corp_FAAAF46922A53E0F8EE527EBFE7D81855A57A6EAE957EF54F019B695161B2788 0000000010111b08     guideXOS.obj
 0005:00021b50       __Str_TDK_USA_Corp_3A3AB3DA7E369513AADAE6AC36309793F41D853E23493BFA7AC2E09D08FC6B98 0000000010111b50     guideXOS.obj
 0005:00021b80       __Str_TEK_Microsystems_Inc_B0E6CCD482CCE6A65D8628A106756500D78C6168B9EE90744F12B35249566EFA 0000000010111b80     guideXOS.obj
 0005:00021bc0       __Str_TEXTBOX              0000000010111bc0     guideXOS.obj
 0005:00021be8       __Str_TFL_LAN_Inc_020482E3A96E8F39AFA1C9FEE5229FEB6344547834C012B3227DE8146D4A8915 0000000010111be8     guideXOS.obj
 0005:00021c18       __Str_TMC_Research_6B68CC0AA4FD6C3B938FB4D13917D188ED568FAF74E85FADB4498F93AF26E6AE 0000000010111c18     guideXOS.obj
 0005:00021c48       __Str_TOMBSTONE            0000000010111c48     guideXOS.obj
 0005:00021c70       __Str_TOPCON_Corp_ABE5D7BF6B412C5816435B4A8E04EFA9553A0DF4DD70FC440BF8DD011ED55A72 0000000010111c70     guideXOS.obj
 0005:00021ca0       __Str_TP_Link_ADD5A07C4E86C07DAC451959107EDA09142EEF721E558987FDEB2F5ED91F861F 0000000010111ca0     guideXOS.obj
 0005:00021cc8       __Str_TRENTON_Technology__Inc_D714BA13C60D0716F638EFC13C81999ED8E00D7F2CB7A4935F5156DDB0E93266 0000000010111cc8     guideXOS.obj
 0005:00021d10       __Str_TRIDENT_MICRO_DA0A937E06807602DE58D79715CCE9D5B8E5320097B61A11DCFA646189FA26E4 0000000010111d10     guideXOS.obj
 0005:00021d40       __Str_TRUE                 0000000010111d40     guideXOS.obj
 0005:00021d60       __Str_TSI_Telsys_C2E698A404971F9149165A29B3B381F6D024E8D2A64A26D572D6757AF14C2E28 0000000010111d60     guideXOS.obj
 0005:00021d90       __Str_TSqware              0000000010111d90     guideXOS.obj
 0005:00021db8       __Str_Tabs__364EAE4ACE1484CBA35F0F3841EC846D0AF6B5A744B536C30F79CDEF4FA57257 0000000010111db8     guideXOS.obj
 0005:00021dd8       __Str_Tachyon_Inc_F80D38DF8728CEC4F2408D90C9396ADD67E5708D83A396BFE37D614ECBC21C56 0000000010111dd8     guideXOS.obj
 0005:00021e08       __Str_Tahoma_Technology_CB433DFFD4FCCB5BA58F2568294137F71B5EB09AE2B2E15DEB3676A6B93A1603 0000000010111e08     guideXOS.obj
 0005:00021e40       __Str_Taiwan_Mycomp_Co_Ltd_62BA467393FB0A0E36D35D0F7363BD7EE9F3DD38045C292CD8CF3A47CAAB6106 0000000010111e40     guideXOS.obj
 0005:00021e80       __Str_Tamura_Corporation_D3B3D8FE0A0EA55312C3A9820005E49653A3AD213A1ED6439A182C58F11F9E62 0000000010111e80     guideXOS.obj
 0005:00021ec0       __Str_Tandem_Computers_459D3864CFE00C3E6CA43286F8FBE85E32BE02A6127778B8DE81CCFB442D40F2 0000000010111ec0     guideXOS.obj
 0005:00021ef8       __Str_TarFS                0000000010111ef8     guideXOS.obj
 0005:00021f18       __Str_Tascorp              0000000010111f18     guideXOS.obj
 0005:00021f40       __Str_Task_Manager_B7D26D2C300B575DD0B1D204DD034D1CBB023116D3F1FA9C7D89885E75E16AA5 0000000010111f40     guideXOS.obj
 0005:00021f70       __Str_TaskManager          0000000010111f70     guideXOS.obj
 0005:00021fa0       __Str_Taskbar_not_available_8129A76B6683496EFEB258F349E83E5F8BE7BBAC2AB8B10AA9F5748F939AB23E 0000000010111fa0     guideXOS.obj
 0005:00021fe0       __Str_Tateno_Dennou_Inc_5DCD62C8F08DD304FC03716FF433C1F7239251125B08CF837012F3A943421359 0000000010111fe0     guideXOS.obj
 0005:00022018       __Str_Tateyama_System_Laboratory_Co__6078F6AFBD7AB1E68823C022394B3AF57901A5CFD03367166983C3181E43E816 0000000010112018     guideXOS.obj
 0005:00022070       __Str_Tatung_Co_5FD49C90782C5FE8352422DE15CAA6CED37C26B54792CCED82C0591FA076FD28 0000000010112070     guideXOS.obj
 0005:00022098       __Str_Tatung_Corp_Of_America_FA11859D54F9EC0514F1B300386E7B98DDBE668ED58853460DC8430A7B50FEAE 0000000010112098     guideXOS.obj
 0005:000220e0       __Str_Team_Nexgen_F7522E7BB2EC110FA92138086B2409BCE8B5851B22E0CFDDA201BD8D3DFBBE0E 00000000101120e0     guideXOS.obj
 0005:00022110       __Str_Tec_Corporation_0E2D1A9179BE013EB491938825958DBCCC499CABF9B7E6AAD4E5E9D913103A3A 0000000010112110     guideXOS.obj
 0005:00022148       __Str_Tech_Source_815D634B03525C6A6D4DE4477D75BD8AFFEB3A9DC7CD7336DA9D802C0F564625 0000000010112148     guideXOS.obj
 0005:00022178       __Str_Technical_Corp_9ECA651BF0D46DA485FD42785D0E6D4794E3FB7703096D852E3E167F41F9EB73 0000000010112178     guideXOS.obj
 0005:000221b0       __Str_Technical_University_Of_Budape_701AFCE0C5F3014804E8BAAACC345C61E725961F609E8FE7F9FF234CFB57AB61 00000000101121b0     guideXOS.obj
 0005:00022208       __Str_Technotrend_Systemtechnik_GMBH_BAEAB68211D146E91AF9F3C61A593337A7A9A551848B6A1701FA8D61753B9A1B 0000000010112208     guideXOS.obj
 0005:00022260       __Str_Techsan_Electronics_Co_Ltd_0DF7ABB63346FCBC246B0E4933B9893615D66DEEDED43A1A85A3C6CFE89FE314 0000000010112260     guideXOS.obj
 0005:000222b0       __Str_Techwell_Inc_F24254751897884EEEA1D3B3D25C41096CC0907941AA42B8D2B3E0D5BE506B87 00000000101122b0     guideXOS.obj
 0005:000222e0       __Str_Teijin_Seiki_Co_Ltd_9A6CFD4AEF4D3AD94542D818C196B4A9D9D742F233F6A534230DA030FAC8B9F9 00000000101122e0     guideXOS.obj
 0005:00022320       __Str_Tekelec_Technologies_F4B7D1924FF6E369508BF4CD750BA0A4851EE5705009AAD7A12061DBA6165807 0000000010112320     guideXOS.obj
 0005:00022360       __Str_Tekram               0000000010112360     guideXOS.obj
 0005:00022388       __Str_Tekram_Technology_Corp_Ltd_71964C5F8D39C8CC2A09F4F23B1C5208A2B8532AD28935AEBF332E78E4EF1F07 0000000010112388     guideXOS.obj
 0005:000223d8       __Str_Tektronix            00000000101123d8     guideXOS.obj
 0005:00022400       __Str_Telefon_Aktiebolaget_LM_Ericss_4A1458FAA2E42394836013345F36E777D8F36EE58FBC657E64DAC16FA964998A 0000000010112400     guideXOS.obj
 0005:00022458       __Str_Telesoft_Design_Ltd_5AAF288EEC08D8E36628BE9E7E9FC933063C05ED1A6C87C25A753E22057B68AC 0000000010112458     guideXOS.obj
 0005:00022498       __Str_Telesynergy_Research_Inc_4B436857FC24282F8BDC2EA449E21AF046D3F463591D88115FC1BDB5A4912457 0000000010112498     guideXOS.obj
 0005:000224e0       __Str_Televox_Software_Inc_F125639CDF5AAC61C052F799DFDC22277E102CB4A3DFAC53363CEEB3372635BF 00000000101124e0     guideXOS.obj
 0005:00022520       __Str_Telocity_Inc_F31756386D77AC581BB98F064CBC0573A9A400C7B7D89283FB9A8F3F17F4248F 0000000010112520     guideXOS.obj
 0005:00022550       __Str_Temporal_Research_Ltd_7AE62C7D26ADAE42CF381AB1473E574BB40B863FAEBBC9FA5F2E109B73B295C4 0000000010112550     guideXOS.obj
 0005:00022590       __Str_Tenta_Technology_55CC6E3B23B437097E1CE371267AD5E676E57F8F97C24B0BA7DC741C451E7E74 0000000010112590     guideXOS.obj
 0005:000225c8       __Str_TeraRecon__Inc_CFC43064F5867C459217A63D9EEA5DECC3A841ECB0C0B8BB9FD1559D556FA918 00000000101125c8     guideXOS.obj
 0005:00022600       __Str_Teradyne_Inc_38DF318C41FF52979E7CB3D298B49FFC9E4270ED03AA809EA9967088D62533B6 0000000010112600     guideXOS.obj
 0005:00022630       __Str_Teralogic_Inc_8BE94031B2963207773F6FB41C91856B0C4F923277E087A3DB582C1050B9DFB2 0000000010112630     guideXOS.obj
 0005:00022660       __Str_Terayon_Communications_Systems_E8E906B661B69F12169587A97796345E43CC945476258308876EFB9E5B8DE081 0000000010112660     guideXOS.obj
 0005:000226b8       __Str_Termination_Failed__8DD8233CAB8219CE9715FBEAB3A186544FAAE43A532CA95BF47A3C14FA31AE69 00000000101126b8     guideXOS.obj
 0005:000226f8       __Str_Terratec_Electronic_GMBH_FC52BAF8B3A1D6E05F821F658DCF8EE74B3221C7E17DF23F97DEE647916AA6A6 00000000101126f8     guideXOS.obj
 0005:00022740       __Str_Test_Item_1_Test_Item_2_Test_I_6BD2A675AA5652AFEA1FA46CC6D24F2267C54F23601FBC8199BD64AF80CA997E 0000000010112740     guideXOS.obj
 0005:000227a0       __Str_Test_Window_EC1AA20D14A59ED7F362A73845888FC7D0E70E28E7BB796DAA5F5D93423FE6AF 00000000101127a0     guideXOS.obj
 0005:000227d0       __Str_Test_alert_from_new_window__6D535DEB31CC43AABB298DD6A2EFBC460C87827EA82A978DAF8468FF4BE77C7F 00000000101127d0     guideXOS.obj
 0005:00022820       __Str_Testernec            0000000010112820     guideXOS.obj
 0005:00022848       __Str_Tews_Technologies_03C667ECEBE33E15182CA1FA07A16C9081670578E13FA085C527CC7B634478A5 0000000010112848     guideXOS.obj
 0005:00022880       __Str_Texas_Instruments_A29F5878D8889668627D025D97097437478B3244D7B54DFF1480951B8D8931C8 0000000010112880     guideXOS.obj
 0005:000228b8       __Str_Texas_Memory_Systems_Inc_A780FC84207F83B9FB037070452DFE315D7BCA7B71283FA6076E3AD09AE8C4C9 00000000101128b8     guideXOS.obj
 0005:00022900       __Str_Texas_Microsystems_AB5999988AAB70AA713E1B9E37F3874B7A0E4DC67849ECE81D2417A598654524 0000000010112900     guideXOS.obj
 0005:00022940       __Str_The_3DO_Company_2998C3AB0BFDA6D290949A4F8F549899BA4840B1EBE2750996F2A65093FD3165 0000000010112940     guideXOS.obj
 0005:00022978       __Str_Thesys_Microelectronic_s_773636014808D26FFB367B26EDCE288D2528CA07C0A3F388E802E82AC377E40A 0000000010112978     guideXOS.obj
 0005:000229c0       __Str_Thine_Electronics_Inc_0E390011F9CC07DFE768958E6747A018B954F8626D87A05CA9769A7555712221 00000000101129c0     guideXOS.obj
 0005:00022a00       __Str_Thinking_Machines_Corporation_51BEA04739E6E869676910D652F3C7273FD095C468108A6C2F8CFCB55D815958 0000000010112a00     guideXOS.obj
 0005:00022a50       __Str_Third_Millenium_Test_Solutions_2F65DE7BDC802AF079FD04EA9E4884D3758C07440ABDF71760BD3FA4D3CC1B5D 0000000010112a50     guideXOS.obj
 0005:00022ab0       __Str_This_controller_is_not_support_673BC989F579D0A22B81C84FF9B2C85D4C5BD246047D958DE3FC36DEA04EDB0E 0000000010112ab0     guideXOS.obj
 0005:00022b08       __Str_This_indicates_a_critical_kern_04B6A533FEB1A8A0D049CBEFF622200C15099456EF0ECF73EDC1E9958CFC11AE 0000000010112b08     guideXOS.obj
 0005:00022b70       __Str_This_is_not_a_bitmap_291909945F55072867FF3DBA2BADB69361F3CB4DFD4D93D8B7A6557A14E80670 0000000010112b70     guideXOS.obj
 0005:00022bb0       __Str_This_window_demonstrates_GXM_G_6D0C426834F1BB3416D230331E1942443F7F85F7C14442DB11323429B8551419 0000000010112bb0     guideXOS.obj
 0005:00022c38       __Str_This_window_provides_access_to_594E740D2BD99882A87CD2D93E52E1B471C935DBA02E5C507B7A1ABE6DF1A563 0000000010112c38     guideXOS.obj
 0005:00022cd0       __Str_Thomson_Video_Networks_968E42888B1335364D347BB33E62A41614B03C78426BEE75331F8CCB07DD57FE 0000000010112cd0     guideXOS.obj
 0005:00022d18       __Str_Thomson_CSF_TTM_D37E020DCBAD6F0FA08063B26933A26FDE7B9C2B38459BB04BE75C172C4619DB 0000000010112d18     guideXOS.obj
 0005:00022d50       __Str_Threads__C9ED67090C9210A0B90CA4A9B18AADA83B6237CCB28054A0F65B2BEA6EA8635A 0000000010112d50     guideXOS.obj
 0005:00022d78       __Str_Tiger_Jet_Network_Inc_05D3C71EAB1F7262E61AE50F7EDC114554955322A0DD9BEF689F5EBC50416096 0000000010112d78     guideXOS.obj
 0005:00022db8       __Str_Tilera_Corporation_1405627375ED72316C4BD3BC48ACAF41FF4BCCEAF7D604164158323E3F76A526 0000000010112db8     guideXOS.obj
 0005:00022df8       __Str_Timeout              0000000010112df8     guideXOS.obj
 0005:00022e20       __Str_Times_N_Systems_Inc_6A456980FDED477AE3650AD8A4B6D7F9C7E21CFE736292FC63890BB06263CF6C 0000000010112e20     guideXOS.obj
 0005:00022e60       __Str_Timestep_Corp_58D4B924A191E57322E72AEBA1BE2EE47ECDCD5DF9EB536A20D05DC91605AAC4 0000000010112e60     guideXOS.obj
 0005:00022e90       __Str_To_ping_a_hostname__50757C7D777E9F774E31D340D8D5F8550A17309965CF04BB9CEE1968A6636FFD 0000000010112e90     guideXOS.obj
 0005:00022ed0       __Str_To_renew_your_IP_address__use__3961FFB05518F317D976B054F9FF9075E5B358F0205B8193A0F3A7A3710C1B95 0000000010112ed0     guideXOS.obj
 0005:00022f60       __Str_Tokai_Communications_Industry__603022281DBAF47A4BB707F34E35D6F55A2D4F8E0BDC6F13D850DCB5F0FDF109 0000000010112f60     guideXOS.obj
 0005:00022fc0       __Str_Token___BCC59BA44825C59766F4C0FBC542B7C7F0B789DF31F29E6C821476271169AA02 0000000010112fc0     guideXOS.obj
 0005:00022fe8       __Str_Tokimec_Inc_7BFF846364E60BAFF1C2CB3678D8FA55259076D8509FFBC897E82625ABEE9706 0000000010112fe8     guideXOS.obj
 0005:00023018       __Str_Tokyo_Denshi_Sekei_KK_D7007367FD6806F1BE06F00E2E99943A45AD9FEB54976100DDB38665B79745FE 0000000010113018     guideXOS.obj
 0005:00023058       __Str_Tokyo_Electron_Device_Ltd_0DF6BC3B5BE6780BEA4B50DB608917C804A8EBDA5FCC9DC8A377CDBAF14216E8 0000000010113058     guideXOS.obj
 0005:000230a0       __Str_Tokyo_Electronic_Industry_Co_L_893FC5AB3FBF9498450D2EAD4923C1DDC37BA9C9FA76A2DBD9FE496C88BCC966 00000000101130a0     guideXOS.obj
 0005:000230f8       __Str_Tombstoned           00000000101130f8     guideXOS.obj
 0005:00023128       __Str_Tombstoned_Apps_8A8860FA6F9ED7C7E0ECD5A2B48469F44827AB29A86E735BB8B12A2CA5D7FB19 0000000010113128     guideXOS.obj
 0005:00023160       __Str_Tool___0____Size___1_px_793955898602CD9BCEA993CE0E98A5145CD27696163EC96E080C918942CCA450 0000000010113160     guideXOS.obj
 0005:000231a8       __Str_Top_owner__E804E5CE3597ACD5292D4CA413D45106D93381E6A2748361ACA93C70A1FCBFEF 00000000101131a8     guideXOS.obj
 0005:000231d8       __Str_Top_tag__4DC0168F4F154E88DBCE862FC38CEF879F926EA866431BD8C7F32DF0345EE47F 00000000101131d8     guideXOS.obj
 0005:00023200       __Str_Topic_Semiconductor_Corp_D350A2F02D1293FCD496F1BCE458D11850B94F10056B6AE1AE3D97DCFFF9D216 0000000010113200     guideXOS.obj
 0005:00023248       __Str_Topstar_Digital_Technologies_C_5F073D32A6A86F0D90FA48709B454862E492DC98AB90D2538FC4668EE251E8D5 0000000010113248     guideXOS.obj
 0005:000232a8       __Str_Toshiba_America_3836F7189AD3487EAB65243979015B644188D5D15FC7AC0B4111F298455BA47C 00000000101132a8     guideXOS.obj
 0005:000232e0       __Str_Toshiba_Bluetooth_RFBUS__RFCOM_B9052C49DFC95FD597ECFD2055C2123C22B1268A3389C7B399A95CF54CD20784 00000000101132e0     guideXOS.obj
 0005:00023340       __Str_Toshiba_Engineering_Corporatio_882F870ECD5848C30B7602507FFD81F36C1DF6E0F2DCB5A3E13627ADE2939877 0000000010113340     guideXOS.obj
 0005:00023398       __Str_Toshiba_corporation_4680BA2BC20EA730D7C24C48C94E5D2F0890080DAEF9BDECA5F5DDD8147FED99 0000000010113398     guideXOS.obj
 0005:000233d8       __Str_Total_Free___Calls__CF0CC77EF4C9588F859BE53D0CAD9680C2F3E110169458A69125F4ECB3F62F9B 00000000101133d8     guideXOS.obj
 0005:00023418       __Str_Total_Heap_Size__FE445C9187AF7CE99241EDC33375A3F496C80C1153A869F5ADDC3CC890288D4D 0000000010113418     guideXOS.obj
 0005:00023450       __Str_Total__A6F82CEF8171C70920AA5B5A552BDCE5BD93E14DA25FB1263B892B50DB660694 0000000010113450     guideXOS.obj
 0005:00023478       __Str_Total___E42F52ECDD314E6A6973C37152A673284C417B383A72342599192D8319AA8236 0000000010113478     guideXOS.obj
 0005:000234a0       __Str_Tottori_Sanyo_Electric_Co_Ltd_70E62B98B4DDFB9287F37F362C364718EE203A82ADD26BA6D0D26B51D5301943 00000000101134a0     guideXOS.obj
 0005:000234f0       __Str_Toucan_Technology_6E8B4A5CCCDCB29ED323E5F7DDEB0C45C7237702B3A9A5E380264B769BA64221 00000000101134f0     guideXOS.obj
 0005:00023528       __Str_Toyota_MACS_Inc_AB6E191CDB816585046FABCB724D74DD9459E60741FA7FB4EFACB27876F9AC8F 0000000010113528     guideXOS.obj
 0005:00023560       __Str_Trancell_Systems_Inc_A272178F15BEA61EDE903B8DE634A4A7E35CADB93F701CD0B403CCCE781EA925 0000000010113560     guideXOS.obj
 0005:000235a0       __Str_Transas_Marine__UK__Ltd_CBFADAEC5065EBA675D74CA952A818EAD6D23C2667D10DBF342E93215B54B029 00000000101135a0     guideXOS.obj
 0005:000235e8       __Str_Transfer_Encoding_4444D1E395BBBA638B091E14A965CBC84EC617AA0F03A479C9277AF38C5F6ACC 00000000101135e8     guideXOS.obj
 0005:00023620       __Str_Transfer_Encoding__370D65F72D523CC166FEC3D758E8A1F5483F3250DA3BC813734BBE466C4D5BD2 0000000010113620     guideXOS.obj
 0005:00023660       __Str_Transition_Networks_7B26EB33F125B44AD891069ABE44C70755EDFBAE7D64354E579639EEAFCD64DD 0000000010113660     guideXOS.obj
 0005:000236a0       __Str_Transmeta_Corp_B83D1CC477C78DAA6905A711FC8E1258B62258CF04BA5392C8A4AC1A5C0D4E5F 00000000101136a0     guideXOS.obj
 0005:000236d8       __Str_Transtech_Parallel_Systems_21C29C278B6219AC40A4A785D9596852F2361C6A4A465FB4162A97F53319DE5F 00000000101136d8     guideXOS.obj
 0005:00023728       __Str_Transwitch_Corp_E2250C3637E8B6A210ED6AE9CF023294E4D2898335474ADC23115563968AE83C 0000000010113728     guideXOS.obj
 0005:00023760       __Str_Tricord_Systems_Inc_88D2A2D7F1AF37D55A5C201D57C086CCA1909EF5129CBBE7C128CAFA5D7B3E41 0000000010113760     guideXOS.obj
 0005:000237a0       __Str_Trigem_Computer_Inc_AEC24001ABE21AAA943084875DC98EFE0669E59F474027A3CC70E422920D8B30 00000000101137a0     guideXOS.obj
 0005:000237e0       __Str_Tripace              00000000101137e0     guideXOS.obj
 0005:00023808       __Str_Tritech_Microelectronics_Intl__25CCB2798199246CDE32A20E7DEDDFBE063298E6AB14826E98643E891D0386A8 0000000010113808     guideXOS.obj
 0005:00023860       __Str_Triya                0000000010113860     guideXOS.obj
 0005:00023880       __Str_Troika_Networks_Inc_ABEEFE155601C3DAC9794746D609BEB2A914AD388731AFF8CC99BF346E71E29A 0000000010113880     guideXOS.obj
 0005:000238c0       __Str_True                 00000000101138c0     guideXOS.obj
 0005:000238e0       __Str_TrueTime             00000000101138e0     guideXOS.obj
 0005:00023908       __Str_Truevision           0000000010113908     guideXOS.obj
 0005:00023938       __Str_Tseng_Labs_52BA334E4679A8FDBB757E20D09FC618FE42B7D794E2D0A2A86BAEEF2AEBFB3E 0000000010113938     guideXOS.obj
 0005:00023968       __Str_Tsenglabs_International_Corp_59D4EA7AF53D55BA0822057D071E8FBBD6CEB0B98ECAC0BC7E2B2FF4A13C1A3F 0000000010113968     guideXOS.obj
 0005:000239b8       __Str_Tulip_Computers_Int_l_BV_BAC3234A9CFDC00D4A9ECE5D7872AFE9F748445B14068B68D81EE1DEDEC0E4BD 00000000101139b8     guideXOS.obj
 0005:00023a00       __Str_Tundra_Semiconductor_Corp_B414E8A4815E5FE7F6130A00B5CE41ADBE6006A0A5A1A0C257EC1C73FF59A0D8 0000000010113a00     guideXOS.obj
 0005:00023a48       __Str_Turbocomm_Tech_Inc_B6608771CFFF31139B0B06E101E9EF90EC01137EC25B3E8FDEB7C18A4D3BB614 0000000010113a48     guideXOS.obj
 0005:00023a88       __Str_Tvia__Inc_6DCCF6076D8FD17174CDC91971BBC337B675909403FE0A356A42DF939954C2C9 0000000010113a88     guideXOS.obj
 0005:00023ab0       __Str_Twinhead_International_Corp_4DB79330E88ACC5013F6913D2723EFB48A93B15D9D855AE46F3D783BDFC88F73 0000000010113ab0     guideXOS.obj
 0005:00023b00       __Str_Tyan_Computer_BC467D76E7B711D56CF31EDF7E2C2079E6F8CFB25D09978CB3F59D93E6639CBC 0000000010113b00     guideXOS.obj
 0005:00023b30       __Str_Type                 0000000010113b30     guideXOS.obj
 0005:00023b50       __Str_Type_help_to_get_information__C18FAE548B269EE6FA6FA61216C29C1F1053FE536B536036D1218650B54073B3 0000000010113b50     guideXOS.obj
 0005:00023ba0       __Str_Type__Attempted_to_execute_inv_2878E58CEF609F67C82A875823E9182AC1AB65D3A17850B57B5DD060C20F8323 0000000010113ba0     guideXOS.obj
 0005:00023c18       __Str_Type__Division_by_zero_or_over_E2641062133F0CDDB83E0FD0D70EB57851808402BE40ACCCA5B21EDDD0C03F71 0000000010113c18     guideXOS.obj
 0005:00023c78       __Str_Type__Exception_occurred_while_49AE653219605DC55BDAD9C53E18D74FF150A63A863F903EEB9A7D12651B2C30 0000000010113c78     guideXOS.obj
 0005:00023d00       __Str_Type__General_Protection_Fault_B1FD6A239EFEB40F9A3AB43603F24E219CC9F0633774CAC7D3DF8F153F5E47B4 0000000010113d00     guideXOS.obj
 0005:00023d58       __Str_Type__Invalid_Memory_Access_8748E9AFFDFAB0C75C565C11F217951925216E5B47D5889581A6D41AF60E84ED 0000000010113d58     guideXOS.obj
 0005:00023da8       __Str_Type__NULL_POINTER_DEREFERENCE_2DAA7C2C1B6AFF6647CCA968BDF916832DFE3778D17CCFBB1A7520001FCEB116 0000000010113da8     guideXOS.obj
 0005:00023e00       __Str_ULSI                 0000000010113e00     guideXOS.obj
 0005:00023e20       __Str_UMAX_Computer_Corp_15ECE37FBB7F934A06D6818FCAC95FFCC8B65AD9CBFB572BE7CEE5194CE19ABD 0000000010113e20     guideXOS.obj
 0005:00023e60       __Str_UNKNOWN_EXCEPTION__0x_0_X2___2EDB48DF6D5C09C28C0A218388774933BF4D640AEB1C40B01C3ACBDC177A017F 0000000010113e60     guideXOS.obj
 0005:00023eb0       __Str_UPEK                 0000000010113eb0     guideXOS.obj
 0005:00023ed0       __Str_US_Robotics_373FE96484B700AF05F2D3695CF27CA5A1F548B96193E3DDE80D3D28C06A8A1D 0000000010113ed0     guideXOS.obj
 0005:00023f00       __Str_USB_Drive_E8B5FE80E6D2EBAB787940720F8F3EA80A5D66EA3E534577298F9D083F6D6201 0000000010113f00     guideXOS.obj
 0005:00023f28       __Str_USB_Drive__7DAA0672B117B0DC4A181F2B430DB37150E27AC43A4DDC331920EF5C571BB6AD 0000000010113f28     guideXOS.obj
 0005:00023f58       __Str_USB_Drives_7EBFA2359E5E46C85C5155259638457A2E0DCB2536CA4121E705329831AB3BAE 0000000010113f58     guideXOS.obj
 0005:00023f88       __Str_USB_Files_55F6D8B51E133CCE52A610060B541E62A105DA6FD4D5172C2206F613AD445148 0000000010113f88     guideXOS.obj
 0005:00023fb0       __Str_USB_Files__Read_only__3D87C66E64F1184C747422DF5E3D11E8DDF2ED7E39B01C0EE30540E8F13B478B 0000000010113fb0     guideXOS.obj
 0005:00023ff0       __Str_USB_Mass_Storage_81DB3ACACA24CC2942B0E4BD27403899A7F99B40D4B21BE304B5C49668AF54DB 0000000010113ff0     guideXOS.obj
 0005:00024028       __Str_USB_Rockey_dongle_from_Feitain_62660E80E929600AD8752C87A5ED83D0A948E702B454DDB4ABBC71B3181828A4 0000000010114028     guideXOS.obj
 0005:00024080       __Str_USBPDO_8_5A20CA66986AF0D81E16D536ABDADF5C9672A81D43DD007B0EC452A93E2A0508 0000000010114080     guideXOS.obj
 0005:000240a8       __Str_USER                 00000000101140a8     guideXOS.obj
 0005:000240c8       __Str_USER__4E858FDD67CCE46670E50788AA25AC4C431824650D540DFF0A127F525F845304 00000000101140c8     guideXOS.obj
 0005:000240e8       __Str_Ulticom__Inc_94F09F19FA08538A5EEC6FF361F0A40C838E32BF7AC537CA6F59BA39FD78C014 00000000101140e8     guideXOS.obj
 0005:00024118       __Str_Unable_to_read_file_33BF5B9E439037637AE41438B2F5A939C8CAFF3E6B9EDB6AC639E45073ECC54E 0000000010114118     guideXOS.obj
 0005:00024158       __Str_Unassigned_class_3438A70C9C32CC0D9B52849C5BA0A02BD16E5C15D0EE23DCB0773C02F4358DC3 0000000010114158     guideXOS.obj
 0005:00024190       __Str_Unclassified_device_293A06007DB6E3FF8BDB75B7789813E2950A0DF57C78FC3F0C5FC55199E7E7CD 0000000010114190     guideXOS.obj
 0005:000241d0       __Str_Undock               00000000101141d0     guideXOS.obj
 0005:000241f8       __Str_Unex_Technology_Corp_5F02BD1A40D214A329F58253B20F60C1E67742D4EF886EE77EBD52089D640F67 00000000101141f8     guideXOS.obj
 0005:00024238       __Str_Unibrain_SA_0CC7EAD05888E6BF7C8BB30FC5E6AC325070FE7C4CB877FFD1607939C32450BB 0000000010114238     guideXOS.obj
 0005:00024268       __Str_Unisys_Corporation_BED9E38A994EB884E8B3BDE3DA0B520571B64F507B12E16C800E3D69984109FD 0000000010114268     guideXOS.obj
 0005:000242a8       __Str_Unisys_Systems_DC83079D9ADA7C1F495BD62D65516B295CBEC62CC9513B9D27E1DDB0CE741CD9 00000000101142a8     guideXOS.obj
 0005:000242e0       __Str_Unitec_Co_Ltd_34CC9E6BECFA86B1AD4E59239AC122AE5CFCA3C218556C1285347D42C2CA0976 00000000101142e0     guideXOS.obj
 0005:00024310       __Str_Unitech_Electronics_Co__Ltd_EC359E09FDC72B4CEE279A175BDD8D38F24BD1FE160FB902703D44675F414365 0000000010114310     guideXOS.obj
 0005:00024360       __Str_United_Microelectronics_931F92C89BDDF9462B7A1EC78E2D656977645EA9962AFEB9F1312E99B1572096 0000000010114360     guideXOS.obj
 0005:000243a8       __Str_United_Video_Corp_5C35FC18CF5C5D53F357C98FA72F32D01401B9D9BD963F9C78822E31E5C69323 00000000101143a8     guideXOS.obj
 0005:000243e0       __Str_Universal_Scientific_Ind_48F27A200E832E3BB847BE3509DCCA0AFC9994E6BEC9E9CE28DA31D7906B69BE 00000000101143e0     guideXOS.obj
 0005:00024428       __Str_Unknown              0000000010114428     guideXOS.obj
 0005:00024450       __Str_Unknown_class_4B7857763F894747003295A221415AD4AFD368AF8E5A40B845D37FACFC8BC912 0000000010114450     guideXOS.obj
 0005:00024480       __Str_Unknown_command___F5455D59591A51EBFA335125DEE2902B7116252639BAF789B16AD5315D814184 0000000010114480     guideXOS.obj
 0005:000244b8       __Str_Unknown_parameter___8661CD05699244FEAF1B0CB5794C50C737D283E6CAB841F23BBEBDC5E63E131D 00000000101144b8     guideXOS.obj
 0005:000244f8       __Str_Unknown_seek_6915F0E145DDA6C273E76A37B7F0C9F7EAAC8EB75579601E750090FCF77B667D 00000000101144f8     guideXOS.obj
 0005:00024528       __Str_Unlock               0000000010114528     guideXOS.obj
 0005:00024550       __Str_Unsaved_changes_F4971E176FB63707895C99D0CE3BFD06EE32A9D20FA70D57E34CFA5E69B3A314 0000000010114550     guideXOS.obj
 0005:00024588       __Str_Untitled             0000000010114588     guideXOS.obj
 0005:000245b0       __Str_Up                   00000000101145b0     guideXOS.obj
 0005:000245d0       __Str_Up_Level_80B0D0B7FB094D998831C9E53862B340F2482A79106B32A3C2DAF6AA66E28C3C 00000000101145d0     guideXOS.obj
 0005:000245f8       __Str_Up_one_level_FA8C73EC942858991ABE50C2EA8B0F6CA1AC34C37759E61D1CC090B13868CCAF 00000000101145f8     guideXOS.obj
 0005:00024628       __Str_Update               0000000010114628     guideXOS.obj
 0005:00024650       __Str_Usage___join__channel_B82E10986A6965D29E994A7FD620C3C9F8D45F4F4622157076E345A5A4E62244 0000000010114650     guideXOS.obj
 0005:00024690       __Str_Usage___nick__name__B2933783CFCF7BBEA9E166F926E4C748820C0753D5991C3AB6D1C1F1DE9B826D 0000000010114690     guideXOS.obj
 0005:000246d0       __Str_Usage__authlogin__username___p_2712304A6471F8DDBA7BC99E45F53CBD4DE85964E9B2AE01D9F9DE7671B740A9 00000000101146d0     guideXOS.obj
 0005:00024738       __Str_Usage__authregister__username__D22498FAB18B57297C7AC87B319E42A099721F61F9A3F8594D4D655C1BF348CA 0000000010114738     guideXOS.obj
 0005:000247a0       __Str_Usage__authurl__http___host_po_CFFE964D12B10B29D3411A805520FBA10464AE4F667357C9C2EC784FEEA7EB9C 00000000101147a0     guideXOS.obj
 0005:000247f8       __Str_Usage__cat__file__299DC1A2AF416917413C83AB89F4A09C66F58B9A992290065D623C7207C96C32 00000000101147f8     guideXOS.obj
 0005:00024830       __Str_Usage__cd__path__026D36C28AC045BA4B010E9083124DA58DC1B5A9D647994260DDB21B6F9BCFF8 0000000010114830     guideXOS.obj
 0005:00024868       __Str_Usage__dns__host__4BEE249F851D78FAB86B93D5BB7FB61F163E2DB63167D21EF831EB4EB7174669 0000000010114868     guideXOS.obj
 0005:000248a0       __Str_Usage__fwadd__program__DA4B08CA54BA51B7821F6D0A4510F334E051FF36B160A8353533188CBCBF67CB 00000000101148a0     guideXOS.obj
 0005:000248e8       __Str_Usage__fwmode__normal_blockall_1E46F5FD43C022FED36BC1A96F09840679237B78B093042F139DE81109BA07D8 00000000101148e8     guideXOS.obj
 0005:00024968       __Str_Usage__gxminfo__file_gxm__EAAA745938FF5A9C68E0FB8AF9FB072645AF143754E7CEF4792968A9646373BE 0000000010114968     guideXOS.obj
 0005:000249b0       __Str_Usage__ipconfig___release____r_A77EE83BF8F3DF5DA281E7F854BC2B805A1C8BCDDC898EADA633066384FA6E94 00000000101149b0     guideXOS.obj
 0005:00024a10       __Str_Usage__launch__appname__826DDA9C843D0C076ACC4C8E1C409682B9C40B0D8B09986E0BE658887F297D00 0000000010114a10     guideXOS.obj
 0005:00024a58       __Str_Usage__launchscript__script_tx_F0DF900F06F87EBE4EBF0C1A569CC9CFC033D9F0EC49D88D701166DB266C42DB 0000000010114a58     guideXOS.obj
 0005:00024ab0       __Str_Usage__mueinfo__file__A268166FF33CDC970AD5EAADD337F6B8A07C2D295C460AF6C57106E48376BE44 0000000010114ab0     guideXOS.obj
 0005:00024af0       __Str_Usage__notepad__file__1DB6325951D16CFD08AA6B65F4677F3EF4BA6D6A3C18493C9386C22935D54A99 0000000010114af0     guideXOS.obj
 0005:00024b30       __Str_Usage__ping__ip_address__8A9C5D2258F59D189D1A9848D4748F094D4F11A01BA4536D81A54693D49342AC 0000000010114b30     guideXOS.obj
 0005:00024b78       __Str_Usage__setbg__image__2BF568921261CEFEE5723A73B9FE8A56E7FDFEC5DB7C24802DEA1E3FB5203A27 0000000010114b78     guideXOS.obj
 0005:00024bb8       __Str_Usage__vi__file__B4C1D8A8FF35C2C90EE12895B622887DEB9753B3976FACA4D62E40F316BBD454 0000000010114bb8     guideXOS.obj
 0005:00024bf0       __Str_Use__apps__to_see_available_ap_2A9B4FD0DE140DB05B9FF81EC05BA2D7235745AB14C1416AFCA43D9C0C186BA6 0000000010114bf0     guideXOS.obj
 0005:00024c58       __Str_Use_the_following_DNS_server_a_6B31F1FB1DF1717835CF854C8E681575FA951FAC7A8BF60393887DC165965AF0 0000000010114c58     guideXOS.obj
 0005:00024cc0       __Str_Use_the_following_IP_address__8D02A9E352D90111929F01E112E03D3EAE38B7E01E47C2B5C9AB838C68DE0E57 0000000010114cc0     guideXOS.obj
 0005:00024d10       __Str_User                 0000000010114d10     guideXOS.obj
 0005:00024d30       __Str_User_Agent_1387B5888B76FDD8F1A4D0728155D0A8ED0FAF06C8FD9AC9D03550DF5952CEC8 0000000010114d30     guideXOS.obj
 0005:00024d60       __Str_Utilization__49E885E46077102F6980865678E4625BFCE393AD13A14EC114753EF3C9EE3BD2 0000000010114d60     guideXOS.obj
 0005:00024d90       __Str_Utimaco_Safeware_AG_D39E08774C4D3986CA38540611AE14A6F17E31862FA53113116F4DA8BC8C35DD 0000000010114d90     guideXOS.obj
 0005:00024dd0       __Str_VIA_Technologies__Inc_12D6C1D93EE070169281A4BCA2A938E4D60AF38C0DDFEB620C6091EA35595D73 0000000010114dd0     guideXOS.obj
 0005:00024e10       __Str_VIRTUALIZATION_EXCEPTION_73C400AA3DAD0A1DDF7B717BA7E9E1AA8B4ACFFCE7860711E160EE9FF926195F 0000000010114e10     guideXOS.obj
 0005:00024e58       __Str_VLSI_Solution_OY_11F978A43B9462F0EBEB6B4E702E052F00EEAA9189C711E11A38111B01B2C445 0000000010114e58     guideXOS.obj
 0005:00024e90       __Str_VLSI_Technology_229FBA1A4D28909FAA48277B689A1F447046291F0CC3CAF82B507B81846E72B2 0000000010114e90     guideXOS.obj
 0005:00024ec8       __Str_VM__0__AC__1__VIF__2__VIP__3___9F4E8633B5362EED1FF67AB1E53B90428D5E109F59B70B99695FD932D5F68098 0000000010114ec8     guideXOS.obj
 0005:00024f28       __Str_VMIC                 0000000010114f28     guideXOS.obj
 0005:00024f48       __Str_VMware_Inc_682E8211D46A60EF16AAB433A48843AFB6DB382CB1ADE7E9C9932C6A6C57F01C 0000000010114f48     guideXOS.obj
 0005:00024f78       __Str_VSN_Systemen_BV_DFBCCCBE7640BBDBA6A9B4066080E8D67D259EE8E2D451637CCCE83454992150 0000000010114f78     guideXOS.obj
 0005:00024fb0       __Str_Vadem                0000000010114fb0     guideXOS.obj
 0005:00024fd0       __Str_Validity_Sensors__Inc_23D924256E2CF27DD36A506E85DC7D0A8CB6D05CA7ABEC734DF2209A664FE5F5 0000000010114fd0     guideXOS.obj
 0005:00025010       __Str_Valley_Technologies_Inc_A275B43E80F2C34E598A8FB2B60AE6727816BDC67F2AB679152471527F16028E 0000000010115010     guideXOS.obj
 0005:00025058       __Str_Valuesoft            0000000010115058     guideXOS.obj
 0005:00025080       __Str_Varian__Inc_4DA03A613D280F4CE71996E3BF7F72FD76AA9906E98B15E556CE86EE09B68BA7 0000000010115080     guideXOS.obj
 0005:000250b0       __Str_Varisys_Limited_E7CE56ADF1F7DA2217E4887A640D9EE66F54B35B301501B9DDD1107B88504836 00000000101150b0     guideXOS.obj
 0005:000250e8       __Str_Vector_Informatik_GmbH_8188D0B02B8CEA78560B945B02497EE4FC1D71D8F5EB067C1F0B20CAD7B969B0 00000000101150e8     guideXOS.obj
 0005:00025130       __Str_Vela_Research_LP_2CD3983946D260BBCB65B56EBF2B1FCDFBC6DF59476DC92F76A5DF5C0B724617 0000000010115130     guideXOS.obj
 0005:00025168       __Str_Vendor_10EC_Dev_8168_8169_D5FFF592D85D329F57B9BED10F0DDD56ECD9CCBD0E047221602544EE6DEF00F6 0000000010115168     guideXOS.obj
 0005:000251b0       __Str_Vendor_1274_Dev_1371_A2196FB9362B9A6038EEE48D9DAEAAD33AC8ECDE23A5232638B7A916B07C6FD3 00000000101151b0     guideXOS.obj
 0005:000251f0       __Str_Vendor_8086_Class_02_1FB34B964C7C8AF280A345ADF475D393E8A4EA83E72ED53989070B21F2635A31 00000000101151f0     guideXOS.obj
 0005:00025230       __Str_Vendor_8086_Dev_2415_E926B9841A54816358CF6FA3E8152B075D2AB47F16D44F3961F6812A33D6F49D 0000000010115230     guideXOS.obj
 0005:00025270       __Str_Verisys_Inc_025473EA3492D17A326B9CA4A9EBBBA60B06ECCE2E65DC8722C56F77DDBDA595 0000000010115270     guideXOS.obj
 0005:000252a0       __Str_Version_2_0___Comprehensive_Se_8D11EA5D260B9FC4C0A65C531AD4750F579401C55120FA43DA462C34DBFBDD50 00000000101152a0     guideXOS.obj
 0005:00025318       __Str_Version__0_2_EF40122D25BE25F0CA3FCAA9AE1160CE365CD77ABD4C52FEF06E133A68410495 0000000010115318     guideXOS.obj
 0005:00025348       __Str_Version__0__EntryRVA_0x_1_X8___1CAB6092F3CF4D2C8A3A9970A2C5A1A418FE628DB5742B90A36DFC0A8DF4D413 0000000010115348     guideXOS.obj
 0005:000253c0       __Str_Vertex_Networks_Inc_8A5B43AC5544493D8298692A7947C32835E023D1919534FE27A298CD2D796E12 00000000101153c0     guideXOS.obj
 0005:00025400       __Str_Vetronix_Corporation_Engenhari_D7CAD9CFBA0F2FD6D4F3492580C4FCCCFA964CD618244299919D73347FFD4E44 0000000010115400     guideXOS.obj
 0005:00025460       __Str_Victor_Co_of_Japan_Ltd_3EC386611D05BE36E45A29031A65AB491DA02B5C4AF4F379EFAD59F3A4B96B4E 0000000010115460     guideXOS.obj
 0005:000254a8       __Str_Vidac_Electronics_GMBH_EB89265CAB0BA9C89130FE460FD3ECBD4337A1D2306BA6F394569E45B94EEEDC 00000000101154a8     guideXOS.obj
 0005:000254f0       __Str_Video_Logic_Ltd_9D863337758FFC8BE413D6E1FAB65CD06EC6EE0892BD5AD24D2C5192AF98433D 00000000101154f0     guideXOS.obj
 0005:00025528       __Str_VideoTelecom_Inc_DBCCC095D3E8ADC2941B1C00048AFEB36B6794639A8447F20489ACA5032C2713 0000000010115528     guideXOS.obj
 0005:00025560       __Str_Videomail_Inc_81BC9699B5D6A976ADA4D42816DDF983169EF942C416514F842C7139204B527F 0000000010115560     guideXOS.obj
 0005:00025590       __Str_Videotron_Corp_70EAA7EAABE322B80BF7797CF7A79ADABBD7B76F14281620E1482E9B689236F9 0000000010115590     guideXOS.obj
 0005:000255c8       __Str_Vienna_Systems_CECEBF1891A467DD9479240B41D4FAD6989093459B94442429D674904948E65D 00000000101155c8     guideXOS.obj
 0005:00025600       __Str_Viewcast_Com_21B4FD57F9B07FD8B890685E4DD2DAA9EB8023AE9A794E5DD6B452003C293DEE 0000000010115600     guideXOS.obj
 0005:00025630       __Str_Viewgraphics_Inc_4B1C913CC0E23072ACB590DF3F2AE132E263F1B34E6D8AE2A701B6A1769ACFF5 0000000010115630     guideXOS.obj
 0005:00025668       __Str_Vingmed_Sound_A_S_D975D27077141769EB83DE42060D6AB4ED89D4DE02C12DEDC5D894914A153808 0000000010115668     guideXOS.obj
 0005:000256a0       __Str_Visicom_Laboratories_Inc_401AFF2C906ACF2EDD4A5813DA17395B705F48EE4127935374239B565E289789 00000000101156a0     guideXOS.obj
 0005:000256e8       __Str_Vision_Dynamics_Ltd_BA20311A1D6DC8BDC6001B927AB5A6164C82BA559FF73A6D131C32D206FBCC31 00000000101156e8     guideXOS.obj
 0005:00025728       __Str_VisionTek            0000000010115728     guideXOS.obj
 0005:00025750       __Str_Visionglobal_Network_Corp_80DCDDE231447616665F7BC3AE55ACBCA8D739AE1D79D7F1E1D893BC80B435A6 0000000010115750     guideXOS.obj
 0005:00025798       __Str_Visiontech_Ltd_06E0199C8262B322AD1789B900F9CA82EC8CABC0F9B67BEE871701CC05A219E4 0000000010115798     guideXOS.obj
 0005:000257d0       __Str_Vista_Controls_Corp_8E650BC1A00F7E37D6DB942E2FA9C5AE8475CB156DA68F354EA9CFA05742514C 00000000101157d0     guideXOS.obj
 0005:00025810       __Str_Visual_Effects_5BF5C1E91D116835521111FF214950A40BF75B6730536AB9FE9EC0B32A80D2C8 0000000010115810     guideXOS.obj
 0005:00025848       __Str_Visual_Effects___UI_Settings_0CC0D937B3619EED1808820FE75C22D95E9AC8F124FBE360CAD07D604E36653C 0000000010115848     guideXOS.obj
 0005:00025898       __Str_Visual_Technology_Inc_9979A64DA00D9B47DF89AE1B68DB1FF8475610766C3EB7357B30C142001F1E87 0000000010115898     guideXOS.obj
 0005:000258d8       __Str_Vitesse_Semiconductor_04BF45DB60B1712216C22CE8A122F5698510830D452FA0B7B8B2F793E6A6E116 00000000101158d8     guideXOS.obj
 0005:00025918       __Str_Vivid_Technology_Inc_11A306BB37176FC4FA48173B5021F904C10F5E766AEFBDCC0D82C8A5ACBEA140 0000000010115918     guideXOS.obj
 0005:00025958       __Str_Voarx_R_D_Inc_EEED53A944FC3413E59BD3FDD5B11532488F284683FF3716A5A2D6023E6E11C4 0000000010115958     guideXOS.obj
 0005:00025988       __Str_Voice_Technologies_Group_D6F9C4FE9D33FE1E2DCE322D3B41E94FA4CA40EA1AF8E036103BEFD2FE6E844B 0000000010115988     guideXOS.obj
 0005:000259d0       __Str_Voltaire_Advanced_Data_Securit_5A28ACC81AF9201B2A1339D4BAAD1D4EA094B6426B4A12FD7295C5F3B153C0C6 00000000101159d0     guideXOS.obj
 0005:00025a30       __Str_Volume               0000000010115a30     guideXOS.obj
 0005:00025a58       __Str_Volumes              0000000010115a58     guideXOS.obj
 0005:00025a80       __Str_Vtech_Engineering_Canada_Ltd_655575E7C74C2E3549C012E30B31D01BB3638AD0DE956AC38B972E992C66C098 0000000010115a80     guideXOS.obj
 0005:00025ad0       __Str_WARNING__DHCP_renewal_may_take_BA7B132F16C7A7545C806A6CEA0ADE356986088B7C6227A34218C03C2ADF355B 0000000010115ad0     guideXOS.obj
 0005:00025b78       __Str_WAV_Player_19ADD53D83596C4DF825B80BC7512596E23D0D402CD185E3EC37B9FD75B01A69 0000000010115b78     guideXOS.obj
 0005:00025ba8       __Str_WAVPlayer            0000000010115ba8     guideXOS.obj
 0005:00025bd0       __Str_WINDOW               0000000010115bd0     guideXOS.obj
 0005:00025bf8       __Str_WIS_Technology__Inc_D0F65A35A437F23059D8A886FC71F5B93DD5371F54A0A5035D737A550D8340AC 0000000010115bf8     guideXOS.obj
 0005:00025c38       __Str_WMS_Gaming_FB2BBE7D44451708F0B33406A038ACDBABBC2FA5D2D5DCF26C83DAC6AB417C5E 0000000010115c38     guideXOS.obj
 0005:00025c68       __Str_WRITE                0000000010115c68     guideXOS.obj
 0005:00025c88       __Str_Waiting_for_network____679A2DDEF364311C06187AD6A337F1EAE887CD0B88F459701935663053DFCCB5 0000000010115c88     guideXOS.obj
 0005:00025cd0       __Str_Waiting_response____FD5D9F1A82609623BF65959C00E23CEAB8594A3F0F99F2A6174E68F36229878F 0000000010115cd0     guideXOS.obj
 0005:00025d10       __Str_Waiting_to_build___0__10_57FFE1F054F42F7390D0D12902FC70C1A44F23E923984F9AEB92729A10C3D98A 0000000010115d10     guideXOS.obj
 0005:00025d58       __Str_Waldo                0000000010115d58     guideXOS.obj
 0005:00025d78       __Str_Warp_Nine_Engineering_02A81D3E9C1B7386B6A4987EBFFFF709CC63F6AE8F38FE85EC27150D3E01157B 0000000010115d78     guideXOS.obj
 0005:00025db8       __Str_Warpspped_Inc_53E04FE1E21DFFFD64400679745BE540DE9D347E379F80EF88D092F86D52C27A 0000000010115db8     guideXOS.obj
 0005:00025de8       __Str_Web_Browser_CAD969C729AEDBAE5C7564539059F85D83522DAA0391D3BC303B634F61A90809 0000000010115de8     guideXOS.obj
 0005:00025e18       __Str_WebBrowser           0000000010115e18     guideXOS.obj
 0005:00025e48       __Str_Weitek               0000000010115e48     guideXOS.obj
 0005:00025e70       __Str_Welcome              0000000010115e70     guideXOS.obj
 0005:00025e98       __Str_Welcome_to_guideXOS__this_is_a_5794EDCC0BC43C4465307F6748A59CD80D2BD56A20E4F598352B7655A493F129 0000000010115e98     guideXOS.obj
 0005:00025f70       __Str_Wellbean_Co_Inc_EF5CE58F388980A3F8C433B08912D4C9BA0566ABE3A14997E6BD7D9B744460B7 0000000010115f70     guideXOS.obj
 0005:00025fa8       __Str_Western_Avionics_Ltd_519C27B6FBA7F374AD7D771FBB9B3859D9D9E3C6D57A8BC7EE3B23234DFC5368 0000000010115fa8     guideXOS.obj
 0005:00025fe8       __Str_Widget_Animations_C260BB82EEC41DB6A5510E720DABC1851F8AC422193957399C8BC8B0AA82AE3B 0000000010115fe8     guideXOS.obj
 0005:00026020       __Str_Widget_Fade_In_Duration__DBF9C451F04FCE1C7FFFDFD14868D640B2AFACD53C8A7DC1EF42A9C4788EE363 0000000010116020     guideXOS.obj
 0005:00026068       __Str_Widget_Fade_Out_Duration__FA4891EB75353910562A07C9BB308CA79080B8662D63BFDD2EE38E800F073CA0 0000000010116068     guideXOS.obj
 0005:000260b0       __Str_Widget_Settings_2528AB718943FF437B70C1CFC10E479E08365BEC0BA1068B4AD4D8A9987021A8 00000000101160b0     guideXOS.obj
 0005:000260e8       __Str_Widgets              00000000101160e8     guideXOS.obj
 0005:00026110       __Str_Width                0000000010116110     guideXOS.obj
 0005:00026130       __Str_Wilson_co_ltd_6BCE6EE3D4FF2D1C731E71A83F4D6AFA6610D0772D8C8D432B0C2565B929E6C1 0000000010116130     guideXOS.obj
 0005:00026160       __Str_Win_System_Corporation_06A520E5C72C387CD54E9B05C8C843884127DCACFA406B26CA781ABD2765CA84 0000000010116160     guideXOS.obj
 0005:000261a8       __Str_Winbond_Electronics_Corp_BC4D0F1AE9B0D96B8220B448FBB55775155A6FFCB9DEEE056C918258A3C847A7 00000000101161a8     guideXOS.obj
 0005:000261f0       __Str_Winbond_Systems_Labs_A4D7299311F9319318CB6A5E6AAEE691AB454D7228F4C701B3906323022BEA53 00000000101161f0     guideXOS.obj
 0005:00026230       __Str_Window_Animation_Settings_E4504421C08A4DC6689C751000DC8720DBE22A3A4B5773F4A3017A8F45C6FF69 0000000010116230     guideXOS.obj
 0005:00026278       __Str_Window_Rendering_Settings_036D60FA4CAD81C43FBC81E3A2194650C8AA364B6A4E734EE31BD64C22A86269 0000000010116278     guideXOS.obj
 0005:000262c0       __Str_Window_Visual_Effects_0CE582D1B13F2DA712A8531341700D88CAD14F38E15F9C94D7BED240706B5CE2 00000000101162c0     guideXOS.obj
 0005:00026300       __Str_Window_drawing_error_E217A85BE3FCC7BF0259D4E0D46A5E03D30815EADBE963805772FBB3E9F422F5 0000000010116300     guideXOS.obj
 0005:00026340       __Str_Window1              0000000010116340     guideXOS.obj
 0005:00026368       __Str_Winnov_LP_39535126052355F52778CA010CE681BAE89D293212E397D2ACE2CDF95012C88E 0000000010116368     guideXOS.obj
 0005:00026390       __Str_Wipro_Infotech_Limited_97BEA5927C048DF589F8F0BC5C0BE52CD620E069958E8ECE267A475A0F1A197C 0000000010116390     guideXOS.obj
 0005:000263d8       __Str_Wireless_controller_605A3306C38D6FA0F055AF63A70F50BDAFC00630C8D5EA4F23C1258CEC71CE02 00000000101163d8     guideXOS.obj
 0005:00026418       __Str_Wistron_Corp_5C7BF13D304084F7742209B88AD736CE2A6F7F748073933685963C35FC817E09 0000000010116418     guideXOS.obj
 0005:00026448       __Str_Wolf_Technology_Inc_4A138CDB3E1AE8F7D45990F7965AE4C3CFF5B59E7D70D0F42AADCA65FE4C6A71 0000000010116448     guideXOS.obj
 0005:00026488       __Str_Woodward_McCoach_Inc_9821744325B77D6058D28B36AD5158EA8F3A3D39EAEF2597CE79B7A71C8F3202 0000000010116488     guideXOS.obj
 0005:000264c8       __Str_Workbit_Corp_8ADFB57E0DEFB8C1370E4D32AC20F97E444CEA9EC43942A54E4CCCA97093BB2B 00000000101164c8     guideXOS.obj
 0005:000264f8       __Str_Workspace__534468A49852D65D5A470F1E53F1F44C95B4C73E6B1DA427BA85CDF339C49C14 00000000101164f8     guideXOS.obj
 0005:00026528       __Str_Workspace_switcher_opened_C5C9EAF4EE4C4140E8E546D9F78BD20D68344F044136F00547398FC76D179C4A 0000000010116528     guideXOS.obj
 0005:00026570       __Str_Workspaces           0000000010116570     guideXOS.obj
 0005:000265a0       __Str_Worldspace_Corp_955A70DA6297FAF5ABE6CBCDC8144CC923D6D06AFCE692D2F344F5BB9EA597EA 00000000101165a0     guideXOS.obj
 0005:000265d8       __Str_Wrap                 00000000101165d8     guideXOS.obj
 0005:000265f8       __Str_Write                00000000101165f8     guideXOS.obj
 0005:00026618       __Str_Write_speed__AA6B4A55BADFAC584C8C061D31FB0D925A161235533D8D9EBDCECA2E04096D7C 0000000010116618     guideXOS.obj
 0005:00026648       __Str_WriteLine            0000000010116648     guideXOS.obj
 0005:00026670       __Str_WriteString          0000000010116670     guideXOS.obj
 0005:000266a0       __Str_Written__EB8554CB527940F7DD50C69DFD1DCD0A578A0D342071887FD4C7A93508094B2A 00000000101166a0     guideXOS.obj
 0005:000266c8       __Str_Wyse_Technology_AF24FF872A217A024741AA621FF4AD3F25DFA0051495D9213757BE5E134C327F 00000000101166c8     guideXOS.obj
 0005:00026700       __Str_X_Net_OY_0FD55764E45AFBC22DAE05C2B2C7ABC528A989A886A008F181A541E353CA0F45 0000000010116700     guideXOS.obj
 0005:00026728       __Str_X2                   0000000010116728     guideXOS.obj
 0005:00026748       __Str_X4                   0000000010116748     guideXOS.obj
 0005:00026768       __Str_XGI_Technology_Inc_799069CFD27E0DC60714423E06C6CA57961F4D16A5313A46D5A3801515E14C74 0000000010116768     guideXOS.obj
 0005:000267a8       __Str_Xerox_Corporation_E1854CCAF3FE3BC991C8E97C804188FCFC04DADECCE01C853E752505722A0F0C 00000000101167a8     guideXOS.obj
 0005:000267e0       __Str_Xilinx_Corporation_CF750B7C8CB4FCE678390DFAAA1BDEA5A9A23095135B0F3200AE078DF9C18237 00000000101167e0     guideXOS.obj
 0005:00026820       __Str_Xiotech_Corp_8D4F1D5BA607F09CA5795D2D5B789F8B92615747BDF2875351F56A2559C78E9F 0000000010116820     guideXOS.obj
 0005:00026850       __Str_Xircom               0000000010116850     guideXOS.obj
 0005:00026878       __Str_Xirlink__Inc_EDD5AF9ACE10C4B8FB61C208AA9F60714BE32EA3A17936FF7697F4294AE4A444 0000000010116878     guideXOS.obj
 0005:000268a8       __Str_Xpeed_Inc_6E0FEC51E04797E6F9121EA9810B7A9F95DC072CACA2B80FA24265093A88214D 00000000101168a8     guideXOS.obj
 0005:000268d0       __Str_Xpoint_Technologies_Inc_7F4DC1377B60128787823B1171B8349BA0AB4ABC1820C0EE95508F345A32169B 00000000101168d0     guideXOS.obj
 0005:00026918       __Str_Xstreams_PLC__EPL_Limited_3EE416A9913B05C4568674A947A88A629AC4D22B4745E55A07FC6CD40D16C64A 0000000010116918     guideXOS.obj
 0005:00026960       __Str_Xylon_Research_Inc_4D3F3510290F786DC09F8EF29BA1AFF6DFB35800FB2DE285DEE4E3DFB9A1BC7F 0000000010116960     guideXOS.obj
 0005:000269a0       __Str_Yamaha_Corporation_B429E5BE44DB4A5F4BEC1011A19C58AE56A508C716C5E459805F8A0BB0EB2C35 00000000101169a0     guideXOS.obj
 0005:000269e0       __Str_Yamakatsu_Electronics_Industry_CBCB9E69C99FD69AF88DEA42E73E4FCC1476E34C7522594F11FCE4246F1EDC99 00000000101169e0     guideXOS.obj
 0005:00026a40       __Str_Yamashita_Systems_Corp_9B591A27C782D027DAC0C98A81FC1C590801464509CF1CC701FBD78ADCB8C347 0000000010116a40     guideXOS.obj
 0005:00026a88       __Str_Yaskawa_Electric_Co_6177C00B38499E8CE497FE8DE5206B59F7B9EFF0427FE5086E80877605106F73 0000000010116a88     guideXOS.obj
 0005:00026ac8       __Str_Yes                  0000000010116ac8     guideXOS.obj
 0005:00026ae8       __Str_Yokogawa_Electronic_Corp_DD47FAA4F28F1BC2CFE7EE90A6FC351B372DCAEB9038DDECB19FB45F3CB52B22 0000000010116ae8     guideXOS.obj
 0005:00026b30       __Str_YottaYotta_Inc_79BB9992BEED2BAEB8A83982555876331004F3021FF18805240271EB51FB7FC4 0000000010116b30     guideXOS.obj
 0005:00026b68       __Str_You_can_get_IP_settings_assign_337031B3DA701673BB77FD9907D9EB76FF3B8B10669134300CF997BFD3FB126E 0000000010116b68     guideXOS.obj
 0005:00026bf0       __Str_Young_Micro_Systems_302CA225AC013AD5AF94C39B66931D9ED62820E0D4D151E9C0FBC7E808D456DF 0000000010116bf0     guideXOS.obj
 0005:00026c30       __Str_Yuan_Yuan_Enterprise_Co_Ltd_3A53FC4AAEAA15F56F61A86325338725C8AD15041BFF2BBC0C51F655CA621EE9 0000000010116c30     guideXOS.obj
 0005:00026c80       __Str_ZNYX_Corporation_06F29BAC7607E8DA8F713FBD46D35E906BB37D26E0114B88FB04C4BD82E11065 0000000010116c80     guideXOS.obj
 0005:00026cb8       __Str_ZXCVBNM____1AB2F8B44BBC0889785E08030B91A1657725CF31165AFA4C863A44929B15DABC 0000000010116cb8     guideXOS.obj
 0005:00026ce8       __Str_Zapex_Technologies_Inc_A3BA9D1A4B93182BF6DFC613F3845AC3DF51DB74B90D66789A230E25F008017F 0000000010116ce8     guideXOS.obj
 0005:00026d30       __Str_Zarlink_Semiconductor_2AD31E1F86778F41F3F4343525941F81B9F879D644FEF6A3C3AAA791069A4AF5 0000000010116d30     guideXOS.obj
 0005:00026d70       __Str_Zenic_Inc_B7C8EE8DB1DB282444B0863BEA9CB68E9022EF7D6B4DBEDE21CF35ADB6125900 0000000010116d70     guideXOS.obj
 0005:00026d98       __Str_Zenith_Data_Systems_D89EDEF305FFC16D6B6BFA6FB883B00DD8DD4CD2012D26EC8E471B644A041B30 0000000010116d98     guideXOS.obj
 0005:00026dd8       __Str_Zenith_Electronics_Co_E0233FE45297B8FE0BD8557A5A27470D6D900E4E8E3619C643BAD788E58EFC89 0000000010116dd8     guideXOS.obj
 0005:00026e18       __Str_Ziatech_Corporation_D2A38975E5493018FCDDE1D0C1505685DE7397AF1A1A8B6424EED876E8E05362 0000000010116e18     guideXOS.obj
 0005:00026e58       __Str_Zida_Technologies_Ltd_0C3DA8DB8E3E975240DE07800DEBB0509A08F3712BB4BAA2F1B2A85348F2B31F 0000000010116e58     guideXOS.obj
 0005:00026e98       __Str_Zilog                0000000010116e98     guideXOS.obj
 0005:00026eb8       __Str_Zilog_Inc_DBB9E6447072985E3C23A363E695A52E078EFBD448D74F276269A5D0206F1B29 0000000010116eb8     guideXOS.obj
 0005:00026ee0       __Str_Zoltrix_International_Limited_0445BEFD7987D3F2F5A8E352AA337F92B7E838A65C688974B3F182ED0C2AAB16 0000000010116ee0     guideXOS.obj
 0005:00026f30       __Str_Zoom_Telephonics_Inc_C36E62C931BB9A14CBE611AA4B1B11038CEA87DCFC8BAB97B9FA6437ADA6B8BC 0000000010116f30     guideXOS.obj
 0005:00026f70       __Str_Zoran_Corporation_E32B13F78DB1839C01D53602EA5383143DD48C0F4813454A9E766EFA37771131 0000000010116f70     guideXOS.obj
 0005:00026fa8       __Str___D851A0155B6A2716E0DA40A1336C5FF311FCF12CE16E53CF06B5A6CBD9CD32DF 0000000010116fa8     guideXOS.obj
 0005:00026fc0       __Str__AC97__Audio_Device_Initialize_80EAA3C6BC09CBE4E8956139E2AB7ADD006E90D5F291A66CF1EC393E8880196E 0000000010116fc0     guideXOS.obj
 0005:00027018       __Str__AC97__Intel_82801AA_AC97_Audi_B643D57F6D093FFA36225205C9EA4C9214B4667D17E4521AFA6D78B17CDE0BF8 0000000010117018     guideXOS.obj
 0005:00027088       __Str__ACPI__ACPI_57AA5D4DC89872919E605A6E5F4D8698ED989C6C5E88A590F54DE8FA99CAA819 0000000010117088     guideXOS.obj
 0005:000270b8       __Str__ACPI__ACPI_Initialized_1D525558B48023B17D11F683B761523909091FFACA098D919E4F90C7723AAFF0 00000000101170b8     guideXOS.obj
 0005:00027100       __Str__ARCH__Pointer_Size___0__bytes_7787636BD27F70577C2B720D824A0EF29D950CB823F2B820F07BE2A887CDCD3A 0000000010117100     guideXOS.obj
 0005:00027160       __Str__ARCH__Pointer_integrity__PASS_BF9EBBE0A55FF96AF08962D104E429E2B42870033EF629976793A5A88466170C 0000000010117160     guideXOS.obj
 0005:000271e8       __Str__ARCH__Running_in_64_bit_mode__CAA87AA75A4264FBA9ECBEF8FF80F1001AC53BDAF7BFDC4C7851571A31ACE945 00000000101171e8     guideXOS.obj
 0005:00027248       __Str__DHCP__configured__IP__0___1___473F88BE677B14566620CA9F0A3FA64B7D587423EED31A7B00E82D55064FB47F 0000000010117248     guideXOS.obj
 0005:000272b0       __Str__DNS__type__0__class__1__ttl___80E389D4B765C081BE548D5B32C9F5DF70FE4A7652D57865FE67723FF9D72577 00000000101172b0     guideXOS.obj
 0005:00027340       __Str__EHCI__Bar0___8BF3BB770FE1662C0F70E7947127E7ECA196667EDBED6FD775F003D44B1E28B2 0000000010117340     guideXOS.obj
 0005:00027370       __Str__EHCI__Disabling_BIOS_EHCI_Han_B3585713D5317E3B28FD18363700CF0307596AFCAF916D512D86E6F5D6770EAC 0000000010117370     guideXOS.obj
 0005:000273d0       __Str__EHCI__EHCI_controller_found__A6379BBEC1CB41B3E9BA2ADF8014CA897177AE24671BD3C705511B3F655337B9 00000000101173d0     guideXOS.obj
 0005:00027420       __Str__EHCI__EHCI_controller_initial_079ACD9B1520A9F04761E82C6E9A1AE692C23C08A0DE84CA0A07C5FFD44C32A3 0000000010117420     guideXOS.obj
 0005:00027480       __Str__EHCI__Next_device_address_is__5669BA3AAE981B657B9752A5A8302A7A40CA066BA6D0515432160CD71EDDAD8D 0000000010117480     guideXOS.obj
 0005:000274d8       __Str__EHCI__Port__0__Failed_to_get__0195EEEFC8B2366E6F1FF69306A9969E927FF7C7AD935719B9258C94002AB33B 00000000101174d8     guideXOS.obj
 0005:00027540       __Str__EHCI__Port__0__Failed_to_set__E1C21CEF447F59EB6CBA8D98BC0B7DF863FAD52A5F0745D14BBEB081FFD85F5E 0000000010117540     guideXOS.obj
 0005:000275b0       __Str__EHCI__Port__0__Invalid_magic__77128E2F5D0FE7B9466FE612B927043B86F5128C8394B463030E1528B262276B 00000000101175b0     guideXOS.obj
 0005:00027610       __Str__EHCI__Port__0__Is_not_enabled_FF7373CC7BB5C643323961C506DD9138D08774924F005532FCBF3CDC4DB10F08 0000000010117610     guideXOS.obj
 0005:00027668       __Str__EHCI__Port__0__Max_Packet_Siz_6580D9D92A494ADC690CD206BB8B7178C93CE25BC292F3D5E3E7A83D0D9AAEF5 0000000010117668     guideXOS.obj
 0005:000276c8       __Str__EHCI__Port__0__failed_to_set__F5D0463F6F4E1F98A3BE064B8F0C0EB28C2AB4EFF7A6E67A44C1EAD7D4A6197A 00000000101176c8     guideXOS.obj
 0005:00027738       __Str__EHCI__Port__0___1___E3D2D849CD98D03AFFA9CD80733546AEEDA432D2D58F11D1D1A5CC7BF66435BF 0000000010117738     guideXOS.obj
 0005:00027778       __Str__EHCI__Port_0__Class___1__877C80491A5813B0B8C5DF3F08E950E23306124A8D3D35167423374450DD8082 0000000010117778     guideXOS.obj
 0005:000277c0       __Str__EHCI__Stopping_this_controlle_8EFB6505C4928A84A5D242F966C1A6763C34BEDB0CA2B1C0541811A42DDD1BA0 00000000101177c0     guideXOS.obj
 0005:00027818       __Str__EHCI__Transmission_failed_1816FD3BA817C37B84D3A72A500BECC9FBB11CE6FE6DF69AD51C86ECE5F329C0 0000000010117818     guideXOS.obj
 0005:00027868       __Str__EHCI__Waitting_for_BIOS_ready_8948C72F059885EB085B06EAE832554ADC768DB88AE5CA145EC116B9B6447C59 0000000010117868     guideXOS.obj
 0005:000278c0       __Str__EHCI__Waitting_for_controller_6EFDC61F2369FF26FE27E661B0FD6A3EF48DCABEF9E4033286CF7246C0B4A627 00000000101178c0     guideXOS.obj
 0005:00027920       __Str__EHCI___ECHI__Port__0__Failed__F65D76C4FF31A4DD7A0F63899BC656CDF986559779AAAFC621FF251B8E7EFD8F 0000000010117920     guideXOS.obj
 0005:00027998       __Str__EHCI___0__Ports_available_28A7E825B24AF2FCB278B51F35B0C95AEEEC866D68FC065A303CE2A226DF3A8F 0000000010117998     guideXOS.obj
 0005:000279e8       __Str__ES1371__BAR0__0__2E776E652C3EE9AAE9FC52828AE990C6D9DF4CC0C1F11634C81962FE7B464C3A 00000000101179e8     guideXOS.obj
 0005:00027a20       __Str__FONT__ERROR__Could_not_load_q_13A4B7027C72F4EC2347D89CC6E1CC0C7C32199710C380B9E1AD7C4DB45443D6 0000000010117a20     guideXOS.obj
 0005:00027a90       __Str__FONT__Falling_back_to_placeho_2979F3F48CBBA18E59F707A650E926A09C3956CC5D836BE97A2B1BB6396D757B 0000000010117a90     guideXOS.obj
 0005:00027af8       __Str__GXM__User_mode_transition_not_375772E7CC2F63C38348F8314F33EA111E5EC9285798687458838E94D5511915 0000000010117af8     guideXOS.obj
 0005:00027b80       __Str__HPET__HPET_Initialized_187D5FC476B20D94EBF58D602ED117706BC5B0F7C304AE573B1928A34A1FA5E6 0000000010117b80     guideXOS.obj
 0005:00027bc8       __Str__HPET__HPET_not_found__F5030E24E68F7EA85AA908662B037BB28EFF7499C35A0DF929D67924A1A1EB0C 0000000010117bc8     guideXOS.obj
 0005:00027c10       __Str__I_O_APIC__Can_t_initialize_I__B8D4DCEEAC294FDD6C7595DB4ABFBA00E8DAFDF9B155D2ABCB91937FA48422F7 0000000010117c10     guideXOS.obj
 0005:00027c70       __Str__I_O_APIC__I_O_APIC_Initialize_8E768E5AC9B89A0A1E66BD344B6CDFDCCE7717EB66E3767967BA1CD66EDF3E92 0000000010117c70     guideXOS.obj
 0005:00027cc8       __Str__IDE___48CFDDBBE8C65D0A4BB3982086CA2F60CAE57BF1158F0064A9FA7EE85A587C05 0000000010117cc8     guideXOS.obj
 0005:00027cf0       __Str__IDE__IDE_controller_Failed_to_9E91611D9E189BF43EB1186AA62944038F7692F11E0C6ACB8BF842459DAEA522 0000000010117cf0     guideXOS.obj
 0005:00027d58       __Str__Initrd__Initializing_Ramdisk_D2EF84CEF2F60975115788774DBAAB724607E3270A41D27D095A47862AD7FC88 0000000010117d58     guideXOS.obj
 0005:00027da8       __Str__Initrd__Initrd__0x_3B9AECC2CFCD64EDEC3BE7813367F3177CA28BC9821A4E8AC38F120D2FB5265B 0000000010117da8     guideXOS.obj
 0005:00027de8       __Str__Intel825xx__Configuration_Don_1EDF7C7A0491E36D3D90A08C9F484CABAC230DE6677785189403291A4EFF17DE 0000000010117de8     guideXOS.obj
 0005:00027e40       __Str__Intel825xx__EEPROM_on_this_co_466179D6D73A55AFFD4779E35E08D5D9DD684DF3C3EE0F11A3ECF3467FDF6F02 0000000010117e40     guideXOS.obj
 0005:00027ea8       __Str__Intel825xx__Found_Intel_devic_B0F82CBE7818A03A7E1C4C660169AB45706C7B5FFADD0630DD099F5278199AA4 0000000010117ea8     guideXOS.obj
 0005:00027f18       __Str__Intel825xx__Matched_device__0_A82F757D286A5B215AA72243D5411BC2CB23341F8681E3E2424E3B2822E6D938 0000000010117f18     guideXOS.obj
 0005:00027f70       __Str__Intel825xx__No_Intel_NIC_foun_993BA1874330E53E721D39CCFF8EE19DD5D24649B558F8EB6729C36B28504B5C 0000000010117f70     guideXOS.obj
 0005:00027fc8       __Str__Intel825xx__Reseting_controll_DFCAE1A426F69DB4DF3194AD115CD54F1A1EC4AB9CA098D727967983E91DC200 0000000010117fc8     guideXOS.obj
 0005:00028028       __Str__Intel825xx__Scanning_for_Inte_AD3129B676B760708E5DAF52F0BA5F6B2570DBB3018B357C61DF7072099AD38C 0000000010118028     guideXOS.obj
 0005:00028090       __Str__Intel825xx__This_controller_h_DC853C74AD8FAB22A815FA2995B583A4A867C5C7828C3AA06559D15A8DA4585A 0000000010118090     guideXOS.obj
 0005:00028100       __Str__Intel825xx__Total_PCI_devices_9ED5F01B5F62ADC6F9ACF92371FF1203E742DCD2679717106B1BA5069CAFD859 0000000010118100     guideXOS.obj
 0005:00028158       __Str__Intel825xx__Waiting_for_netwo_1ABD57826CC60CA5779BEB7889793FDEAB3855DE17233D930559F195BE2EA1F0 0000000010118158     guideXOS.obj
 0005:000281c8       __Str__Local_APIC__Local_APIC_failed_016A83E7097B7886340740505E8425084AEBD166140FD76B75B32543D36D1783 00000000101181c8     guideXOS.obj
 0005:00028238       __Str__NET__Attempting_DHCP__this_ma_09EBEC45E06E6E0AF7EC5BD5B42E5DF1D9A954112FA20445D43956CF54CC9881 0000000010118238     guideXOS.obj
 0005:000282c0       __Str__NET__Attempting_DHCP_configur_55AC0162A042EB259A7204356131813F4C9AAA6212BE9AFAE5EC266C5C1502A1 00000000101182c0     guideXOS.obj
 0005:00028328       __Str__NET__Configuration_error_494DF0E9CEAC19FF0858CD891C4D23835BBAFB88AD050FC084F7BE1160C4CBB2 0000000010118328     guideXOS.obj
 0005:00028370       __Str__NET__DHCP_error_EB0197C74793902BD61EEC1F1D817387A279B61966071C5449A836A724EC0522 0000000010118370     guideXOS.obj
 0005:000283a8       __Str__NET__DHCP_failed_0101B850EB44AF89277967366C9F1883AD6823EBC3CEC1515E6B613893A7127A 00000000101183a8     guideXOS.obj
 0005:000283e0       __Str__NET__DHCP_successful_8E15DD09AE505A275D27F553E4EE33EB99559F7FF9A1485D71D64653C1C7270E 00000000101183e0     guideXOS.obj
 0005:00028420       __Str__NET__IP___D9AB676CEBD0532AE19C9A3FF2210DEF70E28139514C85F6EC085329D33D1DA2 0000000010118420     guideXOS.obj
 0005:00028450       __Str__NET__IP___0___1___2___3__413A744F1B5865649CD90542A09ADE0AA57E03F46E97DC59CB39712A9E5DC88C 0000000010118450     guideXOS.obj
 0005:00028498       __Str__NET__Initializing_network_sub_02000A80740CE2F80A932327DD737FAD7D0B26EFF764525D3B0D09CCABE33D53 0000000010118498     guideXOS.obj
 0005:00028500       __Str__NET__Initializing_stack_562023EC5FAA8D0A70A974D7A83B55A5FB07608483C410B8F49F4B2797A0F442 0000000010118500     guideXOS.obj
 0005:00028548       __Str__NET__Intel825xx_found_40E24DD080D724AD9CA4BD113D4823882755263508781ACF52EC4A44BD54F525 0000000010118548     guideXOS.obj
 0005:00028590       __Str__NET__Manual_configuration_app_3DF5B39245481C2924774471EE4187603068DC7AE18F7A672BAA01F16DFEA467 0000000010118590     guideXOS.obj
 0005:000285f0       __Str__NET__Network_already_initiali_78C23D670EBDFEC54C78804EE99DB43289C8F5284408A34024A3181DC45F87F4 00000000101185f0     guideXOS.obj
 0005:00028648       __Str__NET__Network_driver_found_B1A6E61C28C6FF5A75E660A25D03EDC11C1388A2B35BEF527B162535F6EDCB65 0000000010118648     guideXOS.obj
 0005:00028698       __Str__NET__Network_driver_initializ_48DC78F573E8074E8579D47AD83D86ACBE0837B9249C66FEE29AB7DF95E21FB8 0000000010118698     guideXOS.obj
 0005:00028700       __Str__NET__No_network_hardware_dete_72C9A8FD23C903C7D877FEF601514A710747D1EE45EA2DE01FDA4C95744E52A3 0000000010118700     guideXOS.obj
 0005:00028760       __Str__NET__No_supported_NIC_found_2C68895D3D1B96CA362F1237AC6C638EDF3CE5C6F1CDCAD5AE8271A0E2C7FFDF 0000000010118760     guideXOS.obj
 0005:000287b0       __Str__NET__RTL8111_found_A32A9B67F5A0188B1D03CFE077CAE1244FA223B033DC3103E7494F7FED126EE2 00000000101187b0     guideXOS.obj
 0005:000287f0       __Str__NET__Scanning_for_NICs_B1487E27CCB74D082A0EBDFB5D2888D16F31ACC32F36F2675ADC1CFEABA85973 00000000101187f0     guideXOS.obj
 0005:00028838       __Str__NET__Skipping_automatic_DHCP__A0614305DAD77D914518FAF2A88A4C5C9C17F05D47AB083E09D38D711CBFAF51 0000000010118838     guideXOS.obj
 0005:000288d0       __Str__NET__Stack_initialization_fai_DA85C06C97C1860E8D2613B21934E2B9D8E058CC7DAEF6F06CBE98A6BACBD219 00000000101188d0     guideXOS.obj
 0005:00028928       __Str__PCI_Express__0___1___2____3___AA5DFEC66395C77DE7BD8586327B5912ADC87A2F8A83FC22BFA1D01933C3E306 0000000010118928     guideXOS.obj
 0005:00028980       __Str__PCI__0___1___2____3___4__1A6B78E37C8CAE168FD9B0B51E96BA99939DA8F867C86763B0EA50035EBDF8F9 0000000010118980     guideXOS.obj
 0005:000289c8       __Str__PS2KBD__PS_2_Keyboard_initial_623F3195BCBED210735158808D5C1F57091E7FE018B36F66DA1FD7EF77FBD573 00000000101189c8     guideXOS.obj
 0005:00028a28       __Str__RSP_0x_0_X2____0x_1_X16__B6FF295B5E5FD50A16A686B12C3FD15F9A0DC032AFB46EE11743041448EA5A01 0000000010118a28     guideXOS.obj
 0005:00028a70       __Str__RSP_0x_0_X2_____invalid_memor_149793406B7BA451EFA214C3D84F1B7F4438C079A33B05FCB9E5195C72456CFB 0000000010118a70     guideXOS.obj
 0005:00028ac8       __Str__RTL8111__Found_Realtek_device_88EBDE4F2E7178E411A3E243890A47508F61CDC9F3C5E1174F45A16AEBF200C5 0000000010118ac8     guideXOS.obj
 0005:00028b30       __Str__RTL8111__Matched_device__0x_3E5FE5679125DCE73E47C180C0556915812D73637B6C6088E4CF14FB80B61CFE 0000000010118b30     guideXOS.obj
 0005:00028b80       __Str__RTL8111__No_compatible_device_37789A897A5D4C60BBC4A1159D294F01BB6612B544C93387B9A09A59C98B9468 0000000010118b80     guideXOS.obj
 0005:00028be8       __Str__RTL8111__Scanning_for_Realtek_47E24A46C2C0BFF30C0E2823276B115199F8F12AEEAE3F32C6FC66020864E116 0000000010118be8     guideXOS.obj
 0005:00028c50       __Str__RTL8111__Total_PCI_devices___99E3783383017EA17714B817AD425CB7F977D5F8AD636F5C20AF7605AFEF3742 0000000010118c50     guideXOS.obj
 0005:00028ca0       __Str__RTL8111__device_found___E2393A61DB929223740C47BC2ED67D9FEC5E21DFFA247C4D92DBECF5A44DBC18 0000000010118ca0     guideXOS.obj
 0005:00028ce8       __Str__RTL8111__device_initialized__18A9C52C76E39C7FBBE268B03E1E2B792BBAF6F4E3A2CD52B67E42FC9E94877A 0000000010118ce8     guideXOS.obj
 0005:00028d38       __Str__SATA__SATA_Port__41F5EFA0306410C2878C7DF19A62FB24D4AA77E2B1570BCB80E75D200B2653CD 0000000010118d38     guideXOS.obj
 0005:00028d70       __Str__SATA__Too_many_sectors_to_rea_80D9BEEE1FCD03488246146182AF5D6209092226EF56A6560049050ACF276A75 0000000010118d70     guideXOS.obj
 0005:00028dc8       __Str__SMP__Starting_all_CPUs_EF137C8E7E671080FA639D31DE085DB1B881A967E26F1F85EB54DB2FF87F45DE 0000000010118dc8     guideXOS.obj
 0005:00028e10       __Str__SMP__Trampoline__0x_A726A464BF3F27EB23163DE296C69807A89471321FE4A1567EB444941634EB12 0000000010118e10     guideXOS.obj
 0005:00028e50       __Str__SMP___0__CPUs_started_2BE50BCEB2074133D3D58565D7A6808862943737F7004B785D72B342B124743A 0000000010118e50     guideXOS.obj
 0005:00028e98       __Str__TEST_MODE__Only_showing_1_dem_C203E1D2D7728F389EB30163869CE81FF69AABBF597764DECE05E2A14B9A1595 0000000010118e98     guideXOS.obj
 0005:00028f00       __Str__Timer__Bus_clock_is__0_mhz_04573D68D29D9EFC24AA97A60091CE4274B94B90569BC264B0047FE615BFA90F 0000000010118f00     guideXOS.obj
 0005:00028f50       __Str__Timer__CPU_clock_is__0_mhz_06D6C4FC54510354F1A051048F0991DD51975C06C6C33A8402483A00688C1FBF 0000000010118f50     guideXOS.obj
 0005:00028fa0       __Str__USB_Hub__Can_t_get_Hub_descri_DED84B21F55AAA780A6C443E24E34948332329FC00A5AC8F63C55B237D45E2E0 0000000010118fa0     guideXOS.obj
 0005:00029000       __Str__USB_Hub__Can_t_get_Hub_port___76A96E6FD5156CBF67A682EABC5BA9D069DA3EEE87F95197F9CFC46D6A4E838B 0000000010119000     guideXOS.obj
 0005:00029068       __Str__USB_Hub__Can_t_get_Hub_port___425882E6EE074019D7E02BBC4AC1BDB6F7A2E04B658E1BAA7260F001DB2F3B6C 0000000010119068     guideXOS.obj
 0005:000290e8       __Str__USB_Hub__Port__0__has_a_devic_AAA66D95DC4AD02A3E9B67E2395E663619B20A487DA72E035DB6E5B59B326712 00000000101190e8     guideXOS.obj
 0005:00029158       __Str__USB_Hub__This_hub_has__0__por_3F3F7423BBFDAB6CFEFFBE41B07D2AC37738A98C23E90A888493DB74DA8DD075 0000000010119158     guideXOS.obj
 0005:000291b0       __Str__USB__Unrecognized_device_clas_A3194629A2A8ACAB31686A92A6F8CF5E97D84784D963BDC9CAB233DE7E924E09 00000000101191b0     guideXOS.obj
 0005:00029228       __Str__VMware_tools__Initializing_VM_767FA87878FE61FD7EE25943A575570C1248B26EAC09E9867E0C504399E259BB 0000000010119228     guideXOS.obj
 0005:00029290       __Str___1472D0645F552820B5472B91341C2D9A118C8A96F4A72758D6AEEB14C10A1107 0000000010119290     guideXOS.obj
 0005:000292a8       __Str___B230EC74895E4131AECD468AFE2723678730E6F7471BD48C3F239320587FAEB7 00000000101192a8     guideXOS.obj
 0005:000292c0       __Str____804779EAC33E29BC0631A6BBAE7359393E89CCE7778929AFDE36C60530F956AC 00000000101192c0     guideXOS.obj
 0005:000292e0       __Str__thumb_PNG_7E49907630A06D35A68B112A1E28FCB8DEB7E71DB913D06BFD2BEAF4ADF2B9A5 00000000101192e0     guideXOS.obj
 0005:00029310       __Str__thumb_png_281C1F42E322AF967C6D5EEE44280B65717CAEA562752B3ED0245699710255B0 0000000010119310     guideXOS.obj
 0005:00029340       __Str___F3DF0A62B10F205B0F29768AA3D69E777154CAAA179F64AABB0A4899C666B017 0000000010119340     guideXOS.obj
 0005:00029358       __Str__1234567890___5BD41969340865699DB6779D353ABA5D585873625F3057FD2A1202B0DDA97EB1 0000000010119358     guideXOS.obj
 0005:00029388       __Str_a__CB4A2B2E26954DB04C0FD5E5B7AA478877F7B8ADE722319C18E0838513059FDA 0000000010119388     guideXOS.obj
 0005:000293a8       __Str_amc330               00000000101193a8     guideXOS.obj
 0005:000293d0       __Str_application_json_044C6E09F1444418719320DDB6FA04AA7C4E15D34576B3ACB83FD55A30459AA2 00000000101193d0     guideXOS.obj
 0005:00029408       __Str_apps                 0000000010119408     guideXOS.obj
 0005:00029428       __Str_arp                  0000000010119428     guideXOS.obj
 0005:00029448       __Str_asdfghjkl___FEC35912B46BE2767EBCE23E9023FD3183F7B2729D2EBBCE8CD5C3AD7AA65C2F 0000000010119448     guideXOS.obj
 0005:00029478       __Str_austriamicrosystems  0000000010119478     guideXOS.obj
 0005:000294b8       __Str_authlogin            00000000101194b8     guideXOS.obj
 0005:000294e0       __Str_authregister         00000000101194e0     guideXOS.obj
 0005:00029510       __Str_authtoken            0000000010119510     guideXOS.obj
 0005:00029538       __Str_authurl              0000000010119538     guideXOS.obj
 0005:00029560       __Str_autolearn            0000000010119560     guideXOS.obj
 0005:00029588       __Str_back                 0000000010119588     guideXOS.obj
 0005:000295a8       __Str_black                00000000101195a8     guideXOS.obj
 0005:000295c8       __Str_blockall             00000000101195c8     guideXOS.obj
 0005:000295f0       __Str_blue                 00000000101195f0     guideXOS.obj
 0005:00029610       __Str_br                   0000000010119610     guideXOS.obj
 0005:00029630       __Str_br__EA430B67FD8CD91B4FB32CA9AEA4E79818417241483BFA0F79B015798BFB8A89 0000000010119630     guideXOS.obj
 0005:00029650       __Str_cat                  0000000010119650     guideXOS.obj
 0005:00029670       __Str_cd                   0000000010119670     guideXOS.obj
 0005:00029690       __Str_cd__no_such_directory___52A6564E3EBB9072AB7981C0FF0D7E7AC889060A230342B333E30497C9478C00 0000000010119690     guideXOS.obj
 0005:000296d8       __Str_cdback               00000000101196d8     guideXOS.obj
 0005:00029700       __Str_chunked              0000000010119700     guideXOS.obj
 0005:00029728       __Str_clear                0000000010119728     guideXOS.obj
 0005:00029748       __Str_close                0000000010119748     guideXOS.obj
 0005:00029768       __Str_cpu                  0000000010119768     guideXOS.obj
 0005:00029788       __Str_cx__E33788200F7DF2682DA5622FE3F9E4FD23B0086024D3507E5CA1F8AEA3A59FB0 0000000010119788     guideXOS.obj
 0005:000297a8       __Str_cy__BC65994119C775E7AAB0941B1A7643FF874E23543A2519C6F0F27A5D9EA4B893 00000000101197a8     guideXOS.obj
 0005:000297c8       __Str_d__4C119BD82A378AB6606F457FA748FB318E2FD2E92244ED6CC4D5F5D93BFFA009 00000000101197c8     guideXOS.obj
 0005:000297e8       __Str_devolo_AG_F653BD9E4CD977A095BE59281C4C0CE6E94CF2082116E8B73E1F3E5E310FF238 00000000101197e8     guideXOS.obj
 0005:00029810       __Str_disabled             0000000010119810     guideXOS.obj
 0005:00029838       __Str_display_cfg_DC895CDB1B22B76FD8F174F747E7BE31BBE62B2C036729E8BCF03CCA6FD11416 0000000010119838     guideXOS.obj
 0005:00029868       __Str_div                  0000000010119868     guideXOS.obj
 0005:00029888       __Str_dns                  0000000010119888     guideXOS.obj
 0005:000298a8       __Str_document_txt_D8CA11E9E01229CCB3DD49A997F8802CDA54E41FC5EB304428FD1A500CA57867 00000000101198a8     guideXOS.obj
 0005:000298d8       __Str_echo                 00000000101198d8     guideXOS.obj
 0005:000298f8       __Str_echo__missing_filename_after___137665D8973C3A38B5C692F9EC1E43864E49D819FC85E902F6B3AB5B354988C5 00000000101198f8     guideXOS.obj
 0005:00029950       __Str_error__fuzzy_match_7854DF62E84EB43827D2D25B2567590D9C55BCC77715B3402C5BE368C037056A 0000000010119950     guideXOS.obj
 0005:00029990       __Str_esd_Electronic_System_Design_G_597D358764ED9E6F13024ECCF089379A863BD3CC0871A74AD7B5E792A3BA2111 0000000010119990     guideXOS.obj
 0005:000299e8       __Str_exit                 00000000101199e8     guideXOS.obj
 0005:00029a08       __Str_fill                 0000000010119a08     guideXOS.obj
 0005:00029a28       __Str_fopen__file_not_found__DA0255E30BCCD1694365B33FDCCC234DA542D287B150E533BD8334B121294625 0000000010119a28     guideXOS.obj
 0005:00029a70       __Str_fwadd                0000000010119a70     guideXOS.obj
 0005:00029a90       __Str_fwlist               0000000010119a90     guideXOS.obj
 0005:00029ab8       __Str_fwmode               0000000010119ab8     guideXOS.obj
 0005:00029ae0       __Str_fwui                 0000000010119ae0     guideXOS.obj
 0005:00029b00       __Str_goback               0000000010119b00     guideXOS.obj
 0005:00029b28       __Str_green                0000000010119b28     guideXOS.obj
 0005:00029b48       __Str_guideXOS             0000000010119b48     guideXOS.obj
 0005:00029b70       __Str_guideXOS___KERNEL_PANIC_FFC993DD96AEFE9F18E2A2E6EFADDDCBE1F87DCF99CB2D5631662335FC68DB13 0000000010119b70     guideXOS.obj
 0005:00029bb8       __Str_guideXOS_Firewall_7591222030421ABC642EC39D406AD94686300A4D0ACF76936A1ABE18F98BBC20 0000000010119bb8     guideXOS.obj
 0005:00029bf0       __Str_guideXOS_User_CCD3B6EFE2E17C0FD97BB7BC909836568A4988350DAD4571327EA450D5EB103F 0000000010119bf0     guideXOS.obj
 0005:00029c20       __Str_guideXOS_0_2_D0538D29BE73037F3B2B90FCB764F0A5745C520028026B1CB3CE2BA39B72DF3E 0000000010119c20     guideXOS.obj
 0005:00029c50       __Str_guidexos             0000000010119c50     guideXOS.obj
 0005:00029c78       __Str_gxminfo              0000000010119c78     guideXOS.obj
 0005:00029ca0       __Str_h                    0000000010119ca0     guideXOS.obj
 0005:00029cb8       __Str_h1                   0000000010119cb8     guideXOS.obj
 0005:00029cd8       __Str_h2                   0000000010119cd8     guideXOS.obj
 0005:00029cf8       __Str_h3                   0000000010119cf8     guideXOS.obj
 0005:00029d18       __Str_heading              0000000010119d18     guideXOS.obj
 0005:00029d40       __Str_height__D4720DEB0B3876CA41265191F0A247E59B6640C5292D0C8F8883A4AFC1327C17 0000000010119d40     guideXOS.obj
 0005:00029d68       __Str_help                 0000000010119d68     guideXOS.obj
 0005:00029d88       __Str_http____53B22FE30D62DDCF3F247422999599F4412286C0B43583E6DD3398DE6ADBAFFF 0000000010119d88     guideXOS.obj
 0005:00029db0       __Str_http___example_com__0E386A0CCD000B654B7DE6889CD88A0DD3ADE8B79AAEFE2FC57BA05AED47DECA 0000000010119db0     guideXOS.obj
 0005:00029df0       __Str_http___localhost_5068__40C6721EB2226CF07ACBF7986767A89C44B90EDB38B411C69F4DD9058BA5EB4F 0000000010119df0     guideXOS.obj
 0005:00029e38       __Str_http___team_nexgen_com_6F6D51B5385C26304F3A6FC65B5DA8F4B475937D9FDDB211C343C89CFFEFA743 0000000010119e38     guideXOS.obj
 0005:00029e80       __Str_iba_AG_FFB020A5E41DE0BE97EDCAB8DC70BC8EC737497DD2054383C3AC76881E56B570 0000000010119e80     guideXOS.obj
 0005:00029ea8       __Str_icons                0000000010119ea8     guideXOS.obj
 0005:00029ec8       __Str_ifconfig             0000000010119ec8     guideXOS.obj
 0005:00029ef0       __Str_intel                0000000010119ef0     guideXOS.obj
 0005:00029f10       __Str_ipconfig             0000000010119f10     guideXOS.obj
 0005:00029f38       __Str_irc_example_net_0F35ECB7DEA432CDE39CB31DD97628EAC0B5837642C0569D299E42DB1B44EB54 0000000010119f38     guideXOS.obj
 0005:00029f70       __Str_irc_libera_chat_5CCAE9C9BE617FB1EC3625C9BDF65392030091D03E59BC9AC7855BF6672E2566 0000000010119f70     guideXOS.obj
 0005:00029fa8       __Str_irc_oftc_net_45721129529634C64B39B33F0E0F09228B138A8E9559BE6863ABE3C1F6B12222 0000000010119fa8     guideXOS.obj
 0005:00029fd8       __Str_launch               0000000010119fd8     guideXOS.obj
 0005:0002a000       __Str_launchscript         000000001011a000     guideXOS.obj
 0005:0002a030       __Str_link                 000000001011a030     guideXOS.obj
 0005:0002a050       __Str_listapps             000000001011a050     guideXOS.obj
 0005:0002a078       __Str_ll                   000000001011a078     guideXOS.obj
 0005:0002a098       __Str_ll__cannot_access___96F9BCE14A808F33FD848004877C878BE7BDCC6B57198B26DBBB30F5AD0A3DF9 000000001011a098     guideXOS.obj
 0005:0002a0d8       __Str_localhost            000000001011a0d8     guideXOS.obj
 0005:0002a100       __Str_logout               000000001011a100     guideXOS.obj
 0005:0002a128       __Str_ls                   000000001011a128     guideXOS.obj
 0005:0002a148       __Str_ls__cannot_access___070A5E1714BECC2D5B215001D099F1828706559CFAC17B4796E042D0095E0711 000000001011a148     guideXOS.obj
 0005:0002a188       __Str_master               000000001011a188     guideXOS.obj
 0005:0002a1b0       __Str_miro_Computer_Products_AG_46E32291AD5660D2BFADDA78A6AF2D42DA93522EA12A0D0A0BDFC6AB02444308 000000001011a1b0     guideXOS.obj
 0005:0002a1f8       __Str_mohamed_alsherif_C1425894EC26BFA0AD86EB7A63D1DA8F2CCA5FBF45ACF2AE8AD74B4346065330 000000001011a1f8     guideXOS.obj
 0005:0002a230       __Str_mueinfo              000000001011a230     guideXOS.obj
 0005:0002a258       __Str_netinit              000000001011a258     guideXOS.obj
 0005:0002a280       __Str_network_supports_this_capabili_8F58B9BBC329E09EF059F9C5F23A4579F2F7E50AD279DDABA76C96C1887AFCC2 000000001011a280     guideXOS.obj
 0005:0002a300       __Str_nexIRC               000000001011a300     guideXOS.obj
 0005:0002a328       __Str_none                 000000001011a328     guideXOS.obj
 0005:0002a348       __Str_normal               000000001011a348     guideXOS.obj
 0005:0002a370       __Str_notepad              000000001011a370     guideXOS.obj
 0005:0002a398       __Str_notepad_txt_829EE19594D4BB8A7ED27A9D0FD5A11E37C0207832AD151394A13C704F814808 000000001011a398     guideXOS.obj
 0005:0002a3c8       __Str_notes_txt_5E513F5B0304A131ACC83C0D2BD8334083E400167DF2B6C66E346F0B1D633CA7 000000001011a3c8     guideXOS.obj
 0005:0002a3f0       __Str_null                 000000001011a3f0     guideXOS.obj
 0005:0002a410       __Str_on                   000000001011a410     guideXOS.obj
 0005:0002a430       __Str_organized_into_categorized_tab_8E8B7AD0104F52079F3EBE7BBE438736355436CACB3A2B8747F02BF2230692F5 000000001011a430     guideXOS.obj
 0005:0002a4b0       __Str_p                    000000001011a4b0     guideXOS.obj
 0005:0002a4c8       __Str_pctel                000000001011a4c8     guideXOS.obj
 0005:0002a4e8       __Str_ping                 000000001011a4e8     guideXOS.obj
 0005:0002a508       __Str_points__5EAA221B3A53CF5E55EDF6E2E1FBA1AC3F9A6A5D2CABFE2073BA9AF2021D1FA8 000000001011a508     guideXOS.obj
 0005:0002a530       __Str_pwd                  000000001011a530     guideXOS.obj
 0005:0002a550       __Str_qwertyuiop____E128D5395E5E00794DD942715C50134BA480F0FA43C74301469D2BA6EE1DB599 000000001011a550     guideXOS.obj
 0005:0002a580       __Str_r__51E0E3AA96A3645CC52C34C67E615966C2B343F4E78B49637CC7ACD48588B303 000000001011a580     guideXOS.obj
 0005:0002a5a0       __Str_reboot               000000001011a5a0     guideXOS.obj
 0005:0002a5c8       __Str_red                  000000001011a5c8     guideXOS.obj
 0005:0002a5e8       __Str_run                  000000001011a5e8     guideXOS.obj
 0005:0002a608       __Str_rx__D39A1C9D3B6F06DFA54232E52A720737AE3E79D3FE7C2BB741AE270416705337 000000001011a608     guideXOS.obj
 0005:0002a628       __Str_ry__4CA0EB9B32FE5F7FFE9973966978F65544E53667BF1EC0928A334B7BF5D5DD2C 000000001011a628     guideXOS.obj
 0005:0002a648       __Str_s                    000000001011a648     guideXOS.obj
 0005:0002a660       __Str_sanyo                000000001011a660     guideXOS.obj
 0005:0002a680       __Str_sci_worx_GmbH_4491D5729F1751922501309CA9E17E2F7E4725BC78559E080A329A27DBF2A0F5 000000001011a680     guideXOS.obj
 0005:0002a6b0       __Str_setbg                000000001011a6b0     guideXOS.obj
 0005:0002a6d0       __Str_setbg__ambiguous___multiple_im_51A316E150D28A65615EA656428960EF2EA918F082D74CC74BA6226B53ED0C86 000000001011a6d0     guideXOS.obj
 0005:0002a740       __Str_setbg__cannot_access_directory_30C81B55C50714884D0A89EAAF1FA0AD5F7C63DF2521DBEFF356FAFE155969AD 000000001011a740     guideXOS.obj
 0005:0002a798       __Str_setbg__failed_to_load_image__n_379754E8A6917C0792CD66480B81ECE9211E8FFEB9E6AB20DE3968DEB8C5C7BA 000000001011a798     guideXOS.obj
 0005:0002a810       __Str_setbg__file_not_found___3E24DE3AD69F1732AB8EEEC3A74342DA17F0E693EBECE7751532E83259B04FE0 000000001011a810     guideXOS.obj
 0005:0002a858       __Str_setbg__no_image_file_found_mat_7567F95C5BF2E60BE5ACDD25FF80B8EC3BFB3BB820AD3A78697BB17406083E80 000000001011a858     guideXOS.obj
 0005:0002a8b8       __Str_setbg__unable_to_read_file___4B120FD07C2675879C40A1382E9830C427641BE4C4DAEC399F58A992432DFF07 000000001011a8b8     guideXOS.obj
 0005:0002a908       __Str_shutdown             000000001011a908     guideXOS.obj
 0005:0002a930       __Str_start                000000001011a930     guideXOS.obj
 0005:0002a950       __Str_stroke               000000001011a950     guideXOS.obj
 0005:0002a978       __Str_stroke_width__B43559A85871167850B801B5DE7033D4902C7EF1CAB78E702138FDACB9D85E47 000000001011a978     guideXOS.obj
 0005:0002a9a8       __Str_tcp_connect_0A093B55575B4C2082A78DDEC66CB7BF4321DBB1B88E3127E07BD94B187EB8EF 000000001011a9a8     guideXOS.obj
 0005:0002a9d8       __Str_text                 000000001011a9d8     guideXOS.obj
 0005:0002a9f8       __Str_th                   000000001011a9f8     guideXOS.obj
 0005:0002aa18       __Str_themrtaish           000000001011aa18     guideXOS.obj
 0005:0002aa48       __Str_to_ask_your_network_administra_E02F65CB54FD79F14DBC4C571963171AA388C4D76D6CF108AD662389F67AC0CE 000000001011aa48     guideXOS.obj
 0005:0002aac8       __Str_true                 000000001011aac8     guideXOS.obj
 0005:0002aae8       __Str_unknown_error_521B9505D8769F84154E3C002B4CACAF9A6D298A67712FB62A81BD704293C67A 000000001011aae8     guideXOS.obj
 0005:0002ab18       __Str_untitled_txt_5FA04C12D3B43397C3BFC1FEB915582D92EADAB1333B1B8439AD12CDD26753E1 000000001011ab18     guideXOS.obj
 0005:0002ab48       __Str_user                 000000001011ab48     guideXOS.obj
 0005:0002ab68       __Str_vi                   000000001011ab68     guideXOS.obj
 0005:0002ab88       __Str_viewBox              000000001011ab88     guideXOS.obj
 0005:0002abb0       __Str_wchcn                000000001011abb0     guideXOS.obj
 0005:0002abd0       __Str_white                000000001011abd0     guideXOS.obj
 0005:0002abf0       __Str_width__260A1FE9CCDB8A53CADFF2F8828A26439E206FC938912ED45C0F4946AB288949 000000001011abf0     guideXOS.obj
 0005:0002ac18       __Str_workspaces           000000001011ac18     guideXOS.obj
 0005:0002ac48       __Str_x2                   000000001011ac48     guideXOS.obj
 0005:0002ac68       __Str_x87_FLOATING_POINT_EXCEPTION_BD050129B8C2C4FD5EE32AF2FB00D7BB9E66B741FD3141F1D7C3DFB45C1E6C29 000000001011ac68     guideXOS.obj
 0005:0002acb8       __Str_x__615A74A0C4E3D2E6058089130C470E7F85F6319363E1A527DAC247FD75D7B7EE 000000001011acb8     guideXOS.obj
 0005:0002acd8       __Str_y__8D202815AD5CEF62A371E179AEA28A23EB6AC5E1FB34F4DC62A854CF9E471304 000000001011acd8     guideXOS.obj
 0005:0002acf8       __Str_yes                  000000001011acf8     guideXOS.obj
 0005:0002ad18       __Str_zxcvbnm____7DD25DD206A65EF0A4B18C8813761D2170D0C1127527D52E5F4EEE630CB56A37 000000001011ad18     guideXOS.obj
 0005:0002ad48       __Str___username___04E031EC5D373D4173D279D830522A135A2F122415707768ECC5C4DF1157B717 000000001011ad48     guideXOS.obj
 0005:0002ad78       __Str__0___1___2___3__EDF1F4687E3C75E459E5E5A6283A813B7B7B8465F9326AA85FB9632772B07ECA 000000001011ad78     guideXOS.obj
 0005:0002adb0       __Str__0___1___2___3______4_x2___5_x_A2151749AAEF09DBA259D25DB7ABED7F301549949862E982A6259E25C74127B7 000000001011adb0     guideXOS.obj
 0005:0002ae40       __Str__0__0_1__A37B61851EFE65D362118E5C922CFA5D0E942072439CB3EFA007A9DA0BE28CD8 000000001011ae40     guideXOS.obj
 0005:0002ae68       __Str__0___1__54D5E469507CAB22A4B03A9C09AB860E9B7E14418940C177A039FC4D842229A2 000000001011ae68     guideXOS.obj
 0005:0002ae90       __Str__0_x_1__0EC7B0B031B60429496C7E47D3BBFDC5F216FFA7A0FC24DAB1FFBDAD039F91C3 000000001011ae90     guideXOS.obj
 0005:0002aeb8       __Str___D34E9CD20975DE76F07459CD78E5F80EEA529CCCFC79996B3A9361478AD544F2 000000001011aeb8     guideXOS.obj
 0005:0002aed0       __Str___40F6916B78CE91E89F740A14CDC77AB0E69292DAEFB8E06ABE4B67637CCC30C5 000000001011aed0     guideXOS.obj
 0005:0002aee8       __Str_______________5A2C9039C732C5408E1D83335019D13E3D6E9FACEB52D6A9FBDFA90F6B06DC46 000000001011aee8     guideXOS.obj
 0005:0002af18       __Str___FD1C1772F1DF8498646A27A3B83337BAB3FEAF9E1B086262D89D255CC7C3C095 000000001011af18     guideXOS.obj
 0005:0002af30       __Str___Animations___Window_fade_and_DF0FE3EEC655F5BFA3676699232757B86474CD16EADC85DD7B9251FC691534CF 000000001011af30     guideXOS.obj
 0005:0002afa8       __Str___Performance___Optimization_f_8E1558AC0C69957C710D4A1308CC5F5109DC345D4B61325842865BB60DF85ADE 000000001011afa8     guideXOS.obj
 0005:0002b020       __Str___Rendering___Window_chrome__b_A1A8258589E92A33E269F2372B348FD59C9D91C78C904AA9CA5FAD14D4295E7D 000000001011b020     guideXOS.obj
 0005:0002b090       __Str___Visual_Effects___Blur__trans_94228FFAC9AD054A7446B242358F03AA1B1DB07244F060FF1151C41AD6C72C29 000000001011b090     guideXOS.obj
 0005:0002b110       __Str___Widgets___Widget_rendering_a_C7BF110490C2C0FC31D3EA8A56CA9D84B483B3798A9787A30653259D4417159F 000000001011b110     guideXOS.obj
 0005:0002b190       __Str___CURRENT_0BD346A692828A766EDAB22D6AAD43413990EC83294EC3333FBD6138E54F48AC 000000001011b190     guideXOS.obj
 0005:0002b1b8       __FrozenObj_guideXOS_guideXOS_GUI_DisplayOptions___c____9 000000001011b1b8     guideXOS.obj
 0005:0002b1c8       __FrozenObj_guideXOS_guideXOS_Modules_ModuleManager___c____9 000000001011b1c8     guideXOS.obj
 0005:0002b1d8       __FrozenObj_guideXOS_guideXOS_Kernel_Drivers_DisplayManager___AvailableResolutions_k__BackingField 000000001011b1d8     guideXOS.obj
 0005:0002b220       __FrozenObj_guideXOS_Allocator___sync 000000001011b220     guideXOS.obj
 0005:0002b230       __FrozenSegmentRegionEnd   000000001011b230     guideXOS.obj
 0005:0002b230       __GCStaticRegionStart      000000001011b230     guideXOS.obj
 0005:0002b398       __GCStaticRegionEnd        000000001011b398     guideXOS.obj
 0005:0002b398       __typemanager_indirection  000000001011b398     guideXOS.obj
 0005:0002b3a8       __pinvoke_guideXOS__Module__Error__Error__Ansi 000000001011b3a8     guideXOS.obj
 0005:0002b3c8       ?__NONGCSTATICS@guideXOS_Program@@ 000000001011b3c8     guideXOS.obj
 0005:0002b3d8       ?__NONGCSTATICS@guideXOS_Allocator@@ 000000001011b3d8     guideXOS.obj
 0005:0036b4a8       ?__NONGCSTATICS@guideXOS_System_StringPool@@ 000000001045b4a8     guideXOS.obj
 0005:0036b4ae       ?__NONGCSTATICS@guideXOS_guideXOS_Network_Http@@ 000000001045b4ae     guideXOS.obj
 0005:0036b4b0       ?__NONGCSTATICS@guideXOS_guideXOS_Kernel_Drivers_DisplayManager@@ 000000001045b4b0     guideXOS.obj
 0005:0036b4b8       ?__NONGCSTATICS@guideXOS_guideXOS_Kernel_Drivers_SATA@@ 000000001045b4b8     guideXOS.obj
 0005:0036b4d0       ?__NONGCSTATICS@guideXOS_guideXOS_Kernel_Drivers_USBStorage@@ 000000001045b4d0     guideXOS.obj
 0005:0036b4e8       ?__NONGCSTATICS@guideXOS_guideXOS_OS_Firewall@@ 000000001045b4e8     guideXOS.obj
 0005:0036b500       ?__NONGCSTATICS@guideXOS_guideXOS_GUI_Desktop@@ 000000001045b500     guideXOS.obj
 0005:0036b500       ?__NONGCSTATICS@guideXOS_guideXOS_Modules_ModuleManager@@ 000000001045b500     guideXOS.obj
 0005:0036b530       ?__NONGCSTATICS@guideXOS_guideXOS_GUI_Icons@@ 000000001045b530     guideXOS.obj
 0005:0036b548       ?__NONGCSTATICS@guideXOS_guideXOS_GUI_OnScreenKeyboard@@ 000000001045b548     guideXOS.obj
 0005:0036b558       ?__NONGCSTATICS@guideXOS_guideXOS_GUI_PinnedManager@@ 000000001045b558     guideXOS.obj
 0005:0036b568       ?__NONGCSTATICS@guideXOS_guideXOS_GUI_RecentManager@@ 000000001045b568     guideXOS.obj
 0005:0036b568       ?__NONGCSTATICS@guideXOS_guideXOS_GUI_StartMenu@@ 000000001045b568     guideXOS.obj
 0005:0036b578       ?__NONGCSTATICS@guideXOS_guideXOS_GUI_UISettings@@ 000000001045b578     guideXOS.obj
 0005:0036b728       ?__NONGCSTATICS@guideXOS_guideXOS_GUI_WorkspaceManager@@ 000000001045b728     guideXOS.obj
 0005:0036b734       ?__NONGCSTATICS@guideXOS_guideXOS_DockableWidgets_Clock@@ 000000001045b734     guideXOS.obj
 0005:0036b73c       ?__NONGCSTATICS@guideXOS_guideXOS_DefaultApps_nexIRC@@ 000000001045b73c     guideXOS.obj
 0005:0036b73e       ?__NONGCSTATICS@guideXOS_guideXOS_DefaultApps_WebBrowser@@ 000000001045b73e     guideXOS.obj
 0005:0036b750       ?__GCSTATICS@guideXOS_Program@@ 000000001045b750     guideXOS.obj
 0005:0036b750       ?__NONGCSTATICS@guideXOS_System_Array_EmptyArray_1<String>@@ 000000001045b750     guideXOS.obj
 0005:0036b760       ?__GCSTATICS@guideXOS_Allocator@@ 000000001045b760     guideXOS.obj
 0005:0036b770       ?__GCSTATICS@guideXOS_IDT@@ 000000001045b770     guideXOS.obj
 0005:0036b778       ?__GCSTATICS@guideXOS_System_DateTime@@ 000000001045b778     guideXOS.obj
 0005:0036b780       ?__GCSTATICS@guideXOS_System_StringPool@@ 000000001045b780     guideXOS.obj
 0005:0036b788       ?__GCSTATICS@guideXOS_guideXOS_Animator@@ 000000001045b788     guideXOS.obj
 0005:0036b790       ?__GCSTATICS@guideXOS_guideXOS_ASC16@@ 000000001045b790     guideXOS.obj
 0005:0036b798       ?__GCSTATICS@guideXOS_guideXOS_Console@@ 000000001045b798     guideXOS.obj
 0005:0036b7a0       ?__GCSTATICS@guideXOS_guideXOS_NETv4@@ 000000001045b7a0     guideXOS.obj
 0005:0036b7a8       ?__GCSTATICS@guideXOS_guideXOS_Misc_BitFont@@ 000000001045b7a8     guideXOS.obj
 0005:0036b7b0       ?__GCSTATICS@guideXOS_guideXOS_Misc_BootSplash@@ 000000001045b7b0     guideXOS.obj
 0005:0036b7b8       ?__GCSTATICS@guideXOS_guideXOS_Misc_Interrupts@@ 000000001045b7b8     guideXOS.obj
 0005:0036b7c0       ?__GCSTATICS@guideXOS_guideXOS_Misc_ThreadPool@@ 000000001045b7c0     guideXOS.obj
 0005:0036b7c8       ?__GCSTATICS@guideXOS_guideXOS_FS_Disk@@ 000000001045b7c8     guideXOS.obj
 0005:0036b7d0       ?__GCSTATICS@guideXOS_guideXOS_FS_File@@ 000000001045b7d0     guideXOS.obj
 0005:0036b7d8       ?__GCSTATICS@guideXOS_guideXOS_Kernel_Drivers_AC97@@ 000000001045b7d8     guideXOS.obj
 0005:0036b7e0       ?__GCSTATICS@guideXOS_guideXOS_Kernel_Drivers_ACPI@@ 000000001045b7e0     guideXOS.obj
 0005:0036b7e8       ?__GCSTATICS@guideXOS_guideXOS_Kernel_Drivers_DisplayManager@@ 000000001045b7e8     guideXOS.obj
 0005:0036b7f8       ?__GCSTATICS@guideXOS_guideXOS_Kernel_Drivers_Framebuffer@@ 000000001045b7f8     guideXOS.obj
 0005:0036b800       ?__GCSTATICS@guideXOS_guideXOS_Kernel_Drivers_HID@@ 000000001045b800     guideXOS.obj
 0005:0036b808       ?__GCSTATICS@guideXOS_guideXOS_Kernel_Drivers_IDE@@ 000000001045b808     guideXOS.obj
 0005:0036b810       ?__GCSTATICS@guideXOS_guideXOS_Kernel_Drivers_Keyboard@@ 000000001045b810     guideXOS.obj
 0005:0036b818       ?__GCSTATICS@guideXOS_guideXOS_Kernel_Drivers_PCI@@ 000000001045b818     guideXOS.obj
 0005:0036b820       ?__GCSTATICS@guideXOS_guideXOS_Kernel_Drivers_PS2Mouse@@ 000000001045b820     guideXOS.obj
 0005:0036b828       ?__GCSTATICS@guideXOS_guideXOS_Kernel_Drivers_SATA@@ 000000001045b828     guideXOS.obj
 0005:0036b838       ?__GCSTATICS@guideXOS_guideXOS_Kernel_Drivers_USBStorage@@ 000000001045b838     guideXOS.obj
 0005:0036b840       ?__GCSTATICS@guideXOS_guideXOS_OS_Firewall@@ 000000001045b840     guideXOS.obj
 0005:0036b848       ?__GCSTATICS@guideXOS_guideXOS_OS_Session@@ 000000001045b848     guideXOS.obj
 0005:0036b858       ?__GCSTATICS@guideXOS_guideXOS_Modules_ModuleManager@@ 000000001045b858     guideXOS.obj
 0005:0036b860       ?__GCSTATICS@guideXOS_guideXOS_GUI_BackgroundRotationManager@@ 000000001045b860     guideXOS.obj
 0005:0036b868       ?__GCSTATICS@guideXOS_guideXOS_GUI_Desktop@@ 000000001045b868     guideXOS.obj
 0005:0036b878       ?__GCSTATICS@guideXOS_guideXOS_GUI_Icons@@ 000000001045b878     guideXOS.obj
 0005:0036b880       ?__GCSTATICS@guideXOS_guideXOS_GUI_Lockscreen@@ 000000001045b880     guideXOS.obj
 0005:0036b888       ?__GCSTATICS@guideXOS_guideXOS_GUI_NotificationManager@@ 000000001045b888     guideXOS.obj
 0005:0036b890       ?__GCSTATICS@guideXOS_guideXOS_GUI_OnScreenKeyboard@@ 000000001045b890     guideXOS.obj
 0005:0036b898       ?__GCSTATICS@guideXOS_guideXOS_GUI_PinnedManager@@ 000000001045b898     guideXOS.obj
 0005:0036b8a0       ?__GCSTATICS@guideXOS_guideXOS_GUI_RecentManager@@ 000000001045b8a0     guideXOS.obj
 0005:0036b8a8       ?__GCSTATICS@guideXOS_guideXOS_GUI_WindowManager@@ 000000001045b8a8     guideXOS.obj
 0005:0036b8b0       ?__GCSTATICS@guideXOS_guideXOS_GUI_WorkspaceManager@@ 000000001045b8b0     guideXOS.obj
 0005:0036b8b8       ?__GCSTATICS@guideXOS_guideXOS_DockableWidgets_Clock@@ 000000001045b8b8     guideXOS.obj
 0005:0036b8c8       ?__GCSTATICS@guideXOS_guideXOS_DefaultApps_WAVPlayer@@ 000000001045b8c8     guideXOS.obj
 0005:0036b8d0       ?__GCSTATICS@guideXOS_guideXOS_Modules_ModuleManager___c@@ 000000001045b8d0     guideXOS.obj
 0005:0036b8e0       ?__GCSTATICS@guideXOS_guideXOS_GUI_DisplayOptions___c@@ 000000001045b8e0     guideXOS.obj
 0005:0036b8f0       ?__GCSTATICS@guideXOS_guideXOS_GUI_SaveDialog___O@@ 000000001045b8f0     guideXOS.obj
 0005:0036b8f8       ?__GCSTATICS@guideXOS_System_Array_EmptyArray_1<String>@@ 000000001045b8f8     guideXOS.obj
 0005:0036b900       __module_initializers      000000001045b900     guideXOS.obj
 0005:0036b900       __module_initializers_End  000000001045b900     guideXOS.obj
 0005:0036b900       __nativemodule_guideXOS__Module__Error 000000001045b900     guideXOS.obj
 0005:0036b920       LODEPNG_VERSION_STRING     000000001045b920     NativeLib:lodepng.obj
 0005:0036bd30       _fltused                   000000001045bd30     MSVCRTD:fltused.obj
 0005:0036bd40       ?__NONGCSTATICS@guideXOS_GDT@@ 000000001045bd40     guideXOS.obj
 0005:0036bdea       ?__NONGCSTATICS@guideXOS_IDT@@ 000000001045bdea     guideXOS.obj
 0005:0036bdf8       ?__NONGCSTATICS@guideXOS_System_Windows_Forms_Control@@ 000000001045bdf8     guideXOS.obj
 0005:0036be04       ?__NONGCSTATICS@guideXOS_guideXOS_Kbd2Mouse@@ 000000001045be04     guideXOS.obj
 0005:0036be0c       ?__NONGCSTATICS@guideXOS_guideXOS_Console@@ 000000001045be0c     guideXOS.obj
 0005:0036be18       ?__NONGCSTATICS@guideXOS_guideXOS_PageTable@@ 000000001045be18     guideXOS.obj
 0005:0036be20       ?__NONGCSTATICS@guideXOS_guideXOS_Intel825xx@@ 000000001045be20     guideXOS.obj
 0005:0036be40       ?__NONGCSTATICS@guideXOS_guideXOS_NETv4@@ 000000001045be40     guideXOS.obj
 0005:0036be70       ?__NONGCSTATICS@guideXOS_guideXOS_RTL8111@@ 000000001045be70     guideXOS.obj
 0005:0036be88       ?__NONGCSTATICS@guideXOS_guideXOS_SMP@@ 000000001045be88     guideXOS.obj
 0005:0036be90       ?__NONGCSTATICS@guideXOS_guideXOS_Misc_Audio@@ 000000001045be90     guideXOS.obj
 0005:0036bea8       ?__NONGCSTATICS@guideXOS_guideXOS_Misc_BootSplash@@ 000000001045bea8     guideXOS.obj
 0005:0036bedc       ?__NONGCSTATICS@guideXOS_guideXOS_Misc_Panic@@ 000000001045bedc     guideXOS.obj
 0005:0036bee0       ?__NONGCSTATICS@guideXOS_guideXOS_Misc_ThreadPool@@ 000000001045bee0     guideXOS.obj
 0005:0036befc       ?__NONGCSTATICS@guideXOS_guideXOS_Misc_USB@@ 000000001045befc     guideXOS.obj
 0005:0036bf00       ?__NONGCSTATICS@guideXOS_guideXOS_Kernel_Drivers_AC97@@ 000000001045bf00     guideXOS.obj
 0005:0036bf20       ?__NONGCSTATICS@guideXOS_guideXOS_Kernel_Drivers_ACPI@@ 000000001045bf20     guideXOS.obj
 0005:0036bf50       ?__NONGCSTATICS@guideXOS_guideXOS_Kernel_Drivers_EHCI@@ 000000001045bf50     guideXOS.obj
 0005:0036bfb0       ?__NONGCSTATICS@guideXOS_guideXOS_Kernel_Drivers_ES1371@@ 000000001045bfb0     guideXOS.obj
 0005:0036bfc0       ?__NONGCSTATICS@guideXOS_guideXOS_Kernel_Drivers_Framebuffer@@ 000000001045bfc0     guideXOS.obj
 0005:0036bfe8       ?__NONGCSTATICS@guideXOS_guideXOS_Kernel_Drivers_HID@@ 000000001045bfe8     guideXOS.obj
 0005:0036bff0       ?__NONGCSTATICS@guideXOS_guideXOS_Kernel_Drivers_HPET@@ 000000001045bff0     guideXOS.obj
 0005:0036bff8       ?__NONGCSTATICS@guideXOS_guideXOS_Kernel_Drivers_Hub@@ 000000001045bff8     guideXOS.obj
 0005:0036c000       ?__NONGCSTATICS@guideXOS_guideXOS_Kernel_Drivers_Keyboard@@ 000000001045c000     guideXOS.obj
 0005:0036c010       ?__NONGCSTATICS@guideXOS_guideXOS_Kernel_Drivers_PS2Keyboard@@ 000000001045c010     guideXOS.obj
 0005:0036c01c       ?__NONGCSTATICS@guideXOS_guideXOS_Kernel_Drivers_PS2Mouse@@ 000000001045c01c     guideXOS.obj
 0005:0036c034       ?__NONGCSTATICS@guideXOS_guideXOS_Kernel_Drivers_RTC@@ 000000001045c034     guideXOS.obj
 0005:0036c038       ?__NONGCSTATICS@guideXOS_guideXOS_Kernel_Drivers_Timer@@ 000000001045c038     guideXOS.obj
 0005:0036c050       ?__NONGCSTATICS@guideXOS_guideXOS_Kernel_Drivers_VMwareTools@@ 000000001045c050     guideXOS.obj
 0005:0036c058       ?__NONGCSTATICS@guideXOS_guideXOS_GUI_BackgroundRotationManager@@ 000000001045c058     guideXOS.obj
 0005:0036c080       ?__NONGCSTATICS@guideXOS_guideXOS_GUI_Busy@@ 000000001045c080     guideXOS.obj
 0005:0036c088       ?__NONGCSTATICS@guideXOS_guideXOS_GUI_WindowManager@@ 000000001045c088     guideXOS.obj
 0005:0036c09c       ?__NONGCSTATICS@guideXOS_guideXOS_DefaultApps_WAVPlayer@@ 000000001045c09c     guideXOS.obj
 0005:0036c0d0       __writableDataBool         000000001045c0d0     guideXOS.obj
 0005:0036c0d8       __writableDataChar         000000001045c0d8     guideXOS.obj
 0005:0036c0e0       __writableDataInt32        000000001045c0e0     guideXOS.obj
 0005:0036c0e8       __writableDataObject       000000001045c0e8     guideXOS.obj
 0005:0036c0f0       __writableDataString       000000001045c0f0     guideXOS.obj
 0005:0036c0f8       __writableDataUInt16       000000001045c0f8     guideXOS.obj
 0005:0036c100       __writableDataUInt32       000000001045c100     guideXOS.obj
 0005:0036c108       __writableDataUInt64       000000001045c108     guideXOS.obj
 0005:0036c110       __writableDataUInt8        000000001045c110     guideXOS.obj
 0005:0036c118       __writableData__Array<Char> 000000001045c118     guideXOS.obj
 0005:0036c120       __writableData__Array<Int32> 000000001045c120     guideXOS.obj
 0005:0036c128       __writableData__Array<Object> 000000001045c128     guideXOS.obj
 0005:0036c130       __writableData__Array<String> 000000001045c130     guideXOS.obj
 0005:0036c138       __writableData__Array<UInt32> 000000001045c138     guideXOS.obj
 0005:0036c140       __writableData__Array<UInt64> 000000001045c140     guideXOS.obj
 0005:0036c148       __writableData__Array<UInt8> 000000001045c148     guideXOS.obj
 0005:0036c150       __writableData__Array<__Array<UInt8>> 000000001045c150     guideXOS.obj
 0005:0036c158       __writableData__Array<guideXOS_Allocator_OwnerSnapshot> 000000001045c158     guideXOS.obj
 0005:0036c160       __writableData__Array<guideXOS_IDT_IDTEntry> 000000001045c160     guideXOS.obj
 0005:0036c168       __writableData__Array<guideXOS_System_ConsoleKey> 000000001045c168     guideXOS.obj
 0005:0036c170       __writableData__Array<guideXOS_System_Drawing_Image> 000000001045c170     guideXOS.obj
 0005:0036c178       __writableData__Array<guideXOS_System_Drawing_Point> 000000001045c178     guideXOS.obj
 0005:0036c180       __writableData__Array<guideXOS_guideXOS_Animation> 000000001045c180     guideXOS.obj
 0005:0036c188       __writableData__Array<guideXOS_guideXOS_DefaultApps_Devices_Row> 000000001045c188     guideXOS.obj
 0005:0036c190       __writableData__Array<guideXOS_guideXOS_DefaultApps_DiskManager_DiskEntry> 000000001045c190     guideXOS.obj
 0005:0036c198       __writableData__Array<guideXOS_guideXOS_DefaultApps_DiskManager_Part> 000000001045c198     guideXOS.obj
 0005:0036c1a0       __writableData__Array<guideXOS_guideXOS_DefaultApps_DriveInfo> 000000001045c1a0     guideXOS.obj
 0005:0036c1a8       __writableData__Array<guideXOS_guideXOS_DefaultApps_IRCNetworks_Entry> 000000001045c1a8     guideXOS.obj
 0005:0036c1b0       __writableData__Array<guideXOS_guideXOS_DefaultApps_PaintTool> 000000001045c1b0     guideXOS.obj
 0005:0036c1b8       __writableData__Array<guideXOS_guideXOS_DefaultApps_WebBrowser_BrowserTab> 000000001045c1b8     guideXOS.obj
 0005:0036c1c0       __writableData__Array<guideXOS_guideXOS_DefaultApps_WebBrowser_RenderElement> 000000001045c1c0     guideXOS.obj
 0005:0036c1c8       __writableData__Array<guideXOS_guideXOS_FS_EXT2_DirEnt> 000000001045c1c8     guideXOS.obj
 0005:0036c1d0       __writableData__Array<guideXOS_guideXOS_FS_FileInfo> 000000001045c1d0     guideXOS.obj
 0005:0036c1d8       __writableData__Array<guideXOS_guideXOS_GUI_DockableWidget> 000000001045c1d8     guideXOS.obj
 0005:0036c1e0       __writableData__Array<guideXOS_guideXOS_GUI_GXMScriptWindow_Btn> 000000001045c1e0     guideXOS.obj
 0005:0036c1e8       __writableData__Array<guideXOS_guideXOS_GUI_GXMScriptWindow_Callback> 000000001045c1e8     guideXOS.obj
 0005:0036c1f0       __writableData__Array<guideXOS_guideXOS_GUI_GXMScriptWindow_DropdownDef> 000000001045c1f0     guideXOS.obj
 0005:0036c1f8       __writableData__Array<guideXOS_guideXOS_GUI_GXMScriptWindow_Label> 000000001045c1f8     guideXOS.obj
 0005:0036c200       __writableData__Array<guideXOS_guideXOS_GUI_GXMScriptWindow_ListViewDef> 000000001045c200     guideXOS.obj
 0005:0036c208       __writableData__Array<guideXOS_guideXOS_GUI_GXMScriptWindow_TextBoxDef> 000000001045c208     guideXOS.obj
 0005:0036c210       __writableData__Array<guideXOS_guideXOS_GUI_PinnedManager_Pinned> 000000001045c210     guideXOS.obj
 0005:0036c218       __writableData__Array<guideXOS_guideXOS_GUI_RecentDocumentEntry> 000000001045c218     guideXOS.obj
 0005:0036c220       __writableData__Array<guideXOS_guideXOS_GUI_RecentProgramEntry> 000000001045c220     guideXOS.obj
 0005:0036c228       __writableData__Array<guideXOS_guideXOS_GUI_StartMenu_AppEntry> 000000001045c228     guideXOS.obj
 0005:0036c230       __writableData__Array<guideXOS_guideXOS_GUI_USBDrives_Entry> 000000001045c230     guideXOS.obj
 0005:0036c238       __writableData__Array<guideXOS_guideXOS_GUI_Widgets_Button> 000000001045c238     guideXOS.obj
 0005:0036c240       __writableData__Array<guideXOS_guideXOS_GUI_Window> 000000001045c240     guideXOS.obj
 0005:0036c248       __writableData__Array<guideXOS_guideXOS_GUI_WindowManager_PendingWindow> 000000001045c248     guideXOS.obj
 0005:0036c250       __writableData__Array<guideXOS_guideXOS_GUI_WorkspaceSwitcher_WindowSnapshot> 000000001045c250     guideXOS.obj
 0005:0036c258       __writableData__Array<guideXOS_guideXOS_Kernel_Drivers_IDEDevice> 000000001045c258     guideXOS.obj
 0005:0036c260       __writableData__Array<guideXOS_guideXOS_Kernel_Drivers_PCIDevice> 000000001045c260     guideXOS.obj
 0005:0036c268       __writableData__Array<guideXOS_guideXOS_Kernel_Drivers_Resolution> 000000001045c268     guideXOS.obj
 0005:0036c270       __writableData__Array<guideXOS_guideXOS_Kernel_Drivers_SATA_SATADevice> 000000001045c270     guideXOS.obj
 0005:0036c278       __writableData__Array<guideXOS_guideXOS_Misc_BitFontDescriptor> 000000001045c278     guideXOS.obj
 0005:0036c280       __writableData__Array<guideXOS_guideXOS_Misc_Interrupts_INT> 000000001045c280     guideXOS.obj
 0005:0036c288       __writableData__Array<guideXOS_guideXOS_Misc_Thread> 000000001045c288     guideXOS.obj
 0005:0036c290       __writableData__Array<guideXOS_guideXOS_Misc_USBDevice> 000000001045c290     guideXOS.obj
 0005:0036c298       __writableData__Array<guideXOS_guideXOS_Modules_ModuleManager_ModuleEntry> 000000001045c298     guideXOS.obj
 0005:0036c2a0       __writableData__Array<guideXOS_guideXOS_NETv4_ARPCache> 000000001045c2a0     guideXOS.obj
 0005:0036c2a8       __writableData__Array<guideXOS_guideXOS_NETv4_TCPClient> 000000001045c2a8     guideXOS.obj
 0005:0036c2b0       __writableData__Array<guideXOS_guideXOS_NETv4_UDPClient> 000000001045c2b0     guideXOS.obj
 0005:0036c2b8       __writableData__Array<guideXOS_guideXOS_Network_Http_Header> 000000001045c2b8     guideXOS.obj
 0005:0036c2c0       __writableData__Array<guideXOS_guideXOS_OS_App> 000000001045c2c0     guideXOS.obj
 0005:0036c2c8       __writableData__Array<guideXOS_guideXOS_OS_FirewallMode> 000000001045c2c8     guideXOS.obj
 0005:0036c2d0       __writableDataguideXOS_Allocator_OwnerSnapshot 000000001045c2d0     guideXOS.obj
 0005:0036c2d8       __writableDataguideXOS_IDT_IDTEntry 000000001045c2d8     guideXOS.obj
 0005:0036c2e0       __writableDataguideXOS_System_Action 000000001045c2e0     guideXOS.obj
 0005:0036c2e8       __writableDataguideXOS_System_Action_1 000000001045c2e8     guideXOS.obj
 0005:0036c2f0       __writableDataguideXOS_System_Action_1<String> 000000001045c2f0     guideXOS.obj
 0005:0036c2f8       __writableDataguideXOS_System_Action_1<UInt32> 000000001045c2f8     guideXOS.obj
 0005:0036c300       __writableDataguideXOS_System_Array 000000001045c300     guideXOS.obj
 0005:0036c308       __writableDataguideXOS_System_Array_EmptyArray_1 000000001045c308     guideXOS.obj
 0005:0036c310       __writableDataguideXOS_System_Array_EmptyArray_1<String> 000000001045c310     guideXOS.obj
 0005:0036c318       __writableDataguideXOS_System_Collections_Generic_Dictionary_2 000000001045c318     guideXOS.obj
 0005:0036c320       __writableDataguideXOS_System_Collections_Generic_Dictionary_2<guideXOS_guideXOS_GUI_Widgets_Button__Int32> 000000001045c320     guideXOS.obj
 0005:0036c328       __writableDataguideXOS_System_Collections_Generic_Dictionary_2<guideXOS_guideXOS_GUI_Widgets_Button__guideXOS_guideXOS_DefaultApps_PaintTool> 000000001045c328     guideXOS.obj
 0005:0036c330       __writableDataguideXOS_System_Collections_Generic_List_1 000000001045c330     guideXOS.obj
 0005:0036c338       __writableDataguideXOS_System_Collections_Generic_List_1<Int32> 000000001045c338     guideXOS.obj
 0005:0036c340       __writableDataguideXOS_System_Collections_Generic_List_1<String> 000000001045c340     guideXOS.obj
 0005:0036c348       __writableDataguideXOS_System_Collections_Generic_List_1<UInt32> 000000001045c348     guideXOS.obj
 0005:0036c350       __writableDataguideXOS_System_Collections_Generic_List_1<UInt64> 000000001045c350     guideXOS.obj
 0005:0036c358       __writableDataguideXOS_System_Collections_Generic_List_1<UInt8> 000000001045c358     guideXOS.obj
 0005:0036c360       __writableDataguideXOS_System_Collections_Generic_List_1<__Array<UInt8>> 000000001045c360     guideXOS.obj
 0005:0036c368       __writableDataguideXOS_System_Collections_Generic_List_1<guideXOS_System_Drawing_Image> 000000001045c368     guideXOS.obj
 0005:0036c370       __writableDataguideXOS_System_Collections_Generic_List_1<guideXOS_System_Drawing_Point> 000000001045c370     guideXOS.obj
 0005:0036c378       __writableDataguideXOS_System_Collections_Generic_List_1<guideXOS_guideXOS_Animation> 000000001045c378     guideXOS.obj
 0005:0036c380       __writableDataguideXOS_System_Collections_Generic_List_1<guideXOS_guideXOS_DefaultApps_DiskManager_DiskEntry> 000000001045c380     guideXOS.obj
 0005:0036c388       __writableDataguideXOS_System_Collections_Generic_List_1<guideXOS_guideXOS_DefaultApps_DriveInfo> 000000001045c388     guideXOS.obj
 0005:0036c390       __writableDataguideXOS_System_Collections_Generic_List_1<guideXOS_guideXOS_DefaultApps_IRCNetworks_Entry> 000000001045c390     guideXOS.obj
 0005:0036c398       __writableDataguideXOS_System_Collections_Generic_List_1<guideXOS_guideXOS_DefaultApps_PaintTool> 000000001045c398     guideXOS.obj
 0005:0036c3a0       __writableDataguideXOS_System_Collections_Generic_List_1<guideXOS_guideXOS_DefaultApps_WebBrowser_BrowserTab> 000000001045c3a0     guideXOS.obj
 0005:0036c3a8       __writableDataguideXOS_System_Collections_Generic_List_1<guideXOS_guideXOS_DefaultApps_WebBrowser_RenderElement> 000000001045c3a8     guideXOS.obj
 0005:0036c3b0       __writableDataguideXOS_System_Collections_Generic_List_1<guideXOS_guideXOS_FS_EXT2_DirEnt> 000000001045c3b0     guideXOS.obj
 0005:0036c3b8       __writableDataguideXOS_System_Collections_Generic_List_1<guideXOS_guideXOS_FS_FileInfo> 000000001045c3b8     guideXOS.obj
 0005:0036c3c0       __writableDataguideXOS_System_Collections_Generic_List_1<guideXOS_guideXOS_GUI_DockableWidget> 000000001045c3c0     guideXOS.obj
 0005:0036c3c8       __writableDataguideXOS_System_Collections_Generic_List_1<guideXOS_guideXOS_GUI_GXMScriptWindow_Btn> 000000001045c3c8     guideXOS.obj
 0005:0036c3d0       __writableDataguideXOS_System_Collections_Generic_List_1<guideXOS_guideXOS_GUI_GXMScriptWindow_Callback> 000000001045c3d0     guideXOS.obj
 0005:0036c3d8       __writableDataguideXOS_System_Collections_Generic_List_1<guideXOS_guideXOS_GUI_GXMScriptWindow_DropdownDef> 000000001045c3d8     guideXOS.obj
 0005:0036c3e0       __writableDataguideXOS_System_Collections_Generic_List_1<guideXOS_guideXOS_GUI_GXMScriptWindow_Label> 000000001045c3e0     guideXOS.obj
 0005:0036c3e8       __writableDataguideXOS_System_Collections_Generic_List_1<guideXOS_guideXOS_GUI_GXMScriptWindow_ListViewDef> 000000001045c3e8     guideXOS.obj
 0005:0036c3f0       __writableDataguideXOS_System_Collections_Generic_List_1<guideXOS_guideXOS_GUI_GXMScriptWindow_TextBoxDef> 000000001045c3f0     guideXOS.obj
 0005:0036c3f8       __writableDataguideXOS_System_Collections_Generic_List_1<guideXOS_guideXOS_GUI_PinnedManager_Pinned> 000000001045c3f8     guideXOS.obj
 0005:0036c400       __writableDataguideXOS_System_Collections_Generic_List_1<guideXOS_guideXOS_GUI_RecentDocumentEntry> 000000001045c400     guideXOS.obj
 0005:0036c408       __writableDataguideXOS_System_Collections_Generic_List_1<guideXOS_guideXOS_GUI_RecentProgramEntry> 000000001045c408     guideXOS.obj
 0005:0036c410       __writableDataguideXOS_System_Collections_Generic_List_1<guideXOS_guideXOS_GUI_Widgets_Button> 000000001045c410     guideXOS.obj
 0005:0036c418       __writableDataguideXOS_System_Collections_Generic_List_1<guideXOS_guideXOS_GUI_Window> 000000001045c418     guideXOS.obj
 0005:0036c420       __writableDataguideXOS_System_Collections_Generic_List_1<guideXOS_guideXOS_GUI_WindowManager_PendingWindow> 000000001045c420     guideXOS.obj
 0005:0036c428       __writableDataguideXOS_System_Collections_Generic_List_1<guideXOS_guideXOS_GUI_WorkspaceSwitcher_WindowSnapshot> 000000001045c428     guideXOS.obj
 0005:0036c430       __writableDataguideXOS_System_Collections_Generic_List_1<guideXOS_guideXOS_Kernel_Drivers_IDEDevice> 000000001045c430     guideXOS.obj
 0005:0036c438       __writableDataguideXOS_System_Collections_Generic_List_1<guideXOS_guideXOS_Kernel_Drivers_PCIDevice> 000000001045c438     guideXOS.obj
 0005:0036c440       __writableDataguideXOS_System_Collections_Generic_List_1<guideXOS_guideXOS_Kernel_Drivers_SATA_SATADevice> 000000001045c440     guideXOS.obj
 0005:0036c448       __writableDataguideXOS_System_Collections_Generic_List_1<guideXOS_guideXOS_Misc_BitFontDescriptor> 000000001045c448     guideXOS.obj
 0005:0036c450       __writableDataguideXOS_System_Collections_Generic_List_1<guideXOS_guideXOS_Misc_Interrupts_INT> 000000001045c450     guideXOS.obj
 0005:0036c458       __writableDataguideXOS_System_Collections_Generic_List_1<guideXOS_guideXOS_Misc_Thread> 000000001045c458     guideXOS.obj
 0005:0036c460       __writableDataguideXOS_System_Collections_Generic_List_1<guideXOS_guideXOS_Misc_USBDevice> 000000001045c460     guideXOS.obj
 0005:0036c468       __writableDataguideXOS_System_Collections_Generic_List_1<guideXOS_guideXOS_Modules_ModuleManager_ModuleEntry> 000000001045c468     guideXOS.obj
 0005:0036c470       __writableDataguideXOS_System_Collections_Generic_List_1<guideXOS_guideXOS_NETv4_ARPCache> 000000001045c470     guideXOS.obj
 0005:0036c478       __writableDataguideXOS_System_Collections_Generic_List_1<guideXOS_guideXOS_NETv4_TCPClient> 000000001045c478     guideXOS.obj
 0005:0036c480       __writableDataguideXOS_System_Collections_Generic_List_1<guideXOS_guideXOS_NETv4_UDPClient> 000000001045c480     guideXOS.obj
 0005:0036c488       __writableDataguideXOS_System_Collections_Generic_List_1<guideXOS_guideXOS_Network_Http_Header> 000000001045c488     guideXOS.obj
 0005:0036c490       __writableDataguideXOS_System_Collections_Generic_List_1<guideXOS_guideXOS_OS_App> 000000001045c490     guideXOS.obj
 0005:0036c498       __writableDataguideXOS_System_Collections_Generic_Queue_1 000000001045c498     guideXOS.obj
 0005:0036c4a0       __writableDataguideXOS_System_Collections_Generic_Queue_1<__Array<UInt8>> 000000001045c4a0     guideXOS.obj
 0005:0036c4a8       __writableDataguideXOS_System_ConsoleKey 000000001045c4a8     guideXOS.obj
 0005:0036c4b0       __writableDataguideXOS_System_ConsoleKeyInfo 000000001045c4b0     guideXOS.obj
 0005:0036c4b8       __writableDataguideXOS_System_Delegate 000000001045c4b8     guideXOS.obj
 0005:0036c4c0       __writableDataguideXOS_System_Drawing_Image 000000001045c4c0     guideXOS.obj
 0005:0036c4c8       __writableDataguideXOS_System_Drawing_Point 000000001045c4c8     guideXOS.obj
 0005:0036c4d0       __writableDataguideXOS_System_Enum 000000001045c4d0     guideXOS.obj
 0005:0036c4d8       __writableDataguideXOS_System_EventHandler_1 000000001045c4d8     guideXOS.obj
 0005:0036c4e0       __writableDataguideXOS_System_EventHandler_1<guideXOS_System_ConsoleKeyInfo> 000000001045c4e0     guideXOS.obj
 0005:0036c4e8       __writableDataguideXOS_System_Func_2 000000001045c4e8     guideXOS.obj
 0005:0036c4f0       __writableDataguideXOS_System_Func_2<Int32__guideXOS_System_Drawing_Image> 000000001045c4f0     guideXOS.obj
 0005:0036c4f8       __writableDataguideXOS_System_Func_5 000000001045c4f8     guideXOS.obj
 0005:0036c500       __writableDataguideXOS_System_Func_5<String__Bool__UInt32__UInt32__Bool> 000000001045c500     guideXOS.obj
 0005:0036c508       __writableDataguideXOS_System_MulticastDelegate 000000001045c508     guideXOS.obj
 0005:0036c510       __writableDataguideXOS_System_ValueType 000000001045c510     guideXOS.obj
 0005:0036c518       __writableDataguideXOS__Module_ 000000001045c518     guideXOS.obj
 0005:0036c520       __writableDataguideXOS_guideXOS_Animation 000000001045c520     guideXOS.obj
 0005:0036c528       __writableDataguideXOS_guideXOS_Console 000000001045c528     guideXOS.obj
 0005:0036c530       __writableDataguideXOS_guideXOS_Console_OnWriteHandler 000000001045c530     guideXOS.obj
 0005:0036c538       __writableDataguideXOS_guideXOS_DefaultApps_Calculator 000000001045c538     guideXOS.obj
 0005:0036c540       __writableDataguideXOS_guideXOS_DefaultApps_ComputerFiles 000000001045c540     guideXOS.obj
 0005:0036c548       __writableDataguideXOS_guideXOS_DefaultApps_Devices 000000001045c548     guideXOS.obj
 0005:0036c550       __writableDataguideXOS_guideXOS_DefaultApps_Devices_Row 000000001045c550     guideXOS.obj
 0005:0036c558       __writableDataguideXOS_guideXOS_DefaultApps_DiskManager 000000001045c558     guideXOS.obj
 0005:0036c560       __writableDataguideXOS_guideXOS_DefaultApps_DiskManager_DiskEntry 000000001045c560     guideXOS.obj
 0005:0036c568       __writableDataguideXOS_guideXOS_DefaultApps_DiskManager_Part 000000001045c568     guideXOS.obj
 0005:0036c570       __writableDataguideXOS_guideXOS_DefaultApps_DiskManager___c__DisplayClass38_0 000000001045c570     guideXOS.obj
 0005:0036c578       __writableDataguideXOS_guideXOS_DefaultApps_DiskManager___c__DisplayClass54_0 000000001045c578     guideXOS.obj
 0005:0036c580       __writableDataguideXOS_guideXOS_DefaultApps_DriveInfo 000000001045c580     guideXOS.obj
 0005:0036c588       __writableDataguideXOS_guideXOS_DefaultApps_FConsole 000000001045c588     guideXOS.obj
 0005:0036c590       __writableDataguideXOS_guideXOS_DefaultApps_FirewallAlert 000000001045c590     guideXOS.obj
 0005:0036c598       __writableDataguideXOS_guideXOS_DefaultApps_FirewallWindow 000000001045c598     guideXOS.obj
 0005:0036c5a0       __writableDataguideXOS_guideXOS_DefaultApps_GUISamples 000000001045c5a0     guideXOS.obj
 0005:0036c5a8       __writableDataguideXOS_guideXOS_DefaultApps_IRCNetworks 000000001045c5a8     guideXOS.obj
 0005:0036c5b0       __writableDataguideXOS_guideXOS_DefaultApps_IRCNetworks_Entry 000000001045c5b0     guideXOS.obj
 0005:0036c5b8       __writableDataguideXOS_guideXOS_DefaultApps_ImageViewer 000000001045c5b8     guideXOS.obj
 0005:0036c5c0       __writableDataguideXOS_guideXOS_DefaultApps_Notepad 000000001045c5c0     guideXOS.obj
 0005:0036c5c8       __writableDataguideXOS_guideXOS_DefaultApps_Notepad___c__DisplayClass24_0 000000001045c5c8     guideXOS.obj
 0005:0036c5d0       __writableDataguideXOS_guideXOS_DefaultApps_Paint 000000001045c5d0     guideXOS.obj
 0005:0036c5d8       __writableDataguideXOS_guideXOS_DefaultApps_PaintTool 000000001045c5d8     guideXOS.obj
 0005:0036c5e0       __writableDataguideXOS_guideXOS_DefaultApps_TaskManager 000000001045c5e0     guideXOS.obj
 0005:0036c5e8       __writableDataguideXOS_guideXOS_DefaultApps_TaskManager_Chart 000000001045c5e8     guideXOS.obj
 0005:0036c5f0       __writableDataguideXOS_guideXOS_DefaultApps_USBDrives 000000001045c5f0     guideXOS.obj
 0005:0036c5f8       __writableDataguideXOS_guideXOS_DefaultApps_WAVPlayer 000000001045c5f8     guideXOS.obj
 0005:0036c600       __writableDataguideXOS_guideXOS_DefaultApps_WebBrowser 000000001045c600     guideXOS.obj
 0005:0036c608       __writableDataguideXOS_guideXOS_DefaultApps_WebBrowser_BrowserTab 000000001045c608     guideXOS.obj
 0005:0036c610       __writableDataguideXOS_guideXOS_DefaultApps_WebBrowser_RenderElement 000000001045c610     guideXOS.obj
 0005:0036c618       __writableDataguideXOS_guideXOS_DefaultApps_Welcome 000000001045c618     guideXOS.obj
 0005:0036c620       __writableDataguideXOS_guideXOS_DefaultApps_nexIRC 000000001045c620     guideXOS.obj
 0005:0036c628       __writableDataguideXOS_guideXOS_DockableWidgets_Clock 000000001045c628     guideXOS.obj
 0005:0036c630       __writableDataguideXOS_guideXOS_DockableWidgets_Monitor 000000001045c630     guideXOS.obj
 0005:0036c638       __writableDataguideXOS_guideXOS_DockableWidgets_Monitor_Chart 000000001045c638     guideXOS.obj
 0005:0036c640       __writableDataguideXOS_guideXOS_DockableWidgets_PerformanceWidget 000000001045c640     guideXOS.obj
 0005:0036c648       __writableDataguideXOS_guideXOS_FS_AutoFS 000000001045c648     guideXOS.obj
 0005:0036c650       __writableDataguideXOS_guideXOS_FS_CloudFS 000000001045c650     guideXOS.obj
 0005:0036c658       __writableDataguideXOS_guideXOS_FS_Disk 000000001045c658     guideXOS.obj
 0005:0036c660       __writableDataguideXOS_guideXOS_FS_EXT2 000000001045c660     guideXOS.obj
 0005:0036c668       __writableDataguideXOS_guideXOS_FS_EXT2_DirEnt 000000001045c668     guideXOS.obj
 0005:0036c670       __writableDataguideXOS_guideXOS_FS_FAT 000000001045c670     guideXOS.obj
 0005:0036c678       __writableDataguideXOS_guideXOS_FS_FATFS 000000001045c678     guideXOS.obj
 0005:0036c680       __writableDataguideXOS_guideXOS_FS_FAT___c__DisplayClass50_0 000000001045c680     guideXOS.obj
 0005:0036c688       __writableDataguideXOS_guideXOS_FS_FAT___c__DisplayClass50_1 000000001045c688     guideXOS.obj
 0005:0036c690       __writableDataguideXOS_guideXOS_FS_FAT___c__DisplayClass60_0 000000001045c690     guideXOS.obj
 0005:0036c698       __writableDataguideXOS_guideXOS_FS_FileInfo 000000001045c698     guideXOS.obj
 0005:0036c6a0       __writableDataguideXOS_guideXOS_FS_FileSystem 000000001045c6a0     guideXOS.obj
 0005:0036c6a8       __writableDataguideXOS_guideXOS_FS_TarFS 000000001045c6a8     guideXOS.obj
 0005:0036c6b0       __writableDataguideXOS_guideXOS_GUI_Base_WindowBase 000000001045c6b0     guideXOS.obj
 0005:0036c6b8       __writableDataguideXOS_guideXOS_GUI_ColorPicker 000000001045c6b8     guideXOS.obj
 0005:0036c6c0       __writableDataguideXOS_guideXOS_GUI_DisplayOptions 000000001045c6c0     guideXOS.obj
 0005:0036c6c8       __writableDataguideXOS_guideXOS_GUI_DisplayOptions___c 000000001045c6c8     guideXOS.obj
 0005:0036c6d0       __writableDataguideXOS_guideXOS_GUI_DockableWidget 000000001045c6d0     guideXOS.obj
 0005:0036c6d8       __writableDataguideXOS_guideXOS_GUI_GXMScriptWindow 000000001045c6d8     guideXOS.obj
 0005:0036c6e0       __writableDataguideXOS_guideXOS_GUI_GXMScriptWindow_Btn 000000001045c6e0     guideXOS.obj
 0005:0036c6e8       __writableDataguideXOS_guideXOS_GUI_GXMScriptWindow_Callback 000000001045c6e8     guideXOS.obj
 0005:0036c6f0       __writableDataguideXOS_guideXOS_GUI_GXMScriptWindow_DropdownDef 000000001045c6f0     guideXOS.obj
 0005:0036c6f8       __writableDataguideXOS_guideXOS_GUI_GXMScriptWindow_Label 000000001045c6f8     guideXOS.obj
 0005:0036c700       __writableDataguideXOS_guideXOS_GUI_GXMScriptWindow_ListViewDef 000000001045c700     guideXOS.obj
 0005:0036c708       __writableDataguideXOS_guideXOS_GUI_GXMScriptWindow_TextBoxDef 000000001045c708     guideXOS.obj
 0005:0036c710       __writableDataguideXOS_guideXOS_GUI_IconsPrivate 000000001045c710     guideXOS.obj
 0005:0036c718       __writableDataguideXOS_guideXOS_GUI_MessageBox 000000001045c718     guideXOS.obj
 0005:0036c720       __writableDataguideXOS_guideXOS_GUI_NetworkConfigurationDialog 000000001045c720     guideXOS.obj
 0005:0036c728       __writableDataguideXOS_guideXOS_GUI_Notify 000000001045c728     guideXOS.obj
 0005:0036c730       __writableDataguideXOS_guideXOS_GUI_OnScreenKeyboard 000000001045c730     guideXOS.obj
 0005:0036c738       __writableDataguideXOS_guideXOS_GUI_OpenDialog 000000001045c738     guideXOS.obj
 0005:0036c740       __writableDataguideXOS_guideXOS_GUI_PinnedManager_Pinned 000000001045c740     guideXOS.obj
 0005:0036c748       __writableDataguideXOS_guideXOS_GUI_RecentDocumentEntry 000000001045c748     guideXOS.obj
 0005:0036c750       __writableDataguideXOS_guideXOS_GUI_RecentProgramEntry 000000001045c750     guideXOS.obj
 0005:0036c758       __writableDataguideXOS_guideXOS_GUI_RightMenu 000000001045c758     guideXOS.obj
 0005:0036c760       __writableDataguideXOS_guideXOS_GUI_SaveChangesDialog 000000001045c760     guideXOS.obj
 0005:0036c768       __writableDataguideXOS_guideXOS_GUI_SaveDialog 000000001045c768     guideXOS.obj
 0005:0036c770       __writableDataguideXOS_guideXOS_GUI_ShutdownDialog 000000001045c770     guideXOS.obj
 0005:0036c778       __writableDataguideXOS_guideXOS_GUI_StartMenu 000000001045c778     guideXOS.obj
 0005:0036c780       __writableDataguideXOS_guideXOS_GUI_StartMenu_AppEntry 000000001045c780     guideXOS.obj
 0005:0036c788       __writableDataguideXOS_guideXOS_GUI_Taskbar 000000001045c788     guideXOS.obj
 0005:0036c790       __writableDataguideXOS_guideXOS_GUI_TaskbarMenu 000000001045c790     guideXOS.obj
 0005:0036c798       __writableDataguideXOS_guideXOS_GUI_USBDrives 000000001045c798     guideXOS.obj
 0005:0036c7a0       __writableDataguideXOS_guideXOS_GUI_USBDrives_Entry 000000001045c7a0     guideXOS.obj
 0005:0036c7a8       __writableDataguideXOS_guideXOS_GUI_USBFiles 000000001045c7a8     guideXOS.obj
 0005:0036c7b0       __writableDataguideXOS_guideXOS_GUI_VisualEffectsSettings 000000001045c7b0     guideXOS.obj
 0005:0036c7b8       __writableDataguideXOS_guideXOS_GUI_WidgetContainer 000000001045c7b8     guideXOS.obj
 0005:0036c7c0       __writableDataguideXOS_guideXOS_GUI_WidgetContextMenu 000000001045c7c0     guideXOS.obj
 0005:0036c7c8       __writableDataguideXOS_guideXOS_GUI_Widgets_Base_Widget 000000001045c7c8     guideXOS.obj
 0005:0036c7d0       __writableDataguideXOS_guideXOS_GUI_Widgets_Button 000000001045c7d0     guideXOS.obj
 0005:0036c7d8       __writableDataguideXOS_guideXOS_GUI_Window 000000001045c7d8     guideXOS.obj
 0005:0036c7e0       __writableDataguideXOS_guideXOS_GUI_WindowManager_PendingWindow 000000001045c7e0     guideXOS.obj
 0005:0036c7e8       __writableDataguideXOS_guideXOS_GUI_WorkspaceSwitcher 000000001045c7e8     guideXOS.obj
 0005:0036c7f0       __writableDataguideXOS_guideXOS_GUI_WorkspaceSwitcher_WindowSnapshot 000000001045c7f0     guideXOS.obj
 0005:0036c7f8       __writableDataguideXOS_guideXOS_Graph_Graphics 000000001045c7f8     guideXOS.obj
 0005:0036c800       __writableDataguideXOS_guideXOS_Kernel_Drivers_IDEDevice 000000001045c800     guideXOS.obj
 0005:0036c808       __writableDataguideXOS_guideXOS_Kernel_Drivers_PCIDevice 000000001045c808     guideXOS.obj
 0005:0036c810       __writableDataguideXOS_guideXOS_Kernel_Drivers_Ramdisk 000000001045c810     guideXOS.obj
 0005:0036c818       __writableDataguideXOS_guideXOS_Kernel_Drivers_Resolution 000000001045c818     guideXOS.obj
 0005:0036c820       __writableDataguideXOS_guideXOS_Kernel_Drivers_SATA_SATADevice 000000001045c820     guideXOS.obj
 0005:0036c828       __writableDataguideXOS_guideXOS_Kernel_Drivers_USBMSCBot_USBDisk 000000001045c828     guideXOS.obj
 0005:0036c830       __writableDataguideXOS_guideXOS_Kernel_Drivers_VMWareSVGAII 000000001045c830     guideXOS.obj
 0005:0036c838       __writableDataguideXOS_guideXOS_Misc_BitFontDescriptor 000000001045c838     guideXOS.obj
 0005:0036c840       __writableDataguideXOS_guideXOS_Misc_Bitmap 000000001045c840     guideXOS.obj
 0005:0036c848       __writableDataguideXOS_guideXOS_Misc_IFont 000000001045c848     guideXOS.obj
 0005:0036c850       __writableDataguideXOS_guideXOS_Misc_Interrupts_INT 000000001045c850     guideXOS.obj
 0005:0036c858       __writableDataguideXOS_guideXOS_Misc_PNG 000000001045c858     guideXOS.obj
 0005:0036c860       __writableDataguideXOS_guideXOS_Misc_SVG 000000001045c860     guideXOS.obj
 0005:0036c868       __writableDataguideXOS_guideXOS_Misc_Thread 000000001045c868     guideXOS.obj
 0005:0036c870       __writableDataguideXOS_guideXOS_Misc_USBDevice 000000001045c870     guideXOS.obj
 0005:0036c878       __writableDataguideXOS_guideXOS_Modules_ModuleManager_ModuleEntry 000000001045c878     guideXOS.obj
 0005:0036c880       __writableDataguideXOS_guideXOS_Modules_ModuleManager___c 000000001045c880     guideXOS.obj
 0005:0036c888       __writableDataguideXOS_guideXOS_NETv4_ARPCache 000000001045c888     guideXOS.obj
 0005:0036c890       __writableDataguideXOS_guideXOS_NETv4_TCPClient 000000001045c890     guideXOS.obj
 0005:0036c898       __writableDataguideXOS_guideXOS_NETv4_UDPClient 000000001045c898     guideXOS.obj
 0005:0036c8a0       __writableDataguideXOS_guideXOS_Network_Http_Header 000000001045c8a0     guideXOS.obj
 0005:0036c8a8       __writableDataguideXOS_guideXOS_Network_Http_Request 000000001045c8a8     guideXOS.obj
 0005:0036c8b0       __writableDataguideXOS_guideXOS_Network_Http_Response 000000001045c8b0     guideXOS.obj
 0005:0036c8b8       __writableDataguideXOS_guideXOS_OS_App 000000001045c8b8     guideXOS.obj
 0005:0036c8c0       __writableDataguideXOS_guideXOS_OS_AppCollection 000000001045c8c0     guideXOS.obj
 0005:0036c8c8       __writableDataguideXOS_guideXOS_OS_FirewallMode 000000001045c8c8     guideXOS.obj
 0005:0036cd40       infos                      000000001045cd40     <common>
 0005:0036cd60       fno                        000000001045cd60     <common>
 0005:0036cfa0       info                       000000001045cfa0     <common>
 0005:0036d1e0       dir                        000000001045d1e0     <common>
 0005:0036d238       work                       000000001045d238     <common>
 0005:0036d240       bw                         000000001045d240     <common>
 0005:0036d244       res                        000000001045d244     <common>
 0005:0036d260       fil                        000000001045d260     <common>
 0005:0036d4c0       fs                         000000001045d4c0     <common>
 0005:0036d710       cpuinfo                    000000001045d710     <common>
 0007:00000000       __Module                   0000000010464000     guideXOS.obj

 entry point at        0003:0000c26c

 Static symbols

 0000:00000000       _volmd                     0000000010000000     NativeLib:interrupts.obj
 0001:00002b20       $$000000                   0000000010003b20     NativeLib:interrupts_asm.obj
 0001:00007020       $$000000                   0000000010008020     NativeLib:misc.obj
 0001:00007060       Adam7_deinterlace          0000000010008060 f   NativeLib:lodepng.obj
 0001:00007490       Adam7_getpassvalues        0000000010008490 f   NativeLib:lodepng.obj
 0001:00007750       Adam7_interlace            0000000010008750 f   NativeLib:lodepng.obj
 0001:00007b70       HuffmanTree_cleanup        0000000010008b70 f   NativeLib:lodepng.obj
 0001:00007bd0       HuffmanTree_init           0000000010008bd0 f   NativeLib:lodepng.obj
 0001:00007c20       HuffmanTree_makeFromFrequencies 0000000010008c20 f   NativeLib:lodepng.obj
 0001:00007d00       HuffmanTree_makeFromLengths 0000000010008d00 f   NativeLib:lodepng.obj
 0001:00007db0       HuffmanTree_makeFromLengths2 0000000010008db0 f   NativeLib:lodepng.obj
 0001:00008060       HuffmanTree_makeTable      0000000010009060 f   NativeLib:lodepng.obj
 0001:00008620       LodePNGBitReader_init      0000000010009620 f   NativeLib:lodepng.obj
 0001:000086c0       LodePNGBitWriter_init      00000000100096c0 f   NativeLib:lodepng.obj
 0001:00008700       LodePNGIText_cleanup       0000000010009700 f   NativeLib:lodepng.obj
 0001:000087e0       LodePNGIText_copy          00000000100097e0 f   NativeLib:lodepng.obj
 0001:000088f0       LodePNGIText_init          00000000100098f0 f   NativeLib:lodepng.obj
 0001:00008950       LodePNGText_cleanup        0000000010009950 f   NativeLib:lodepng.obj
 0001:000089e0       LodePNGText_copy           00000000100099e0 f   NativeLib:lodepng.obj
 0001:00008a90       LodePNGText_init           0000000010009a90 f   NativeLib:lodepng.obj
 0001:00008ae0       LodePNGUnknownChunks_cleanup 0000000010009ae0 f   NativeLib:lodepng.obj
 0001:00008b30       LodePNGUnknownChunks_copy  0000000010009b30 f   NativeLib:lodepng.obj
 0001:00008c50       LodePNGUnknownChunks_init  0000000010009c50 f   NativeLib:lodepng.obj
 0001:00008cd0       addChunk_IDAT              0000000010009cd0 f   NativeLib:lodepng.obj
 0001:00008d70       addChunk_IEND              0000000010009d70 f   NativeLib:lodepng.obj
 0001:00008db0       addChunk_IHDR              0000000010009db0 f   NativeLib:lodepng.obj
 0001:00008eb0       addChunk_PLTE              0000000010009eb0 f   NativeLib:lodepng.obj
 0001:00008fd0       addChunk_bKGD              0000000010009fd0 f   NativeLib:lodepng.obj
 0001:000091d0       addChunk_cHRM              000000001000a1d0 f   NativeLib:lodepng.obj
 0001:00009300       addChunk_gAMA              000000001000a300 f   NativeLib:lodepng.obj
 0001:00009380       addChunk_iCCP              000000001000a380 f   NativeLib:lodepng.obj
 0001:000094f0       addChunk_iTXt              000000001000a4f0 f   NativeLib:lodepng.obj
 0001:00009800       addChunk_pHYs              000000001000a800 f   NativeLib:lodepng.obj
 0001:000098b0       addChunk_sRGB              000000001000a8b0 f   NativeLib:lodepng.obj
 0001:00009900       addChunk_tEXt              000000001000a900 f   NativeLib:lodepng.obj
 0001:00009a00       addChunk_tIME              000000001000aa00 f   NativeLib:lodepng.obj
 0001:00009b10       addChunk_tRNS              000000001000ab10 f   NativeLib:lodepng.obj
 0001:00009dd0       addChunk_zTXt              000000001000add0 f   NativeLib:lodepng.obj
 0001:00009f30       addColorBits               000000001000af30 f   NativeLib:lodepng.obj
 0001:0000a060       addLengthDistance          000000001000b060 f   NativeLib:lodepng.obj
 0001:0000a180       addPaddingBits             000000001000b180 f   NativeLib:lodepng.obj
 0001:0000a280       addUnknownChunks           000000001000b280 f   NativeLib:lodepng.obj
 0001:0000a320       adler32                    000000001000b320 f   NativeLib:lodepng.obj
 0001:0000a360       advanceBits                000000001000b360 f   NativeLib:lodepng.obj
 0001:0000a3c0       alloc_string               000000001000b3c0 f   NativeLib:lodepng.obj
 0001:0000a400       alloc_string_sized         000000001000b400 f   NativeLib:lodepng.obj
 0001:0000a470       auto_choose_color          000000001000b470 f   NativeLib:lodepng.obj
 0001:0000a870       boundaryPM                 000000001000b870 f   NativeLib:lodepng.obj
 0001:0000aa70       bpmnode_create             000000001000ba70 f   NativeLib:lodepng.obj
 0001:0000ac40       bpmnode_sort               000000001000bc40 f   NativeLib:lodepng.obj
 0001:0000aef0       checkColorValidity         000000001000bef0 f   NativeLib:lodepng.obj
 0001:0000b000       color_tree_add             000000001000c000 f   NativeLib:lodepng.obj
 0001:0000b130       color_tree_cleanup         000000001000c130 f   NativeLib:lodepng.obj
 0001:0000b1a0       color_tree_get             000000001000c1a0 f   NativeLib:lodepng.obj
 0001:0000b2b0       color_tree_has             000000001000c2b0 f   NativeLib:lodepng.obj
 0001:0000b320       color_tree_init            000000001000c320 f   NativeLib:lodepng.obj
 0001:0000b370       countZeros                 000000001000c370 f   NativeLib:lodepng.obj
 0001:0000b420       decodeGeneric              000000001000c420 f   NativeLib:lodepng.obj
 0001:0000c0e0       deflate                    000000001000d0e0 f   NativeLib:lodepng.obj
 0001:0000c190       deflateDynamic             000000001000d190 f   NativeLib:lodepng.obj
 0001:0000ce60       deflateFixed               000000001000de60 f   NativeLib:lodepng.obj
 0001:0000d090       deflateNoCompression       000000001000e090 f   NativeLib:lodepng.obj
 0001:0000d290       encodeLZ77                 000000001000e290 f   NativeLib:lodepng.obj
 0001:0000d9d0       ensureBits17               000000001000e9d0 f   NativeLib:lodepng.obj
 0001:0000db20       ensureBits25               000000001000eb20 f   NativeLib:lodepng.obj
 0001:0000dcc0       ensureBits32               000000001000ecc0 f   NativeLib:lodepng.obj
 0001:0000ded0       ensureBits9                000000001000eed0 f   NativeLib:lodepng.obj
 0001:0000dfd0       filter                     000000001000efd0 f   NativeLib:lodepng.obj
 0001:0000eab0       filterScanline             000000001000fab0 f   NativeLib:lodepng.obj
 0001:0000f000       generateFixedDistanceTree  0000000010010000 f   NativeLib:lodepng.obj
 0001:0000f0a0       generateFixedLitLenTree    00000000100100a0 f   NativeLib:lodepng.obj
 0001:0000f1c0       getHash                    00000000100101c0 f   NativeLib:lodepng.obj
 0001:0000f2f0       getNumColorChannels        00000000100102f0 f   NativeLib:lodepng.obj
 0001:0000f370       getPixelColorRGBA16        0000000010010370 f   NativeLib:lodepng.obj
 0001:0000f6d0       getPixelColorRGBA8         00000000100106d0 f   NativeLib:lodepng.obj
 0001:0000fe30       getPixelColorsRGB8         0000000010010e30 f   NativeLib:lodepng.obj
 0001:000105e0       getPixelColorsRGBA8        00000000100115e0 f   NativeLib:lodepng.obj
 0001:00011150       getTreeInflateDynamic      0000000010012150 f   NativeLib:lodepng.obj
 0001:000116e0       getTreeInflateFixed        00000000100126e0 f   NativeLib:lodepng.obj
 0001:00011730       getValueRequiredBits       0000000010012730 f   NativeLib:lodepng.obj
 0001:000117b0       hash_cleanup               00000000100127b0 f   NativeLib:lodepng.obj
 0001:00011820       hash_init                  0000000010012820 f   NativeLib:lodepng.obj
 0001:00011a10       huffmanDecodeSymbol        0000000010012a10 f   NativeLib:lodepng.obj
 0001:00011af0       ilog2                      0000000010012af0 f   NativeLib:lodepng.obj
 0001:00011bc0       ilog2i                     0000000010012bc0 f   NativeLib:lodepng.obj
 0001:00011c20       inflateHuffmanBlock        0000000010012c20 f   NativeLib:lodepng.obj
 0001:000120e0       inflateNoCompression       00000000100130e0 f   NativeLib:lodepng.obj
 0001:000122a0       inflatev                   00000000100132a0 f   NativeLib:lodepng.obj
 0001:00012370       isGrayICCProfile           0000000010013370 f   NativeLib:lodepng.obj
 0001:00012410       isRGBICCProfile            0000000010013410 f   NativeLib:lodepng.obj
 0001:00012510       lodepng_add_itext_sized    0000000010013510 f   NativeLib:lodepng.obj
 0001:00012740       lodepng_add_text_sized     0000000010013740 f   NativeLib:lodepng.obj
 0001:00012890       lodepng_addofl             0000000010013890 f   NativeLib:lodepng.obj
 0001:000128f0       lodepng_assign_icc         00000000100138f0 f   NativeLib:lodepng.obj
 0001:00012cc0       lodepng_chunk_createv      0000000010013cc0 f   NativeLib:lodepng.obj
 0001:00012f30       lodepng_chunk_init         0000000010013f30 f   NativeLib:lodepng.obj
 0001:000135e0       lodepng_color_mode_alloc_palette 00000000100145e0 f   NativeLib:lodepng.obj
 0001:00013770       lodepng_color_mode_equal   0000000010014770 f   NativeLib:lodepng.obj
 0001:00013980       lodepng_color_stats_add    0000000010014980 f   NativeLib:lodepng.obj
 0001:00015920       lodepng_deflatev           0000000010016920 f   NativeLib:lodepng.obj
 0001:00017254       $LN105                     0000000010018254     NativeLib:lodepng.obj
 0001:00017420       lodepng_free               0000000010018420 f   NativeLib:lodepng.obj
 0001:00017490       lodepng_get_bpp_lct        0000000010018490 f   NativeLib:lodepng.obj
 0001:00017540       lodepng_get_raw_size_idat  0000000010018540 f   NativeLib:lodepng.obj
 0001:000175c0       lodepng_get_raw_size_lct   00000000100185c0 f   NativeLib:lodepng.obj
 0001:00017660       lodepng_gtofl              0000000010018660 f   NativeLib:lodepng.obj
 0001:00017c40       lodepng_inflatev           0000000010018c40 f   NativeLib:lodepng.obj
 0001:00018990       lodepng_malloc             0000000010019990 f   NativeLib:lodepng.obj
 0001:000189c0       lodepng_memcpy             00000000100199c0 f   NativeLib:lodepng.obj
 0001:00018a30       lodepng_memset             0000000010019a30 f   NativeLib:lodepng.obj
 0001:00018a90       lodepng_mulofl             0000000010019a90 f   NativeLib:lodepng.obj
 0001:00018c50       lodepng_pixel_overflow     0000000010019c50 f   NativeLib:lodepng.obj
 0001:00018dc0       lodepng_read32bitInt       0000000010019dc0 f   NativeLib:lodepng.obj
 0001:00018e40       lodepng_realloc            0000000010019e40 f   NativeLib:lodepng.obj
 0001:00018e80       lodepng_set32bitInt        0000000010019e80 f   NativeLib:lodepng.obj
 0001:00019110       lodepng_strlen             000000001001a110 f   NativeLib:lodepng.obj
 0001:00019400       lodepng_zlib_decompressv   000000001001a400 f   NativeLib:lodepng.obj
 0001:00019590       paethPredictor             000000001001a590 f   NativeLib:lodepng.obj
 0001:000196c0       peekBits                   000000001001a6c0 f   NativeLib:lodepng.obj
 0001:00019710       postProcessScanlines       000000001001a710 f   NativeLib:lodepng.obj
 0001:00019a50       preProcessScanlines        000000001001aa50 f   NativeLib:lodepng.obj
 0001:00019fd0       readBitFromReversedStream  000000001001afd0 f   NativeLib:lodepng.obj
 0001:0001a040       readBits                   000000001001b040 f   NativeLib:lodepng.obj
 0001:0001a090       readBitsFromReversedStream 000000001001b090 f   NativeLib:lodepng.obj
 0001:0001a110       readChunk_PLTE             000000001001b110 f   NativeLib:lodepng.obj
 0001:0001a270       readChunk_bKGD             000000001001b270 f   NativeLib:lodepng.obj
 0001:0001a470       readChunk_cHRM             000000001001b470 f   NativeLib:lodepng.obj
 0001:0001a7f0       readChunk_gAMA             000000001001b7f0 f   NativeLib:lodepng.obj
 0001:0001a8a0       readChunk_iCCP             000000001001b8a0 f   NativeLib:lodepng.obj
 0001:0001ab10       readChunk_iTXt             000000001001bb10 f   NativeLib:lodepng.obj
 0001:0001af10       readChunk_pHYs             000000001001bf10 f   NativeLib:lodepng.obj
 0001:0001b050       readChunk_sRGB             000000001001c050 f   NativeLib:lodepng.obj
 0001:0001b0c0       readChunk_tEXt             000000001001c0c0 f   NativeLib:lodepng.obj
 0001:0001b260       readChunk_tIME             000000001001c260 f   NativeLib:lodepng.obj
 0001:0001b370       readChunk_tRNS             000000001001c370 f   NativeLib:lodepng.obj
 0001:0001b540       readChunk_zTXt             000000001001c540 f   NativeLib:lodepng.obj
 0001:0001b760       removePaddingBits          000000001001c760 f   NativeLib:lodepng.obj
 0001:0001b840       reverseBits                000000001001c840 f   NativeLib:lodepng.obj
 0001:0001b8b0       rgba16ToPixel              000000001001c8b0 f   NativeLib:lodepng.obj
 0001:0001bb20       rgba8ToPixel               000000001001cb20 f   NativeLib:lodepng.obj
 0001:0001bef0       searchCodeIndex            000000001001cef0 f   NativeLib:lodepng.obj
 0001:0001bfb0       setBitOfReversedStream     000000001001cfb0 f   NativeLib:lodepng.obj
 0001:0001c090       string_cleanup             000000001001d090 f   NativeLib:lodepng.obj
 0001:0001c0d0       ucvector_init              000000001001d0d0 f   NativeLib:lodepng.obj
 0001:0001c130       ucvector_reserve           000000001001d130 f   NativeLib:lodepng.obj
 0001:0001c1c0       ucvector_resize            000000001001d1c0 f   NativeLib:lodepng.obj
 0001:0001c200       uivector_cleanup           000000001001d200 f   NativeLib:lodepng.obj
 0001:0001c250       uivector_init              000000001001d250 f   NativeLib:lodepng.obj
 0001:0001c2a0       uivector_push_back         000000001001d2a0 f   NativeLib:lodepng.obj
 0001:0001c300       uivector_resize            000000001001d300 f   NativeLib:lodepng.obj
 0001:0001c3b0       unfilter                   000000001001d3b0 f   NativeLib:lodepng.obj
 0001:0001c4f0       unfilterScanline           000000001001d4f0 f   NativeLib:lodepng.obj
 0001:0001d6b0       updateHashChain            000000001001e6b0 f   NativeLib:lodepng.obj
 0001:0001d790       update_adler32             000000001001e790 f   NativeLib:lodepng.obj
 0001:0001d890       writeBits                  000000001001e890 f   NativeLib:lodepng.obj
 0001:0001da80       writeBitsReversed          000000001001ea80 f   NativeLib:lodepng.obj
 0001:0001dbb0       writeLZ77data              000000001001ebb0 f   NativeLib:lodepng.obj
 0001:0001dd60       writeSignature             000000001001ed60 f   NativeLib:lodepng.obj
 0001:0001ddf0       zlib_compress              000000001001edf0 f   NativeLib:lodepng.obj
 0001:0001dea0       zlib_decompress            000000001001eea0 f   NativeLib:lodepng.obj
 0001:0001e3a0       $$000000                   000000001001f3a0     NativeLib:vmware.obj
 0001:0001e530       change_bitmap              000000001001f530 f   NativeLib:ff.obj
 0001:0001e6b0       check_fs                   000000001001f6b0 f   NativeLib:ff.obj
 0001:0001e7f0       chk_chr                    000000001001f7f0 f   NativeLib:ff.obj
 0001:0001e840       clst2sect                  000000001001f840 f   NativeLib:ff.obj
 0001:0001e8a0       cmp_lfn                    000000001001f8a0 f   NativeLib:ff.obj
 0001:0001ea00       create_chain               000000001001fa00 f   NativeLib:ff.obj
 0001:0001ed80       create_name                000000001001fd80 f   NativeLib:ff.obj
 0001:0001f2b0       create_xdir                00000000100202b0 f   NativeLib:ff.obj
 0001:0001f410       dbc_1st                    0000000010020410 f   NativeLib:ff.obj
 0001:0001f4b0       dbc_2nd                    00000000100204b0 f   NativeLib:ff.obj
 0001:0001f5a0       dir_alloc                  00000000100205a0 f   NativeLib:ff.obj
 0001:0001f6f0       dir_clear                  00000000100206f0 f   NativeLib:ff.obj
 0001:0001f7e0       dir_find                   00000000100207e0 f   NativeLib:ff.obj
 0001:0001fbb0       dir_next                   0000000010020bb0 f   NativeLib:ff.obj
 0001:0001fdd0       dir_read                   0000000010020dd0 f   NativeLib:ff.obj
 0001:00020060       dir_register               0000000010021060 f   NativeLib:ff.obj
 0001:00020550       dir_remove                 0000000010021550 f   NativeLib:ff.obj
 0001:00020680       dir_sdi                    0000000010021680 f   NativeLib:ff.obj
 0001:00025040       fill_first_frag            0000000010026040 f   NativeLib:ff.obj
 0001:000250d0       fill_last_frag             00000000100260d0 f   NativeLib:ff.obj
 0001:00025170       find_bitmap                0000000010026170 f   NativeLib:ff.obj
 0001:000252f0       find_volume                00000000100262f0 f   NativeLib:ff.obj
 0001:00025ce0       follow_path                0000000010026ce0 f   NativeLib:ff.obj
 0001:00025f10       gen_numname                0000000010026f10 f   NativeLib:ff.obj
 0001:000260f0       get_fat                    00000000100270f0 f   NativeLib:ff.obj
 0001:00026470       get_fileinfo               0000000010027470 f   NativeLib:ff.obj
 0001:000267e0       get_ldnumber               00000000100277e0 f   NativeLib:ff.obj
 0001:000268d0       get_xdir_info              00000000100278d0 f   NativeLib:ff.obj
 0001:00026ab0       ld_clust                   0000000010027ab0 f   NativeLib:ff.obj
 0001:00026b20       ld_dword                   0000000010027b20 f   NativeLib:ff.obj
 0001:00026bb0       ld_qword                   0000000010027bb0 f   NativeLib:ff.obj
 0001:00026cd0       ld_word                    0000000010027cd0 f   NativeLib:ff.obj
 0001:00026d30       load_obj_xdir              0000000010027d30 f   NativeLib:ff.obj
 0001:00026de0       load_xdir                  0000000010027de0 f   NativeLib:ff.obj
 0001:00027060       mem_cmp                    0000000010028060 f   NativeLib:ff.obj
 0001:000270f0       mem_cpy                    00000000100280f0 f   NativeLib:ff.obj
 0001:00027170       mem_set                    0000000010028170 f   NativeLib:ff.obj
 0001:000271d0       move_window                00000000100281d0 f   NativeLib:ff.obj
 0001:00027260       pick_lfn                   0000000010028260 f   NativeLib:ff.obj
 0001:00027390       put_fat                    0000000010028390 f   NativeLib:ff.obj
 0001:00027680       put_lfn                    0000000010028680 f   NativeLib:ff.obj
 0001:000277b0       remove_chain               00000000100287b0 f   NativeLib:ff.obj
 0001:00027a50       st_clust                   0000000010028a50 f   NativeLib:ff.obj
 0001:00027ac0       st_dword                   0000000010028ac0 f   NativeLib:ff.obj
 0001:00027b60       st_qword                   0000000010028b60 f   NativeLib:ff.obj
 0001:00027c90       st_word                    0000000010028c90 f   NativeLib:ff.obj
 0001:00027cf0       store_xdir                 0000000010028cf0 f   NativeLib:ff.obj
 0001:00027e00       sum_sfn                    0000000010028e00 f   NativeLib:ff.obj
 0001:00027e70       sync_fs                    0000000010028e70 f   NativeLib:ff.obj
 0001:00027fc0       sync_window                0000000010028fc0 f   NativeLib:ff.obj
 0001:00028090       validate                   0000000010029090 f   NativeLib:ff.obj
 0001:00028140       xdir_sum                   0000000010029140 f   NativeLib:ff.obj
 0001:000281f0       xname_sum                  00000000100291f0 f   NativeLib:ff.obj
 0001:000282c0       xsum32                     00000000100292c0 f   NativeLib:ff.obj
 0001:000286e0       $LN23                      00000000100296e0     NativeLib:ffunicode.obj
 0001:00028ad0       _atoi                      0000000010029ad0 f   LibC:printf.obj
 0001:00028b30       _etoa                      0000000010029b30 f   LibC:printf.obj
 0001:00029110       _ftoa                      000000001002a110 f   LibC:printf.obj
 0001:000296e0       _is_digit                  000000001002a6e0 f   LibC:printf.obj
 0001:00029730       _ntoa_format               000000001002a730 f   LibC:printf.obj
 0001:00029a00       _ntoa_long                 000000001002aa00 f   LibC:printf.obj
 0001:00029b60       _ntoa_long_long            000000001002ab60 f   LibC:printf.obj
 0001:00029cd0       _out_buffer                000000001002acd0 f   LibC:printf.obj
 0001:00029d10       _out_char                  000000001002ad10 f   LibC:printf.obj
 0001:00029d50       _out_fct                   000000001002ad50 f   LibC:printf.obj
 0001:00029d90       _out_null                  000000001002ad90 f   LibC:printf.obj
 0001:00029dc0       _out_rev                   000000001002adc0 f   LibC:printf.obj
 0001:00029f30       _strnlen_s                 000000001002af30 f   LibC:printf.obj
 0001:00029fa0       _vsnprintf                 000000001002afa0 f   LibC:printf.obj
 0001:0002b068       $LN138                     000000001002c068     LibC:printf.obj
 0001:0002b0b0       $LN137                     000000001002c0b0     LibC:printf.obj
 0004:00013118       ?headsize@?1??HuffmanTree_makeTable@@9@9 00000000100af118     NativeLib:lodepng.obj
 0004:0001311c       ?mask@?1??HuffmanTree_makeTable@@9@9 00000000100af11c     NativeLib:lodepng.obj
 0004:00013120       LENGTHBASE                 00000000100af120     NativeLib:lodepng.obj
 0004:00013194       HASH_NUM_VALUES            00000000100af194     NativeLib:lodepng.obj
 0004:00013198       HASH_BIT_MASK              00000000100af198     NativeLib:lodepng.obj
 0004:000131a0       LENGTHEXTRA                00000000100af1a0     NativeLib:lodepng.obj
 0004:00013220       DISTANCEBASE               00000000100af220     NativeLib:lodepng.obj
 0004:000132a0       DISTANCEEXTRA              00000000100af2a0     NativeLib:lodepng.obj
 0004:00013320       CLCL_ORDER                 00000000100af320     NativeLib:lodepng.obj
 0004:00013370       MAX_SUPPORTED_DEFLATE_LENGTH 00000000100af370     NativeLib:lodepng.obj
 0004:00013378       ADAM7_IX                   00000000100af378     NativeLib:lodepng.obj
 0004:00013398       ADAM7_IY                   00000000100af398     NativeLib:lodepng.obj
 0004:000133b8       ADAM7_DX                   00000000100af3b8     NativeLib:lodepng.obj
 0004:000133d8       ADAM7_DY                   00000000100af3d8     NativeLib:lodepng.obj
 0004:00014960       LfnOfs                     00000000100b0960     NativeLib:ff.obj
 0004:00014970       DbcTbl                     00000000100b0970     NativeLib:ff.obj
 0004:00014980       ?cst@?1??f_mkfs@@9@9       00000000100b0980     NativeLib:ff.obj
 0004:00014990       ?cst32@?1??f_mkfs@@9@9     00000000100b0990     NativeLib:ff.obj
 0004:00014a10       uni2oem936                 00000000100b0a10     NativeLib:ffunicode.obj
 0004:00029ea0       oem2uni936                 00000000100c5ea0     NativeLib:ffunicode.obj
 0004:0003f330       ?cvt1@?1??ff_wtoupper@@9@9 00000000100db330     NativeLib:ffunicode.obj
 0004:0003f530       ?cvt2@?1??ff_wtoupper@@9@9 00000000100db530     NativeLib:ffunicode.obj
 0004:0003f5f0       ?pow10@?1??_ftoa@@9@9      00000000100db5f0     LibC:printf.obj
 0004:00052b0c       $unwind$Nop                00000000100eeb0c     NativeLib:native.obj
 0004:00052b18       $unwind$CPUID              00000000100eeb18     NativeLib:native.obj
 0004:00052b24       $unwind$Fxsave64           00000000100eeb24     NativeLib:native.obj
 0004:00052b30       $unwind$Rdmsr              00000000100eeb30     NativeLib:native.obj
 0004:00052b3c       $unwind$Wrmsr              00000000100eeb3c     NativeLib:native.obj
 0004:00052b48       $unwind$Rdtsc              00000000100eeb48     NativeLib:native.obj
 0004:00052b54       $unwind$Fxrstor64          00000000100eeb54     NativeLib:native.obj
 0004:00052b60       $unwind$Invlpg             00000000100eeb60     NativeLib:native.obj
 0004:00052b6c       $unwind$WriteCR3           00000000100eeb6c     NativeLib:native.obj
 0004:00052b78       $unwind$ReadCR2            00000000100eeb78     NativeLib:native.obj
 0004:00052b84       $unwind$Hlt                00000000100eeb84     NativeLib:native.obj
 0004:00052b90       $unwind$Cli                00000000100eeb90     NativeLib:native.obj
 0004:00052b9c       $unwind$Sti                00000000100eeb9c     NativeLib:native.obj
 0004:00052ba8       $unwind$avx_memcpy         00000000100eeba8     NativeLib:mem.obj
 0004:00052bb8       $unwind$Movsb              00000000100eebb8     NativeLib:mem.obj
 0004:00052bc8       $unwind$Movsd              00000000100eebc8     NativeLib:mem.obj
 0004:00052bd8       $unwind$Stosb              00000000100eebd8     NativeLib:mem.obj
 0004:00052be4       $unwind$Stosd              00000000100eebe4     NativeLib:mem.obj
 0004:00052bf0       $unwind$Load_GDT           00000000100eebf0     NativeLib:interrupts.obj
 0004:00052bfc       $unwind$idt_set            00000000100eebfc     NativeLib:interrupts.obj
 0004:00052c08       $unwind$set_idt_entries    00000000100eec08     NativeLib:interrupts.obj
 0004:00052c14       $unwind$Out8               00000000100eec14     NativeLib:io.obj
 0004:00052c20       $unwind$Out16              00000000100eec20     NativeLib:io.obj
 0004:00052c2c       $unwind$Out32              00000000100eec2c     NativeLib:io.obj
 0004:00052c38       $unwind$In8                00000000100eec38     NativeLib:io.obj
 0004:00052c44       $unwind$In16               00000000100eec44     NativeLib:io.obj
 0004:00052c50       $unwind$In32               00000000100eec50     NativeLib:io.obj
 0004:00052c5c       $unwind$Insd               00000000100eec5c     NativeLib:io.obj
 0004:00052c68       $unwind$Insw               00000000100eec68     NativeLib:io.obj
 0004:00052c74       $unwind$Insb               00000000100eec74     NativeLib:io.obj
 0004:00052c80       $unwind$Outsd              00000000100eec80     NativeLib:io.obj
 0004:00052c8c       $unwind$Outsw              00000000100eec8c     NativeLib:io.obj
 0004:00052c98       $unwind$Outsb              00000000100eec98     NativeLib:io.obj
 0004:00052ca4       $unwind$lodepng_decode_memory 00000000100eeca4     NativeLib:lodepng.obj
 0004:00052cb0       $unwind$lodepng_decode32   00000000100eecb0     NativeLib:lodepng.obj
 0004:00052cbc       $unwind$lodepng_decode24   00000000100eecbc     NativeLib:lodepng.obj
 0004:00052cc8       $unwind$lodepng_encode_memory 00000000100eecc8     NativeLib:lodepng.obj
 0004:00052cd4       $unwind$lodepng_encode32   00000000100eecd4     NativeLib:lodepng.obj
 0004:00052ce0       $unwind$lodepng_encode24   00000000100eece0     NativeLib:lodepng.obj
 0004:00052cec       $unwind$lodepng_error_text 00000000100eecec     NativeLib:lodepng.obj
 0004:00052cf8       $unwind$lodepng_decompress_settings_init 00000000100eecf8     NativeLib:lodepng.obj
 0004:00052d04       $unwind$lodepng_compress_settings_init 00000000100eed04     NativeLib:lodepng.obj
 0004:00052d10       $unwind$lodepng_color_mode_init 00000000100eed10     NativeLib:lodepng.obj
 0004:00052d1c       $unwind$lodepng_color_mode_cleanup 00000000100eed1c     NativeLib:lodepng.obj
 0004:00052d28       $unwind$lodepng_color_mode_copy 00000000100eed28     NativeLib:lodepng.obj
 0004:00052d34       $unwind$lodepng_color_mode_make 00000000100eed34     NativeLib:lodepng.obj
 0004:00052d40       $unwind$lodepng_palette_clear 00000000100eed40     NativeLib:lodepng.obj
 0004:00052d4c       $unwind$lodepng_palette_add 00000000100eed4c     NativeLib:lodepng.obj
 0004:00052d58       $unwind$lodepng_get_bpp    00000000100eed58     NativeLib:lodepng.obj
 0004:00052d64       $unwind$lodepng_get_channels 00000000100eed64     NativeLib:lodepng.obj
 0004:00052d70       $unwind$lodepng_is_greyscale_type 00000000100eed70     NativeLib:lodepng.obj
 0004:00052d7c       $unwind$lodepng_is_alpha_type 00000000100eed7c     NativeLib:lodepng.obj
 0004:00052d88       $unwind$lodepng_is_palette_type 00000000100eed88     NativeLib:lodepng.obj
 0004:00052d94       $unwind$lodepng_has_palette_alpha 00000000100eed94     NativeLib:lodepng.obj
 0004:00052da0       $unwind$lodepng_can_have_alpha 00000000100eeda0     NativeLib:lodepng.obj
 0004:00052dac       $unwind$lodepng_get_raw_size 00000000100eedac     NativeLib:lodepng.obj
 0004:00052db8       $unwind$lodepng_info_init  00000000100eedb8     NativeLib:lodepng.obj
 0004:00052dc4       $unwind$lodepng_info_cleanup 00000000100eedc4     NativeLib:lodepng.obj
 0004:00052dd0       $unwind$lodepng_info_copy  00000000100eedd0     NativeLib:lodepng.obj
 0004:00052ddc       $unwind$lodepng_add_text   00000000100eeddc     NativeLib:lodepng.obj
 0004:00052de8       $unwind$lodepng_clear_text 00000000100eede8     NativeLib:lodepng.obj
 0004:00052df4       $unwind$lodepng_add_itext  00000000100eedf4     NativeLib:lodepng.obj
 0004:00052e00       $unwind$lodepng_clear_itext 00000000100eee00     NativeLib:lodepng.obj
 0004:00052e0c       $unwind$lodepng_set_icc    00000000100eee0c     NativeLib:lodepng.obj
 0004:00052e18       $unwind$lodepng_clear_icc  00000000100eee18     NativeLib:lodepng.obj
 0004:00052e24       $unwind$lodepng_convert    00000000100eee24     NativeLib:lodepng.obj
 0004:00052e30       $unwind$lodepng_decoder_settings_init 00000000100eee30     NativeLib:lodepng.obj
 0004:00052e3c       $unwind$lodepng_color_stats_init 00000000100eee3c     NativeLib:lodepng.obj
 0004:00052e48       $unwind$lodepng_compute_color_stats 00000000100eee48     NativeLib:lodepng.obj
 0004:00052e54       $unwind$lodepng_encoder_settings_init 00000000100eee54     NativeLib:lodepng.obj
 0004:00052e60       $unwind$lodepng_state_init 00000000100eee60     NativeLib:lodepng.obj
 0004:00052e6c       $unwind$lodepng_state_cleanup 00000000100eee6c     NativeLib:lodepng.obj
 0004:00052e78       $unwind$lodepng_state_copy 00000000100eee78     NativeLib:lodepng.obj
 0004:00052e88       $unwind$lodepng_decode     00000000100eee88     NativeLib:lodepng.obj
 0004:00052e94       $unwind$lodepng_inspect    00000000100eee94     NativeLib:lodepng.obj
 0004:00052ea0       $unwind$lodepng_inspect_chunk 00000000100eeea0     NativeLib:lodepng.obj
 0004:00052eac       $unwind$lodepng_encode     00000000100eeeac     NativeLib:lodepng.obj
 0004:00052ebc       $unwind$lodepng_chunk_length 00000000100eeebc     NativeLib:lodepng.obj
 0004:00052ec8       $unwind$lodepng_chunk_type 00000000100eeec8     NativeLib:lodepng.obj
 0004:00052ed4       $unwind$lodepng_chunk_type_equals 00000000100eeed4     NativeLib:lodepng.obj
 0004:00052ee0       $unwind$lodepng_chunk_ancillary 00000000100eeee0     NativeLib:lodepng.obj
 0004:00052eec       $unwind$lodepng_chunk_private 00000000100eeeec     NativeLib:lodepng.obj
 0004:00052ef8       $unwind$lodepng_chunk_safetocopy 00000000100eeef8     NativeLib:lodepng.obj
 0004:00052f04       $unwind$lodepng_chunk_data 00000000100eef04     NativeLib:lodepng.obj
 0004:00052f10       $unwind$lodepng_chunk_data_const 00000000100eef10     NativeLib:lodepng.obj
 0004:00052f1c       $unwind$lodepng_chunk_check_crc 00000000100eef1c     NativeLib:lodepng.obj
 0004:00052f28       $unwind$lodepng_chunk_generate_crc 00000000100eef28     NativeLib:lodepng.obj
 0004:00052f34       $unwind$lodepng_chunk_next 00000000100eef34     NativeLib:lodepng.obj
 0004:00052f40       $unwind$lodepng_chunk_next_const 00000000100eef40     NativeLib:lodepng.obj
 0004:00052f4c       $unwind$lodepng_chunk_find 00000000100eef4c     NativeLib:lodepng.obj
 0004:00052f58       $unwind$lodepng_chunk_find_const 00000000100eef58     NativeLib:lodepng.obj
 0004:00052f64       $unwind$lodepng_chunk_append 00000000100eef64     NativeLib:lodepng.obj
 0004:00052f70       $unwind$lodepng_chunk_create 00000000100eef70     NativeLib:lodepng.obj
 0004:00052f80       $unwind$lodepng_crc32      00000000100eef80     NativeLib:lodepng.obj
 0004:00052f8c       $unwind$lodepng_inflate    00000000100eef8c     NativeLib:lodepng.obj
 0004:00052f9c       $unwind$lodepng_zlib_decompress 00000000100eef9c     NativeLib:lodepng.obj
 0004:00052fac       $unwind$lodepng_zlib_compress 00000000100eefac     NativeLib:lodepng.obj
 0004:00052fb8       $unwind$lodepng_huffman_code_lengths 00000000100eefb8     NativeLib:lodepng.obj
 0004:00052fc4       $unwind$lodepng_deflate    00000000100eefc4     NativeLib:lodepng.obj
 0004:00052fd4       $unwind$lodepng_malloc     00000000100eefd4     NativeLib:lodepng.obj
 0004:00052fe0       $unwind$lodepng_realloc    00000000100eefe0     NativeLib:lodepng.obj
 0004:00052fec       $unwind$lodepng_free       00000000100eefec     NativeLib:lodepng.obj
 0004:00052ff8       $unwind$lodepng_memcpy     00000000100eeff8     NativeLib:lodepng.obj
 0004:00053004       $unwind$lodepng_memset     00000000100ef004     NativeLib:lodepng.obj
 0004:00053010       $unwind$lodepng_strlen     00000000100ef010     NativeLib:lodepng.obj
 0004:0005301c       $unwind$lodepng_addofl     00000000100ef01c     NativeLib:lodepng.obj
 0004:00053028       $unwind$lodepng_mulofl     00000000100ef028     NativeLib:lodepng.obj
 0004:00053034       $unwind$lodepng_gtofl      00000000100ef034     NativeLib:lodepng.obj
 0004:00053040       $unwind$uivector_cleanup   00000000100ef040     NativeLib:lodepng.obj
 0004:0005304c       $unwind$uivector_resize    00000000100ef04c     NativeLib:lodepng.obj
 0004:00053058       $unwind$uivector_init      00000000100ef058     NativeLib:lodepng.obj
 0004:00053064       $unwind$uivector_push_back 00000000100ef064     NativeLib:lodepng.obj
 0004:00053070       $unwind$ucvector_reserve   00000000100ef070     NativeLib:lodepng.obj
 0004:0005307c       $unwind$ucvector_resize    00000000100ef07c     NativeLib:lodepng.obj
 0004:00053088       $unwind$ucvector_init      00000000100ef088     NativeLib:lodepng.obj
 0004:00053094       $unwind$string_cleanup     00000000100ef094     NativeLib:lodepng.obj
 0004:000530a0       $unwind$alloc_string_sized 00000000100ef0a0     NativeLib:lodepng.obj
 0004:000530ac       $unwind$alloc_string       00000000100ef0ac     NativeLib:lodepng.obj
 0004:000530b8       $unwind$lodepng_read32bitInt 00000000100ef0b8     NativeLib:lodepng.obj
 0004:000530c4       $unwind$lodepng_set32bitInt 00000000100ef0c4     NativeLib:lodepng.obj
 0004:000530d0       $unwind$LodePNGBitWriter_init 00000000100ef0d0     NativeLib:lodepng.obj
 0004:000530dc       $unwind$writeBits          00000000100ef0dc     NativeLib:lodepng.obj
 0004:000530e8       $unwind$writeBitsReversed  00000000100ef0e8     NativeLib:lodepng.obj
 0004:000530f4       $unwind$LodePNGBitReader_init 00000000100ef0f4     NativeLib:lodepng.obj
 0004:00053100       $unwind$ensureBits9        00000000100ef100     NativeLib:lodepng.obj
 0004:0005310c       $unwind$ensureBits17       00000000100ef10c     NativeLib:lodepng.obj
 0004:00053118       $unwind$ensureBits25       00000000100ef118     NativeLib:lodepng.obj
 0004:00053124       $unwind$ensureBits32       00000000100ef124     NativeLib:lodepng.obj
 0004:00053130       $unwind$peekBits           00000000100ef130     NativeLib:lodepng.obj
 0004:0005313c       $unwind$advanceBits        00000000100ef13c     NativeLib:lodepng.obj
 0004:00053148       $unwind$readBits           00000000100ef148     NativeLib:lodepng.obj
 0004:00053154       $unwind$reverseBits        00000000100ef154     NativeLib:lodepng.obj
 0004:00053160       $unwind$HuffmanTree_init   00000000100ef160     NativeLib:lodepng.obj
 0004:0005316c       $unwind$HuffmanTree_cleanup 00000000100ef16c     NativeLib:lodepng.obj
 0004:00053178       $unwind$HuffmanTree_makeTable 00000000100ef178     NativeLib:lodepng.obj
 0004:00053184       $unwind$HuffmanTree_makeFromLengths2 00000000100ef184     NativeLib:lodepng.obj
 0004:00053190       $unwind$HuffmanTree_makeFromLengths 00000000100ef190     NativeLib:lodepng.obj
 0004:0005319c       $unwind$bpmnode_create     00000000100ef19c     NativeLib:lodepng.obj
 0004:000531a8       $unwind$bpmnode_sort       00000000100ef1a8     NativeLib:lodepng.obj
 0004:000531b8       $unwind$boundaryPM         00000000100ef1b8     NativeLib:lodepng.obj
 0004:000531c4       $unwind$HuffmanTree_makeFromFrequencies 00000000100ef1c4     NativeLib:lodepng.obj
 0004:000531d0       $unwind$generateFixedLitLenTree 00000000100ef1d0     NativeLib:lodepng.obj
 0004:000531dc       $unwind$generateFixedDistanceTree 00000000100ef1dc     NativeLib:lodepng.obj
 0004:000531e8       $unwind$huffmanDecodeSymbol 00000000100ef1e8     NativeLib:lodepng.obj
 0004:000531f4       $unwind$getTreeInflateFixed 00000000100ef1f4     NativeLib:lodepng.obj
 0004:00053200       $unwind$getTreeInflateDynamic 00000000100ef200     NativeLib:lodepng.obj
 0004:0005320c       $unwind$inflateHuffmanBlock 00000000100ef20c     NativeLib:lodepng.obj
 0004:00053218       $unwind$inflateNoCompression 00000000100ef218     NativeLib:lodepng.obj
 0004:00053224       $unwind$lodepng_inflatev   00000000100ef224     NativeLib:lodepng.obj
 0004:00053230       $unwind$inflatev           00000000100ef230     NativeLib:lodepng.obj
 0004:0005323c       $unwind$searchCodeIndex    00000000100ef23c     NativeLib:lodepng.obj
 0004:00053248       $unwind$addLengthDistance  00000000100ef248     NativeLib:lodepng.obj
 0004:00053254       $unwind$hash_init          00000000100ef254     NativeLib:lodepng.obj
 0004:00053260       $unwind$hash_cleanup       00000000100ef260     NativeLib:lodepng.obj
 0004:0005326c       $unwind$getHash            00000000100ef26c     NativeLib:lodepng.obj
 0004:00053278       $unwind$countZeros         00000000100ef278     NativeLib:lodepng.obj
 0004:00053284       $unwind$updateHashChain    00000000100ef284     NativeLib:lodepng.obj
 0004:00053290       $unwind$encodeLZ77         00000000100ef290     NativeLib:lodepng.obj
 0004:0005329c       $unwind$deflateNoCompression 00000000100ef29c     NativeLib:lodepng.obj
 0004:000532a8       $unwind$writeLZ77data      00000000100ef2a8     NativeLib:lodepng.obj
 0004:000532b4       $unwind$deflateDynamic     00000000100ef2b4     NativeLib:lodepng.obj
 0004:000532c0       $unwind$deflateFixed       00000000100ef2c0     NativeLib:lodepng.obj
 0004:000532cc       $unwind$lodepng_deflatev   00000000100ef2cc     NativeLib:lodepng.obj
 0004:000532d8       $unwind$deflate            00000000100ef2d8     NativeLib:lodepng.obj
 0004:000532e4       $unwind$update_adler32     00000000100ef2e4     NativeLib:lodepng.obj
 0004:000532f0       $unwind$adler32            00000000100ef2f0     NativeLib:lodepng.obj
 0004:000532fc       $unwind$lodepng_zlib_decompressv 00000000100ef2fc     NativeLib:lodepng.obj
 0004:00053308       $unwind$zlib_decompress    00000000100ef308     NativeLib:lodepng.obj
 0004:00053318       $unwind$zlib_compress      00000000100ef318     NativeLib:lodepng.obj
 0004:00053324       $unwind$readBitFromReversedStream 00000000100ef324     NativeLib:lodepng.obj
 0004:00053330       $unwind$readBitsFromReversedStream 00000000100ef330     NativeLib:lodepng.obj
 0004:0005333c       $unwind$setBitOfReversedStream 00000000100ef33c     NativeLib:lodepng.obj
 0004:00053348       $unwind$lodepng_chunk_init 00000000100ef348     NativeLib:lodepng.obj
 0004:00053354       $unwind$lodepng_chunk_createv 00000000100ef354     NativeLib:lodepng.obj
 0004:00053360       $unwind$checkColorValidity 00000000100ef360     NativeLib:lodepng.obj
 0004:0005336c       $unwind$getNumColorChannels 00000000100ef36c     NativeLib:lodepng.obj
 0004:00053378       $unwind$lodepng_get_bpp_lct 00000000100ef378     NativeLib:lodepng.obj
 0004:00053384       $unwind$lodepng_color_mode_alloc_palette 00000000100ef384     NativeLib:lodepng.obj
 0004:00053390       $unwind$lodepng_color_mode_equal 00000000100ef390     NativeLib:lodepng.obj
 0004:0005339c       $unwind$lodepng_get_raw_size_lct 00000000100ef39c     NativeLib:lodepng.obj
 0004:000533a8       $unwind$lodepng_get_raw_size_idat 00000000100ef3a8     NativeLib:lodepng.obj
 0004:000533b4       $unwind$lodepng_pixel_overflow 00000000100ef3b4     NativeLib:lodepng.obj
 0004:000533c0       $unwind$LodePNGUnknownChunks_init 00000000100ef3c0     NativeLib:lodepng.obj
 0004:000533cc       $unwind$LodePNGUnknownChunks_cleanup 00000000100ef3cc     NativeLib:lodepng.obj
 0004:000533d8       $unwind$LodePNGUnknownChunks_copy 00000000100ef3d8     NativeLib:lodepng.obj
 0004:000533e4       $unwind$LodePNGText_init   00000000100ef3e4     NativeLib:lodepng.obj
 0004:000533f0       $unwind$LodePNGText_cleanup 00000000100ef3f0     NativeLib:lodepng.obj
 0004:000533fc       $unwind$LodePNGText_copy   00000000100ef3fc     NativeLib:lodepng.obj
 0004:00053408       $unwind$lodepng_add_text_sized 00000000100ef408     NativeLib:lodepng.obj
 0004:00053414       $unwind$LodePNGIText_init  00000000100ef414     NativeLib:lodepng.obj
 0004:00053420       $unwind$LodePNGIText_cleanup 00000000100ef420     NativeLib:lodepng.obj
 0004:0005342c       $unwind$LodePNGIText_copy  00000000100ef42c     NativeLib:lodepng.obj
 0004:00053438       $unwind$lodepng_add_itext_sized 00000000100ef438     NativeLib:lodepng.obj
 0004:00053444       $unwind$lodepng_assign_icc 00000000100ef444     NativeLib:lodepng.obj
 0004:00053450       $unwind$addColorBits       00000000100ef450     NativeLib:lodepng.obj
 0004:0005345c       $unwind$color_tree_init    00000000100ef45c     NativeLib:lodepng.obj
 0004:00053468       $unwind$color_tree_cleanup 00000000100ef468     NativeLib:lodepng.obj
 0004:00053474       $unwind$color_tree_get     00000000100ef474     NativeLib:lodepng.obj
 0004:00053480       $unwind$color_tree_has     00000000100ef480     NativeLib:lodepng.obj
 0004:0005348c       $unwind$color_tree_add     00000000100ef48c     NativeLib:lodepng.obj
 0004:00053498       $unwind$rgba8ToPixel       00000000100ef498     NativeLib:lodepng.obj
 0004:000534a4       $unwind$rgba16ToPixel      00000000100ef4a4     NativeLib:lodepng.obj
 0004:000534b0       $unwind$getPixelColorRGBA8 00000000100ef4b0     NativeLib:lodepng.obj
 0004:000534bc       $unwind$getPixelColorsRGBA8 00000000100ef4bc     NativeLib:lodepng.obj
 0004:000534c8       $unwind$getPixelColorsRGB8 00000000100ef4c8     NativeLib:lodepng.obj
 0004:000534d4       $unwind$getPixelColorRGBA16 00000000100ef4d4     NativeLib:lodepng.obj
 0004:000534e0       $unwind$lodepng_convert_rgb 00000000100ef4e0     NativeLib:lodepng.obj
 0004:000534ec       $unwind$getValueRequiredBits 00000000100ef4ec     NativeLib:lodepng.obj
 0004:000534f8       $unwind$lodepng_color_stats_add 00000000100ef4f8     NativeLib:lodepng.obj
 0004:00053504       $unwind$auto_choose_color  00000000100ef504     NativeLib:lodepng.obj
 0004:00053510       $unwind$paethPredictor     00000000100ef510     NativeLib:lodepng.obj
 0004:0005351c       $unwind$Adam7_getpassvalues 00000000100ef51c     NativeLib:lodepng.obj
 0004:00053528       $unwind$unfilterScanline   00000000100ef528     NativeLib:lodepng.obj
 0004:00053534       $unwind$unfilter           00000000100ef534     NativeLib:lodepng.obj
 0004:00053540       $unwind$Adam7_deinterlace  00000000100ef540     NativeLib:lodepng.obj
 0004:0005354c       $unwind$removePaddingBits  00000000100ef54c     NativeLib:lodepng.obj
 0004:00053558       $unwind$postProcessScanlines 00000000100ef558     NativeLib:lodepng.obj
 0004:00053564       $unwind$readChunk_PLTE     00000000100ef564     NativeLib:lodepng.obj
 0004:00053570       $unwind$readChunk_tRNS     00000000100ef570     NativeLib:lodepng.obj
 0004:0005357c       $unwind$readChunk_bKGD     00000000100ef57c     NativeLib:lodepng.obj
 0004:00053588       $unwind$readChunk_tEXt     00000000100ef588     NativeLib:lodepng.obj
 0004:00053594       $unwind$readChunk_zTXt     00000000100ef594     NativeLib:lodepng.obj
 0004:000535a4       $unwind$readChunk_iTXt     00000000100ef5a4     NativeLib:lodepng.obj
 0004:000535b4       $unwind$readChunk_tIME     00000000100ef5b4     NativeLib:lodepng.obj
 0004:000535c0       $unwind$readChunk_pHYs     00000000100ef5c0     NativeLib:lodepng.obj
 0004:000535cc       $unwind$readChunk_gAMA     00000000100ef5cc     NativeLib:lodepng.obj
 0004:000535d8       $unwind$readChunk_cHRM     00000000100ef5d8     NativeLib:lodepng.obj
 0004:000535e4       $unwind$readChunk_sRGB     00000000100ef5e4     NativeLib:lodepng.obj
 0004:000535f0       $unwind$readChunk_iCCP     00000000100ef5f0     NativeLib:lodepng.obj
 0004:00053600       $unwind$decodeGeneric      00000000100ef600     NativeLib:lodepng.obj
 0004:0005360c       $unwind$writeSignature     00000000100ef60c     NativeLib:lodepng.obj
 0004:00053618       $unwind$addChunk_IHDR      00000000100ef618     NativeLib:lodepng.obj
 0004:00053624       $unwind$addChunk_PLTE      00000000100ef624     NativeLib:lodepng.obj
 0004:00053630       $unwind$addChunk_tRNS      00000000100ef630     NativeLib:lodepng.obj
 0004:0005363c       $unwind$addChunk_IDAT      00000000100ef63c     NativeLib:lodepng.obj
 0004:00053648       $unwind$addChunk_IEND      00000000100ef648     NativeLib:lodepng.obj
 0004:00053654       $unwind$addChunk_tEXt      00000000100ef654     NativeLib:lodepng.obj
 0004:00053660       $unwind$addChunk_zTXt      00000000100ef660     NativeLib:lodepng.obj
 0004:0005366c       $unwind$addChunk_iTXt      00000000100ef66c     NativeLib:lodepng.obj
 0004:00053678       $unwind$addChunk_bKGD      00000000100ef678     NativeLib:lodepng.obj
 0004:00053684       $unwind$addChunk_tIME      00000000100ef684     NativeLib:lodepng.obj
 0004:00053690       $unwind$addChunk_pHYs      00000000100ef690     NativeLib:lodepng.obj
 0004:0005369c       $unwind$addChunk_gAMA      00000000100ef69c     NativeLib:lodepng.obj
 0004:000536a8       $unwind$addChunk_cHRM      00000000100ef6a8     NativeLib:lodepng.obj
 0004:000536b4       $unwind$addChunk_sRGB      00000000100ef6b4     NativeLib:lodepng.obj
 0004:000536c0       $unwind$addChunk_iCCP      00000000100ef6c0     NativeLib:lodepng.obj
 0004:000536cc       $unwind$filterScanline     00000000100ef6cc     NativeLib:lodepng.obj
 0004:000536d8       $unwind$ilog2              00000000100ef6d8     NativeLib:lodepng.obj
 0004:000536e4       $unwind$ilog2i             00000000100ef6e4     NativeLib:lodepng.obj
 0004:000536f0       $unwind$filter             00000000100ef6f0     NativeLib:lodepng.obj
 0004:000536fc       $unwind$addPaddingBits     00000000100ef6fc     NativeLib:lodepng.obj
 0004:00053708       $unwind$Adam7_interlace    00000000100ef708     NativeLib:lodepng.obj
 0004:00053714       $unwind$preProcessScanlines 00000000100ef714     NativeLib:lodepng.obj
 0004:00053720       $unwind$addUnknownChunks   00000000100ef720     NativeLib:lodepng.obj
 0004:0005372c       $unwind$isGrayICCProfile   00000000100ef72c     NativeLib:lodepng.obj
 0004:00053738       $unwind$isRGBICCProfile    00000000100ef738     NativeLib:lodepng.obj
 0004:00053744       $unwind$fatfs_init         00000000100ef744     NativeLib:fatfs.obj
 0004:00053750       $unwind$format_exfat       00000000100ef750     NativeLib:fatfs.obj
 0004:0005375c       $unwind$get_files          00000000100ef75c     NativeLib:fatfs.obj
 0004:00053768       $unwind$write_all_bytes    00000000100ef768     NativeLib:fatfs.obj
 0004:00053774       $unwind$read_all_bytes     00000000100ef774     NativeLib:fatfs.obj
 0004:00053780       $unwind$f_open             00000000100ef780     NativeLib:ff.obj
 0004:0005378c       $unwind$f_close            00000000100ef78c     NativeLib:ff.obj
 0004:00053798       $unwind$f_read             00000000100ef798     NativeLib:ff.obj
 0004:000537a4       $unwind$f_write            00000000100ef7a4     NativeLib:ff.obj
 0004:000537b0       $unwind$f_lseek            00000000100ef7b0     NativeLib:ff.obj
 0004:000537bc       $unwind$f_truncate         00000000100ef7bc     NativeLib:ff.obj
 0004:000537c8       $unwind$f_sync             00000000100ef7c8     NativeLib:ff.obj
 0004:000537d4       $unwind$f_opendir          00000000100ef7d4     NativeLib:ff.obj
 0004:000537e0       $unwind$f_closedir         00000000100ef7e0     NativeLib:ff.obj
 0004:000537ec       $unwind$f_readdir          00000000100ef7ec     NativeLib:ff.obj
 0004:000537f8       $unwind$f_mkdir            00000000100ef7f8     NativeLib:ff.obj
 0004:00053804       $unwind$f_unlink           00000000100ef804     NativeLib:ff.obj
 0004:00053810       $unwind$f_rename           00000000100ef810     NativeLib:ff.obj
 0004:0005381c       $unwind$f_stat             00000000100ef81c     NativeLib:ff.obj
 0004:00053828       $unwind$f_getfree          00000000100ef828     NativeLib:ff.obj
 0004:00053834       $unwind$f_mount            00000000100ef834     NativeLib:ff.obj
 0004:00053840       $unwind$f_mkfs             00000000100ef840     NativeLib:ff.obj
 0004:0005384c       $unwind$ld_word            00000000100ef84c     NativeLib:ff.obj
 0004:00053858       $unwind$ld_dword           00000000100ef858     NativeLib:ff.obj
 0004:00053864       $unwind$ld_qword           00000000100ef864     NativeLib:ff.obj
 0004:00053870       $unwind$st_word            00000000100ef870     NativeLib:ff.obj
 0004:0005387c       $unwind$st_dword           00000000100ef87c     NativeLib:ff.obj
 0004:00053888       $unwind$st_qword           00000000100ef888     NativeLib:ff.obj
 0004:00053894       $unwind$mem_cpy            00000000100ef894     NativeLib:ff.obj
 0004:000538a0       $unwind$mem_set            00000000100ef8a0     NativeLib:ff.obj
 0004:000538ac       $unwind$mem_cmp            00000000100ef8ac     NativeLib:ff.obj
 0004:000538b8       $unwind$chk_chr            00000000100ef8b8     NativeLib:ff.obj
 0004:000538c4       $unwind$dbc_1st            00000000100ef8c4     NativeLib:ff.obj
 0004:000538d0       $unwind$dbc_2nd            00000000100ef8d0     NativeLib:ff.obj
 0004:000538dc       $unwind$sync_window        00000000100ef8dc     NativeLib:ff.obj
 0004:000538e8       $unwind$move_window        00000000100ef8e8     NativeLib:ff.obj
 0004:000538f4       $unwind$sync_fs            00000000100ef8f4     NativeLib:ff.obj
 0004:00053900       $unwind$clst2sect          00000000100ef900     NativeLib:ff.obj
 0004:0005390c       $unwind$get_fat            00000000100ef90c     NativeLib:ff.obj
 0004:00053918       $unwind$put_fat            00000000100ef918     NativeLib:ff.obj
 0004:00053924       $unwind$find_bitmap        00000000100ef924     NativeLib:ff.obj
 0004:00053930       $unwind$change_bitmap      00000000100ef930     NativeLib:ff.obj
 0004:0005393c       $unwind$fill_first_frag    00000000100ef93c     NativeLib:ff.obj
 0004:00053948       $unwind$fill_last_frag     00000000100ef948     NativeLib:ff.obj
 0004:00053954       $unwind$remove_chain       00000000100ef954     NativeLib:ff.obj
 0004:00053960       $unwind$create_chain       00000000100ef960     NativeLib:ff.obj
 0004:0005396c       $unwind$dir_clear          00000000100ef96c     NativeLib:ff.obj
 0004:00053978       $unwind$dir_sdi            00000000100ef978     NativeLib:ff.obj
 0004:00053984       $unwind$dir_next           00000000100ef984     NativeLib:ff.obj
 0004:00053990       $unwind$dir_alloc          00000000100ef990     NativeLib:ff.obj
 0004:0005399c       $unwind$ld_clust           00000000100ef99c     NativeLib:ff.obj
 0004:000539a8       $unwind$st_clust           00000000100ef9a8     NativeLib:ff.obj
 0004:000539b4       $unwind$cmp_lfn            00000000100ef9b4     NativeLib:ff.obj
 0004:000539c0       $unwind$pick_lfn           00000000100ef9c0     NativeLib:ff.obj
 0004:000539cc       $unwind$put_lfn            00000000100ef9cc     NativeLib:ff.obj
 0004:000539d8       $unwind$gen_numname        00000000100ef9d8     NativeLib:ff.obj
 0004:000539e4       $unwind$sum_sfn            00000000100ef9e4     NativeLib:ff.obj
 0004:000539f0       $unwind$xdir_sum           00000000100ef9f0     NativeLib:ff.obj
 0004:000539fc       $unwind$xname_sum          00000000100ef9fc     NativeLib:ff.obj
 0004:00053a08       $unwind$xsum32             00000000100efa08     NativeLib:ff.obj
 0004:00053a14       $unwind$get_xdir_info      00000000100efa14     NativeLib:ff.obj
 0004:00053a20       $unwind$load_xdir          00000000100efa20     NativeLib:ff.obj
 0004:00053a2c       $unwind$load_obj_xdir      00000000100efa2c     NativeLib:ff.obj
 0004:00053a38       $unwind$store_xdir         00000000100efa38     NativeLib:ff.obj
 0004:00053a44       $unwind$create_xdir        00000000100efa44     NativeLib:ff.obj
 0004:00053a50       $unwind$dir_read           00000000100efa50     NativeLib:ff.obj
 0004:00053a5c       $unwind$dir_find           00000000100efa5c     NativeLib:ff.obj
 0004:00053a68       $unwind$dir_register       00000000100efa68     NativeLib:ff.obj
 0004:00053a74       $unwind$dir_remove         00000000100efa74     NativeLib:ff.obj
 0004:00053a80       $unwind$get_fileinfo       00000000100efa80     NativeLib:ff.obj
 0004:00053a8c       $unwind$create_name        00000000100efa8c     NativeLib:ff.obj
 0004:00053a98       $unwind$follow_path        00000000100efa98     NativeLib:ff.obj
 0004:00053aa4       $unwind$get_ldnumber       00000000100efaa4     NativeLib:ff.obj
 0004:00053ab0       $unwind$check_fs           00000000100efab0     NativeLib:ff.obj
 0004:00053abc       $unwind$find_volume        00000000100efabc     NativeLib:ff.obj
 0004:00053ac8       $unwind$validate           00000000100efac8     NativeLib:ff.obj
 0004:00053ad4       $unwind$ff_oem2uni         00000000100efad4     NativeLib:ffunicode.obj
 0004:00053ae0       $unwind$ff_uni2oem         00000000100efae0     NativeLib:ffunicode.obj
 0004:00053aec       $unwind$ff_wtoupper        00000000100efaec     NativeLib:ffunicode.obj
 0004:00053af8       $unwind$disk_initialize    00000000100efaf8     NativeLib:diskio.obj
 0004:00053b04       $unwind$disk_status        00000000100efb04     NativeLib:diskio.obj
 0004:00053b10       $unwind$disk_read          00000000100efb10     NativeLib:diskio.obj
 0004:00053b1c       $unwind$disk_write         00000000100efb1c     NativeLib:diskio.obj
 0004:00053b28       $unwind$disk_ioctl         00000000100efb28     NativeLib:diskio.obj
 0004:00053b34       $unwind$mystrtoul          00000000100efb34     LibC:strtoul.obj
 0004:00053b40       $unwind$printf_            00000000100efb40     LibC:printf.obj
 0004:00053b4c       $unwind$sprintf_           00000000100efb4c     LibC:printf.obj
 0004:00053b58       $unwind$snprintf_          00000000100efb58     LibC:printf.obj
 0004:00053b64       $unwind$vsnprintf_         00000000100efb64     LibC:printf.obj
 0004:00053b70       $unwind$vprintf_           00000000100efb70     LibC:printf.obj
 0004:00053b7c       $unwind$fctprintf          00000000100efb7c     LibC:printf.obj
 0004:00053b88       $unwind$_out_buffer        00000000100efb88     LibC:printf.obj
 0004:00053b94       $unwind$_out_null          00000000100efb94     LibC:printf.obj
 0004:00053ba0       $unwind$_out_char          00000000100efba0     LibC:printf.obj
 0004:00053bac       $unwind$_out_fct           00000000100efbac     LibC:printf.obj
 0004:00053bb8       $unwind$_strnlen_s         00000000100efbb8     LibC:printf.obj
 0004:00053bc4       $unwind$_is_digit          00000000100efbc4     LibC:printf.obj
 0004:00053bd0       $unwind$_atoi              00000000100efbd0     LibC:printf.obj
 0004:00053bdc       $unwind$_out_rev           00000000100efbdc     LibC:printf.obj
 0004:00053be8       $unwind$_ntoa_format       00000000100efbe8     LibC:printf.obj
 0004:00053bf4       $unwind$_ntoa_long         00000000100efbf4     LibC:printf.obj
 0004:00053c00       $unwind$_ntoa_long_long    00000000100efc00     LibC:printf.obj
 0004:00053c0c       $unwind$_etoa              00000000100efc0c     LibC:printf.obj
 0004:00053c18       $unwind$_ftoa              00000000100efc18     LibC:printf.obj
 0004:00053c24       $unwind$_vsnprintf         00000000100efc24     LibC:printf.obj
 0004:00053c30       $unwind$myisspace          00000000100efc30     LibC:isspace.obj
 0004:00053c3c       $unwind$myisdigit          00000000100efc3c     LibC:isdigit.obj
 0004:00053c48       $unwind$myisalpha          00000000100efc48     LibC:isalpha.obj
 0004:00053c54       $unwind$myisupper          00000000100efc54     LibC:isupper.obj
 0005:0036b930       lodepng_crc32_table        000000001045b930     NativeLib:lodepng.obj
 0005:0036c8d0       FatFs                      000000001045c8d0     NativeLib:ff.obj
 0005:0036c8d8       Fsid                       000000001045c8d8     NativeLib:ff.obj
 0005:0036c8e0       DirBuf                     000000001045c8e0     NativeLib:ff.obj
 0005:0036cb40       LfnBuf                     000000001045cb40     NativeLib:ff.obj
 0008:00000000       __FE09AF47_concurrencysal@h 0000000010465000     NativeLib:native.obj
 0008:00000001       __C073CA79_sal@h           0000000010465001     NativeLib:native.obj
 0008:00000002       __D6AFE870_vadefs@h        0000000010465002     NativeLib:native.obj
 0008:00000003       __D63E96CF_vcruntime@h     0000000010465003     NativeLib:native.obj
 0008:00000004       __F5A7E1DF_intrin0@inl@h   0000000010465004     NativeLib:native.obj
 0008:00000005       __3EC16E15_setjmp@h        0000000010465005     NativeLib:native.obj
 0008:00000006       __18C87B63_mmintrin@h      0000000010465006     NativeLib:native.obj
 0008:00000007       __1B0272D9_corecrt@h       0000000010465007     NativeLib:native.obj
 0008:00000008       __45DED006_corecrt_malloc@h 0000000010465008     NativeLib:native.obj
 0008:00000009       __FA77ED4C_malloc@h        0000000010465009     NativeLib:native.obj
 0008:0000000a       __56EBFA9B_xmmintrin@h     000000001046500a     NativeLib:native.obj
 0008:0000000b       __33897357_emmintrin@h     000000001046500b     NativeLib:native.obj
 0008:0000000c       __EC281BDE_pmmintrin@h     000000001046500c     NativeLib:native.obj
 0008:0000000d       __5CF1685C_tmmintrin@h     000000001046500d     NativeLib:native.obj
 0008:0000000e       __75CA7DDF_smmintrin@h     000000001046500e     NativeLib:native.obj
 0008:0000000f       __10A8F413_nmmintrin@h     000000001046500f     NativeLib:native.obj
 0008:00000010       __C5130E5D_wmmintrin@h     0000000010465010     NativeLib:native.obj
 0008:00000011       __0E87435A_zmmintrin@h     0000000010465011     NativeLib:native.obj
 0008:00000012       __3993E190_immintrin@h     0000000010465012     NativeLib:native.obj
 0008:00000013       __835000D5_ammintrin@h     0000000010465013     NativeLib:native.obj
 0008:00000014       __18F7D262_intrin@h        0000000010465014     NativeLib:native.obj
 0008:00000015       __5B367C0B_native@cpp      0000000010465015     NativeLib:native.obj
 0008:00000016       __FE09AF47_concurrencysal@h 0000000010465016     NativeLib:mem.obj
 0008:00000017       __C073CA79_sal@h           0000000010465017     NativeLib:mem.obj
 0008:00000018       __D6AFE870_vadefs@h        0000000010465018     NativeLib:mem.obj
 0008:00000019       __D63E96CF_vcruntime@h     0000000010465019     NativeLib:mem.obj
 0008:0000001a       __F5A7E1DF_intrin0@inl@h   000000001046501a     NativeLib:mem.obj
 0008:0000001b       __3EC16E15_setjmp@h        000000001046501b     NativeLib:mem.obj
 0008:0000001c       __18C87B63_mmintrin@h      000000001046501c     NativeLib:mem.obj
 0008:0000001d       __1B0272D9_corecrt@h       000000001046501d     NativeLib:mem.obj
 0008:0000001e       __45DED006_corecrt_malloc@h 000000001046501e     NativeLib:mem.obj
 0008:0000001f       __FA77ED4C_malloc@h        000000001046501f     NativeLib:mem.obj
 0008:00000020       __56EBFA9B_xmmintrin@h     0000000010465020     NativeLib:mem.obj
 0008:00000021       __33897357_emmintrin@h     0000000010465021     NativeLib:mem.obj
 0008:00000022       __EC281BDE_pmmintrin@h     0000000010465022     NativeLib:mem.obj
 0008:00000023       __5CF1685C_tmmintrin@h     0000000010465023     NativeLib:mem.obj
 0008:00000024       __75CA7DDF_smmintrin@h     0000000010465024     NativeLib:mem.obj
 0008:00000025       __10A8F413_nmmintrin@h     0000000010465025     NativeLib:mem.obj
 0008:00000026       __C5130E5D_wmmintrin@h     0000000010465026     NativeLib:mem.obj
 0008:00000027       __0E87435A_zmmintrin@h     0000000010465027     NativeLib:mem.obj
 0008:00000028       __3993E190_immintrin@h     0000000010465028     NativeLib:mem.obj
 0008:00000029       __835000D5_ammintrin@h     0000000010465029     NativeLib:mem.obj
 0008:0000002a       __18F7D262_intrin@h        000000001046502a     NativeLib:mem.obj
 0008:0000002b       __121DF3F2_mem@cpp         000000001046502b     NativeLib:mem.obj
 0008:0000002c       __FE09AF47_concurrencysal@h 000000001046502c     NativeLib:interrupts.obj
 0008:0000002d       __C073CA79_sal@h           000000001046502d     NativeLib:interrupts.obj
 0008:0000002e       __D6AFE870_vadefs@h        000000001046502e     NativeLib:interrupts.obj
 0008:0000002f       __D63E96CF_vcruntime@h     000000001046502f     NativeLib:interrupts.obj
 0008:00000030       __AEA28616_stdint@h        0000000010465030     NativeLib:interrupts.obj
 0008:00000031       __F5A7E1DF_intrin0@inl@h   0000000010465031     NativeLib:interrupts.obj
 0008:00000032       __3EC16E15_setjmp@h        0000000010465032     NativeLib:interrupts.obj
 0008:00000033       __18C87B63_mmintrin@h      0000000010465033     NativeLib:interrupts.obj
 0008:00000034       __1B0272D9_corecrt@h       0000000010465034     NativeLib:interrupts.obj
 0008:00000035       __45DED006_corecrt_malloc@h 0000000010465035     NativeLib:interrupts.obj
 0008:00000036       __FA77ED4C_malloc@h        0000000010465036     NativeLib:interrupts.obj
 0008:00000037       __56EBFA9B_xmmintrin@h     0000000010465037     NativeLib:interrupts.obj
 0008:00000038       __33897357_emmintrin@h     0000000010465038     NativeLib:interrupts.obj
 0008:00000039       __EC281BDE_pmmintrin@h     0000000010465039     NativeLib:interrupts.obj
 0008:0000003a       __5CF1685C_tmmintrin@h     000000001046503a     NativeLib:interrupts.obj
 0008:0000003b       __75CA7DDF_smmintrin@h     000000001046503b     NativeLib:interrupts.obj
 0008:0000003c       __10A8F413_nmmintrin@h     000000001046503c     NativeLib:interrupts.obj
 0008:0000003d       __C5130E5D_wmmintrin@h     000000001046503d     NativeLib:interrupts.obj
 0008:0000003e       __0E87435A_zmmintrin@h     000000001046503e     NativeLib:interrupts.obj
 0008:0000003f       __3993E190_immintrin@h     000000001046503f     NativeLib:interrupts.obj
 0008:00000040       __835000D5_ammintrin@h     0000000010465040     NativeLib:interrupts.obj
 0008:00000041       __18F7D262_intrin@h        0000000010465041     NativeLib:interrupts.obj
 0008:00000042       __81AF9977_interrupts@cpp  0000000010465042     NativeLib:interrupts.obj
 0008:00000043       __FE09AF47_concurrencysal@h 0000000010465043     NativeLib:io.obj
 0008:00000044       __C073CA79_sal@h           0000000010465044     NativeLib:io.obj
 0008:00000045       __D6AFE870_vadefs@h        0000000010465045     NativeLib:io.obj
 0008:00000046       __D63E96CF_vcruntime@h     0000000010465046     NativeLib:io.obj
 0008:00000047       __F5A7E1DF_intrin0@inl@h   0000000010465047     NativeLib:io.obj
 0008:00000048       __3EC16E15_setjmp@h        0000000010465048     NativeLib:io.obj
 0008:00000049       __18C87B63_mmintrin@h      0000000010465049     NativeLib:io.obj
 0008:0000004a       __1B0272D9_corecrt@h       000000001046504a     NativeLib:io.obj
 0008:0000004b       __45DED006_corecrt_malloc@h 000000001046504b     NativeLib:io.obj
 0008:0000004c       __FA77ED4C_malloc@h        000000001046504c     NativeLib:io.obj
 0008:0000004d       __56EBFA9B_xmmintrin@h     000000001046504d     NativeLib:io.obj
 0008:0000004e       __33897357_emmintrin@h     000000001046504e     NativeLib:io.obj
 0008:0000004f       __EC281BDE_pmmintrin@h     000000001046504f     NativeLib:io.obj
 0008:00000050       __5CF1685C_tmmintrin@h     0000000010465050     NativeLib:io.obj
 0008:00000051       __75CA7DDF_smmintrin@h     0000000010465051     NativeLib:io.obj
 0008:00000052       __10A8F413_nmmintrin@h     0000000010465052     NativeLib:io.obj
 0008:00000053       __C5130E5D_wmmintrin@h     0000000010465053     NativeLib:io.obj
 0008:00000054       __0E87435A_zmmintrin@h     0000000010465054     NativeLib:io.obj
 0008:00000055       __3993E190_immintrin@h     0000000010465055     NativeLib:io.obj
 0008:00000056       __835000D5_ammintrin@h     0000000010465056     NativeLib:io.obj
 0008:00000057       __18F7D262_intrin@h        0000000010465057     NativeLib:io.obj
 0008:00000058       __EB37504C_io@cpp          0000000010465058     NativeLib:io.obj
 0008:00000059       __FE09AF47_concurrencysal@h 0000000010465059     NativeLib:lodepng.obj
 0008:0000005a       __C073CA79_sal@h           000000001046505a     NativeLib:lodepng.obj
 0008:0000005b       __D6AFE870_vadefs@h        000000001046505b     NativeLib:lodepng.obj
 0008:0000005c       __D63E96CF_vcruntime@h     000000001046505c     NativeLib:lodepng.obj
 0008:0000005d       __9A7D38D9_stdarg@h        000000001046505d     NativeLib:lodepng.obj
 0008:0000005e       __1B0272D9_corecrt@h       000000001046505e     NativeLib:lodepng.obj
 0008:0000005f       __13F5961F_stddef@h        000000001046505f     NativeLib:lodepng.obj
 0008:00000060       __0EED556E_printf@h        0000000010465060     NativeLib:lodepng.obj
 0008:00000061       __61CC25A1_errno@h         0000000010465061     NativeLib:lodepng.obj
 0008:00000062       __3EADF068_vcruntime_string@h 0000000010465062     NativeLib:lodepng.obj
 0008:00000063       __E4C945B4_corecrt_memcpy_s@h 0000000010465063     NativeLib:lodepng.obj
 0008:00000064       __8EAFF484_corecrt_memory@h 0000000010465064     NativeLib:lodepng.obj
 0008:00000065       __6490AEC5_corecrt_wstring@h 0000000010465065     NativeLib:lodepng.obj
 0008:00000066       __E8295E1E_string@h        0000000010465066     NativeLib:lodepng.obj
 0008:00000067       __B2031D3E_lodepng@h       0000000010465067     NativeLib:lodepng.obj
 0008:00000068       __45DED006_corecrt_malloc@h 0000000010465068     NativeLib:lodepng.obj
 0008:00000069       __FD6DBD68_corecrt_search@h 0000000010465069     NativeLib:lodepng.obj
 0008:0000006a       __E2E33A61_corecrt_wstdlib@h 000000001046506a     NativeLib:lodepng.obj
 0008:0000006b       __10D4A829_limits@h        000000001046506b     NativeLib:lodepng.obj
 0008:0000006c       __6E5ACABA_stdlib@h        000000001046506c     NativeLib:lodepng.obj
 0008:0000006d       __25D1C4B6_lodepng@c       000000001046506d     NativeLib:lodepng.obj
 0008:0000006e       __0ED14FEE_winpackagefamily@h 000000001046506e     NativeLib:fatfs.obj
 0008:0000006f       __F92EF742_winapifamily@h  000000001046506f     NativeLib:fatfs.obj
 0008:00000070       __22E515EB_sdkddkver@h     0000000010465070     NativeLib:fatfs.obj
 0008:00000071       __FE09AF47_concurrencysal@h 0000000010465071     NativeLib:fatfs.obj
 0008:00000072       __C073CA79_sal@h           0000000010465072     NativeLib:fatfs.obj
 0008:00000073       __D6AFE870_vadefs@h        0000000010465073     NativeLib:fatfs.obj
 0008:00000074       __D63E96CF_vcruntime@h     0000000010465074     NativeLib:fatfs.obj
 0008:00000075       __514B86D7_excpt@h         0000000010465075     NativeLib:fatfs.obj
 0008:00000076       __9A7D38D9_stdarg@h        0000000010465076     NativeLib:fatfs.obj
 0008:00000077       __29F49F40_specstrings_undef@h 0000000010465077     NativeLib:fatfs.obj
 0008:00000078       __D0F42932_specstrings_strict@h 0000000010465078     NativeLib:fatfs.obj
 0008:00000079       __F00405FD_sdv_driverspecs@h 0000000010465079     NativeLib:fatfs.obj
 0008:0000007a       __173E09CA_driverspecs@h   000000001046507a     NativeLib:fatfs.obj
 0008:0000007b       __9A452361_specstrings@h   000000001046507b     NativeLib:fatfs.obj
 0008:0000007c       __1B0272D9_corecrt@h       000000001046507c     NativeLib:fatfs.obj
 0008:0000007d       __74484FB3_corecrt_wctype@h 000000001046507d     NativeLib:fatfs.obj
 0008:0000007e       __1EC467ED_ctype@h         000000001046507e     NativeLib:fatfs.obj
 0008:0000007f       __98517906_kernelspecs@h   000000001046507f     NativeLib:fatfs.obj
 0008:00000080       __D3497022_basetsd@h       0000000010465080     NativeLib:fatfs.obj
 0008:00000081       __61CC25A1_errno@h         0000000010465081     NativeLib:fatfs.obj
 0008:00000082       __3EADF068_vcruntime_string@h 0000000010465082     NativeLib:fatfs.obj
 0008:00000083       __E4C945B4_corecrt_memcpy_s@h 0000000010465083     NativeLib:fatfs.obj
 0008:00000084       __8EAFF484_corecrt_memory@h 0000000010465084     NativeLib:fatfs.obj
 0008:00000085       __6490AEC5_corecrt_wstring@h 0000000010465085     NativeLib:fatfs.obj
 0008:00000086       __E8295E1E_string@h        0000000010465086     NativeLib:fatfs.obj
 0008:00000087       __7FCB5136_guiddef@h       0000000010465087     NativeLib:fatfs.obj
 0008:00000088       __FF8A9E11_pshpack4@h      0000000010465088     NativeLib:fatfs.obj
 0008:00000089       __D5438902_poppack@h       0000000010465089     NativeLib:fatfs.obj
 0008:0000008a       __FB07E2A3_pshpack2@h      000000001046508a     NativeLib:fatfs.obj
 0008:0000008b       __F6906775_pshpack8@h      000000001046508b     NativeLib:fatfs.obj
 0008:0000008c       __F9415CFA_pshpack1@h      000000001046508c     NativeLib:fatfs.obj
 0008:0000008d       __E58C6F1C_apiset@h        000000001046508d     NativeLib:fatfs.obj
 0008:0000008e       __A5C52262_ktmtypes@h      000000001046508e     NativeLib:fatfs.obj
 0008:0000008f       __FBBA8F9D_winnt@h         000000001046508f     NativeLib:fatfs.obj
 0008:00000090       __A32D3D2C_minwindef@h     0000000010465090     NativeLib:fatfs.obj
 0008:00000091       __7D798299_windef@h        0000000010465091     NativeLib:fatfs.obj
 0008:00000092       __9AE108E9_apisetcconv@h   0000000010465092     NativeLib:fatfs.obj
 0008:00000093       __9CE53D2C_minwinbase@h    0000000010465093     NativeLib:fatfs.obj
 0008:00000094       __5D0AA210_apiquery2@h     0000000010465094     NativeLib:fatfs.obj
 0008:00000095       __4DD4E726_processenv@h    0000000010465095     NativeLib:fatfs.obj
 0008:00000096       __3575CC96_fileapi@h       0000000010465096     NativeLib:fatfs.obj
 0008:00000097       __8EA220E6_fileapifromapp@h 0000000010465097     NativeLib:fatfs.obj
 0008:00000098       __BF9B31FE_debugapi@h      0000000010465098     NativeLib:fatfs.obj
 0008:00000099       __C3AFE134_utilapiset@h    0000000010465099     NativeLib:fatfs.obj
 0008:0000009a       __76F69E51_handleapi@h     000000001046509a     NativeLib:fatfs.obj
 0008:0000009b       __7E63D784_errhandlingapi@h 000000001046509b     NativeLib:fatfs.obj
 0008:0000009c       __FFA7003C_fibersapi@h     000000001046509c     NativeLib:fatfs.obj
 0008:0000009d       __8971CECF_namedpipeapi@h  000000001046509d     NativeLib:fatfs.obj
 0008:0000009e       __46C9D8A6_profileapi@h    000000001046509e     NativeLib:fatfs.obj
 0008:0000009f       __98D4F0A3_heapapi@h       000000001046509f     NativeLib:fatfs.obj
 0008:000000a0       __50EF2A88_ioapiset@h      00000000104650a0     NativeLib:fatfs.obj
 0008:000000a1       __92EA1464_synchapi@h      00000000104650a1     NativeLib:fatfs.obj
 0008:000000a2       __A53D8AED_interlockedapi@h 00000000104650a2     NativeLib:fatfs.obj
 0008:000000a3       __B506CAAF_processthreadsapi@h 00000000104650a3     NativeLib:fatfs.obj
 0008:000000a4       __FF735694_sysinfoapi@h    00000000104650a4     NativeLib:fatfs.obj
 0008:000000a5       __29589789_memoryapi@h     00000000104650a5     NativeLib:fatfs.obj
 0008:000000a6       __E9C7A663_enclaveapi@h    00000000104650a6     NativeLib:fatfs.obj
 0008:000000a7       __D035F9F7_threadpoollegacyapiset@h 00000000104650a7     NativeLib:fatfs.obj
 0008:000000a8       __C899130C_threadpoolapiset@h 00000000104650a8     NativeLib:fatfs.obj
 0008:000000a9       __E0441EE7_jobapi@h        00000000104650a9     NativeLib:fatfs.obj
 0008:000000aa       __CEF86838_jobapi2@h       00000000104650aa     NativeLib:fatfs.obj
 0008:000000ab       __35AC6B9A_wow64apiset@h   00000000104650ab     NativeLib:fatfs.obj
 0008:000000ac       __C8AE41A5_libloaderapi@h  00000000104650ac     NativeLib:fatfs.obj
 0008:000000ad       __CC9E232D_securitybaseapi@h 00000000104650ad     NativeLib:fatfs.obj
 0008:000000ae       __C9D0C9B8_namespaceapi@h  00000000104650ae     NativeLib:fatfs.obj
 0008:000000af       __30FF9CAD_systemtopologyapi@h 00000000104650af     NativeLib:fatfs.obj
 0008:000000b0       __4D358795_processtopologyapi@h 00000000104650b0     NativeLib:fatfs.obj
 0008:000000b1       __40446D10_securityappcontainer@h 00000000104650b1     NativeLib:fatfs.obj
 0008:000000b2       __3A952EDF_realtimeapiset@h 00000000104650b2     NativeLib:fatfs.obj
 0008:000000b3       __F4865F4B_winerror@h      00000000104650b3     NativeLib:fatfs.obj
 0008:000000b4       __53C1BD93_timezoneapi@h   00000000104650b4     NativeLib:fatfs.obj
 0008:000000b5       __1FFBEDBF_winbase@h       00000000104650b5     NativeLib:fatfs.obj
 0008:000000b6       __43D3FA34_wingdi@h        00000000104650b6     NativeLib:fatfs.obj
 0008:000000b7       __D24A7391_tvout@h         00000000104650b7     NativeLib:fatfs.obj
 0008:000000b8       __7713A6C8_winuser@h       00000000104650b8     NativeLib:fatfs.obj
 0008:000000b9       __0B345F71_datetimeapi@h   00000000104650b9     NativeLib:fatfs.obj
 0008:000000ba       __9AC6960C_winnls@h        00000000104650ba     NativeLib:fatfs.obj
 0008:000000bb       __973A40A8_stringapiset@h  00000000104650bb     NativeLib:fatfs.obj
 0008:000000bc       __CC46FEE2_wincontypes@h   00000000104650bc     NativeLib:fatfs.obj
 0008:000000bd       __97D70BE1_consoleapi@h    00000000104650bd     NativeLib:fatfs.obj
 0008:000000be       __27EC5E18_consoleapi2@h   00000000104650be     NativeLib:fatfs.obj
 0008:000000bf       __262E342F_consoleapi3@h   00000000104650bf     NativeLib:fatfs.obj
 0008:000000c0       __641DCD70_wincon@h        00000000104650c0     NativeLib:fatfs.obj
 0008:000000c1       __5A96C7A7_verrsrc@h       00000000104650c1     NativeLib:fatfs.obj
 0008:000000c2       __B69C6FF2_winver@h        00000000104650c2     NativeLib:fatfs.obj
 0008:000000c3       __7AEB8C37_reason@h        00000000104650c3     NativeLib:fatfs.obj
 0008:000000c4       __59F1A8A9_winreg@h        00000000104650c4     NativeLib:fatfs.obj
 0008:000000c5       __EE0E2B7F_wnnc@h          00000000104650c5     NativeLib:fatfs.obj
 0008:000000c6       __DCDB7054_winnetwk@h      00000000104650c6     NativeLib:fatfs.obj
 0008:000000c7       __EDC72EEB_cderr@h         00000000104650c7     NativeLib:fatfs.obj
 0008:000000c8       __95F9199D_dde@h           00000000104650c8     NativeLib:fatfs.obj
 0008:000000c9       __66427627_ddeml@h         00000000104650c9     NativeLib:fatfs.obj
 0008:000000ca       __957C29A0_dlgs@h          00000000104650ca     NativeLib:fatfs.obj
 0008:000000cb       __12EA15AF_lzexpand@h      00000000104650cb     NativeLib:fatfs.obj
 0008:000000cc       __62131F15_mmsyscom@h      00000000104650cc     NativeLib:fatfs.obj
 0008:000000cd       __47E68D49_mciapi@h        00000000104650cd     NativeLib:fatfs.obj
 0008:000000ce       __5D7DD356_mmiscapi@h      00000000104650ce     NativeLib:fatfs.obj
 0008:000000cf       __7223D2EF_mmiscapi2@h     00000000104650cf     NativeLib:fatfs.obj
 0008:000000d0       __A330DBB3_playsoundapi@h  00000000104650d0     NativeLib:fatfs.obj
 0008:000000d1       __601B366F_mmeapi@h        00000000104650d1     NativeLib:fatfs.obj
 0008:000000d2       __1134ADD5_timeapi@h       00000000104650d2     NativeLib:fatfs.obj
 0008:000000d3       __93F2265A_joystickapi@h   00000000104650d3     NativeLib:fatfs.obj
 0008:000000d4       __DF6EB4E3_mmsystem@h      00000000104650d4     NativeLib:fatfs.obj
 0008:000000d5       __BD641FCB_nb30@h          00000000104650d5     NativeLib:fatfs.obj
 0008:000000d6       __DF8704F0_rpcdcep@h       00000000104650d6     NativeLib:fatfs.obj
 0008:000000d7       __5C6CA7BB_rpcdce@h        00000000104650d7     NativeLib:fatfs.obj
 0008:000000d8       __853533C4_rpcnsi@h        00000000104650d8     NativeLib:fatfs.obj
 0008:000000d9       __2D2406C3_rpcnterr@h      00000000104650d9     NativeLib:fatfs.obj
 0008:000000da       __64521D71_rpcasync@h      00000000104650da     NativeLib:fatfs.obj
 0008:000000db       __AADCBA08_rpc@h           00000000104650db     NativeLib:fatfs.obj
 0008:000000dc       __19E26CFF_shellapi@h      00000000104650dc     NativeLib:fatfs.obj
 0008:000000dd       __1E9F31D3_winperf@h       00000000104650dd     NativeLib:fatfs.obj
 0008:000000de       __832A4112_inaddr@h        00000000104650de     NativeLib:fatfs.obj
 0008:000000df       __32C6F875_winsock@h       00000000104650df     NativeLib:fatfs.obj
 0008:000000e0       __7953A3F8_bcrypt@h        00000000104650e0     NativeLib:fatfs.obj
 0008:000000e1       __E4169492_ncrypt@h        00000000104650e1     NativeLib:fatfs.obj
 0008:000000e2       __AF3DDDC3_dpapi@h         00000000104650e2     NativeLib:fatfs.obj
 0008:000000e3       __D1E23BF2_wincrypt@h      00000000104650e3     NativeLib:fatfs.obj
 0008:000000e4       __82AB4779_winefs@h        00000000104650e4     NativeLib:fatfs.obj
 0008:000000e5       __1FE431C9_rpcnsip@h       00000000104650e5     NativeLib:fatfs.obj
 0008:000000e6       __2B741F2D_rpcsal@h        00000000104650e6     NativeLib:fatfs.obj
 0008:000000e7       __92623256_rpcndr@h        00000000104650e7     NativeLib:fatfs.obj
 0008:000000e8       __9C18532E_wtypesbase@h    00000000104650e8     NativeLib:fatfs.obj
 0008:000000e9       __EA2E1D6D_wtypes@h        00000000104650e9     NativeLib:fatfs.obj
 0008:000000ea       __7DDD9F45_winioctl@h      00000000104650ea     NativeLib:fatfs.obj
 0008:000000eb       __E550A843_winsmcrd@h      00000000104650eb     NativeLib:fatfs.obj
 0008:000000ec       __9809C1BA_winscard@h      00000000104650ec     NativeLib:fatfs.obj
 0008:000000ed       __EA174FA4_prsht@h         00000000104650ed     NativeLib:fatfs.obj
 0008:000000ee       __0E1BD114_winspool@h      00000000104650ee     NativeLib:fatfs.obj
 0008:000000ef       __45DED006_corecrt_malloc@h 00000000104650ef     NativeLib:fatfs.obj
 0008:000000f0       __13F5961F_stddef@h        00000000104650f0     NativeLib:fatfs.obj
 0008:000000f1       __FD6DBD68_corecrt_search@h 00000000104650f1     NativeLib:fatfs.obj
 0008:000000f2       __E2E33A61_corecrt_wstdlib@h 00000000104650f2     NativeLib:fatfs.obj
 0008:000000f3       __10D4A829_limits@h        00000000104650f3     NativeLib:fatfs.obj
 0008:000000f4       __6E5ACABA_stdlib@h        00000000104650f4     NativeLib:fatfs.obj
 0008:000000f5       __30B1AFDA_unknwnbase@h    00000000104650f5     NativeLib:fatfs.obj
 0008:000000f6       __328C1996_objidlbase@h    00000000104650f6     NativeLib:fatfs.obj
 0008:000000f7       __C4E06B6A_cguid@h         00000000104650f7     NativeLib:fatfs.obj
 0008:000000f8       __434718C5_combaseapi@h    00000000104650f8     NativeLib:fatfs.obj
 0008:000000f9       __DE6FDEF1_unknwn@h        00000000104650f9     NativeLib:fatfs.obj
 0008:000000fa       __CCE0BACC_objidl@h        00000000104650fa     NativeLib:fatfs.obj
 0008:000000fb       __8C7011E5_oaidl@h         00000000104650fb     NativeLib:fatfs.obj
 0008:000000fc       __2E0B7863_propidlbase@h   00000000104650fc     NativeLib:fatfs.obj
 0008:000000fd       __BF4CF2EC_coml2api@h      00000000104650fd     NativeLib:fatfs.obj
 0008:000000fe       __6D897344_oleidl@h        00000000104650fe     NativeLib:fatfs.obj
 0008:000000ff       __1129FC2C_servprov@h      00000000104650ff     NativeLib:fatfs.obj
 0008:00000100       __757952E4_msxml@h         0000000010465100     NativeLib:fatfs.obj
 0008:00000101       __B1191D53_urlmon@h        0000000010465101     NativeLib:fatfs.obj
 0008:00000102       __404D1A47_propidl@h       0000000010465102     NativeLib:fatfs.obj
 0008:00000103       __A1C63593_objbase@h       0000000010465103     NativeLib:fatfs.obj
 0008:00000104       __C1B0A9CB_oleauto@h       0000000010465104     NativeLib:fatfs.obj
 0008:00000105       __24EAF61F_ole2@h          0000000010465105     NativeLib:fatfs.obj
 0008:00000106       __2B1843DA_commdlg@h       0000000010465106     NativeLib:fatfs.obj
 0008:00000107       __81DDEDE3_stralign@h      0000000010465107     NativeLib:fatfs.obj
 0008:00000108       __2134D1B4_winsvc@h        0000000010465108     NativeLib:fatfs.obj
 0008:00000109       __11C07376_mcx@h           0000000010465109     NativeLib:fatfs.obj
 0008:0000010a       __577CE3E7_ime_cmodes@h    000000001046510a     NativeLib:fatfs.obj
 0008:0000010b       __1E72C31E_imm@h           000000001046510b     NativeLib:fatfs.obj
 0008:0000010c       __E15BF856_windows@h       000000001046510c     NativeLib:fatfs.obj
 0008:0000010d       __44420885_corecrt_stdio_config@h 000000001046510d     NativeLib:fatfs.obj
 0008:0000010e       __EF1F6BBA_corecrt_wconio@h 000000001046510e     NativeLib:fatfs.obj
 0008:0000010f       __3D1D430C_corecrt_wdirect@h 000000001046510f     NativeLib:fatfs.obj
 0008:00000110       __8ECB7138_corecrt_share@h 0000000010465110     NativeLib:fatfs.obj
 0008:00000111       __DB7FEBA6_corecrt_wio@h   0000000010465111     NativeLib:fatfs.obj
 0008:00000112       __9A9F0068_corecrt_wprocess@h 0000000010465112     NativeLib:fatfs.obj
 0008:00000113       __AB601D8D_corecrt_wstdio@h 0000000010465113     NativeLib:fatfs.obj
 0008:00000114       __369A9BC3_corecrt_wtime@h 0000000010465114     NativeLib:fatfs.obj
 0008:00000115       __CE789B9D_types@h         0000000010465115     NativeLib:fatfs.obj
 0008:00000116       __9901C817_stat@h          0000000010465116     NativeLib:fatfs.obj
 0008:00000117       __3FCAD62E_wchar@h         0000000010465117     NativeLib:fatfs.obj
 0008:00000118       __0E22CCB3_tchar@h         0000000010465118     NativeLib:fatfs.obj
 0008:00000119       __4CCC6929_integer@h       0000000010465119     NativeLib:fatfs.obj
 0008:0000011a       __ED2A062E_ffconf@h        000000001046511a     NativeLib:fatfs.obj
 0008:0000011b       __A5A085C2_ff@h            000000001046511b     NativeLib:fatfs.obj
 0008:0000011c       __0EED556E_printf@h        000000001046511c     NativeLib:fatfs.obj
 0008:0000011d       __B291467D_stdbool@h       000000001046511d     NativeLib:fatfs.obj
 0008:0000011e       __F5A7E1DF_intrin0@inl@h   000000001046511e     NativeLib:fatfs.obj
 0008:0000011f       __3EC16E15_setjmp@h        000000001046511f     NativeLib:fatfs.obj
 0008:00000120       __18C87B63_mmintrin@h      0000000010465120     NativeLib:fatfs.obj
 0008:00000121       __FA77ED4C_malloc@h        0000000010465121     NativeLib:fatfs.obj
 0008:00000122       __56EBFA9B_xmmintrin@h     0000000010465122     NativeLib:fatfs.obj
 0008:00000123       __33897357_emmintrin@h     0000000010465123     NativeLib:fatfs.obj
 0008:00000124       __EC281BDE_pmmintrin@h     0000000010465124     NativeLib:fatfs.obj
 0008:00000125       __5CF1685C_tmmintrin@h     0000000010465125     NativeLib:fatfs.obj
 0008:00000126       __75CA7DDF_smmintrin@h     0000000010465126     NativeLib:fatfs.obj
 0008:00000127       __10A8F413_nmmintrin@h     0000000010465127     NativeLib:fatfs.obj
 0008:00000128       __C5130E5D_wmmintrin@h     0000000010465128     NativeLib:fatfs.obj
 0008:00000129       __0E87435A_zmmintrin@h     0000000010465129     NativeLib:fatfs.obj
 0008:0000012a       __3993E190_immintrin@h     000000001046512a     NativeLib:fatfs.obj
 0008:0000012b       __835000D5_ammintrin@h     000000001046512b     NativeLib:fatfs.obj
 0008:0000012c       __18F7D262_intrin@h        000000001046512c     NativeLib:fatfs.obj
 0008:0000012d       __047BF24B_fatfs@c         000000001046512d     NativeLib:fatfs.obj
 0008:0000012e       __0ED14FEE_winpackagefamily@h 000000001046512e     NativeLib:ff.obj
 0008:0000012f       __F92EF742_winapifamily@h  000000001046512f     NativeLib:ff.obj
 0008:00000130       __22E515EB_sdkddkver@h     0000000010465130     NativeLib:ff.obj
 0008:00000131       __FE09AF47_concurrencysal@h 0000000010465131     NativeLib:ff.obj
 0008:00000132       __C073CA79_sal@h           0000000010465132     NativeLib:ff.obj
 0008:00000133       __D6AFE870_vadefs@h        0000000010465133     NativeLib:ff.obj
 0008:00000134       __D63E96CF_vcruntime@h     0000000010465134     NativeLib:ff.obj
 0008:00000135       __514B86D7_excpt@h         0000000010465135     NativeLib:ff.obj
 0008:00000136       __9A7D38D9_stdarg@h        0000000010465136     NativeLib:ff.obj
 0008:00000137       __29F49F40_specstrings_undef@h 0000000010465137     NativeLib:ff.obj
 0008:00000138       __D0F42932_specstrings_strict@h 0000000010465138     NativeLib:ff.obj
 0008:00000139       __F00405FD_sdv_driverspecs@h 0000000010465139     NativeLib:ff.obj
 0008:0000013a       __173E09CA_driverspecs@h   000000001046513a     NativeLib:ff.obj
 0008:0000013b       __9A452361_specstrings@h   000000001046513b     NativeLib:ff.obj
 0008:0000013c       __1B0272D9_corecrt@h       000000001046513c     NativeLib:ff.obj
 0008:0000013d       __74484FB3_corecrt_wctype@h 000000001046513d     NativeLib:ff.obj
 0008:0000013e       __1EC467ED_ctype@h         000000001046513e     NativeLib:ff.obj
 0008:0000013f       __98517906_kernelspecs@h   000000001046513f     NativeLib:ff.obj
 0008:00000140       __D3497022_basetsd@h       0000000010465140     NativeLib:ff.obj
 0008:00000141       __61CC25A1_errno@h         0000000010465141     NativeLib:ff.obj
 0008:00000142       __3EADF068_vcruntime_string@h 0000000010465142     NativeLib:ff.obj
 0008:00000143       __E4C945B4_corecrt_memcpy_s@h 0000000010465143     NativeLib:ff.obj
 0008:00000144       __8EAFF484_corecrt_memory@h 0000000010465144     NativeLib:ff.obj
 0008:00000145       __6490AEC5_corecrt_wstring@h 0000000010465145     NativeLib:ff.obj
 0008:00000146       __E8295E1E_string@h        0000000010465146     NativeLib:ff.obj
 0008:00000147       __7FCB5136_guiddef@h       0000000010465147     NativeLib:ff.obj
 0008:00000148       __FF8A9E11_pshpack4@h      0000000010465148     NativeLib:ff.obj
 0008:00000149       __D5438902_poppack@h       0000000010465149     NativeLib:ff.obj
 0008:0000014a       __FB07E2A3_pshpack2@h      000000001046514a     NativeLib:ff.obj
 0008:0000014b       __F6906775_pshpack8@h      000000001046514b     NativeLib:ff.obj
 0008:0000014c       __F9415CFA_pshpack1@h      000000001046514c     NativeLib:ff.obj
 0008:0000014d       __E58C6F1C_apiset@h        000000001046514d     NativeLib:ff.obj
 0008:0000014e       __A5C52262_ktmtypes@h      000000001046514e     NativeLib:ff.obj
 0008:0000014f       __FBBA8F9D_winnt@h         000000001046514f     NativeLib:ff.obj
 0008:00000150       __A32D3D2C_minwindef@h     0000000010465150     NativeLib:ff.obj
 0008:00000151       __7D798299_windef@h        0000000010465151     NativeLib:ff.obj
 0008:00000152       __9AE108E9_apisetcconv@h   0000000010465152     NativeLib:ff.obj
 0008:00000153       __9CE53D2C_minwinbase@h    0000000010465153     NativeLib:ff.obj
 0008:00000154       __5D0AA210_apiquery2@h     0000000010465154     NativeLib:ff.obj
 0008:00000155       __4DD4E726_processenv@h    0000000010465155     NativeLib:ff.obj
 0008:00000156       __3575CC96_fileapi@h       0000000010465156     NativeLib:ff.obj
 0008:00000157       __8EA220E6_fileapifromapp@h 0000000010465157     NativeLib:ff.obj
 0008:00000158       __BF9B31FE_debugapi@h      0000000010465158     NativeLib:ff.obj
 0008:00000159       __C3AFE134_utilapiset@h    0000000010465159     NativeLib:ff.obj
 0008:0000015a       __76F69E51_handleapi@h     000000001046515a     NativeLib:ff.obj
 0008:0000015b       __7E63D784_errhandlingapi@h 000000001046515b     NativeLib:ff.obj
 0008:0000015c       __FFA7003C_fibersapi@h     000000001046515c     NativeLib:ff.obj
 0008:0000015d       __8971CECF_namedpipeapi@h  000000001046515d     NativeLib:ff.obj
 0008:0000015e       __46C9D8A6_profileapi@h    000000001046515e     NativeLib:ff.obj
 0008:0000015f       __98D4F0A3_heapapi@h       000000001046515f     NativeLib:ff.obj
 0008:00000160       __50EF2A88_ioapiset@h      0000000010465160     NativeLib:ff.obj
 0008:00000161       __92EA1464_synchapi@h      0000000010465161     NativeLib:ff.obj
 0008:00000162       __A53D8AED_interlockedapi@h 0000000010465162     NativeLib:ff.obj
 0008:00000163       __B506CAAF_processthreadsapi@h 0000000010465163     NativeLib:ff.obj
 0008:00000164       __FF735694_sysinfoapi@h    0000000010465164     NativeLib:ff.obj
 0008:00000165       __29589789_memoryapi@h     0000000010465165     NativeLib:ff.obj
 0008:00000166       __E9C7A663_enclaveapi@h    0000000010465166     NativeLib:ff.obj
 0008:00000167       __D035F9F7_threadpoollegacyapiset@h 0000000010465167     NativeLib:ff.obj
 0008:00000168       __C899130C_threadpoolapiset@h 0000000010465168     NativeLib:ff.obj
 0008:00000169       __E0441EE7_jobapi@h        0000000010465169     NativeLib:ff.obj
 0008:0000016a       __CEF86838_jobapi2@h       000000001046516a     NativeLib:ff.obj
 0008:0000016b       __35AC6B9A_wow64apiset@h   000000001046516b     NativeLib:ff.obj
 0008:0000016c       __C8AE41A5_libloaderapi@h  000000001046516c     NativeLib:ff.obj
 0008:0000016d       __CC9E232D_securitybaseapi@h 000000001046516d     NativeLib:ff.obj
 0008:0000016e       __C9D0C9B8_namespaceapi@h  000000001046516e     NativeLib:ff.obj
 0008:0000016f       __30FF9CAD_systemtopologyapi@h 000000001046516f     NativeLib:ff.obj
 0008:00000170       __4D358795_processtopologyapi@h 0000000010465170     NativeLib:ff.obj
 0008:00000171       __40446D10_securityappcontainer@h 0000000010465171     NativeLib:ff.obj
 0008:00000172       __3A952EDF_realtimeapiset@h 0000000010465172     NativeLib:ff.obj
 0008:00000173       __F4865F4B_winerror@h      0000000010465173     NativeLib:ff.obj
 0008:00000174       __53C1BD93_timezoneapi@h   0000000010465174     NativeLib:ff.obj
 0008:00000175       __1FFBEDBF_winbase@h       0000000010465175     NativeLib:ff.obj
 0008:00000176       __43D3FA34_wingdi@h        0000000010465176     NativeLib:ff.obj
 0008:00000177       __D24A7391_tvout@h         0000000010465177     NativeLib:ff.obj
 0008:00000178       __7713A6C8_winuser@h       0000000010465178     NativeLib:ff.obj
 0008:00000179       __0B345F71_datetimeapi@h   0000000010465179     NativeLib:ff.obj
 0008:0000017a       __9AC6960C_winnls@h        000000001046517a     NativeLib:ff.obj
 0008:0000017b       __973A40A8_stringapiset@h  000000001046517b     NativeLib:ff.obj
 0008:0000017c       __CC46FEE2_wincontypes@h   000000001046517c     NativeLib:ff.obj
 0008:0000017d       __97D70BE1_consoleapi@h    000000001046517d     NativeLib:ff.obj
 0008:0000017e       __27EC5E18_consoleapi2@h   000000001046517e     NativeLib:ff.obj
 0008:0000017f       __262E342F_consoleapi3@h   000000001046517f     NativeLib:ff.obj
 0008:00000180       __641DCD70_wincon@h        0000000010465180     NativeLib:ff.obj
 0008:00000181       __5A96C7A7_verrsrc@h       0000000010465181     NativeLib:ff.obj
 0008:00000182       __B69C6FF2_winver@h        0000000010465182     NativeLib:ff.obj
 0008:00000183       __7AEB8C37_reason@h        0000000010465183     NativeLib:ff.obj
 0008:00000184       __59F1A8A9_winreg@h        0000000010465184     NativeLib:ff.obj
 0008:00000185       __EE0E2B7F_wnnc@h          0000000010465185     NativeLib:ff.obj
 0008:00000186       __DCDB7054_winnetwk@h      0000000010465186     NativeLib:ff.obj
 0008:00000187       __EDC72EEB_cderr@h         0000000010465187     NativeLib:ff.obj
 0008:00000188       __95F9199D_dde@h           0000000010465188     NativeLib:ff.obj
 0008:00000189       __66427627_ddeml@h         0000000010465189     NativeLib:ff.obj
 0008:0000018a       __957C29A0_dlgs@h          000000001046518a     NativeLib:ff.obj
 0008:0000018b       __12EA15AF_lzexpand@h      000000001046518b     NativeLib:ff.obj
 0008:0000018c       __62131F15_mmsyscom@h      000000001046518c     NativeLib:ff.obj
 0008:0000018d       __47E68D49_mciapi@h        000000001046518d     NativeLib:ff.obj
 0008:0000018e       __5D7DD356_mmiscapi@h      000000001046518e     NativeLib:ff.obj
 0008:0000018f       __7223D2EF_mmiscapi2@h     000000001046518f     NativeLib:ff.obj
 0008:00000190       __A330DBB3_playsoundapi@h  0000000010465190     NativeLib:ff.obj
 0008:00000191       __601B366F_mmeapi@h        0000000010465191     NativeLib:ff.obj
 0008:00000192       __1134ADD5_timeapi@h       0000000010465192     NativeLib:ff.obj
 0008:00000193       __93F2265A_joystickapi@h   0000000010465193     NativeLib:ff.obj
 0008:00000194       __DF6EB4E3_mmsystem@h      0000000010465194     NativeLib:ff.obj
 0008:00000195       __BD641FCB_nb30@h          0000000010465195     NativeLib:ff.obj
 0008:00000196       __DF8704F0_rpcdcep@h       0000000010465196     NativeLib:ff.obj
 0008:00000197       __5C6CA7BB_rpcdce@h        0000000010465197     NativeLib:ff.obj
 0008:00000198       __853533C4_rpcnsi@h        0000000010465198     NativeLib:ff.obj
 0008:00000199       __2D2406C3_rpcnterr@h      0000000010465199     NativeLib:ff.obj
 0008:0000019a       __64521D71_rpcasync@h      000000001046519a     NativeLib:ff.obj
 0008:0000019b       __AADCBA08_rpc@h           000000001046519b     NativeLib:ff.obj
 0008:0000019c       __19E26CFF_shellapi@h      000000001046519c     NativeLib:ff.obj
 0008:0000019d       __1E9F31D3_winperf@h       000000001046519d     NativeLib:ff.obj
 0008:0000019e       __832A4112_inaddr@h        000000001046519e     NativeLib:ff.obj
 0008:0000019f       __32C6F875_winsock@h       000000001046519f     NativeLib:ff.obj
 0008:000001a0       __7953A3F8_bcrypt@h        00000000104651a0     NativeLib:ff.obj
 0008:000001a1       __E4169492_ncrypt@h        00000000104651a1     NativeLib:ff.obj
 0008:000001a2       __AF3DDDC3_dpapi@h         00000000104651a2     NativeLib:ff.obj
 0008:000001a3       __D1E23BF2_wincrypt@h      00000000104651a3     NativeLib:ff.obj
 0008:000001a4       __82AB4779_winefs@h        00000000104651a4     NativeLib:ff.obj
 0008:000001a5       __1FE431C9_rpcnsip@h       00000000104651a5     NativeLib:ff.obj
 0008:000001a6       __2B741F2D_rpcsal@h        00000000104651a6     NativeLib:ff.obj
 0008:000001a7       __92623256_rpcndr@h        00000000104651a7     NativeLib:ff.obj
 0008:000001a8       __9C18532E_wtypesbase@h    00000000104651a8     NativeLib:ff.obj
 0008:000001a9       __EA2E1D6D_wtypes@h        00000000104651a9     NativeLib:ff.obj
 0008:000001aa       __7DDD9F45_winioctl@h      00000000104651aa     NativeLib:ff.obj
 0008:000001ab       __E550A843_winsmcrd@h      00000000104651ab     NativeLib:ff.obj
 0008:000001ac       __9809C1BA_winscard@h      00000000104651ac     NativeLib:ff.obj
 0008:000001ad       __EA174FA4_prsht@h         00000000104651ad     NativeLib:ff.obj
 0008:000001ae       __0E1BD114_winspool@h      00000000104651ae     NativeLib:ff.obj
 0008:000001af       __45DED006_corecrt_malloc@h 00000000104651af     NativeLib:ff.obj
 0008:000001b0       __13F5961F_stddef@h        00000000104651b0     NativeLib:ff.obj
 0008:000001b1       __FD6DBD68_corecrt_search@h 00000000104651b1     NativeLib:ff.obj
 0008:000001b2       __E2E33A61_corecrt_wstdlib@h 00000000104651b2     NativeLib:ff.obj
 0008:000001b3       __10D4A829_limits@h        00000000104651b3     NativeLib:ff.obj
 0008:000001b4       __6E5ACABA_stdlib@h        00000000104651b4     NativeLib:ff.obj
 0008:000001b5       __30B1AFDA_unknwnbase@h    00000000104651b5     NativeLib:ff.obj
 0008:000001b6       __328C1996_objidlbase@h    00000000104651b6     NativeLib:ff.obj
 0008:000001b7       __C4E06B6A_cguid@h         00000000104651b7     NativeLib:ff.obj
 0008:000001b8       __434718C5_combaseapi@h    00000000104651b8     NativeLib:ff.obj
 0008:000001b9       __DE6FDEF1_unknwn@h        00000000104651b9     NativeLib:ff.obj
 0008:000001ba       __CCE0BACC_objidl@h        00000000104651ba     NativeLib:ff.obj
 0008:000001bb       __8C7011E5_oaidl@h         00000000104651bb     NativeLib:ff.obj
 0008:000001bc       __2E0B7863_propidlbase@h   00000000104651bc     NativeLib:ff.obj
 0008:000001bd       __BF4CF2EC_coml2api@h      00000000104651bd     NativeLib:ff.obj
 0008:000001be       __6D897344_oleidl@h        00000000104651be     NativeLib:ff.obj
 0008:000001bf       __1129FC2C_servprov@h      00000000104651bf     NativeLib:ff.obj
 0008:000001c0       __757952E4_msxml@h         00000000104651c0     NativeLib:ff.obj
 0008:000001c1       __B1191D53_urlmon@h        00000000104651c1     NativeLib:ff.obj
 0008:000001c2       __404D1A47_propidl@h       00000000104651c2     NativeLib:ff.obj
 0008:000001c3       __A1C63593_objbase@h       00000000104651c3     NativeLib:ff.obj
 0008:000001c4       __C1B0A9CB_oleauto@h       00000000104651c4     NativeLib:ff.obj
 0008:000001c5       __24EAF61F_ole2@h          00000000104651c5     NativeLib:ff.obj
 0008:000001c6       __2B1843DA_commdlg@h       00000000104651c6     NativeLib:ff.obj
 0008:000001c7       __81DDEDE3_stralign@h      00000000104651c7     NativeLib:ff.obj
 0008:000001c8       __2134D1B4_winsvc@h        00000000104651c8     NativeLib:ff.obj
 0008:000001c9       __11C07376_mcx@h           00000000104651c9     NativeLib:ff.obj
 0008:000001ca       __577CE3E7_ime_cmodes@h    00000000104651ca     NativeLib:ff.obj
 0008:000001cb       __1E72C31E_imm@h           00000000104651cb     NativeLib:ff.obj
 0008:000001cc       __E15BF856_windows@h       00000000104651cc     NativeLib:ff.obj
 0008:000001cd       __44420885_corecrt_stdio_config@h 00000000104651cd     NativeLib:ff.obj
 0008:000001ce       __EF1F6BBA_corecrt_wconio@h 00000000104651ce     NativeLib:ff.obj
 0008:000001cf       __3D1D430C_corecrt_wdirect@h 00000000104651cf     NativeLib:ff.obj
 0008:000001d0       __8ECB7138_corecrt_share@h 00000000104651d0     NativeLib:ff.obj
 0008:000001d1       __DB7FEBA6_corecrt_wio@h   00000000104651d1     NativeLib:ff.obj
 0008:000001d2       __9A9F0068_corecrt_wprocess@h 00000000104651d2     NativeLib:ff.obj
 0008:000001d3       __AB601D8D_corecrt_wstdio@h 00000000104651d3     NativeLib:ff.obj
 0008:000001d4       __369A9BC3_corecrt_wtime@h 00000000104651d4     NativeLib:ff.obj
 0008:000001d5       __CE789B9D_types@h         00000000104651d5     NativeLib:ff.obj
 0008:000001d6       __9901C817_stat@h          00000000104651d6     NativeLib:ff.obj
 0008:000001d7       __3FCAD62E_wchar@h         00000000104651d7     NativeLib:ff.obj
 0008:000001d8       __0E22CCB3_tchar@h         00000000104651d8     NativeLib:ff.obj
 0008:000001d9       __4CCC6929_integer@h       00000000104651d9     NativeLib:ff.obj
 0008:000001da       __ED2A062E_ffconf@h        00000000104651da     NativeLib:ff.obj
 0008:000001db       __A5A085C2_ff@h            00000000104651db     NativeLib:ff.obj
 0008:000001dc       __3D17D6D7_diskio@h        00000000104651dc     NativeLib:ff.obj
 0008:000001dd       __32725C4A_ff@c            00000000104651dd     NativeLib:ff.obj
 0008:000001de       __0ED14FEE_winpackagefamily@h 00000000104651de     NativeLib:ffunicode.obj
 0008:000001df       __F92EF742_winapifamily@h  00000000104651df     NativeLib:ffunicode.obj
 0008:000001e0       __22E515EB_sdkddkver@h     00000000104651e0     NativeLib:ffunicode.obj
 0008:000001e1       __FE09AF47_concurrencysal@h 00000000104651e1     NativeLib:ffunicode.obj
 0008:000001e2       __C073CA79_sal@h           00000000104651e2     NativeLib:ffunicode.obj
 0008:000001e3       __D6AFE870_vadefs@h        00000000104651e3     NativeLib:ffunicode.obj
 0008:000001e4       __D63E96CF_vcruntime@h     00000000104651e4     NativeLib:ffunicode.obj
 0008:000001e5       __514B86D7_excpt@h         00000000104651e5     NativeLib:ffunicode.obj
 0008:000001e6       __9A7D38D9_stdarg@h        00000000104651e6     NativeLib:ffunicode.obj
 0008:000001e7       __29F49F40_specstrings_undef@h 00000000104651e7     NativeLib:ffunicode.obj
 0008:000001e8       __D0F42932_specstrings_strict@h 00000000104651e8     NativeLib:ffunicode.obj
 0008:000001e9       __F00405FD_sdv_driverspecs@h 00000000104651e9     NativeLib:ffunicode.obj
 0008:000001ea       __173E09CA_driverspecs@h   00000000104651ea     NativeLib:ffunicode.obj
 0008:000001eb       __9A452361_specstrings@h   00000000104651eb     NativeLib:ffunicode.obj
 0008:000001ec       __1B0272D9_corecrt@h       00000000104651ec     NativeLib:ffunicode.obj
 0008:000001ed       __74484FB3_corecrt_wctype@h 00000000104651ed     NativeLib:ffunicode.obj
 0008:000001ee       __1EC467ED_ctype@h         00000000104651ee     NativeLib:ffunicode.obj
 0008:000001ef       __98517906_kernelspecs@h   00000000104651ef     NativeLib:ffunicode.obj
 0008:000001f0       __D3497022_basetsd@h       00000000104651f0     NativeLib:ffunicode.obj
 0008:000001f1       __61CC25A1_errno@h         00000000104651f1     NativeLib:ffunicode.obj
 0008:000001f2       __3EADF068_vcruntime_string@h 00000000104651f2     NativeLib:ffunicode.obj
 0008:000001f3       __E4C945B4_corecrt_memcpy_s@h 00000000104651f3     NativeLib:ffunicode.obj
 0008:000001f4       __8EAFF484_corecrt_memory@h 00000000104651f4     NativeLib:ffunicode.obj
 0008:000001f5       __6490AEC5_corecrt_wstring@h 00000000104651f5     NativeLib:ffunicode.obj
 0008:000001f6       __E8295E1E_string@h        00000000104651f6     NativeLib:ffunicode.obj
 0008:000001f7       __7FCB5136_guiddef@h       00000000104651f7     NativeLib:ffunicode.obj
 0008:000001f8       __FF8A9E11_pshpack4@h      00000000104651f8     NativeLib:ffunicode.obj
 0008:000001f9       __D5438902_poppack@h       00000000104651f9     NativeLib:ffunicode.obj
 0008:000001fa       __FB07E2A3_pshpack2@h      00000000104651fa     NativeLib:ffunicode.obj
 0008:000001fb       __F6906775_pshpack8@h      00000000104651fb     NativeLib:ffunicode.obj
 0008:000001fc       __F9415CFA_pshpack1@h      00000000104651fc     NativeLib:ffunicode.obj
 0008:000001fd       __E58C6F1C_apiset@h        00000000104651fd     NativeLib:ffunicode.obj
 0008:000001fe       __A5C52262_ktmtypes@h      00000000104651fe     NativeLib:ffunicode.obj
 0008:000001ff       __FBBA8F9D_winnt@h         00000000104651ff     NativeLib:ffunicode.obj
 0008:00000200       __A32D3D2C_minwindef@h     0000000010465200     NativeLib:ffunicode.obj
 0008:00000201       __7D798299_windef@h        0000000010465201     NativeLib:ffunicode.obj
 0008:00000202       __9AE108E9_apisetcconv@h   0000000010465202     NativeLib:ffunicode.obj
 0008:00000203       __9CE53D2C_minwinbase@h    0000000010465203     NativeLib:ffunicode.obj
 0008:00000204       __5D0AA210_apiquery2@h     0000000010465204     NativeLib:ffunicode.obj
 0008:00000205       __4DD4E726_processenv@h    0000000010465205     NativeLib:ffunicode.obj
 0008:00000206       __3575CC96_fileapi@h       0000000010465206     NativeLib:ffunicode.obj
 0008:00000207       __8EA220E6_fileapifromapp@h 0000000010465207     NativeLib:ffunicode.obj
 0008:00000208       __BF9B31FE_debugapi@h      0000000010465208     NativeLib:ffunicode.obj
 0008:00000209       __C3AFE134_utilapiset@h    0000000010465209     NativeLib:ffunicode.obj
 0008:0000020a       __76F69E51_handleapi@h     000000001046520a     NativeLib:ffunicode.obj
 0008:0000020b       __7E63D784_errhandlingapi@h 000000001046520b     NativeLib:ffunicode.obj
 0008:0000020c       __FFA7003C_fibersapi@h     000000001046520c     NativeLib:ffunicode.obj
 0008:0000020d       __8971CECF_namedpipeapi@h  000000001046520d     NativeLib:ffunicode.obj
 0008:0000020e       __46C9D8A6_profileapi@h    000000001046520e     NativeLib:ffunicode.obj
 0008:0000020f       __98D4F0A3_heapapi@h       000000001046520f     NativeLib:ffunicode.obj
 0008:00000210       __50EF2A88_ioapiset@h      0000000010465210     NativeLib:ffunicode.obj
 0008:00000211       __92EA1464_synchapi@h      0000000010465211     NativeLib:ffunicode.obj
 0008:00000212       __A53D8AED_interlockedapi@h 0000000010465212     NativeLib:ffunicode.obj
 0008:00000213       __B506CAAF_processthreadsapi@h 0000000010465213     NativeLib:ffunicode.obj
 0008:00000214       __FF735694_sysinfoapi@h    0000000010465214     NativeLib:ffunicode.obj
 0008:00000215       __29589789_memoryapi@h     0000000010465215     NativeLib:ffunicode.obj
 0008:00000216       __E9C7A663_enclaveapi@h    0000000010465216     NativeLib:ffunicode.obj
 0008:00000217       __D035F9F7_threadpoollegacyapiset@h 0000000010465217     NativeLib:ffunicode.obj
 0008:00000218       __C899130C_threadpoolapiset@h 0000000010465218     NativeLib:ffunicode.obj
 0008:00000219       __E0441EE7_jobapi@h        0000000010465219     NativeLib:ffunicode.obj
 0008:0000021a       __CEF86838_jobapi2@h       000000001046521a     NativeLib:ffunicode.obj
 0008:0000021b       __35AC6B9A_wow64apiset@h   000000001046521b     NativeLib:ffunicode.obj
 0008:0000021c       __C8AE41A5_libloaderapi@h  000000001046521c     NativeLib:ffunicode.obj
 0008:0000021d       __CC9E232D_securitybaseapi@h 000000001046521d     NativeLib:ffunicode.obj
 0008:0000021e       __C9D0C9B8_namespaceapi@h  000000001046521e     NativeLib:ffunicode.obj
 0008:0000021f       __30FF9CAD_systemtopologyapi@h 000000001046521f     NativeLib:ffunicode.obj
 0008:00000220       __4D358795_processtopologyapi@h 0000000010465220     NativeLib:ffunicode.obj
 0008:00000221       __40446D10_securityappcontainer@h 0000000010465221     NativeLib:ffunicode.obj
 0008:00000222       __3A952EDF_realtimeapiset@h 0000000010465222     NativeLib:ffunicode.obj
 0008:00000223       __F4865F4B_winerror@h      0000000010465223     NativeLib:ffunicode.obj
 0008:00000224       __53C1BD93_timezoneapi@h   0000000010465224     NativeLib:ffunicode.obj
 0008:00000225       __1FFBEDBF_winbase@h       0000000010465225     NativeLib:ffunicode.obj
 0008:00000226       __43D3FA34_wingdi@h        0000000010465226     NativeLib:ffunicode.obj
 0008:00000227       __D24A7391_tvout@h         0000000010465227     NativeLib:ffunicode.obj
 0008:00000228       __7713A6C8_winuser@h       0000000010465228     NativeLib:ffunicode.obj
 0008:00000229       __0B345F71_datetimeapi@h   0000000010465229     NativeLib:ffunicode.obj
 0008:0000022a       __9AC6960C_winnls@h        000000001046522a     NativeLib:ffunicode.obj
 0008:0000022b       __973A40A8_stringapiset@h  000000001046522b     NativeLib:ffunicode.obj
 0008:0000022c       __CC46FEE2_wincontypes@h   000000001046522c     NativeLib:ffunicode.obj
 0008:0000022d       __97D70BE1_consoleapi@h    000000001046522d     NativeLib:ffunicode.obj
 0008:0000022e       __27EC5E18_consoleapi2@h   000000001046522e     NativeLib:ffunicode.obj
 0008:0000022f       __262E342F_consoleapi3@h   000000001046522f     NativeLib:ffunicode.obj
 0008:00000230       __641DCD70_wincon@h        0000000010465230     NativeLib:ffunicode.obj
 0008:00000231       __5A96C7A7_verrsrc@h       0000000010465231     NativeLib:ffunicode.obj
 0008:00000232       __B69C6FF2_winver@h        0000000010465232     NativeLib:ffunicode.obj
 0008:00000233       __7AEB8C37_reason@h        0000000010465233     NativeLib:ffunicode.obj
 0008:00000234       __59F1A8A9_winreg@h        0000000010465234     NativeLib:ffunicode.obj
 0008:00000235       __EE0E2B7F_wnnc@h          0000000010465235     NativeLib:ffunicode.obj
 0008:00000236       __DCDB7054_winnetwk@h      0000000010465236     NativeLib:ffunicode.obj
 0008:00000237       __EDC72EEB_cderr@h         0000000010465237     NativeLib:ffunicode.obj
 0008:00000238       __95F9199D_dde@h           0000000010465238     NativeLib:ffunicode.obj
 0008:00000239       __66427627_ddeml@h         0000000010465239     NativeLib:ffunicode.obj
 0008:0000023a       __957C29A0_dlgs@h          000000001046523a     NativeLib:ffunicode.obj
 0008:0000023b       __12EA15AF_lzexpand@h      000000001046523b     NativeLib:ffunicode.obj
 0008:0000023c       __62131F15_mmsyscom@h      000000001046523c     NativeLib:ffunicode.obj
 0008:0000023d       __47E68D49_mciapi@h        000000001046523d     NativeLib:ffunicode.obj
 0008:0000023e       __5D7DD356_mmiscapi@h      000000001046523e     NativeLib:ffunicode.obj
 0008:0000023f       __7223D2EF_mmiscapi2@h     000000001046523f     NativeLib:ffunicode.obj
 0008:00000240       __A330DBB3_playsoundapi@h  0000000010465240     NativeLib:ffunicode.obj
 0008:00000241       __601B366F_mmeapi@h        0000000010465241     NativeLib:ffunicode.obj
 0008:00000242       __1134ADD5_timeapi@h       0000000010465242     NativeLib:ffunicode.obj
 0008:00000243       __93F2265A_joystickapi@h   0000000010465243     NativeLib:ffunicode.obj
 0008:00000244       __DF6EB4E3_mmsystem@h      0000000010465244     NativeLib:ffunicode.obj
 0008:00000245       __BD641FCB_nb30@h          0000000010465245     NativeLib:ffunicode.obj
 0008:00000246       __DF8704F0_rpcdcep@h       0000000010465246     NativeLib:ffunicode.obj
 0008:00000247       __5C6CA7BB_rpcdce@h        0000000010465247     NativeLib:ffunicode.obj
 0008:00000248       __853533C4_rpcnsi@h        0000000010465248     NativeLib:ffunicode.obj
 0008:00000249       __2D2406C3_rpcnterr@h      0000000010465249     NativeLib:ffunicode.obj
 0008:0000024a       __64521D71_rpcasync@h      000000001046524a     NativeLib:ffunicode.obj
 0008:0000024b       __AADCBA08_rpc@h           000000001046524b     NativeLib:ffunicode.obj
 0008:0000024c       __19E26CFF_shellapi@h      000000001046524c     NativeLib:ffunicode.obj
 0008:0000024d       __1E9F31D3_winperf@h       000000001046524d     NativeLib:ffunicode.obj
 0008:0000024e       __832A4112_inaddr@h        000000001046524e     NativeLib:ffunicode.obj
 0008:0000024f       __32C6F875_winsock@h       000000001046524f     NativeLib:ffunicode.obj
 0008:00000250       __7953A3F8_bcrypt@h        0000000010465250     NativeLib:ffunicode.obj
 0008:00000251       __E4169492_ncrypt@h        0000000010465251     NativeLib:ffunicode.obj
 0008:00000252       __AF3DDDC3_dpapi@h         0000000010465252     NativeLib:ffunicode.obj
 0008:00000253       __D1E23BF2_wincrypt@h      0000000010465253     NativeLib:ffunicode.obj
 0008:00000254       __82AB4779_winefs@h        0000000010465254     NativeLib:ffunicode.obj
 0008:00000255       __1FE431C9_rpcnsip@h       0000000010465255     NativeLib:ffunicode.obj
 0008:00000256       __2B741F2D_rpcsal@h        0000000010465256     NativeLib:ffunicode.obj
 0008:00000257       __92623256_rpcndr@h        0000000010465257     NativeLib:ffunicode.obj
 0008:00000258       __9C18532E_wtypesbase@h    0000000010465258     NativeLib:ffunicode.obj
 0008:00000259       __EA2E1D6D_wtypes@h        0000000010465259     NativeLib:ffunicode.obj
 0008:0000025a       __7DDD9F45_winioctl@h      000000001046525a     NativeLib:ffunicode.obj
 0008:0000025b       __E550A843_winsmcrd@h      000000001046525b     NativeLib:ffunicode.obj
 0008:0000025c       __9809C1BA_winscard@h      000000001046525c     NativeLib:ffunicode.obj
 0008:0000025d       __EA174FA4_prsht@h         000000001046525d     NativeLib:ffunicode.obj
 0008:0000025e       __0E1BD114_winspool@h      000000001046525e     NativeLib:ffunicode.obj
 0008:0000025f       __45DED006_corecrt_malloc@h 000000001046525f     NativeLib:ffunicode.obj
 0008:00000260       __13F5961F_stddef@h        0000000010465260     NativeLib:ffunicode.obj
 0008:00000261       __FD6DBD68_corecrt_search@h 0000000010465261     NativeLib:ffunicode.obj
 0008:00000262       __E2E33A61_corecrt_wstdlib@h 0000000010465262     NativeLib:ffunicode.obj
 0008:00000263       __10D4A829_limits@h        0000000010465263     NativeLib:ffunicode.obj
 0008:00000264       __6E5ACABA_stdlib@h        0000000010465264     NativeLib:ffunicode.obj
 0008:00000265       __30B1AFDA_unknwnbase@h    0000000010465265     NativeLib:ffunicode.obj
 0008:00000266       __328C1996_objidlbase@h    0000000010465266     NativeLib:ffunicode.obj
 0008:00000267       __C4E06B6A_cguid@h         0000000010465267     NativeLib:ffunicode.obj
 0008:00000268       __434718C5_combaseapi@h    0000000010465268     NativeLib:ffunicode.obj
 0008:00000269       __DE6FDEF1_unknwn@h        0000000010465269     NativeLib:ffunicode.obj
 0008:0000026a       __CCE0BACC_objidl@h        000000001046526a     NativeLib:ffunicode.obj
 0008:0000026b       __8C7011E5_oaidl@h         000000001046526b     NativeLib:ffunicode.obj
 0008:0000026c       __2E0B7863_propidlbase@h   000000001046526c     NativeLib:ffunicode.obj
 0008:0000026d       __BF4CF2EC_coml2api@h      000000001046526d     NativeLib:ffunicode.obj
 0008:0000026e       __6D897344_oleidl@h        000000001046526e     NativeLib:ffunicode.obj
 0008:0000026f       __1129FC2C_servprov@h      000000001046526f     NativeLib:ffunicode.obj
 0008:00000270       __757952E4_msxml@h         0000000010465270     NativeLib:ffunicode.obj
 0008:00000271       __B1191D53_urlmon@h        0000000010465271     NativeLib:ffunicode.obj
 0008:00000272       __404D1A47_propidl@h       0000000010465272     NativeLib:ffunicode.obj
 0008:00000273       __A1C63593_objbase@h       0000000010465273     NativeLib:ffunicode.obj
 0008:00000274       __C1B0A9CB_oleauto@h       0000000010465274     NativeLib:ffunicode.obj
 0008:00000275       __24EAF61F_ole2@h          0000000010465275     NativeLib:ffunicode.obj
 0008:00000276       __2B1843DA_commdlg@h       0000000010465276     NativeLib:ffunicode.obj
 0008:00000277       __81DDEDE3_stralign@h      0000000010465277     NativeLib:ffunicode.obj
 0008:00000278       __2134D1B4_winsvc@h        0000000010465278     NativeLib:ffunicode.obj
 0008:00000279       __11C07376_mcx@h           0000000010465279     NativeLib:ffunicode.obj
 0008:0000027a       __577CE3E7_ime_cmodes@h    000000001046527a     NativeLib:ffunicode.obj
 0008:0000027b       __1E72C31E_imm@h           000000001046527b     NativeLib:ffunicode.obj
 0008:0000027c       __E15BF856_windows@h       000000001046527c     NativeLib:ffunicode.obj
 0008:0000027d       __44420885_corecrt_stdio_config@h 000000001046527d     NativeLib:ffunicode.obj
 0008:0000027e       __EF1F6BBA_corecrt_wconio@h 000000001046527e     NativeLib:ffunicode.obj
 0008:0000027f       __3D1D430C_corecrt_wdirect@h 000000001046527f     NativeLib:ffunicode.obj
 0008:00000280       __8ECB7138_corecrt_share@h 0000000010465280     NativeLib:ffunicode.obj
 0008:00000281       __DB7FEBA6_corecrt_wio@h   0000000010465281     NativeLib:ffunicode.obj
 0008:00000282       __9A9F0068_corecrt_wprocess@h 0000000010465282     NativeLib:ffunicode.obj
 0008:00000283       __AB601D8D_corecrt_wstdio@h 0000000010465283     NativeLib:ffunicode.obj
 0008:00000284       __369A9BC3_corecrt_wtime@h 0000000010465284     NativeLib:ffunicode.obj
 0008:00000285       __CE789B9D_types@h         0000000010465285     NativeLib:ffunicode.obj
 0008:00000286       __9901C817_stat@h          0000000010465286     NativeLib:ffunicode.obj
 0008:00000287       __3FCAD62E_wchar@h         0000000010465287     NativeLib:ffunicode.obj
 0008:00000288       __0E22CCB3_tchar@h         0000000010465288     NativeLib:ffunicode.obj
 0008:00000289       __4CCC6929_integer@h       0000000010465289     NativeLib:ffunicode.obj
 0008:0000028a       __ED2A062E_ffconf@h        000000001046528a     NativeLib:ffunicode.obj
 0008:0000028b       __A5A085C2_ff@h            000000001046528b     NativeLib:ffunicode.obj
 0008:0000028c       __87CD6F4B_ffunicode@c     000000001046528c     NativeLib:ffunicode.obj
 0008:0000028d       __0ED14FEE_winpackagefamily@h 000000001046528d     NativeLib:diskio.obj
 0008:0000028e       __F92EF742_winapifamily@h  000000001046528e     NativeLib:diskio.obj
 0008:0000028f       __22E515EB_sdkddkver@h     000000001046528f     NativeLib:diskio.obj
 0008:00000290       __FE09AF47_concurrencysal@h 0000000010465290     NativeLib:diskio.obj
 0008:00000291       __C073CA79_sal@h           0000000010465291     NativeLib:diskio.obj
 0008:00000292       __D6AFE870_vadefs@h        0000000010465292     NativeLib:diskio.obj
 0008:00000293       __D63E96CF_vcruntime@h     0000000010465293     NativeLib:diskio.obj
 0008:00000294       __514B86D7_excpt@h         0000000010465294     NativeLib:diskio.obj
 0008:00000295       __9A7D38D9_stdarg@h        0000000010465295     NativeLib:diskio.obj
 0008:00000296       __29F49F40_specstrings_undef@h 0000000010465296     NativeLib:diskio.obj
 0008:00000297       __D0F42932_specstrings_strict@h 0000000010465297     NativeLib:diskio.obj
 0008:00000298       __F00405FD_sdv_driverspecs@h 0000000010465298     NativeLib:diskio.obj
 0008:00000299       __173E09CA_driverspecs@h   0000000010465299     NativeLib:diskio.obj
 0008:0000029a       __9A452361_specstrings@h   000000001046529a     NativeLib:diskio.obj
 0008:0000029b       __1B0272D9_corecrt@h       000000001046529b     NativeLib:diskio.obj
 0008:0000029c       __74484FB3_corecrt_wctype@h 000000001046529c     NativeLib:diskio.obj
 0008:0000029d       __1EC467ED_ctype@h         000000001046529d     NativeLib:diskio.obj
 0008:0000029e       __98517906_kernelspecs@h   000000001046529e     NativeLib:diskio.obj
 0008:0000029f       __D3497022_basetsd@h       000000001046529f     NativeLib:diskio.obj
 0008:000002a0       __61CC25A1_errno@h         00000000104652a0     NativeLib:diskio.obj
 0008:000002a1       __3EADF068_vcruntime_string@h 00000000104652a1     NativeLib:diskio.obj
 0008:000002a2       __E4C945B4_corecrt_memcpy_s@h 00000000104652a2     NativeLib:diskio.obj
 0008:000002a3       __8EAFF484_corecrt_memory@h 00000000104652a3     NativeLib:diskio.obj
 0008:000002a4       __6490AEC5_corecrt_wstring@h 00000000104652a4     NativeLib:diskio.obj
 0008:000002a5       __E8295E1E_string@h        00000000104652a5     NativeLib:diskio.obj
 0008:000002a6       __7FCB5136_guiddef@h       00000000104652a6     NativeLib:diskio.obj
 0008:000002a7       __FF8A9E11_pshpack4@h      00000000104652a7     NativeLib:diskio.obj
 0008:000002a8       __D5438902_poppack@h       00000000104652a8     NativeLib:diskio.obj
 0008:000002a9       __FB07E2A3_pshpack2@h      00000000104652a9     NativeLib:diskio.obj
 0008:000002aa       __F6906775_pshpack8@h      00000000104652aa     NativeLib:diskio.obj
 0008:000002ab       __F9415CFA_pshpack1@h      00000000104652ab     NativeLib:diskio.obj
 0008:000002ac       __E58C6F1C_apiset@h        00000000104652ac     NativeLib:diskio.obj
 0008:000002ad       __A5C52262_ktmtypes@h      00000000104652ad     NativeLib:diskio.obj
 0008:000002ae       __FBBA8F9D_winnt@h         00000000104652ae     NativeLib:diskio.obj
 0008:000002af       __A32D3D2C_minwindef@h     00000000104652af     NativeLib:diskio.obj
 0008:000002b0       __7D798299_windef@h        00000000104652b0     NativeLib:diskio.obj
 0008:000002b1       __9AE108E9_apisetcconv@h   00000000104652b1     NativeLib:diskio.obj
 0008:000002b2       __9CE53D2C_minwinbase@h    00000000104652b2     NativeLib:diskio.obj
 0008:000002b3       __5D0AA210_apiquery2@h     00000000104652b3     NativeLib:diskio.obj
 0008:000002b4       __4DD4E726_processenv@h    00000000104652b4     NativeLib:diskio.obj
 0008:000002b5       __3575CC96_fileapi@h       00000000104652b5     NativeLib:diskio.obj
 0008:000002b6       __8EA220E6_fileapifromapp@h 00000000104652b6     NativeLib:diskio.obj
 0008:000002b7       __BF9B31FE_debugapi@h      00000000104652b7     NativeLib:diskio.obj
 0008:000002b8       __C3AFE134_utilapiset@h    00000000104652b8     NativeLib:diskio.obj
 0008:000002b9       __76F69E51_handleapi@h     00000000104652b9     NativeLib:diskio.obj
 0008:000002ba       __7E63D784_errhandlingapi@h 00000000104652ba     NativeLib:diskio.obj
 0008:000002bb       __FFA7003C_fibersapi@h     00000000104652bb     NativeLib:diskio.obj
 0008:000002bc       __8971CECF_namedpipeapi@h  00000000104652bc     NativeLib:diskio.obj
 0008:000002bd       __46C9D8A6_profileapi@h    00000000104652bd     NativeLib:diskio.obj
 0008:000002be       __98D4F0A3_heapapi@h       00000000104652be     NativeLib:diskio.obj
 0008:000002bf       __50EF2A88_ioapiset@h      00000000104652bf     NativeLib:diskio.obj
 0008:000002c0       __92EA1464_synchapi@h      00000000104652c0     NativeLib:diskio.obj
 0008:000002c1       __A53D8AED_interlockedapi@h 00000000104652c1     NativeLib:diskio.obj
 0008:000002c2       __B506CAAF_processthreadsapi@h 00000000104652c2     NativeLib:diskio.obj
 0008:000002c3       __FF735694_sysinfoapi@h    00000000104652c3     NativeLib:diskio.obj
 0008:000002c4       __29589789_memoryapi@h     00000000104652c4     NativeLib:diskio.obj
 0008:000002c5       __E9C7A663_enclaveapi@h    00000000104652c5     NativeLib:diskio.obj
 0008:000002c6       __D035F9F7_threadpoollegacyapiset@h 00000000104652c6     NativeLib:diskio.obj
 0008:000002c7       __C899130C_threadpoolapiset@h 00000000104652c7     NativeLib:diskio.obj
 0008:000002c8       __E0441EE7_jobapi@h        00000000104652c8     NativeLib:diskio.obj
 0008:000002c9       __CEF86838_jobapi2@h       00000000104652c9     NativeLib:diskio.obj
 0008:000002ca       __35AC6B9A_wow64apiset@h   00000000104652ca     NativeLib:diskio.obj
 0008:000002cb       __C8AE41A5_libloaderapi@h  00000000104652cb     NativeLib:diskio.obj
 0008:000002cc       __CC9E232D_securitybaseapi@h 00000000104652cc     NativeLib:diskio.obj
 0008:000002cd       __C9D0C9B8_namespaceapi@h  00000000104652cd     NativeLib:diskio.obj
 0008:000002ce       __30FF9CAD_systemtopologyapi@h 00000000104652ce     NativeLib:diskio.obj
 0008:000002cf       __4D358795_processtopologyapi@h 00000000104652cf     NativeLib:diskio.obj
 0008:000002d0       __40446D10_securityappcontainer@h 00000000104652d0     NativeLib:diskio.obj
 0008:000002d1       __3A952EDF_realtimeapiset@h 00000000104652d1     NativeLib:diskio.obj
 0008:000002d2       __F4865F4B_winerror@h      00000000104652d2     NativeLib:diskio.obj
 0008:000002d3       __53C1BD93_timezoneapi@h   00000000104652d3     NativeLib:diskio.obj
 0008:000002d4       __1FFBEDBF_winbase@h       00000000104652d4     NativeLib:diskio.obj
 0008:000002d5       __43D3FA34_wingdi@h        00000000104652d5     NativeLib:diskio.obj
 0008:000002d6       __D24A7391_tvout@h         00000000104652d6     NativeLib:diskio.obj
 0008:000002d7       __7713A6C8_winuser@h       00000000104652d7     NativeLib:diskio.obj
 0008:000002d8       __0B345F71_datetimeapi@h   00000000104652d8     NativeLib:diskio.obj
 0008:000002d9       __9AC6960C_winnls@h        00000000104652d9     NativeLib:diskio.obj
 0008:000002da       __973A40A8_stringapiset@h  00000000104652da     NativeLib:diskio.obj
 0008:000002db       __CC46FEE2_wincontypes@h   00000000104652db     NativeLib:diskio.obj
 0008:000002dc       __97D70BE1_consoleapi@h    00000000104652dc     NativeLib:diskio.obj
 0008:000002dd       __27EC5E18_consoleapi2@h   00000000104652dd     NativeLib:diskio.obj
 0008:000002de       __262E342F_consoleapi3@h   00000000104652de     NativeLib:diskio.obj
 0008:000002df       __641DCD70_wincon@h        00000000104652df     NativeLib:diskio.obj
 0008:000002e0       __5A96C7A7_verrsrc@h       00000000104652e0     NativeLib:diskio.obj
 0008:000002e1       __B69C6FF2_winver@h        00000000104652e1     NativeLib:diskio.obj
 0008:000002e2       __7AEB8C37_reason@h        00000000104652e2     NativeLib:diskio.obj
 0008:000002e3       __59F1A8A9_winreg@h        00000000104652e3     NativeLib:diskio.obj
 0008:000002e4       __EE0E2B7F_wnnc@h          00000000104652e4     NativeLib:diskio.obj
 0008:000002e5       __DCDB7054_winnetwk@h      00000000104652e5     NativeLib:diskio.obj
 0008:000002e6       __EDC72EEB_cderr@h         00000000104652e6     NativeLib:diskio.obj
 0008:000002e7       __95F9199D_dde@h           00000000104652e7     NativeLib:diskio.obj
 0008:000002e8       __66427627_ddeml@h         00000000104652e8     NativeLib:diskio.obj
 0008:000002e9       __957C29A0_dlgs@h          00000000104652e9     NativeLib:diskio.obj
 0008:000002ea       __12EA15AF_lzexpand@h      00000000104652ea     NativeLib:diskio.obj
 0008:000002eb       __62131F15_mmsyscom@h      00000000104652eb     NativeLib:diskio.obj
 0008:000002ec       __47E68D49_mciapi@h        00000000104652ec     NativeLib:diskio.obj
 0008:000002ed       __5D7DD356_mmiscapi@h      00000000104652ed     NativeLib:diskio.obj
 0008:000002ee       __7223D2EF_mmiscapi2@h     00000000104652ee     NativeLib:diskio.obj
 0008:000002ef       __A330DBB3_playsoundapi@h  00000000104652ef     NativeLib:diskio.obj
 0008:000002f0       __601B366F_mmeapi@h        00000000104652f0     NativeLib:diskio.obj
 0008:000002f1       __1134ADD5_timeapi@h       00000000104652f1     NativeLib:diskio.obj
 0008:000002f2       __93F2265A_joystickapi@h   00000000104652f2     NativeLib:diskio.obj
 0008:000002f3       __DF6EB4E3_mmsystem@h      00000000104652f3     NativeLib:diskio.obj
 0008:000002f4       __BD641FCB_nb30@h          00000000104652f4     NativeLib:diskio.obj
 0008:000002f5       __DF8704F0_rpcdcep@h       00000000104652f5     NativeLib:diskio.obj
 0008:000002f6       __5C6CA7BB_rpcdce@h        00000000104652f6     NativeLib:diskio.obj
 0008:000002f7       __853533C4_rpcnsi@h        00000000104652f7     NativeLib:diskio.obj
 0008:000002f8       __2D2406C3_rpcnterr@h      00000000104652f8     NativeLib:diskio.obj
 0008:000002f9       __64521D71_rpcasync@h      00000000104652f9     NativeLib:diskio.obj
 0008:000002fa       __AADCBA08_rpc@h           00000000104652fa     NativeLib:diskio.obj
 0008:000002fb       __19E26CFF_shellapi@h      00000000104652fb     NativeLib:diskio.obj
 0008:000002fc       __1E9F31D3_winperf@h       00000000104652fc     NativeLib:diskio.obj
 0008:000002fd       __832A4112_inaddr@h        00000000104652fd     NativeLib:diskio.obj
 0008:000002fe       __32C6F875_winsock@h       00000000104652fe     NativeLib:diskio.obj
 0008:000002ff       __7953A3F8_bcrypt@h        00000000104652ff     NativeLib:diskio.obj
 0008:00000300       __E4169492_ncrypt@h        0000000010465300     NativeLib:diskio.obj
 0008:00000301       __AF3DDDC3_dpapi@h         0000000010465301     NativeLib:diskio.obj
 0008:00000302       __D1E23BF2_wincrypt@h      0000000010465302     NativeLib:diskio.obj
 0008:00000303       __82AB4779_winefs@h        0000000010465303     NativeLib:diskio.obj
 0008:00000304       __1FE431C9_rpcnsip@h       0000000010465304     NativeLib:diskio.obj
 0008:00000305       __2B741F2D_rpcsal@h        0000000010465305     NativeLib:diskio.obj
 0008:00000306       __92623256_rpcndr@h        0000000010465306     NativeLib:diskio.obj
 0008:00000307       __9C18532E_wtypesbase@h    0000000010465307     NativeLib:diskio.obj
 0008:00000308       __EA2E1D6D_wtypes@h        0000000010465308     NativeLib:diskio.obj
 0008:00000309       __7DDD9F45_winioctl@h      0000000010465309     NativeLib:diskio.obj
 0008:0000030a       __E550A843_winsmcrd@h      000000001046530a     NativeLib:diskio.obj
 0008:0000030b       __9809C1BA_winscard@h      000000001046530b     NativeLib:diskio.obj
 0008:0000030c       __EA174FA4_prsht@h         000000001046530c     NativeLib:diskio.obj
 0008:0000030d       __0E1BD114_winspool@h      000000001046530d     NativeLib:diskio.obj
 0008:0000030e       __45DED006_corecrt_malloc@h 000000001046530e     NativeLib:diskio.obj
 0008:0000030f       __13F5961F_stddef@h        000000001046530f     NativeLib:diskio.obj
 0008:00000310       __FD6DBD68_corecrt_search@h 0000000010465310     NativeLib:diskio.obj
 0008:00000311       __E2E33A61_corecrt_wstdlib@h 0000000010465311     NativeLib:diskio.obj
 0008:00000312       __10D4A829_limits@h        0000000010465312     NativeLib:diskio.obj
 0008:00000313       __6E5ACABA_stdlib@h        0000000010465313     NativeLib:diskio.obj
 0008:00000314       __30B1AFDA_unknwnbase@h    0000000010465314     NativeLib:diskio.obj
 0008:00000315       __328C1996_objidlbase@h    0000000010465315     NativeLib:diskio.obj
 0008:00000316       __C4E06B6A_cguid@h         0000000010465316     NativeLib:diskio.obj
 0008:00000317       __434718C5_combaseapi@h    0000000010465317     NativeLib:diskio.obj
 0008:00000318       __DE6FDEF1_unknwn@h        0000000010465318     NativeLib:diskio.obj
 0008:00000319       __CCE0BACC_objidl@h        0000000010465319     NativeLib:diskio.obj
 0008:0000031a       __8C7011E5_oaidl@h         000000001046531a     NativeLib:diskio.obj
 0008:0000031b       __2E0B7863_propidlbase@h   000000001046531b     NativeLib:diskio.obj
 0008:0000031c       __BF4CF2EC_coml2api@h      000000001046531c     NativeLib:diskio.obj
 0008:0000031d       __6D897344_oleidl@h        000000001046531d     NativeLib:diskio.obj
 0008:0000031e       __1129FC2C_servprov@h      000000001046531e     NativeLib:diskio.obj
 0008:0000031f       __757952E4_msxml@h         000000001046531f     NativeLib:diskio.obj
 0008:00000320       __B1191D53_urlmon@h        0000000010465320     NativeLib:diskio.obj
 0008:00000321       __404D1A47_propidl@h       0000000010465321     NativeLib:diskio.obj
 0008:00000322       __A1C63593_objbase@h       0000000010465322     NativeLib:diskio.obj
 0008:00000323       __C1B0A9CB_oleauto@h       0000000010465323     NativeLib:diskio.obj
 0008:00000324       __24EAF61F_ole2@h          0000000010465324     NativeLib:diskio.obj
 0008:00000325       __2B1843DA_commdlg@h       0000000010465325     NativeLib:diskio.obj
 0008:00000326       __81DDEDE3_stralign@h      0000000010465326     NativeLib:diskio.obj
 0008:00000327       __2134D1B4_winsvc@h        0000000010465327     NativeLib:diskio.obj
 0008:00000328       __11C07376_mcx@h           0000000010465328     NativeLib:diskio.obj
 0008:00000329       __577CE3E7_ime_cmodes@h    0000000010465329     NativeLib:diskio.obj
 0008:0000032a       __1E72C31E_imm@h           000000001046532a     NativeLib:diskio.obj
 0008:0000032b       __E15BF856_windows@h       000000001046532b     NativeLib:diskio.obj
 0008:0000032c       __44420885_corecrt_stdio_config@h 000000001046532c     NativeLib:diskio.obj
 0008:0000032d       __EF1F6BBA_corecrt_wconio@h 000000001046532d     NativeLib:diskio.obj
 0008:0000032e       __3D1D430C_corecrt_wdirect@h 000000001046532e     NativeLib:diskio.obj
 0008:0000032f       __8ECB7138_corecrt_share@h 000000001046532f     NativeLib:diskio.obj
 0008:00000330       __DB7FEBA6_corecrt_wio@h   0000000010465330     NativeLib:diskio.obj
 0008:00000331       __9A9F0068_corecrt_wprocess@h 0000000010465331     NativeLib:diskio.obj
 0008:00000332       __AB601D8D_corecrt_wstdio@h 0000000010465332     NativeLib:diskio.obj
 0008:00000333       __369A9BC3_corecrt_wtime@h 0000000010465333     NativeLib:diskio.obj
 0008:00000334       __CE789B9D_types@h         0000000010465334     NativeLib:diskio.obj
 0008:00000335       __9901C817_stat@h          0000000010465335     NativeLib:diskio.obj
 0008:00000336       __3FCAD62E_wchar@h         0000000010465336     NativeLib:diskio.obj
 0008:00000337       __0E22CCB3_tchar@h         0000000010465337     NativeLib:diskio.obj
 0008:00000338       __4CCC6929_integer@h       0000000010465338     NativeLib:diskio.obj
 0008:00000339       __3D17D6D7_diskio@h        0000000010465339     NativeLib:diskio.obj
 0008:0000033a       __AAC50F5F_diskio@c        000000001046533a     NativeLib:diskio.obj
 0009:000000a0       $R000000                   00000000104660a0     guideXOS.res
 0009:000002f0       $R000250                   00000000104662f0     guideXOS.res
